
sketch_feb03a.elf:     file format elf32-avr

Sections:
Idx Name          Size      VMA       LMA       File off  Algn
  0 .data         00000a8a  00800200  00006bee  00006c82  2**0
                  CONTENTS, ALLOC, LOAD, DATA
  1 .text         00006bee  00000000  00000000  00000094  2**1
                  CONTENTS, ALLOC, LOAD, READONLY, CODE
  2 .bss          00000341  00800c8a  00800c8a  0000770c  2**0
                  ALLOC
  3 .comment      00000030  00000000  00000000  0000770c  2**0
                  CONTENTS, READONLY
  4 .note.gnu.avr.deviceinfo 00000040  00000000  00000000  0000773c  2**2
                  CONTENTS, READONLY
  5 .debug_aranges 00000ee8  00000000  00000000  0000777c  2**0
                  CONTENTS, READONLY, DEBUGGING
  6 .debug_info   000270e1  00000000  00000000  00008664  2**0
                  CONTENTS, READONLY, DEBUGGING
  7 .debug_abbrev 00005247  00000000  00000000  0002f745  2**0
                  CONTENTS, READONLY, DEBUGGING
  8 .debug_line   00008d3f  00000000  00000000  0003498c  2**0
                  CONTENTS, READONLY, DEBUGGING
  9 .debug_frame  00003d00  00000000  00000000  0003d6cc  2**2
                  CONTENTS, READONLY, DEBUGGING
 10 .debug_str    00004fde  00000000  00000000  000413cc  2**0
                  CONTENTS, READONLY, DEBUGGING
 11 .debug_loc    00018bf5  00000000  00000000  000463aa  2**0
                  CONTENTS, READONLY, DEBUGGING
 12 .debug_ranges 00001260  00000000  00000000  0005ef9f  2**0
                  CONTENTS, READONLY, DEBUGGING

Disassembly of section .text:

00000000 <__vectors>:
       0:	f0 c3       	rjmp	.+2016   	; 0x7e2 <__dtors_end>
       2:	00 00       	nop
       4:	0c 94 ba 2e 	jmp	0x5d74	; 0x5d74 <__vector_1>
       8:	0c 94 e5 2e 	jmp	0x5dca	; 0x5dca <__vector_2>
       c:	0c 94 10 2f 	jmp	0x5e20	; 0x5e20 <__vector_3>
      10:	0c 94 3b 2f 	jmp	0x5e76	; 0x5e76 <__vector_4>
      14:	0c 94 66 2f 	jmp	0x5ecc	; 0x5ecc <__vector_5>
      18:	0c 94 91 2f 	jmp	0x5f22	; 0x5f22 <__vector_6>
      1c:	0c 94 bc 2f 	jmp	0x5f78	; 0x5f78 <__vector_7>
      20:	0c 94 e7 2f 	jmp	0x5fce	; 0x5fce <__vector_8>
      24:	0f c4       	rjmp	.+2078   	; 0x844 <__bad_interrupt>
      26:	00 00       	nop
      28:	0d c4       	rjmp	.+2074   	; 0x844 <__bad_interrupt>
      2a:	00 00       	nop
      2c:	0b c4       	rjmp	.+2070   	; 0x844 <__bad_interrupt>
      2e:	00 00       	nop
      30:	09 c4       	rjmp	.+2066   	; 0x844 <__bad_interrupt>
      32:	00 00       	nop
      34:	07 c4       	rjmp	.+2062   	; 0x844 <__bad_interrupt>
      36:	00 00       	nop
      38:	05 c4       	rjmp	.+2058   	; 0x844 <__bad_interrupt>
      3a:	00 00       	nop
      3c:	03 c4       	rjmp	.+2054   	; 0x844 <__bad_interrupt>
      3e:	00 00       	nop
      40:	01 c4       	rjmp	.+2050   	; 0x844 <__bad_interrupt>
      42:	00 00       	nop
      44:	0c 94 3b 25 	jmp	0x4a76	; 0x4a76 <__vector_17>
      48:	fd c3       	rjmp	.+2042   	; 0x844 <__bad_interrupt>
      4a:	00 00       	nop
      4c:	fb c3       	rjmp	.+2038   	; 0x844 <__bad_interrupt>
      4e:	00 00       	nop
      50:	f9 c3       	rjmp	.+2034   	; 0x844 <__bad_interrupt>
      52:	00 00       	nop
      54:	f7 c3       	rjmp	.+2030   	; 0x844 <__bad_interrupt>
      56:	00 00       	nop
      58:	f5 c3       	rjmp	.+2026   	; 0x844 <__bad_interrupt>
      5a:	00 00       	nop
      5c:	0c 94 12 30 	jmp	0x6024	; 0x6024 <__vector_23>
      60:	f1 c3       	rjmp	.+2018   	; 0x844 <__bad_interrupt>
      62:	00 00       	nop
      64:	0c 94 ee 2a 	jmp	0x55dc	; 0x55dc <__vector_25>
      68:	0c 94 24 2b 	jmp	0x5648	; 0x5648 <__vector_26>
      6c:	eb c3       	rjmp	.+2006   	; 0x844 <__bad_interrupt>
      6e:	00 00       	nop
      70:	e9 c3       	rjmp	.+2002   	; 0x844 <__bad_interrupt>
      72:	00 00       	nop
      74:	e7 c3       	rjmp	.+1998   	; 0x844 <__bad_interrupt>
      76:	00 00       	nop
      78:	e5 c3       	rjmp	.+1994   	; 0x844 <__bad_interrupt>
      7a:	00 00       	nop
      7c:	e3 c3       	rjmp	.+1990   	; 0x844 <__bad_interrupt>
      7e:	00 00       	nop
      80:	e1 c3       	rjmp	.+1986   	; 0x844 <__bad_interrupt>
      82:	00 00       	nop
      84:	df c3       	rjmp	.+1982   	; 0x844 <__bad_interrupt>
      86:	00 00       	nop
      88:	dd c3       	rjmp	.+1978   	; 0x844 <__bad_interrupt>
      8a:	00 00       	nop
      8c:	db c3       	rjmp	.+1974   	; 0x844 <__bad_interrupt>
      8e:	00 00       	nop
      90:	d9 c3       	rjmp	.+1970   	; 0x844 <__bad_interrupt>
      92:	00 00       	nop
      94:	d7 c3       	rjmp	.+1966   	; 0x844 <__bad_interrupt>
      96:	00 00       	nop
      98:	d5 c3       	rjmp	.+1962   	; 0x844 <__bad_interrupt>
      9a:	00 00       	nop
      9c:	0c 94 f7 21 	jmp	0x43ee	; 0x43ee <__vector_39>
      a0:	d1 c3       	rjmp	.+1954   	; 0x844 <__bad_interrupt>
      a2:	00 00       	nop
      a4:	cf c3       	rjmp	.+1950   	; 0x844 <__bad_interrupt>
      a6:	00 00       	nop
      a8:	cd c3       	rjmp	.+1946   	; 0x844 <__bad_interrupt>
      aa:	00 00       	nop
      ac:	cb c3       	rjmp	.+1942   	; 0x844 <__bad_interrupt>
      ae:	00 00       	nop
      b0:	c9 c3       	rjmp	.+1938   	; 0x844 <__bad_interrupt>
      b2:	00 00       	nop
      b4:	c7 c3       	rjmp	.+1934   	; 0x844 <__bad_interrupt>
      b6:	00 00       	nop
      b8:	c5 c3       	rjmp	.+1930   	; 0x844 <__bad_interrupt>
      ba:	00 00       	nop
      bc:	c3 c3       	rjmp	.+1926   	; 0x844 <__bad_interrupt>
      be:	00 00       	nop
      c0:	c1 c3       	rjmp	.+1922   	; 0x844 <__bad_interrupt>
      c2:	00 00       	nop
      c4:	bf c3       	rjmp	.+1918   	; 0x844 <__bad_interrupt>
      c6:	00 00       	nop
      c8:	bd c3       	rjmp	.+1914   	; 0x844 <__bad_interrupt>
      ca:	00 00       	nop
      cc:	0c 94 83 2b 	jmp	0x5706	; 0x5706 <__vector_51>
      d0:	0c 94 b9 2b 	jmp	0x5772	; 0x5772 <__vector_52>
      d4:	b7 c3       	rjmp	.+1902   	; 0x844 <__bad_interrupt>
      d6:	00 00       	nop
      d8:	b5 c3       	rjmp	.+1898   	; 0x844 <__bad_interrupt>
      da:	00 00       	nop
      dc:	b3 c3       	rjmp	.+1894   	; 0x844 <__bad_interrupt>
      de:	00 00       	nop
      e0:	b1 c3       	rjmp	.+1890   	; 0x844 <__bad_interrupt>
      e2:	00 00       	nop
      e4:	05 a8       	ldd	r0, Z+53	; 0x35
      e6:	4c cd       	rjmp	.-1384   	; 0xfffffb80 <__eeprom_end+0xff7efb80>
      e8:	b2 d4       	rcall	.+2404   	; 0xa4e <_ZN12Adafruit_GFX13drawFastVLineEiiij+0x4c>
      ea:	4e b9       	out	0x0e, r20	; 14
      ec:	38 36       	cpi	r19, 0x68	; 104
      ee:	a9 02       	muls	r26, r25
      f0:	0c 50       	subi	r16, 0x0C	; 12
      f2:	b9 91       	ld	r27, Y+
      f4:	86 88       	ldd	r8, Z+22	; 0x16
      f6:	08 3c       	cpi	r16, 0xC8	; 200
      f8:	a6 aa       	std	Z+54, r10	; 0x36
      fa:	aa 2a       	or	r10, r26
      fc:	be 00       	.word	0x00be	; ????
      fe:	00 00       	nop
     100:	80 3f       	cpi	r24, 0xF0	; 240
     102:	07 63       	ori	r16, 0x37	; 55
     104:	42 36       	cpi	r20, 0x62	; 98
     106:	b7 9b       	sbis	0x16, 7	; 22
     108:	d8 a7       	std	Y+40, r29	; 0x28
     10a:	1a 39       	cpi	r17, 0x9A	; 154
     10c:	68 56       	subi	r22, 0x68	; 104
     10e:	18 ae       	std	Y+56, r1	; 0x38
     110:	ba ab       	std	Y+50, r27	; 0x32
     112:	55 8c       	ldd	r5, Z+29	; 0x1d
     114:	1d 3c       	cpi	r17, 0xCD	; 205
     116:	b7 cc       	rjmp	.-1682   	; 0xfffffa86 <__eeprom_end+0xff7efa86>
     118:	57 63       	ori	r21, 0x37	; 55
     11a:	bd 6d       	ori	r27, 0xDD	; 221
     11c:	ed fd       	.word	0xfded	; ????
     11e:	75 3e       	cpi	r23, 0xE5	; 229
     120:	f6 17       	cp	r31, r22
     122:	72 31       	cpi	r23, 0x12	; 18
     124:	bf 00       	.word	0x00bf	; ????
     126:	00 00       	nop
     128:	80 3f       	cpi	r24, 0xF0	; 240
     12a:	08 00       	.word	0x0008	; ????
     12c:	00 00       	nop
     12e:	be 92       	st	-X, r11
     130:	24 49       	sbci	r18, 0x94	; 148
     132:	12 3e       	cpi	r17, 0xE2	; 226
     134:	ab aa       	std	Y+51, r10	; 0x33
     136:	aa 2a       	or	r10, r26
     138:	be cd       	rjmp	.-1156   	; 0xfffffcb6 <__eeprom_end+0xff7efcb6>
     13a:	cc cc       	rjmp	.-1640   	; 0xfffffad4 <__eeprom_end+0xff7efad4>
     13c:	4c 3e       	cpi	r20, 0xEC	; 236
     13e:	00 00       	nop
     140:	00 80       	ld	r0, Z
     142:	be ab       	std	Y+54, r27	; 0x36
     144:	aa aa       	std	Y+50, r10	; 0x32
     146:	aa 3e       	cpi	r26, 0xEA	; 234
     148:	00 00       	nop
     14a:	00 00       	nop
     14c:	bf 00       	.word	0x00bf	; ????
     14e:	00 00       	nop
     150:	80 3f       	cpi	r24, 0xF0	; 240
     152:	00 00       	nop
     154:	00 00       	nop
     156:	00 08       	sbc	r0, r0
     158:	41 78       	andi	r20, 0x81	; 129
     15a:	d3 bb       	out	0x13, r29	; 19
     15c:	43 87       	std	Z+11, r20	; 0x0b
     15e:	d1 13       	cpse	r29, r17
     160:	3d 19       	sub	r19, r13
     162:	0e 3c       	cpi	r16, 0xCE	; 206
     164:	c3 bd       	out	0x23, r28	; 35
     166:	42 82       	std	Z+2, r4	; 0x02
     168:	ad 2b       	or	r26, r29
     16a:	3e 68       	ori	r19, 0x8E	; 142
     16c:	ec 82       	std	Y+4, r14	; 0x04
     16e:	76 be       	out	0x36, r7	; 54
     170:	d9 8f       	std	Y+25, r29	; 0x19
     172:	e1 a9       	ldd	r30, Z+49	; 0x31
     174:	3e 4c       	sbci	r19, 0xCE	; 206
     176:	80 ef       	ldi	r24, 0xF0	; 240
     178:	ff be       	out	0x3f, r15	; 63
     17a:	01 c4       	rjmp	.+2050   	; 0x97e <_ZN12Adafruit_GFX9writeLineEiiiij+0x130>
     17c:	ff 7f       	andi	r31, 0xFF	; 255
     17e:	3f 00       	.word	0x003f	; ????
     180:	00 00       	nop
     182:	00 00       	nop
     184:	94 2e       	mov	r9, r20
     186:	5e 2e       	mov	r5, r30
     188:	66 2e       	mov	r6, r22
     18a:	72 2e       	mov	r7, r18
     18c:	7f 2e       	mov	r7, r31
     18e:	a0 2e       	mov	r10, r16
     190:	ad 2e       	mov	r10, r29
     192:	4d 31       	cpi	r20, 0x1D	; 29
     194:	50 31       	cpi	r21, 0x10	; 16
     196:	3f 31       	cpi	r19, 0x1F	; 31
     198:	43 31       	cpi	r20, 0x13	; 19
     19a:	49 31       	cpi	r20, 0x19	; 25
     19c:	87 31       	cpi	r24, 0x17	; 23
     19e:	54 31       	cpi	r21, 0x14	; 20
     1a0:	58 31       	cpi	r21, 0x18	; 24
     1a2:	5e 31       	cpi	r21, 0x1E	; 30
     1a4:	62 31       	cpi	r22, 0x12	; 18
     1a6:	66 31       	cpi	r22, 0x16	; 22
     1a8:	6c 31       	cpi	r22, 0x1C	; 28
     1aa:	70 31       	cpi	r23, 0x10	; 16
     1ac:	74 31       	cpi	r23, 0x14	; 20
     1ae:	87 31       	cpi	r24, 0x17	; 23
     1b0:	7a 31       	cpi	r23, 0x1A	; 26
     1b2:	7e 31       	cpi	r23, 0x1E	; 30
     1b4:	82 31       	cpi	r24, 0x12	; 18

000001b6 <__trampolines_end>:
     1b6:	00 00       	nop
     1b8:	00 00       	nop
     1ba:	00 3e       	cpi	r16, 0xE0	; 224
     1bc:	5b 4f       	sbci	r21, 0xFB	; 251
     1be:	5b 3e       	cpi	r21, 0xEB	; 235
     1c0:	3e 6b       	ori	r19, 0xBE	; 190
     1c2:	4f 6b       	ori	r20, 0xBF	; 191
     1c4:	3e 1c       	adc	r3, r14
     1c6:	3e 7c       	andi	r19, 0xCE	; 206
     1c8:	3e 1c       	adc	r3, r14
     1ca:	18 3c       	cpi	r17, 0xC8	; 200
     1cc:	7e 3c       	cpi	r23, 0xCE	; 206
     1ce:	18 1c       	adc	r1, r8
     1d0:	57 7d       	andi	r21, 0xD7	; 215
     1d2:	57 1c       	adc	r5, r7
     1d4:	1c 5e       	subi	r17, 0xEC	; 236
     1d6:	7f 5e       	subi	r23, 0xEF	; 239
     1d8:	1c 00       	.word	0x001c	; ????
     1da:	18 3c       	cpi	r17, 0xC8	; 200
     1dc:	18 00       	.word	0x0018	; ????
     1de:	ff e7       	ldi	r31, 0x7F	; 127
     1e0:	c3 e7       	ldi	r28, 0x73	; 115
     1e2:	ff 00       	.word	0x00ff	; ????
     1e4:	18 24       	eor	r1, r8
     1e6:	18 00       	.word	0x0018	; ????
     1e8:	ff e7       	ldi	r31, 0x7F	; 127
     1ea:	db e7       	ldi	r29, 0x7B	; 123
     1ec:	ff 30       	cpi	r31, 0x0F	; 15
     1ee:	48 3a       	cpi	r20, 0xA8	; 168
     1f0:	06 0e       	add	r0, r22
     1f2:	26 29       	or	r18, r6
     1f4:	79 29       	or	r23, r9
     1f6:	26 40       	sbci	r18, 0x06	; 6
     1f8:	7f 05       	cpc	r23, r15
     1fa:	05 07       	cpc	r16, r21
     1fc:	40 7f       	andi	r20, 0xF0	; 240
     1fe:	05 25       	eor	r16, r5
     200:	3f 5a       	subi	r19, 0xAF	; 175
     202:	3c e7       	ldi	r19, 0x7C	; 124
     204:	3c 5a       	subi	r19, 0xAC	; 172
     206:	7f 3e       	cpi	r23, 0xEF	; 239
     208:	1c 1c       	adc	r1, r12
     20a:	08 08       	sbc	r0, r8
     20c:	1c 1c       	adc	r1, r12
     20e:	3e 7f       	andi	r19, 0xFE	; 254
     210:	14 22       	and	r1, r20
     212:	7f 22       	and	r7, r31
     214:	14 5f       	subi	r17, 0xF4	; 244
     216:	5f 00       	.word	0x005f	; ????
     218:	5f 5f       	subi	r21, 0xFF	; 255
     21a:	06 09       	sbc	r16, r6
     21c:	7f 01       	movw	r14, r30
     21e:	7f 00       	.word	0x007f	; ????
     220:	66 89       	ldd	r22, Z+22	; 0x16
     222:	95 6a       	ori	r25, 0xA5	; 165
     224:	60 60       	ori	r22, 0x00	; 0
     226:	60 60       	ori	r22, 0x00	; 0
     228:	60 94       	com	r6
     22a:	a2 ff       	sbrs	r26, 2
     22c:	a2 94       	swap	r10
     22e:	08 04       	cpc	r0, r8
     230:	7e 04       	cpc	r7, r14
     232:	08 10       	cpse	r0, r8
     234:	20 7e       	andi	r18, 0xE0	; 224
     236:	20 10       	cpse	r2, r0
     238:	08 08       	sbc	r0, r8
     23a:	2a 1c       	adc	r2, r10
     23c:	08 08       	sbc	r0, r8
     23e:	1c 2a       	or	r1, r28
     240:	08 08       	sbc	r0, r8
     242:	1e 10       	cpse	r1, r14
     244:	10 10       	cpse	r1, r0
     246:	10 0c       	add	r1, r0
     248:	1e 0c       	add	r1, r14
     24a:	1e 0c       	add	r1, r14
     24c:	30 38       	cpi	r19, 0x80	; 128
     24e:	3e 38       	cpi	r19, 0x8E	; 142
     250:	30 06       	cpc	r3, r16
     252:	0e 3e       	cpi	r16, 0xEE	; 238
     254:	0e 06       	cpc	r0, r30
     256:	00 00       	nop
     258:	00 00       	nop
     25a:	00 00       	nop
     25c:	00 5f       	subi	r16, 0xF0	; 240
     25e:	00 00       	nop
     260:	00 07       	cpc	r16, r16
     262:	00 07       	cpc	r16, r16
     264:	00 14       	cp	r0, r0
     266:	7f 14       	cp	r7, r15
     268:	7f 14       	cp	r7, r15
     26a:	24 2a       	or	r2, r20
     26c:	7f 2a       	or	r7, r31
     26e:	12 23       	and	r17, r18
     270:	13 08       	sbc	r1, r3
     272:	64 62       	ori	r22, 0x24	; 36
     274:	36 49       	sbci	r19, 0x96	; 150
     276:	56 20       	and	r5, r6
     278:	50 00       	.word	0x0050	; ????
     27a:	08 07       	cpc	r16, r24
     27c:	03 00       	.word	0x0003	; ????
     27e:	00 1c       	adc	r0, r0
     280:	22 41       	sbci	r18, 0x12	; 18
     282:	00 00       	nop
     284:	41 22       	and	r4, r17
     286:	1c 00       	.word	0x001c	; ????
     288:	2a 1c       	adc	r2, r10
     28a:	7f 1c       	adc	r7, r15
     28c:	2a 08       	sbc	r2, r10
     28e:	08 3e       	cpi	r16, 0xE8	; 232
     290:	08 08       	sbc	r0, r8
     292:	00 80       	ld	r0, Z
     294:	70 30       	cpi	r23, 0x00	; 0
     296:	00 08       	sbc	r0, r0
     298:	08 08       	sbc	r0, r8
     29a:	08 08       	sbc	r0, r8
     29c:	00 00       	nop
     29e:	60 60       	ori	r22, 0x00	; 0
     2a0:	00 20       	and	r0, r0
     2a2:	10 08       	sbc	r1, r0
     2a4:	04 02       	muls	r16, r20
     2a6:	3e 51       	subi	r19, 0x1E	; 30
     2a8:	49 45       	sbci	r20, 0x59	; 89
     2aa:	3e 00       	.word	0x003e	; ????
     2ac:	42 7f       	andi	r20, 0xF2	; 242
     2ae:	40 00       	.word	0x0040	; ????
     2b0:	72 49       	sbci	r23, 0x92	; 146
     2b2:	49 49       	sbci	r20, 0x99	; 153
     2b4:	46 21       	and	r20, r6
     2b6:	41 49       	sbci	r20, 0x91	; 145
     2b8:	4d 33       	cpi	r20, 0x3D	; 61
     2ba:	18 14       	cp	r1, r8
     2bc:	12 7f       	andi	r17, 0xF2	; 242
     2be:	10 27       	eor	r17, r16
     2c0:	45 45       	sbci	r20, 0x55	; 85
     2c2:	45 39       	cpi	r20, 0x95	; 149
     2c4:	3c 4a       	sbci	r19, 0xAC	; 172
     2c6:	49 49       	sbci	r20, 0x99	; 153
     2c8:	31 41       	sbci	r19, 0x11	; 17
     2ca:	21 11       	cpse	r18, r1
     2cc:	09 07       	cpc	r16, r25
     2ce:	36 49       	sbci	r19, 0x96	; 150
     2d0:	49 49       	sbci	r20, 0x99	; 153
     2d2:	36 46       	sbci	r19, 0x66	; 102
     2d4:	49 49       	sbci	r20, 0x99	; 153
     2d6:	29 1e       	adc	r2, r25
     2d8:	00 00       	nop
     2da:	14 00       	.word	0x0014	; ????
     2dc:	00 00       	nop
     2de:	40 34       	cpi	r20, 0x40	; 64
     2e0:	00 00       	nop
     2e2:	00 08       	sbc	r0, r0
     2e4:	14 22       	and	r1, r20
     2e6:	41 14       	cp	r4, r1
     2e8:	14 14       	cp	r1, r4
     2ea:	14 14       	cp	r1, r4
     2ec:	00 41       	sbci	r16, 0x10	; 16
     2ee:	22 14       	cp	r2, r2
     2f0:	08 02       	muls	r16, r24
     2f2:	01 59       	subi	r16, 0x91	; 145
     2f4:	09 06       	cpc	r0, r25
     2f6:	3e 41       	sbci	r19, 0x1E	; 30
     2f8:	5d 59       	subi	r21, 0x9D	; 157
     2fa:	4e 7c       	andi	r20, 0xCE	; 206
     2fc:	12 11       	cpse	r17, r2
     2fe:	12 7c       	andi	r17, 0xC2	; 194
     300:	7f 49       	sbci	r23, 0x9F	; 159
     302:	49 49       	sbci	r20, 0x99	; 153
     304:	36 3e       	cpi	r19, 0xE6	; 230
     306:	41 41       	sbci	r20, 0x11	; 17
     308:	41 22       	and	r4, r17
     30a:	7f 41       	sbci	r23, 0x1F	; 31
     30c:	41 41       	sbci	r20, 0x11	; 17
     30e:	3e 7f       	andi	r19, 0xFE	; 254
     310:	49 49       	sbci	r20, 0x99	; 153
     312:	49 41       	sbci	r20, 0x19	; 25
     314:	7f 09       	sbc	r23, r15
     316:	09 09       	sbc	r16, r9
     318:	01 3e       	cpi	r16, 0xE1	; 225
     31a:	41 41       	sbci	r20, 0x11	; 17
     31c:	51 73       	andi	r21, 0x31	; 49
     31e:	7f 08       	sbc	r7, r15
     320:	08 08       	sbc	r0, r8
     322:	7f 00       	.word	0x007f	; ????
     324:	41 7f       	andi	r20, 0xF1	; 241
     326:	41 00       	.word	0x0041	; ????
     328:	20 40       	sbci	r18, 0x00	; 0
     32a:	41 3f       	cpi	r20, 0xF1	; 241
     32c:	01 7f       	andi	r16, 0xF1	; 241
     32e:	08 14       	cp	r0, r8
     330:	22 41       	sbci	r18, 0x12	; 18
     332:	7f 40       	sbci	r23, 0x0F	; 15
     334:	40 40       	sbci	r20, 0x00	; 0
     336:	40 7f       	andi	r20, 0xF0	; 240
     338:	02 1c       	adc	r0, r2
     33a:	02 7f       	andi	r16, 0xF2	; 242
     33c:	7f 04       	cpc	r7, r15
     33e:	08 10       	cpse	r0, r8
     340:	7f 3e       	cpi	r23, 0xEF	; 239
     342:	41 41       	sbci	r20, 0x11	; 17
     344:	41 3e       	cpi	r20, 0xE1	; 225
     346:	7f 09       	sbc	r23, r15
     348:	09 09       	sbc	r16, r9
     34a:	06 3e       	cpi	r16, 0xE6	; 230
     34c:	41 51       	subi	r20, 0x11	; 17
     34e:	21 5e       	subi	r18, 0xE1	; 225
     350:	7f 09       	sbc	r23, r15
     352:	19 29       	or	r17, r9
     354:	46 26       	eor	r4, r22
     356:	49 49       	sbci	r20, 0x99	; 153
     358:	49 32       	cpi	r20, 0x29	; 41
     35a:	03 01       	movw	r0, r6
     35c:	7f 01       	movw	r14, r30
     35e:	03 3f       	cpi	r16, 0xF3	; 243
     360:	40 40       	sbci	r20, 0x00	; 0
     362:	40 3f       	cpi	r20, 0xF0	; 240
     364:	1f 20       	and	r1, r15
     366:	40 20       	and	r4, r0
     368:	1f 3f       	cpi	r17, 0xFF	; 255
     36a:	40 38       	cpi	r20, 0x80	; 128
     36c:	40 3f       	cpi	r20, 0xF0	; 240
     36e:	63 14       	cp	r6, r3
     370:	08 14       	cp	r0, r8
     372:	63 03       	mulsu	r22, r19
     374:	04 78       	andi	r16, 0x84	; 132
     376:	04 03       	mulsu	r16, r20
     378:	61 59       	subi	r22, 0x91	; 145
     37a:	49 4d       	sbci	r20, 0xD9	; 217
     37c:	43 00       	.word	0x0043	; ????
     37e:	7f 41       	sbci	r23, 0x1F	; 31
     380:	41 41       	sbci	r20, 0x11	; 17
     382:	02 04       	cpc	r0, r2
     384:	08 10       	cpse	r0, r8
     386:	20 00       	.word	0x0020	; ????
     388:	41 41       	sbci	r20, 0x11	; 17
     38a:	41 7f       	andi	r20, 0xF1	; 241
     38c:	04 02       	muls	r16, r20
     38e:	01 02       	muls	r16, r17
     390:	04 40       	sbci	r16, 0x04	; 4
     392:	40 40       	sbci	r20, 0x00	; 0
     394:	40 40       	sbci	r20, 0x00	; 0
     396:	00 03       	mulsu	r16, r16
     398:	07 08       	sbc	r0, r7
     39a:	00 20       	and	r0, r0
     39c:	54 54       	subi	r21, 0x44	; 68
     39e:	78 40       	sbci	r23, 0x08	; 8
     3a0:	7f 28       	or	r7, r15
     3a2:	44 44       	sbci	r20, 0x44	; 68
     3a4:	38 38       	cpi	r19, 0x88	; 136
     3a6:	44 44       	sbci	r20, 0x44	; 68
     3a8:	44 28       	or	r4, r4
     3aa:	38 44       	sbci	r19, 0x48	; 72
     3ac:	44 28       	or	r4, r4
     3ae:	7f 38       	cpi	r23, 0x8F	; 143
     3b0:	54 54       	subi	r21, 0x44	; 68
     3b2:	54 18       	sub	r5, r4
     3b4:	00 08       	sbc	r0, r0
     3b6:	7e 09       	sbc	r23, r14
     3b8:	02 18       	sub	r0, r2
     3ba:	a4 a4       	ldd	r10, Z+44	; 0x2c
     3bc:	9c 78       	andi	r25, 0x8C	; 140
     3be:	7f 08       	sbc	r7, r15
     3c0:	04 04       	cpc	r0, r4
     3c2:	78 00       	.word	0x0078	; ????
     3c4:	44 7d       	andi	r20, 0xD4	; 212
     3c6:	40 00       	.word	0x0040	; ????
     3c8:	20 40       	sbci	r18, 0x00	; 0
     3ca:	40 3d       	cpi	r20, 0xD0	; 208
     3cc:	00 7f       	andi	r16, 0xF0	; 240
     3ce:	10 28       	or	r1, r0
     3d0:	44 00       	.word	0x0044	; ????
     3d2:	00 41       	sbci	r16, 0x10	; 16
     3d4:	7f 40       	sbci	r23, 0x0F	; 15
     3d6:	00 7c       	andi	r16, 0xC0	; 192
     3d8:	04 78       	andi	r16, 0x84	; 132
     3da:	04 78       	andi	r16, 0x84	; 132
     3dc:	7c 08       	sbc	r7, r12
     3de:	04 04       	cpc	r0, r4
     3e0:	78 38       	cpi	r23, 0x88	; 136
     3e2:	44 44       	sbci	r20, 0x44	; 68
     3e4:	44 38       	cpi	r20, 0x84	; 132
     3e6:	fc 18       	sub	r15, r12
     3e8:	24 24       	eor	r2, r4
     3ea:	18 18       	sub	r1, r8
     3ec:	24 24       	eor	r2, r4
     3ee:	18 fc       	.word	0xfc18	; ????
     3f0:	7c 08       	sbc	r7, r12
     3f2:	04 04       	cpc	r0, r4
     3f4:	08 48       	sbci	r16, 0x88	; 136
     3f6:	54 54       	subi	r21, 0x44	; 68
     3f8:	54 24       	eor	r5, r4
     3fa:	04 04       	cpc	r0, r4
     3fc:	3f 44       	sbci	r19, 0x4F	; 79
     3fe:	24 3c       	cpi	r18, 0xC4	; 196
     400:	40 40       	sbci	r20, 0x00	; 0
     402:	20 7c       	andi	r18, 0xC0	; 192
     404:	1c 20       	and	r1, r12
     406:	40 20       	and	r4, r0
     408:	1c 3c       	cpi	r17, 0xCC	; 204
     40a:	40 30       	cpi	r20, 0x00	; 0
     40c:	40 3c       	cpi	r20, 0xC0	; 192
     40e:	44 28       	or	r4, r4
     410:	10 28       	or	r1, r0
     412:	44 4c       	sbci	r20, 0xC4	; 196
     414:	90 90 90 7c 	lds	r9, 0x7C90	; 0x807c90 <__bss_end+0x6cc5>
     418:	44 64       	ori	r20, 0x44	; 68
     41a:	54 4c       	sbci	r21, 0xC4	; 196
     41c:	44 00       	.word	0x0044	; ????
     41e:	08 36       	cpi	r16, 0x68	; 104
     420:	41 00       	.word	0x0041	; ????
     422:	00 00       	nop
     424:	77 00       	.word	0x0077	; ????
     426:	00 00       	nop
     428:	41 36       	cpi	r20, 0x61	; 97
     42a:	08 00       	.word	0x0008	; ????
     42c:	02 01       	movw	r0, r4
     42e:	02 04       	cpc	r0, r2
     430:	02 3c       	cpi	r16, 0xC2	; 194
     432:	26 23       	and	r18, r22
     434:	26 3c       	cpi	r18, 0xC6	; 198
     436:	1e a1       	ldd	r17, Y+38	; 0x26
     438:	a1 61       	ori	r26, 0x11	; 17
     43a:	12 3a       	cpi	r17, 0xA2	; 162
     43c:	40 40       	sbci	r20, 0x00	; 0
     43e:	20 7a       	andi	r18, 0xA0	; 160
     440:	38 54       	subi	r19, 0x48	; 72
     442:	54 55       	subi	r21, 0x54	; 84
     444:	59 21       	and	r21, r9
     446:	55 55       	subi	r21, 0x55	; 85
     448:	79 41       	sbci	r23, 0x19	; 25
     44a:	22 54       	subi	r18, 0x42	; 66
     44c:	54 78       	andi	r21, 0x84	; 132
     44e:	42 21       	and	r20, r2
     450:	55 54       	subi	r21, 0x45	; 69
     452:	78 40       	sbci	r23, 0x08	; 8
     454:	20 54       	subi	r18, 0x40	; 64
     456:	55 79       	andi	r21, 0x95	; 149
     458:	40 0c       	add	r4, r0
     45a:	1e 52       	subi	r17, 0x2E	; 46
     45c:	72 12       	cpse	r7, r18
     45e:	39 55       	subi	r19, 0x59	; 89
     460:	55 55       	subi	r21, 0x55	; 85
     462:	59 39       	cpi	r21, 0x99	; 153
     464:	54 54       	subi	r21, 0x44	; 68
     466:	54 59       	subi	r21, 0x94	; 148
     468:	39 55       	subi	r19, 0x59	; 89
     46a:	54 54       	subi	r21, 0x44	; 68
     46c:	58 00       	.word	0x0058	; ????
     46e:	00 45       	sbci	r16, 0x50	; 80
     470:	7c 41       	sbci	r23, 0x1C	; 28
     472:	00 02       	muls	r16, r16
     474:	45 7d       	andi	r20, 0xD5	; 213
     476:	42 00       	.word	0x0042	; ????
     478:	01 45       	sbci	r16, 0x51	; 81
     47a:	7c 40       	sbci	r23, 0x0C	; 12
     47c:	7d 12       	cpse	r7, r29
     47e:	11 12       	cpse	r1, r17
     480:	7d f0       	brhs	.+30     	; 0x4a0 <__FUSE_REGION_LENGTH__+0xa0>
     482:	28 25       	eor	r18, r8
     484:	28 f0       	brcs	.+10     	; 0x490 <__FUSE_REGION_LENGTH__+0x90>
     486:	7c 54       	subi	r23, 0x4C	; 76
     488:	55 45       	sbci	r21, 0x55	; 85
     48a:	00 20       	and	r0, r0
     48c:	54 54       	subi	r21, 0x44	; 68
     48e:	7c 54       	subi	r23, 0x4C	; 76
     490:	7c 0a       	sbc	r7, r28
     492:	09 7f       	andi	r16, 0xF9	; 249
     494:	49 32       	cpi	r20, 0x29	; 41
     496:	49 49       	sbci	r20, 0x99	; 153
     498:	49 32       	cpi	r20, 0x29	; 41
     49a:	3a 44       	sbci	r19, 0x4A	; 74
     49c:	44 44       	sbci	r20, 0x44	; 68
     49e:	3a 32       	cpi	r19, 0x2A	; 42
     4a0:	4a 48       	sbci	r20, 0x8A	; 138
     4a2:	48 30       	cpi	r20, 0x08	; 8
     4a4:	3a 41       	sbci	r19, 0x1A	; 26
     4a6:	41 21       	and	r20, r1
     4a8:	7a 3a       	cpi	r23, 0xAA	; 170
     4aa:	42 40       	sbci	r20, 0x02	; 2
     4ac:	20 78       	andi	r18, 0x80	; 128
     4ae:	00 9d       	mul	r16, r0
     4b0:	a0 a0       	ldd	r10, Z+32	; 0x20
     4b2:	7d 3d       	cpi	r23, 0xDD	; 221
     4b4:	42 42       	sbci	r20, 0x22	; 34
     4b6:	42 3d       	cpi	r20, 0xD2	; 210
     4b8:	3d 40       	sbci	r19, 0x0D	; 13
     4ba:	40 40       	sbci	r20, 0x00	; 0
     4bc:	3d 3c       	cpi	r19, 0xCD	; 205
     4be:	24 ff       	sbrs	r18, 4
     4c0:	24 24       	eor	r2, r4
     4c2:	48 7e       	andi	r20, 0xE8	; 232
     4c4:	49 43       	sbci	r20, 0x39	; 57
     4c6:	66 2b       	or	r22, r22
     4c8:	2f fc       	.word	0xfc2f	; ????
     4ca:	2f 2b       	or	r18, r31
     4cc:	ff 09       	sbc	r31, r15
     4ce:	29 f6       	brne	.-118    	; 0x45a <__FUSE_REGION_LENGTH__+0x5a>
     4d0:	20 c0       	rjmp	.+64     	; 0x512 <__FUSE_REGION_LENGTH__+0x112>
     4d2:	88 7e       	andi	r24, 0xE8	; 232
     4d4:	09 03       	fmul	r16, r17
     4d6:	20 54       	subi	r18, 0x40	; 64
     4d8:	54 79       	andi	r21, 0x94	; 148
     4da:	41 00       	.word	0x0041	; ????
     4dc:	00 44       	sbci	r16, 0x40	; 64
     4de:	7d 41       	sbci	r23, 0x1D	; 29
     4e0:	30 48       	sbci	r19, 0x80	; 128
     4e2:	48 4a       	sbci	r20, 0xA8	; 168
     4e4:	32 38       	cpi	r19, 0x82	; 130
     4e6:	40 40       	sbci	r20, 0x00	; 0
     4e8:	22 7a       	andi	r18, 0xA2	; 162
     4ea:	00 7a       	andi	r16, 0xA0	; 160
     4ec:	0a 0a       	sbc	r0, r26
     4ee:	72 7d       	andi	r23, 0xD2	; 210
     4f0:	0d 19       	sub	r16, r13
     4f2:	31 7d       	andi	r19, 0xD1	; 209
     4f4:	26 29       	or	r18, r6
     4f6:	29 2f       	mov	r18, r25
     4f8:	28 26       	eor	r2, r24
     4fa:	29 29       	or	r18, r9
     4fc:	29 26       	eor	r2, r25
     4fe:	30 48       	sbci	r19, 0x80	; 128
     500:	4d 40       	sbci	r20, 0x0D	; 13
     502:	20 38       	cpi	r18, 0x80	; 128
     504:	08 08       	sbc	r0, r8
     506:	08 08       	sbc	r0, r8
     508:	08 08       	sbc	r0, r8
     50a:	08 08       	sbc	r0, r8
     50c:	38 2f       	mov	r19, r24
     50e:	10 c8       	rjmp	.-4064   	; 0xfffff530 <__eeprom_end+0xff7ef530>
     510:	ac ba       	out	0x1c, r10	; 28
     512:	2f 10       	cpse	r2, r15
     514:	28 34       	cpi	r18, 0x48	; 72
     516:	fa 00       	.word	0x00fa	; ????
     518:	00 7b       	andi	r16, 0xB0	; 176
     51a:	00 00       	nop
     51c:	08 14       	cp	r0, r8
     51e:	2a 14       	cp	r2, r10
     520:	22 22       	and	r2, r18
     522:	14 2a       	or	r1, r20
     524:	14 08       	sbc	r1, r4
     526:	55 00       	.word	0x0055	; ????
     528:	55 00       	.word	0x0055	; ????
     52a:	55 aa       	std	Z+53, r5	; 0x35
     52c:	55 aa       	std	Z+53, r5	; 0x35
     52e:	55 aa       	std	Z+53, r5	; 0x35
     530:	ff 55       	subi	r31, 0x5F	; 95
     532:	ff 55       	subi	r31, 0x5F	; 95
     534:	ff 00       	.word	0x00ff	; ????
     536:	00 00       	nop
     538:	ff 00       	.word	0x00ff	; ????
     53a:	10 10       	cpse	r1, r0
     53c:	10 ff       	sbrs	r17, 0
     53e:	00 14       	cp	r0, r0
     540:	14 14       	cp	r1, r4
     542:	ff 00       	.word	0x00ff	; ????
     544:	10 10       	cpse	r1, r0
     546:	ff 00       	.word	0x00ff	; ????
     548:	ff 10       	cpse	r15, r15
     54a:	10 f0       	brcs	.+4      	; 0x550 <__FUSE_REGION_LENGTH__+0x150>
     54c:	10 f0       	brcs	.+4      	; 0x552 <__FUSE_REGION_LENGTH__+0x152>
     54e:	14 14       	cp	r1, r4
     550:	14 fc       	sbrc	r1, 4
     552:	00 14       	cp	r0, r0
     554:	14 f7       	brge	.-60     	; 0x51a <__FUSE_REGION_LENGTH__+0x11a>
     556:	00 ff       	sbrs	r16, 0
     558:	00 00       	nop
     55a:	ff 00       	.word	0x00ff	; ????
     55c:	ff 14       	cp	r15, r15
     55e:	14 f4       	brge	.+4      	; 0x564 <__FUSE_REGION_LENGTH__+0x164>
     560:	04 fc       	sbrc	r0, 4
     562:	14 14       	cp	r1, r4
     564:	17 10       	cpse	r1, r7
     566:	1f 10       	cpse	r1, r15
     568:	10 1f       	adc	r17, r16
     56a:	10 1f       	adc	r17, r16
     56c:	14 14       	cp	r1, r4
     56e:	14 1f       	adc	r17, r20
     570:	00 10       	cpse	r0, r0
     572:	10 10       	cpse	r1, r0
     574:	f0 00       	.word	0x00f0	; ????
     576:	00 00       	nop
     578:	00 1f       	adc	r16, r16
     57a:	10 10       	cpse	r1, r0
     57c:	10 10       	cpse	r1, r0
     57e:	1f 10       	cpse	r1, r15
     580:	10 10       	cpse	r1, r0
     582:	10 f0       	brcs	.+4      	; 0x588 <__FUSE_REGION_LENGTH__+0x188>
     584:	10 00       	.word	0x0010	; ????
     586:	00 00       	nop
     588:	ff 10       	cpse	r15, r15
     58a:	10 10       	cpse	r1, r0
     58c:	10 10       	cpse	r1, r0
     58e:	10 10       	cpse	r1, r0
     590:	10 10       	cpse	r1, r0
     592:	ff 10       	cpse	r15, r15
     594:	00 00       	nop
     596:	00 ff       	sbrs	r16, 0
     598:	14 00       	.word	0x0014	; ????
     59a:	00 ff       	sbrs	r16, 0
     59c:	00 ff       	sbrs	r16, 0
     59e:	00 00       	nop
     5a0:	1f 10       	cpse	r1, r15
     5a2:	17 00       	.word	0x0017	; ????
     5a4:	00 fc       	sbrc	r0, 0
     5a6:	04 f4       	brge	.+0      	; 0x5a8 <__FUSE_REGION_LENGTH__+0x1a8>
     5a8:	14 14       	cp	r1, r4
     5aa:	17 10       	cpse	r1, r7
     5ac:	17 14       	cp	r1, r7
     5ae:	14 f4       	brge	.+4      	; 0x5b4 <__FUSE_REGION_LENGTH__+0x1b4>
     5b0:	04 f4       	brge	.+0      	; 0x5b2 <__FUSE_REGION_LENGTH__+0x1b2>
     5b2:	00 00       	nop
     5b4:	ff 00       	.word	0x00ff	; ????
     5b6:	f7 14       	cp	r15, r7
     5b8:	14 14       	cp	r1, r4
     5ba:	14 14       	cp	r1, r4
     5bc:	14 14       	cp	r1, r4
     5be:	f7 00       	.word	0x00f7	; ????
     5c0:	f7 14       	cp	r15, r7
     5c2:	14 14       	cp	r1, r4
     5c4:	17 14       	cp	r1, r7
     5c6:	10 10       	cpse	r1, r0
     5c8:	1f 10       	cpse	r1, r15
     5ca:	1f 14       	cp	r1, r15
     5cc:	14 14       	cp	r1, r4
     5ce:	f4 14       	cp	r15, r4
     5d0:	10 10       	cpse	r1, r0
     5d2:	f0 10       	cpse	r15, r0
     5d4:	f0 00       	.word	0x00f0	; ????
     5d6:	00 1f       	adc	r16, r16
     5d8:	10 1f       	adc	r17, r16
     5da:	00 00       	nop
     5dc:	00 1f       	adc	r16, r16
     5de:	14 00       	.word	0x0014	; ????
     5e0:	00 00       	nop
     5e2:	fc 14       	cp	r15, r12
     5e4:	00 00       	nop
     5e6:	f0 10       	cpse	r15, r0
     5e8:	f0 10       	cpse	r15, r0
     5ea:	10 ff       	sbrs	r17, 0
     5ec:	10 ff       	sbrs	r17, 0
     5ee:	14 14       	cp	r1, r4
     5f0:	14 ff       	sbrs	r17, 4
     5f2:	14 10       	cpse	r1, r4
     5f4:	10 10       	cpse	r1, r0
     5f6:	1f 00       	.word	0x001f	; ????
     5f8:	00 00       	nop
     5fa:	00 f0       	brcs	.+0      	; 0x5fc <__FUSE_REGION_LENGTH__+0x1fc>
     5fc:	10 ff       	sbrs	r17, 0
     5fe:	ff ff       	.word	0xffff	; ????
     600:	ff ff       	.word	0xffff	; ????
     602:	f0 f0       	brcs	.+60     	; 0x640 <__FUSE_REGION_LENGTH__+0x240>
     604:	f0 f0       	brcs	.+60     	; 0x642 <__FUSE_REGION_LENGTH__+0x242>
     606:	f0 ff       	sbrs	r31, 0
     608:	ff ff       	.word	0xffff	; ????
     60a:	00 00       	nop
     60c:	00 00       	nop
     60e:	00 ff       	sbrs	r16, 0
     610:	ff 0f       	add	r31, r31
     612:	0f 0f       	add	r16, r31
     614:	0f 0f       	add	r16, r31
     616:	38 44       	sbci	r19, 0x48	; 72
     618:	44 38       	cpi	r20, 0x84	; 132
     61a:	44 fc       	sbrc	r4, 4
     61c:	4a 4a       	sbci	r20, 0xAA	; 170
     61e:	4a 34       	cpi	r20, 0x4A	; 74
     620:	7e 02       	muls	r23, r30
     622:	02 06       	cpc	r0, r18
     624:	06 02       	muls	r16, r22
     626:	7e 02       	muls	r23, r30
     628:	7e 02       	muls	r23, r30
     62a:	63 55       	subi	r22, 0x53	; 83
     62c:	49 41       	sbci	r20, 0x19	; 25
     62e:	63 38       	cpi	r22, 0x83	; 131
     630:	44 44       	sbci	r20, 0x44	; 68
     632:	3c 04       	cpc	r3, r12
     634:	40 7e       	andi	r20, 0xE0	; 224
     636:	20 1e       	adc	r2, r16
     638:	20 06       	cpc	r2, r16
     63a:	02 7e       	andi	r16, 0xE2	; 226
     63c:	02 02       	muls	r16, r18
     63e:	99 a5       	ldd	r25, Y+41	; 0x29
     640:	e7 a5       	ldd	r30, Z+47	; 0x2f
     642:	99 1c       	adc	r9, r9
     644:	2a 49       	sbci	r18, 0x9A	; 154
     646:	2a 1c       	adc	r2, r10
     648:	4c 72       	andi	r20, 0x2C	; 44
     64a:	01 72       	andi	r16, 0x21	; 33
     64c:	4c 30       	cpi	r20, 0x0C	; 12
     64e:	4a 4d       	sbci	r20, 0xDA	; 218
     650:	4d 30       	cpi	r20, 0x0D	; 13
     652:	30 48       	sbci	r19, 0x80	; 128
     654:	78 48       	sbci	r23, 0x88	; 136
     656:	30 bc       	out	0x20, r3	; 32
     658:	62 5a       	subi	r22, 0xA2	; 162
     65a:	46 3d       	cpi	r20, 0xD6	; 214
     65c:	3e 49       	sbci	r19, 0x9E	; 158
     65e:	49 49       	sbci	r20, 0x99	; 153
     660:	00 7e       	andi	r16, 0xE0	; 224
     662:	01 01       	movw	r0, r2
     664:	01 7e       	andi	r16, 0xE1	; 225
     666:	2a 2a       	or	r2, r26
     668:	2a 2a       	or	r2, r26
     66a:	2a 44       	sbci	r18, 0x4A	; 74
     66c:	44 5f       	subi	r20, 0xF4	; 244
     66e:	44 44       	sbci	r20, 0x44	; 68
     670:	40 51       	subi	r20, 0x10	; 16
     672:	4a 44       	sbci	r20, 0x4A	; 74
     674:	40 40       	sbci	r20, 0x00	; 0
     676:	44 4a       	sbci	r20, 0xA4	; 164
     678:	51 40       	sbci	r21, 0x01	; 1
     67a:	00 00       	nop
     67c:	ff 01       	movw	r30, r30
     67e:	03 e0       	ldi	r16, 0x03	; 3
     680:	80 ff       	sbrs	r24, 0
     682:	00 00       	nop
     684:	08 08       	sbc	r0, r8
     686:	6b 6b       	ori	r22, 0xBB	; 187
     688:	08 36       	cpi	r16, 0x68	; 104
     68a:	12 36       	cpi	r17, 0x62	; 98
     68c:	24 36       	cpi	r18, 0x64	; 100
     68e:	06 0f       	add	r16, r22
     690:	09 0f       	add	r16, r25
     692:	06 00       	.word	0x0006	; ????
     694:	00 18       	sub	r0, r0
     696:	18 00       	.word	0x0018	; ????
     698:	00 00       	nop
     69a:	10 10       	cpse	r1, r0
     69c:	00 30       	cpi	r16, 0x00	; 0
     69e:	40 ff       	sbrs	r20, 0
     6a0:	01 01       	movw	r0, r2
     6a2:	00 1f       	adc	r16, r16
     6a4:	01 01       	movw	r0, r2
     6a6:	1e 00       	.word	0x001e	; ????
     6a8:	19 1d       	adc	r17, r9
     6aa:	17 12       	cpse	r1, r23
     6ac:	00 3c       	cpi	r16, 0xC0	; 192
     6ae:	3c 3c       	cpi	r19, 0xCC	; 204
     6b0:	3c 00       	.word	0x003c	; ????
     6b2:	00 00       	nop
	...

000006b6 <digital_pin_to_timer_PGM>:
     6b6:	00 00 0a 0b 02 09 0c 0d 0e 08 07 03 04 01 00 00     ................
	...
     6e2:	12 11 10 00 00 00 00 00 00 00 00 00 00 00 00 00     ................
	...

000006fc <digital_pin_to_bit_mask_PGM>:
     6fc:	01 02 10 20 20 08 08 10 20 40 10 20 40 80 02 01     ...  ... @. @...
     70c:	02 01 08 04 02 01 01 02 04 08 10 20 40 80 80 40     ........... @..@
     71c:	20 10 08 04 02 01 80 04 02 01 80 40 20 10 08 04      ..........@ ...
     72c:	02 01 08 04 02 01 01 02 04 08 10 20 40 80 01 02     ........... @...
     73c:	04 08 10 20 40 80                                   ... @.

00000742 <digital_pin_to_port_PGM>:
     742:	05 05 05 05 07 05 08 08 08 08 02 02 02 02 0a 0a     ................
     752:	08 08 04 04 04 04 01 01 01 01 01 01 01 01 03 03     ................
     762:	03 03 03 03 03 03 04 07 07 07 0c 0c 0c 0c 0c 0c     ................
     772:	0c 0c 02 02 02 02 06 06 06 06 06 06 06 06 0b 0b     ................
     782:	0b 0b 0b 0b 0b 0b                                   ......

00000788 <port_to_input_PGM>:
     788:	00 00 20 00 23 00 26 00 29 00 2c 00 2f 00 32 00     .. .#.&.).,./.2.
     798:	00 01 00 00 03 01 06 01 09 01                       ..........

000007a2 <port_to_output_PGM>:
     7a2:	00 00 22 00 25 00 28 00 2b 00 2e 00 31 00 34 00     ..".%.(.+...1.4.
     7b2:	02 01 00 00 05 01 08 01 0b 01                       ..........

000007bc <port_to_mode_PGM>:
     7bc:	00 00 21 00 24 00 27 00 2a 00 2d 00 30 00 33 00     ..!.$.'.*.-.0.3.
     7cc:	01 01 00 00 04 01 07 01 0a 01                       ..........

000007d6 <__ctors_start>:
     7d6:	e0 13       	cpse	r30, r16
     7d8:	84 20       	and	r8, r4
     7da:	48 24       	eor	r4, r8
     7dc:	56 2b       	or	r21, r22
     7de:	eb 2b       	or	r30, r27

000007e0 <__ctors_end>:
     7e0:	c2 20       	and	r12, r2

000007e2 <__dtors_end>:
     7e2:	11 24       	eor	r1, r1
     7e4:	1f be       	out	0x3f, r1	; 63
     7e6:	cf ef       	ldi	r28, 0xFF	; 255
     7e8:	d1 e2       	ldi	r29, 0x21	; 33
     7ea:	de bf       	out	0x3e, r29	; 62
     7ec:	cd bf       	out	0x3d, r28	; 61
     7ee:	00 e0       	ldi	r16, 0x00	; 0
     7f0:	0c bf       	out	0x3c, r16	; 60

000007f2 <__do_copy_data>:
     7f2:	1c e0       	ldi	r17, 0x0C	; 12
     7f4:	a0 e0       	ldi	r26, 0x00	; 0
     7f6:	b2 e0       	ldi	r27, 0x02	; 2
     7f8:	ee ee       	ldi	r30, 0xEE	; 238
     7fa:	fb e6       	ldi	r31, 0x6B	; 107
     7fc:	00 e0       	ldi	r16, 0x00	; 0
     7fe:	0b bf       	out	0x3b, r16	; 59
     800:	02 c0       	rjmp	.+4      	; 0x806 <__do_copy_data+0x14>
     802:	07 90       	elpm	r0, Z+
     804:	0d 92       	st	X+, r0
     806:	aa 38       	cpi	r26, 0x8A	; 138
     808:	b1 07       	cpc	r27, r17
     80a:	d9 f7       	brne	.-10     	; 0x802 <__do_copy_data+0x10>

0000080c <__do_clear_bss>:
     80c:	2f e0       	ldi	r18, 0x0F	; 15
     80e:	aa e8       	ldi	r26, 0x8A	; 138
     810:	bc e0       	ldi	r27, 0x0C	; 12
     812:	01 c0       	rjmp	.+2      	; 0x816 <.do_clear_bss_start>

00000814 <.do_clear_bss_loop>:
     814:	1d 92       	st	X+, r1

00000816 <.do_clear_bss_start>:
     816:	ab 3c       	cpi	r26, 0xCB	; 203
     818:	b2 07       	cpc	r27, r18
     81a:	e1 f7       	brne	.-8      	; 0x814 <.do_clear_bss_loop>

0000081c <__do_global_ctors>:
     81c:	13 e0       	ldi	r17, 0x03	; 3
     81e:	c0 ef       	ldi	r28, 0xF0	; 240
     820:	d3 e0       	ldi	r29, 0x03	; 3
     822:	00 e0       	ldi	r16, 0x00	; 0
     824:	06 c0       	rjmp	.+12     	; 0x832 <__do_global_ctors+0x16>
     826:	21 97       	sbiw	r28, 0x01	; 1
     828:	01 09       	sbc	r16, r1
     82a:	80 2f       	mov	r24, r16
     82c:	fe 01       	movw	r30, r28
     82e:	0e 94 89 33 	call	0x6712	; 0x6712 <__tablejump2__>
     832:	cb 3e       	cpi	r28, 0xEB	; 235
     834:	d1 07       	cpc	r29, r17
     836:	80 e0       	ldi	r24, 0x00	; 0
     838:	08 07       	cpc	r16, r24
     83a:	a9 f7       	brne	.-22     	; 0x826 <__do_global_ctors+0xa>
     83c:	0e 94 19 2c 	call	0x5832	; 0x5832 <main>
     840:	0c 94 e6 35 	jmp	0x6bcc	; 0x6bcc <__do_global_dtors>

00000844 <__bad_interrupt>:
     844:	dd cb       	rjmp	.-2118   	; 0x0 <__vectors>

00000846 <_ZN5Print17availableForWriteEv>:
      return write((const uint8_t *)buffer, size);
    }

    // default to zero, meaning "a single write may block"
    // should be overriden by subclasses with buffering
    virtual int availableForWrite() { return 0; }
     846:	80 e0       	ldi	r24, 0x00	; 0
     848:	90 e0       	ldi	r25, 0x00	; 0
     84a:	08 95       	ret

0000084c <_ZN5Print5flushEv>:
    size_t println(unsigned long, int = DEC);
    size_t println(double, int = 2);
    size_t println(const Printable&);
    size_t println(void);

    virtual void flush() { /* Empty implementation for backward compatibility */ }
     84c:	08 95       	ret

0000084e <_ZN12Adafruit_GFX9writeLineEiiiij>:
    }
    if(maxy >= miny) {
        *y1 = miny;
        *h  = maxy - miny + 1;
    }
}
     84e:	2f 92       	push	r2
     850:	3f 92       	push	r3
     852:	4f 92       	push	r4
     854:	5f 92       	push	r5
     856:	6f 92       	push	r6
     858:	7f 92       	push	r7
     85a:	8f 92       	push	r8
     85c:	9f 92       	push	r9
     85e:	af 92       	push	r10
     860:	bf 92       	push	r11
     862:	cf 92       	push	r12
     864:	df 92       	push	r13
     866:	ef 92       	push	r14
     868:	ff 92       	push	r15
     86a:	0f 93       	push	r16
     86c:	1f 93       	push	r17
     86e:	cf 93       	push	r28
     870:	df 93       	push	r29
     872:	00 d0       	rcall	.+0      	; 0x874 <_ZN12Adafruit_GFX9writeLineEiiiij+0x26>
     874:	cd b7       	in	r28, 0x3d	; 61
     876:	de b7       	in	r29, 0x3e	; 62
     878:	4c 01       	movw	r8, r24
     87a:	7b 83       	std	Y+3, r23	; 0x03
     87c:	6a 83       	std	Y+2, r22	; 0x02
     87e:	6a 01       	movw	r12, r20
     880:	59 01       	movw	r10, r18
     882:	17 01       	movw	r2, r14
     884:	98 01       	movw	r18, r16
     886:	24 1b       	sub	r18, r20
     888:	35 0b       	sbc	r19, r21
     88a:	37 ff       	sbrs	r19, 7
     88c:	03 c0       	rjmp	.+6      	; 0x894 <_ZN12Adafruit_GFX9writeLineEiiiij+0x46>
     88e:	31 95       	neg	r19
     890:	21 95       	neg	r18
     892:	31 09       	sbc	r19, r1
     894:	c5 01       	movw	r24, r10
     896:	4a 81       	ldd	r20, Y+2	; 0x02
     898:	5b 81       	ldd	r21, Y+3	; 0x03
     89a:	84 1b       	sub	r24, r20
     89c:	95 0b       	sbc	r25, r21
     89e:	97 ff       	sbrs	r25, 7
     8a0:	03 c0       	rjmp	.+6      	; 0x8a8 <_ZN12Adafruit_GFX9writeLineEiiiij+0x5a>
     8a2:	91 95       	neg	r25
     8a4:	81 95       	neg	r24
     8a6:	91 09       	sbc	r25, r1
     8a8:	51 e0       	ldi	r21, 0x01	; 1
     8aa:	59 83       	std	Y+1, r21	; 0x01
     8ac:	82 17       	cp	r24, r18
     8ae:	93 07       	cpc	r25, r19
     8b0:	14 f0       	brlt	.+4      	; 0x8b6 <_ZN12Adafruit_GFX9writeLineEiiiij+0x68>
     8b2:	19 82       	std	Y+1, r1	; 0x01
     8b4:	0b c0       	rjmp	.+22     	; 0x8cc <_ZN12Adafruit_GFX9writeLineEiiiij+0x7e>
     8b6:	9a 2d       	mov	r25, r10
     8b8:	8b 2d       	mov	r24, r11
     8ba:	58 01       	movw	r10, r16
     8bc:	09 2f       	mov	r16, r25
     8be:	18 2f       	mov	r17, r24
     8c0:	9a 81       	ldd	r25, Y+2	; 0x02
     8c2:	8b 81       	ldd	r24, Y+3	; 0x03
     8c4:	db 82       	std	Y+3, r13	; 0x03
     8c6:	ca 82       	std	Y+2, r12	; 0x02
     8c8:	c9 2e       	mov	r12, r25
     8ca:	d8 2e       	mov	r13, r24
     8cc:	8a 81       	ldd	r24, Y+2	; 0x02
     8ce:	9b 81       	ldd	r25, Y+3	; 0x03
     8d0:	a8 16       	cp	r10, r24
     8d2:	b9 06       	cpc	r11, r25
     8d4:	5c f4       	brge	.+22     	; 0x8ec <_ZN12Adafruit_GFX9writeLineEiiiij+0x9e>
     8d6:	9c 2d       	mov	r25, r12
     8d8:	8d 2d       	mov	r24, r13
     8da:	68 01       	movw	r12, r16
     8dc:	09 2f       	mov	r16, r25
     8de:	18 2f       	mov	r17, r24
     8e0:	9a 81       	ldd	r25, Y+2	; 0x02
     8e2:	8b 81       	ldd	r24, Y+3	; 0x03
     8e4:	bb 82       	std	Y+3, r11	; 0x03
     8e6:	aa 82       	std	Y+2, r10	; 0x02
     8e8:	a9 2e       	mov	r10, r25
     8ea:	b8 2e       	mov	r11, r24
     8ec:	25 01       	movw	r4, r10
     8ee:	aa 81       	ldd	r26, Y+2	; 0x02
     8f0:	bb 81       	ldd	r27, Y+3	; 0x03
     8f2:	4a 1a       	sub	r4, r26
     8f4:	5b 0a       	sbc	r5, r27
     8f6:	38 01       	movw	r6, r16
     8f8:	6c 18       	sub	r6, r12
     8fa:	7d 08       	sbc	r7, r13
     8fc:	77 fe       	sbrs	r7, 7
     8fe:	03 c0       	rjmp	.+6      	; 0x906 <_ZN12Adafruit_GFX9writeLineEiiiij+0xb8>
     900:	71 94       	neg	r7
     902:	61 94       	neg	r6
     904:	71 08       	sbc	r7, r1
     906:	72 01       	movw	r14, r4
     908:	57 fe       	sbrs	r5, 7
     90a:	03 c0       	rjmp	.+6      	; 0x912 <_ZN12Adafruit_GFX9writeLineEiiiij+0xc4>
     90c:	bf ef       	ldi	r27, 0xFF	; 255
     90e:	eb 1a       	sub	r14, r27
     910:	fb 0a       	sbc	r15, r27
     912:	f5 94       	asr	r15
     914:	e7 94       	ror	r14
     916:	c0 16       	cp	r12, r16
     918:	d1 06       	cpc	r13, r17
     91a:	1c f0       	brlt	.+6      	; 0x922 <_ZN12Adafruit_GFX9writeLineEiiiij+0xd4>
     91c:	0f ef       	ldi	r16, 0xFF	; 255
     91e:	1f ef       	ldi	r17, 0xFF	; 255
     920:	1f c0       	rjmp	.+62     	; 0x960 <_ZN12Adafruit_GFX9writeLineEiiiij+0x112>
     922:	01 e0       	ldi	r16, 0x01	; 1
     924:	10 e0       	ldi	r17, 0x00	; 0
     926:	1c c0       	rjmp	.+56     	; 0x960 <_ZN12Adafruit_GFX9writeLineEiiiij+0x112>
     928:	d4 01       	movw	r26, r8
     92a:	ed 91       	ld	r30, X+
     92c:	fc 91       	ld	r31, X
     92e:	b9 81       	ldd	r27, Y+1	; 0x01
     930:	04 84       	ldd	r0, Z+12	; 0x0c
     932:	f5 85       	ldd	r31, Z+13	; 0x0d
     934:	e0 2d       	mov	r30, r0
     936:	91 01       	movw	r18, r2
     938:	bb 23       	and	r27, r27
     93a:	c1 f0       	breq	.+48     	; 0x96c <_ZN12Adafruit_GFX9writeLineEiiiij+0x11e>
     93c:	4a 81       	ldd	r20, Y+2	; 0x02
     93e:	5b 81       	ldd	r21, Y+3	; 0x03
     940:	b6 01       	movw	r22, r12
     942:	c4 01       	movw	r24, r8
     944:	19 95       	eicall
     946:	e6 18       	sub	r14, r6
     948:	f7 08       	sbc	r15, r7
     94a:	f7 fe       	sbrs	r15, 7
     94c:	04 c0       	rjmp	.+8      	; 0x956 <_ZN12Adafruit_GFX9writeLineEiiiij+0x108>
     94e:	c0 0e       	add	r12, r16
     950:	d1 1e       	adc	r13, r17
     952:	e4 0c       	add	r14, r4
     954:	f5 1c       	adc	r15, r5
     956:	ea 81       	ldd	r30, Y+2	; 0x02
     958:	fb 81       	ldd	r31, Y+3	; 0x03
     95a:	31 96       	adiw	r30, 0x01	; 1
     95c:	fb 83       	std	Y+3, r31	; 0x03
     95e:	ea 83       	std	Y+2, r30	; 0x02
     960:	4a 81       	ldd	r20, Y+2	; 0x02
     962:	5b 81       	ldd	r21, Y+3	; 0x03
     964:	a4 16       	cp	r10, r20
     966:	b5 06       	cpc	r11, r21
     968:	fc f6       	brge	.-66     	; 0x928 <_ZN12Adafruit_GFX9writeLineEiiiij+0xda>
     96a:	04 c0       	rjmp	.+8      	; 0x974 <_ZN12Adafruit_GFX9writeLineEiiiij+0x126>
     96c:	a6 01       	movw	r20, r12
     96e:	6a 81       	ldd	r22, Y+2	; 0x02
     970:	7b 81       	ldd	r23, Y+3	; 0x03
     972:	e7 cf       	rjmp	.-50     	; 0x942 <_ZN12Adafruit_GFX9writeLineEiiiij+0xf4>
     974:	0f 90       	pop	r0
     976:	0f 90       	pop	r0
     978:	0f 90       	pop	r0
     97a:	df 91       	pop	r29
     97c:	cf 91       	pop	r28
     97e:	1f 91       	pop	r17
     980:	0f 91       	pop	r16
     982:	ff 90       	pop	r15
     984:	ef 90       	pop	r14
     986:	df 90       	pop	r13
     988:	cf 90       	pop	r12
     98a:	bf 90       	pop	r11
     98c:	af 90       	pop	r10
     98e:	9f 90       	pop	r9
     990:	8f 90       	pop	r8
     992:	7f 90       	pop	r7
     994:	6f 90       	pop	r6
     996:	5f 90       	pop	r5
     998:	4f 90       	pop	r4
     99a:	3f 90       	pop	r3
     99c:	2f 90       	pop	r2
     99e:	08 95       	ret

000009a0 <_ZN12Adafruit_GFX10startWriteEv>:
     9a0:	08 95       	ret

000009a2 <_ZN12Adafruit_GFX10writePixelEiij>:
     9a2:	dc 01       	movw	r26, r24
     9a4:	ed 91       	ld	r30, X+
     9a6:	fc 91       	ld	r31, X
     9a8:	00 84       	ldd	r0, Z+8	; 0x08
     9aa:	f1 85       	ldd	r31, Z+9	; 0x09
     9ac:	e0 2d       	mov	r30, r0
     9ae:	19 94       	eijmp

000009b0 <_ZN12Adafruit_GFX14writeFastVLineEiiij>:
     9b0:	0f 93       	push	r16
     9b2:	1f 93       	push	r17
     9b4:	dc 01       	movw	r26, r24
     9b6:	ed 91       	ld	r30, X+
     9b8:	fc 91       	ld	r31, X
     9ba:	04 8c       	ldd	r0, Z+28	; 0x1c
     9bc:	f5 8d       	ldd	r31, Z+29	; 0x1d
     9be:	e0 2d       	mov	r30, r0
     9c0:	19 95       	eicall
     9c2:	1f 91       	pop	r17
     9c4:	0f 91       	pop	r16
     9c6:	08 95       	ret

000009c8 <_ZN12Adafruit_GFX14writeFastHLineEiiij>:
     9c8:	0f 93       	push	r16
     9ca:	1f 93       	push	r17
     9cc:	dc 01       	movw	r26, r24
     9ce:	ed 91       	ld	r30, X+
     9d0:	fc 91       	ld	r31, X
     9d2:	06 8c       	ldd	r0, Z+30	; 0x1e
     9d4:	f7 8d       	ldd	r31, Z+31	; 0x1f
     9d6:	e0 2d       	mov	r30, r0
     9d8:	19 95       	eicall
     9da:	1f 91       	pop	r17
     9dc:	0f 91       	pop	r16
     9de:	08 95       	ret

000009e0 <_ZN12Adafruit_GFX13writeFillRectEiiiij>:
     9e0:	ef 92       	push	r14
     9e2:	ff 92       	push	r15
     9e4:	0f 93       	push	r16
     9e6:	1f 93       	push	r17
     9e8:	dc 01       	movw	r26, r24
     9ea:	ed 91       	ld	r30, X+
     9ec:	fc 91       	ld	r31, X
     9ee:	00 a0       	ldd	r0, Z+32	; 0x20
     9f0:	f1 a1       	ldd	r31, Z+33	; 0x21
     9f2:	e0 2d       	mov	r30, r0
     9f4:	19 95       	eicall
     9f6:	1f 91       	pop	r17
     9f8:	0f 91       	pop	r16
     9fa:	ff 90       	pop	r15
     9fc:	ef 90       	pop	r14
     9fe:	08 95       	ret

00000a00 <_ZN12Adafruit_GFX8endWriteEv>:
     a00:	08 95       	ret

00000a02 <_ZN12Adafruit_GFX13drawFastVLineEiiij>:
     a02:	af 92       	push	r10
     a04:	bf 92       	push	r11
     a06:	cf 92       	push	r12
     a08:	df 92       	push	r13
     a0a:	ef 92       	push	r14
     a0c:	ff 92       	push	r15
     a0e:	0f 93       	push	r16
     a10:	1f 93       	push	r17
     a12:	cf 93       	push	r28
     a14:	df 93       	push	r29
     a16:	00 d0       	rcall	.+0      	; 0xa18 <_ZN12Adafruit_GFX13drawFastVLineEiiij+0x16>
     a18:	1f 92       	push	r1
     a1a:	cd b7       	in	r28, 0x3d	; 61
     a1c:	de b7       	in	r29, 0x3e	; 62
     a1e:	5c 01       	movw	r10, r24
     a20:	69 01       	movw	r12, r18
     a22:	dc 01       	movw	r26, r24
     a24:	ed 91       	ld	r30, X+
     a26:	fc 91       	ld	r31, X
     a28:	02 84       	ldd	r0, Z+10	; 0x0a
     a2a:	f3 85       	ldd	r31, Z+11	; 0x0b
     a2c:	e0 2d       	mov	r30, r0
     a2e:	4b 83       	std	Y+3, r20	; 0x03
     a30:	5c 83       	std	Y+4, r21	; 0x04
     a32:	69 83       	std	Y+1, r22	; 0x01
     a34:	7a 83       	std	Y+2, r23	; 0x02
     a36:	19 95       	eicall
     a38:	d5 01       	movw	r26, r10
     a3a:	ed 91       	ld	r30, X+
     a3c:	fc 91       	ld	r31, X
     a3e:	4b 81       	ldd	r20, Y+3	; 0x03
     a40:	5c 81       	ldd	r21, Y+4	; 0x04
     a42:	c4 0e       	add	r12, r20
     a44:	d5 1e       	adc	r13, r21
     a46:	b1 e0       	ldi	r27, 0x01	; 1
     a48:	cb 1a       	sub	r12, r27
     a4a:	d1 08       	sbc	r13, r1
     a4c:	04 88       	ldd	r0, Z+20	; 0x14
     a4e:	f5 89       	ldd	r31, Z+21	; 0x15
     a50:	e0 2d       	mov	r30, r0
     a52:	78 01       	movw	r14, r16
     a54:	86 01       	movw	r16, r12
     a56:	69 81       	ldd	r22, Y+1	; 0x01
     a58:	7a 81       	ldd	r23, Y+2	; 0x02
     a5a:	9b 01       	movw	r18, r22
     a5c:	c5 01       	movw	r24, r10
     a5e:	19 95       	eicall
     a60:	d5 01       	movw	r26, r10
     a62:	ed 91       	ld	r30, X+
     a64:	fc 91       	ld	r31, X
     a66:	06 88       	ldd	r0, Z+22	; 0x16
     a68:	f7 89       	ldd	r31, Z+23	; 0x17
     a6a:	e0 2d       	mov	r30, r0
     a6c:	c5 01       	movw	r24, r10
     a6e:	0f 90       	pop	r0
     a70:	0f 90       	pop	r0
     a72:	0f 90       	pop	r0
     a74:	0f 90       	pop	r0
     a76:	df 91       	pop	r29
     a78:	cf 91       	pop	r28
     a7a:	1f 91       	pop	r17
     a7c:	0f 91       	pop	r16
     a7e:	ff 90       	pop	r15
     a80:	ef 90       	pop	r14
     a82:	df 90       	pop	r13
     a84:	cf 90       	pop	r12
     a86:	bf 90       	pop	r11
     a88:	af 90       	pop	r10
     a8a:	19 94       	eijmp

00000a8c <_ZN12Adafruit_GFX13drawFastHLineEiiij>:
     a8c:	af 92       	push	r10
     a8e:	bf 92       	push	r11
     a90:	cf 92       	push	r12
     a92:	df 92       	push	r13
     a94:	ef 92       	push	r14
     a96:	ff 92       	push	r15
     a98:	0f 93       	push	r16
     a9a:	1f 93       	push	r17
     a9c:	cf 93       	push	r28
     a9e:	df 93       	push	r29
     aa0:	00 d0       	rcall	.+0      	; 0xaa2 <_ZN12Adafruit_GFX13drawFastHLineEiiij+0x16>
     aa2:	1f 92       	push	r1
     aa4:	cd b7       	in	r28, 0x3d	; 61
     aa6:	de b7       	in	r29, 0x3e	; 62
     aa8:	5c 01       	movw	r10, r24
     aaa:	69 01       	movw	r12, r18
     aac:	dc 01       	movw	r26, r24
     aae:	ed 91       	ld	r30, X+
     ab0:	fc 91       	ld	r31, X
     ab2:	02 84       	ldd	r0, Z+10	; 0x0a
     ab4:	f3 85       	ldd	r31, Z+11	; 0x0b
     ab6:	e0 2d       	mov	r30, r0
     ab8:	4b 83       	std	Y+3, r20	; 0x03
     aba:	5c 83       	std	Y+4, r21	; 0x04
     abc:	69 83       	std	Y+1, r22	; 0x01
     abe:	7a 83       	std	Y+2, r23	; 0x02
     ac0:	19 95       	eicall
     ac2:	d5 01       	movw	r26, r10
     ac4:	ed 91       	ld	r30, X+
     ac6:	fc 91       	ld	r31, X
     ac8:	69 81       	ldd	r22, Y+1	; 0x01
     aca:	7a 81       	ldd	r23, Y+2	; 0x02
     acc:	9b 01       	movw	r18, r22
     ace:	2c 0d       	add	r18, r12
     ad0:	3d 1d       	adc	r19, r13
     ad2:	21 50       	subi	r18, 0x01	; 1
     ad4:	31 09       	sbc	r19, r1
     ad6:	04 88       	ldd	r0, Z+20	; 0x14
     ad8:	f5 89       	ldd	r31, Z+21	; 0x15
     ada:	e0 2d       	mov	r30, r0
     adc:	78 01       	movw	r14, r16
     ade:	4b 81       	ldd	r20, Y+3	; 0x03
     ae0:	5c 81       	ldd	r21, Y+4	; 0x04
     ae2:	8a 01       	movw	r16, r20
     ae4:	c5 01       	movw	r24, r10
     ae6:	19 95       	eicall
     ae8:	d5 01       	movw	r26, r10
     aea:	ed 91       	ld	r30, X+
     aec:	fc 91       	ld	r31, X
     aee:	06 88       	ldd	r0, Z+22	; 0x16
     af0:	f7 89       	ldd	r31, Z+23	; 0x17
     af2:	e0 2d       	mov	r30, r0
     af4:	c5 01       	movw	r24, r10
     af6:	0f 90       	pop	r0
     af8:	0f 90       	pop	r0
     afa:	0f 90       	pop	r0
     afc:	0f 90       	pop	r0
     afe:	df 91       	pop	r29
     b00:	cf 91       	pop	r28
     b02:	1f 91       	pop	r17
     b04:	0f 91       	pop	r16
     b06:	ff 90       	pop	r15
     b08:	ef 90       	pop	r14
     b0a:	df 90       	pop	r13
     b0c:	cf 90       	pop	r12
     b0e:	bf 90       	pop	r11
     b10:	af 90       	pop	r10
     b12:	19 94       	eijmp

00000b14 <_ZN12Adafruit_GFX8fillRectEiiiij>:
     b14:	4f 92       	push	r4
     b16:	5f 92       	push	r5
     b18:	6f 92       	push	r6
     b1a:	7f 92       	push	r7
     b1c:	8f 92       	push	r8
     b1e:	9f 92       	push	r9
     b20:	af 92       	push	r10
     b22:	bf 92       	push	r11
     b24:	cf 92       	push	r12
     b26:	df 92       	push	r13
     b28:	ef 92       	push	r14
     b2a:	ff 92       	push	r15
     b2c:	0f 93       	push	r16
     b2e:	1f 93       	push	r17
     b30:	cf 93       	push	r28
     b32:	df 93       	push	r29
     b34:	1f 92       	push	r1
     b36:	1f 92       	push	r1
     b38:	cd b7       	in	r28, 0x3d	; 61
     b3a:	de b7       	in	r29, 0x3e	; 62
     b3c:	6c 01       	movw	r12, r24
     b3e:	5a 01       	movw	r10, r20
     b40:	39 01       	movw	r6, r18
     b42:	48 01       	movw	r8, r16
     b44:	dc 01       	movw	r26, r24
     b46:	ed 91       	ld	r30, X+
     b48:	fc 91       	ld	r31, X
     b4a:	02 84       	ldd	r0, Z+10	; 0x0a
     b4c:	f3 85       	ldd	r31, Z+11	; 0x0b
     b4e:	e0 2d       	mov	r30, r0
     b50:	69 83       	std	Y+1, r22	; 0x01
     b52:	7a 83       	std	Y+2, r23	; 0x02
     b54:	19 95       	eicall
     b56:	69 81       	ldd	r22, Y+1	; 0x01
     b58:	46 2e       	mov	r4, r22
     b5a:	7a 81       	ldd	r23, Y+2	; 0x02
     b5c:	57 2e       	mov	r5, r23
     b5e:	64 0c       	add	r6, r4
     b60:	75 1c       	adc	r7, r5
     b62:	d6 01       	movw	r26, r12
     b64:	ed 91       	ld	r30, X+
     b66:	fc 91       	ld	r31, X
     b68:	46 14       	cp	r4, r6
     b6a:	57 04       	cpc	r5, r7
     b6c:	6c f4       	brge	.+26     	; 0xb88 <_ZN12Adafruit_GFX8fillRectEiiiij+0x74>
     b6e:	00 88       	ldd	r0, Z+16	; 0x10
     b70:	f1 89       	ldd	r31, Z+17	; 0x11
     b72:	e0 2d       	mov	r30, r0
     b74:	87 01       	movw	r16, r14
     b76:	94 01       	movw	r18, r8
     b78:	a5 01       	movw	r20, r10
     b7a:	b2 01       	movw	r22, r4
     b7c:	c6 01       	movw	r24, r12
     b7e:	19 95       	eicall
     b80:	bf ef       	ldi	r27, 0xFF	; 255
     b82:	4b 1a       	sub	r4, r27
     b84:	5b 0a       	sbc	r5, r27
     b86:	ed cf       	rjmp	.-38     	; 0xb62 <_ZN12Adafruit_GFX8fillRectEiiiij+0x4e>
     b88:	06 88       	ldd	r0, Z+22	; 0x16
     b8a:	f7 89       	ldd	r31, Z+23	; 0x17
     b8c:	e0 2d       	mov	r30, r0
     b8e:	c6 01       	movw	r24, r12
     b90:	0f 90       	pop	r0
     b92:	0f 90       	pop	r0
     b94:	df 91       	pop	r29
     b96:	cf 91       	pop	r28
     b98:	1f 91       	pop	r17
     b9a:	0f 91       	pop	r16
     b9c:	ff 90       	pop	r15
     b9e:	ef 90       	pop	r14
     ba0:	df 90       	pop	r13
     ba2:	cf 90       	pop	r12
     ba4:	bf 90       	pop	r11
     ba6:	af 90       	pop	r10
     ba8:	9f 90       	pop	r9
     baa:	8f 90       	pop	r8
     bac:	7f 90       	pop	r7
     bae:	6f 90       	pop	r6
     bb0:	5f 90       	pop	r5
     bb2:	4f 90       	pop	r4
     bb4:	19 94       	eijmp

00000bb6 <_ZN12Adafruit_GFX10fillScreenEj>:
     bb6:	ef 92       	push	r14
     bb8:	ff 92       	push	r15
     bba:	0f 93       	push	r16
     bbc:	1f 93       	push	r17
     bbe:	dc 01       	movw	r26, r24
     bc0:	ed 91       	ld	r30, X+
     bc2:	fc 91       	ld	r31, X
     bc4:	11 97       	sbiw	r26, 0x01	; 1
     bc6:	1a 96       	adiw	r26, 0x0a	; 10
     bc8:	0d 91       	ld	r16, X+
     bca:	1c 91       	ld	r17, X
     bcc:	1b 97       	sbiw	r26, 0x0b	; 11
     bce:	18 96       	adiw	r26, 0x08	; 8
     bd0:	2d 91       	ld	r18, X+
     bd2:	3c 91       	ld	r19, X
     bd4:	19 97       	sbiw	r26, 0x09	; 9
     bd6:	00 a0       	ldd	r0, Z+32	; 0x20
     bd8:	f1 a1       	ldd	r31, Z+33	; 0x21
     bda:	e0 2d       	mov	r30, r0
     bdc:	7b 01       	movw	r14, r22
     bde:	40 e0       	ldi	r20, 0x00	; 0
     be0:	50 e0       	ldi	r21, 0x00	; 0
     be2:	60 e0       	ldi	r22, 0x00	; 0
     be4:	70 e0       	ldi	r23, 0x00	; 0
     be6:	19 95       	eicall
     be8:	1f 91       	pop	r17
     bea:	0f 91       	pop	r16
     bec:	ff 90       	pop	r15
     bee:	ef 90       	pop	r14
     bf0:	08 95       	ret

00000bf2 <_ZN12Adafruit_GFX8drawLineEiiiij>:
     bf2:	cf 92       	push	r12
     bf4:	df 92       	push	r13
     bf6:	ef 92       	push	r14
     bf8:	ff 92       	push	r15
     bfa:	0f 93       	push	r16
     bfc:	1f 93       	push	r17
     bfe:	cf 93       	push	r28
     c00:	df 93       	push	r29
     c02:	00 d0       	rcall	.+0      	; 0xc04 <_ZN12Adafruit_GFX8drawLineEiiiij+0x12>
     c04:	00 d0       	rcall	.+0      	; 0xc06 <_ZN12Adafruit_GFX8drawLineEiiiij+0x14>
     c06:	cd b7       	in	r28, 0x3d	; 61
     c08:	de b7       	in	r29, 0x3e	; 62
     c0a:	6c 01       	movw	r12, r24
     c0c:	dc 01       	movw	r26, r24
     c0e:	ed 91       	ld	r30, X+
     c10:	fc 91       	ld	r31, X
     c12:	62 17       	cp	r22, r18
     c14:	73 07       	cpc	r23, r19
     c16:	89 f4       	brne	.+34     	; 0xc3a <_ZN12Adafruit_GFX8drawLineEiiiij+0x48>
     c18:	04 17       	cp	r16, r20
     c1a:	15 07       	cpc	r17, r21
     c1c:	2c f4       	brge	.+10     	; 0xc28 <_ZN12Adafruit_GFX8drawLineEiiiij+0x36>
     c1e:	94 2f       	mov	r25, r20
     c20:	85 2f       	mov	r24, r21
     c22:	a8 01       	movw	r20, r16
     c24:	09 2f       	mov	r16, r25
     c26:	18 2f       	mov	r17, r24
     c28:	04 1b       	sub	r16, r20
     c2a:	15 0b       	sbc	r17, r21
     c2c:	98 01       	movw	r18, r16
     c2e:	2f 5f       	subi	r18, 0xFF	; 255
     c30:	3f 4f       	sbci	r19, 0xFF	; 255
     c32:	04 8c       	ldd	r0, Z+28	; 0x1c
     c34:	f5 8d       	ldd	r31, Z+29	; 0x1d
     c36:	e0 2d       	mov	r30, r0
     c38:	12 c0       	rjmp	.+36     	; 0xc5e <_ZN12Adafruit_GFX8drawLineEiiiij+0x6c>
     c3a:	40 17       	cp	r20, r16
     c3c:	51 07       	cpc	r21, r17
     c3e:	09 f5       	brne	.+66     	; 0xc82 <_ZN12Adafruit_GFX8drawLineEiiiij+0x90>
     c40:	26 17       	cp	r18, r22
     c42:	37 07       	cpc	r19, r23
     c44:	2c f4       	brge	.+10     	; 0xc50 <_ZN12Adafruit_GFX8drawLineEiiiij+0x5e>
     c46:	96 2f       	mov	r25, r22
     c48:	87 2f       	mov	r24, r23
     c4a:	b9 01       	movw	r22, r18
     c4c:	29 2f       	mov	r18, r25
     c4e:	38 2f       	mov	r19, r24
     c50:	26 1b       	sub	r18, r22
     c52:	37 0b       	sbc	r19, r23
     c54:	2f 5f       	subi	r18, 0xFF	; 255
     c56:	3f 4f       	sbci	r19, 0xFF	; 255
     c58:	06 8c       	ldd	r0, Z+30	; 0x1e
     c5a:	f7 8d       	ldd	r31, Z+31	; 0x1f
     c5c:	e0 2d       	mov	r30, r0
     c5e:	87 01       	movw	r16, r14
     c60:	c6 01       	movw	r24, r12
     c62:	19 95       	eicall
     c64:	26 96       	adiw	r28, 0x06	; 6
     c66:	0f b6       	in	r0, 0x3f	; 63
     c68:	f8 94       	cli
     c6a:	de bf       	out	0x3e, r29	; 62
     c6c:	0f be       	out	0x3f, r0	; 63
     c6e:	cd bf       	out	0x3d, r28	; 61
     c70:	df 91       	pop	r29
     c72:	cf 91       	pop	r28
     c74:	1f 91       	pop	r17
     c76:	0f 91       	pop	r16
     c78:	ff 90       	pop	r15
     c7a:	ef 90       	pop	r14
     c7c:	df 90       	pop	r13
     c7e:	cf 90       	pop	r12
     c80:	08 95       	ret
     c82:	02 84       	ldd	r0, Z+10	; 0x0a
     c84:	f3 85       	ldd	r31, Z+11	; 0x0b
     c86:	e0 2d       	mov	r30, r0
     c88:	2d 83       	std	Y+5, r18	; 0x05
     c8a:	3e 83       	std	Y+6, r19	; 0x06
     c8c:	4b 83       	std	Y+3, r20	; 0x03
     c8e:	5c 83       	std	Y+4, r21	; 0x04
     c90:	69 83       	std	Y+1, r22	; 0x01
     c92:	7a 83       	std	Y+2, r23	; 0x02
     c94:	19 95       	eicall
     c96:	d6 01       	movw	r26, r12
     c98:	ed 91       	ld	r30, X+
     c9a:	fc 91       	ld	r31, X
     c9c:	04 88       	ldd	r0, Z+20	; 0x14
     c9e:	f5 89       	ldd	r31, Z+21	; 0x15
     ca0:	e0 2d       	mov	r30, r0
     ca2:	2d 81       	ldd	r18, Y+5	; 0x05
     ca4:	3e 81       	ldd	r19, Y+6	; 0x06
     ca6:	4b 81       	ldd	r20, Y+3	; 0x03
     ca8:	5c 81       	ldd	r21, Y+4	; 0x04
     caa:	69 81       	ldd	r22, Y+1	; 0x01
     cac:	7a 81       	ldd	r23, Y+2	; 0x02
     cae:	c6 01       	movw	r24, r12
     cb0:	19 95       	eicall
     cb2:	d6 01       	movw	r26, r12
     cb4:	ed 91       	ld	r30, X+
     cb6:	fc 91       	ld	r31, X
     cb8:	06 88       	ldd	r0, Z+22	; 0x16
     cba:	f7 89       	ldd	r31, Z+23	; 0x17
     cbc:	e0 2d       	mov	r30, r0
     cbe:	c6 01       	movw	r24, r12
     cc0:	26 96       	adiw	r28, 0x06	; 6
     cc2:	0f b6       	in	r0, 0x3f	; 63
     cc4:	f8 94       	cli
     cc6:	de bf       	out	0x3e, r29	; 62
     cc8:	0f be       	out	0x3f, r0	; 63
     cca:	cd bf       	out	0x3d, r28	; 61
     ccc:	df 91       	pop	r29
     cce:	cf 91       	pop	r28
     cd0:	1f 91       	pop	r17
     cd2:	0f 91       	pop	r16
     cd4:	ff 90       	pop	r15
     cd6:	ef 90       	pop	r14
     cd8:	df 90       	pop	r13
     cda:	cf 90       	pop	r12
     cdc:	19 94       	eijmp

00000cde <_ZN12Adafruit_GFX8drawRectEiiiij>:
     cde:	6f 92       	push	r6
     ce0:	7f 92       	push	r7
     ce2:	8f 92       	push	r8
     ce4:	9f 92       	push	r9
     ce6:	af 92       	push	r10
     ce8:	bf 92       	push	r11
     cea:	cf 92       	push	r12
     cec:	df 92       	push	r13
     cee:	ef 92       	push	r14
     cf0:	ff 92       	push	r15
     cf2:	0f 93       	push	r16
     cf4:	1f 93       	push	r17
     cf6:	cf 93       	push	r28
     cf8:	df 93       	push	r29
     cfa:	ec 01       	movw	r28, r24
     cfc:	4b 01       	movw	r8, r22
     cfe:	5a 01       	movw	r10, r20
     d00:	69 01       	movw	r12, r18
     d02:	38 01       	movw	r6, r16
     d04:	e8 81       	ld	r30, Y
     d06:	f9 81       	ldd	r31, Y+1	; 0x01
     d08:	02 84       	ldd	r0, Z+10	; 0x0a
     d0a:	f3 85       	ldd	r31, Z+11	; 0x0b
     d0c:	e0 2d       	mov	r30, r0
     d0e:	19 95       	eicall
     d10:	e8 81       	ld	r30, Y
     d12:	f9 81       	ldd	r31, Y+1	; 0x01
     d14:	02 88       	ldd	r0, Z+18	; 0x12
     d16:	f3 89       	ldd	r31, Z+19	; 0x13
     d18:	e0 2d       	mov	r30, r0
     d1a:	87 01       	movw	r16, r14
     d1c:	96 01       	movw	r18, r12
     d1e:	a5 01       	movw	r20, r10
     d20:	b4 01       	movw	r22, r8
     d22:	ce 01       	movw	r24, r28
     d24:	19 95       	eicall
     d26:	e8 81       	ld	r30, Y
     d28:	f9 81       	ldd	r31, Y+1	; 0x01
     d2a:	a5 01       	movw	r20, r10
     d2c:	46 0d       	add	r20, r6
     d2e:	57 1d       	adc	r21, r7
     d30:	41 50       	subi	r20, 0x01	; 1
     d32:	51 09       	sbc	r21, r1
     d34:	02 88       	ldd	r0, Z+18	; 0x12
     d36:	f3 89       	ldd	r31, Z+19	; 0x13
     d38:	e0 2d       	mov	r30, r0
     d3a:	96 01       	movw	r18, r12
     d3c:	b4 01       	movw	r22, r8
     d3e:	ce 01       	movw	r24, r28
     d40:	19 95       	eicall
     d42:	e8 81       	ld	r30, Y
     d44:	f9 81       	ldd	r31, Y+1	; 0x01
     d46:	00 88       	ldd	r0, Z+16	; 0x10
     d48:	f1 89       	ldd	r31, Z+17	; 0x11
     d4a:	e0 2d       	mov	r30, r0
     d4c:	93 01       	movw	r18, r6
     d4e:	a5 01       	movw	r20, r10
     d50:	b4 01       	movw	r22, r8
     d52:	ce 01       	movw	r24, r28
     d54:	19 95       	eicall
     d56:	e8 81       	ld	r30, Y
     d58:	f9 81       	ldd	r31, Y+1	; 0x01
     d5a:	c8 0c       	add	r12, r8
     d5c:	d9 1c       	adc	r13, r9
     d5e:	b6 01       	movw	r22, r12
     d60:	61 50       	subi	r22, 0x01	; 1
     d62:	71 09       	sbc	r23, r1
     d64:	00 88       	ldd	r0, Z+16	; 0x10
     d66:	f1 89       	ldd	r31, Z+17	; 0x11
     d68:	e0 2d       	mov	r30, r0
     d6a:	93 01       	movw	r18, r6
     d6c:	a5 01       	movw	r20, r10
     d6e:	ce 01       	movw	r24, r28
     d70:	19 95       	eicall
     d72:	e8 81       	ld	r30, Y
     d74:	f9 81       	ldd	r31, Y+1	; 0x01
     d76:	06 88       	ldd	r0, Z+22	; 0x16
     d78:	f7 89       	ldd	r31, Z+23	; 0x17
     d7a:	e0 2d       	mov	r30, r0
     d7c:	ce 01       	movw	r24, r28
     d7e:	df 91       	pop	r29
     d80:	cf 91       	pop	r28
     d82:	1f 91       	pop	r17
     d84:	0f 91       	pop	r16
     d86:	ff 90       	pop	r15
     d88:	ef 90       	pop	r14
     d8a:	df 90       	pop	r13
     d8c:	cf 90       	pop	r12
     d8e:	bf 90       	pop	r11
     d90:	af 90       	pop	r10
     d92:	9f 90       	pop	r9
     d94:	8f 90       	pop	r8
     d96:	7f 90       	pop	r7
     d98:	6f 90       	pop	r6
     d9a:	19 94       	eijmp

00000d9c <_ZN12Adafruit_GFX13invertDisplayEb>:
     d9c:	08 95       	ret

00000d9e <_ZN12Adafruit_GFX11setRotationEh>:
     d9e:	fc 01       	movw	r30, r24
     da0:	63 70       	andi	r22, 0x03	; 3
     da2:	65 8b       	std	Z+21, r22	; 0x15
     da4:	84 81       	ldd	r24, Z+4	; 0x04
     da6:	95 81       	ldd	r25, Z+5	; 0x05
     da8:	26 81       	ldd	r18, Z+6	; 0x06
     daa:	37 81       	ldd	r19, Z+7	; 0x07
     dac:	61 30       	cpi	r22, 0x01	; 1
     dae:	39 f0       	breq	.+14     	; 0xdbe <_ZN12Adafruit_GFX11setRotationEh+0x20>
     db0:	63 30       	cpi	r22, 0x03	; 3
     db2:	29 f0       	breq	.+10     	; 0xdbe <_ZN12Adafruit_GFX11setRotationEh+0x20>
     db4:	91 87       	std	Z+9, r25	; 0x09
     db6:	80 87       	std	Z+8, r24	; 0x08
     db8:	33 87       	std	Z+11, r19	; 0x0b
     dba:	22 87       	std	Z+10, r18	; 0x0a
     dbc:	08 95       	ret
     dbe:	31 87       	std	Z+9, r19	; 0x09
     dc0:	20 87       	std	Z+8, r18	; 0x08
     dc2:	93 87       	std	Z+11, r25	; 0x0b
     dc4:	82 87       	std	Z+10, r24	; 0x0a
     dc6:	08 95       	ret

00000dc8 <_ZN12Adafruit_GFXC1Eii>:
     dc8:	fc 01       	movw	r30, r24
     dca:	13 82       	std	Z+3, r1	; 0x03
     dcc:	12 82       	std	Z+2, r1	; 0x02
     dce:	8b e5       	ldi	r24, 0x5B	; 91
     dd0:	96 e0       	ldi	r25, 0x06	; 6
     dd2:	91 83       	std	Z+1, r25	; 0x01
     dd4:	80 83       	st	Z, r24
     dd6:	75 83       	std	Z+5, r23	; 0x05
     dd8:	64 83       	std	Z+4, r22	; 0x04
     dda:	57 83       	std	Z+7, r21	; 0x07
     ddc:	46 83       	std	Z+6, r20	; 0x06
     dde:	71 87       	std	Z+9, r23	; 0x09
     de0:	60 87       	std	Z+8, r22	; 0x08
     de2:	53 87       	std	Z+11, r21	; 0x0b
     de4:	42 87       	std	Z+10, r20	; 0x0a
     de6:	15 8a       	std	Z+21, r1	; 0x15
     de8:	15 86       	std	Z+13, r1	; 0x0d
     dea:	14 86       	std	Z+12, r1	; 0x0c
     dec:	17 86       	std	Z+15, r1	; 0x0f
     dee:	16 86       	std	Z+14, r1	; 0x0e
     df0:	81 e0       	ldi	r24, 0x01	; 1
     df2:	84 8b       	std	Z+20, r24	; 0x14
     df4:	2f ef       	ldi	r18, 0xFF	; 255
     df6:	3f ef       	ldi	r19, 0xFF	; 255
     df8:	33 8b       	std	Z+19, r19	; 0x13
     dfa:	22 8b       	std	Z+18, r18	; 0x12
     dfc:	31 8b       	std	Z+17, r19	; 0x11
     dfe:	20 8b       	std	Z+16, r18	; 0x10
     e00:	86 8b       	std	Z+22, r24	; 0x16
     e02:	17 8a       	std	Z+23, r1	; 0x17
     e04:	11 8e       	std	Z+25, r1	; 0x19
     e06:	10 8e       	std	Z+24, r1	; 0x18
     e08:	08 95       	ret

00000e0a <_ZN12Adafruit_GFX8drawCharEiihjjh>:
     e0a:	2f 92       	push	r2
     e0c:	3f 92       	push	r3
     e0e:	4f 92       	push	r4
     e10:	5f 92       	push	r5
     e12:	6f 92       	push	r6
     e14:	7f 92       	push	r7
     e16:	8f 92       	push	r8
     e18:	9f 92       	push	r9
     e1a:	af 92       	push	r10
     e1c:	bf 92       	push	r11
     e1e:	cf 92       	push	r12
     e20:	df 92       	push	r13
     e22:	ef 92       	push	r14
     e24:	ff 92       	push	r15
     e26:	0f 93       	push	r16
     e28:	1f 93       	push	r17
     e2a:	cf 93       	push	r28
     e2c:	df 93       	push	r29
     e2e:	cd b7       	in	r28, 0x3d	; 61
     e30:	de b7       	in	r29, 0x3e	; 62
     e32:	6c 97       	sbiw	r28, 0x1c	; 28
     e34:	0f b6       	in	r0, 0x3f	; 63
     e36:	f8 94       	cli
     e38:	de bf       	out	0x3e, r29	; 62
     e3a:	0f be       	out	0x3f, r0	; 63
     e3c:	cd bf       	out	0x3d, r28	; 61
     e3e:	9c 8f       	std	Y+28, r25	; 0x1c
     e40:	8b 8f       	std	Y+27, r24	; 0x1b
     e42:	5b 01       	movw	r10, r22
     e44:	1a 01       	movw	r2, r20
     e46:	1f 83       	std	Y+7, r17	; 0x07
     e48:	0e 83       	std	Y+6, r16	; 0x06
     e4a:	37 01       	movw	r6, r14
     e4c:	c9 82       	std	Y+1, r12	; 0x01
     e4e:	dc 01       	movw	r26, r24
     e50:	58 96       	adiw	r26, 0x18	; 24
     e52:	4d 91       	ld	r20, X+
     e54:	5c 91       	ld	r21, X
     e56:	59 97       	sbiw	r26, 0x19	; 25
     e58:	41 15       	cp	r20, r1
     e5a:	51 05       	cpc	r21, r1
     e5c:	09 f0       	breq	.+2      	; 0xe60 <_ZN12Adafruit_GFX8drawCharEiihjjh+0x56>
     e5e:	e5 c0       	rjmp	.+458    	; 0x102a <_ZN12Adafruit_GFX8drawCharEiihjjh+0x220>
     e60:	18 96       	adiw	r26, 0x08	; 8
     e62:	8d 91       	ld	r24, X+
     e64:	9c 91       	ld	r25, X
     e66:	19 97       	sbiw	r26, 0x09	; 9
     e68:	68 17       	cp	r22, r24
     e6a:	79 07       	cpc	r23, r25
     e6c:	0c f0       	brlt	.+2      	; 0xe70 <_ZN12Adafruit_GFX8drawCharEiihjjh+0x66>
     e6e:	ca c1       	rjmp	.+916    	; 0x1204 <_ZN12Adafruit_GFX8drawCharEiihjjh+0x3fa>
     e70:	1a 96       	adiw	r26, 0x0a	; 10
     e72:	8d 91       	ld	r24, X+
     e74:	9c 91       	ld	r25, X
     e76:	1b 97       	sbiw	r26, 0x0b	; 11
     e78:	28 16       	cp	r2, r24
     e7a:	39 06       	cpc	r3, r25
     e7c:	0c f0       	brlt	.+2      	; 0xe80 <_ZN12Adafruit_GFX8drawCharEiihjjh+0x76>
     e7e:	c2 c1       	rjmp	.+900    	; 0x1204 <_ZN12Adafruit_GFX8drawCharEiihjjh+0x3fa>
     e80:	8c 2c       	mov	r8, r12
     e82:	91 2c       	mov	r9, r1
     e84:	fb 01       	movw	r30, r22
     e86:	36 e0       	ldi	r19, 0x06	; 6
     e88:	c3 9e       	mul	r12, r19
     e8a:	e0 0d       	add	r30, r0
     e8c:	f1 1d       	adc	r31, r1
     e8e:	11 24       	eor	r1, r1
     e90:	fb 87       	std	Y+11, r31	; 0x0b
     e92:	ea 87       	std	Y+10, r30	; 0x0a
     e94:	1e 16       	cp	r1, r30
     e96:	1f 06       	cpc	r1, r31
     e98:	0c f0       	brlt	.+2      	; 0xe9c <_ZN12Adafruit_GFX8drawCharEiihjjh+0x92>
     e9a:	b4 c1       	rjmp	.+872    	; 0x1204 <_ZN12Adafruit_GFX8drawCharEiihjjh+0x3fa>
     e9c:	c4 01       	movw	r24, r8
     e9e:	33 e0       	ldi	r19, 0x03	; 3
     ea0:	88 0f       	add	r24, r24
     ea2:	99 1f       	adc	r25, r25
     ea4:	3a 95       	dec	r19
     ea6:	e1 f7       	brne	.-8      	; 0xea0 <_ZN12Adafruit_GFX8drawCharEiihjjh+0x96>
     ea8:	9d 87       	std	Y+13, r25	; 0x0d
     eaa:	8c 87       	std	Y+12, r24	; 0x0c
     eac:	82 0d       	add	r24, r2
     eae:	93 1d       	adc	r25, r3
     eb0:	18 16       	cp	r1, r24
     eb2:	19 06       	cpc	r1, r25
     eb4:	0c f0       	brlt	.+2      	; 0xeb8 <_ZN12Adafruit_GFX8drawCharEiihjjh+0xae>
     eb6:	a6 c1       	rjmp	.+844    	; 0x1204 <_ZN12Adafruit_GFX8drawCharEiihjjh+0x3fa>
     eb8:	57 96       	adiw	r26, 0x17	; 23
     eba:	8c 91       	ld	r24, X
     ebc:	81 11       	cpse	r24, r1
     ebe:	03 c0       	rjmp	.+6      	; 0xec6 <_ZN12Adafruit_GFX8drawCharEiihjjh+0xbc>
     ec0:	20 3b       	cpi	r18, 0xB0	; 176
     ec2:	08 f0       	brcs	.+2      	; 0xec6 <_ZN12Adafruit_GFX8drawCharEiihjjh+0xbc>
     ec4:	2f 5f       	subi	r18, 0xFF	; 255
     ec6:	ab 8d       	ldd	r26, Y+27	; 0x1b
     ec8:	bc 8d       	ldd	r27, Y+28	; 0x1c
     eca:	ed 91       	ld	r30, X+
     ecc:	fc 91       	ld	r31, X
     ece:	11 97       	sbiw	r26, 0x01	; 1
     ed0:	02 84       	ldd	r0, Z+10	; 0x0a
     ed2:	f3 85       	ldd	r31, Z+11	; 0x0b
     ed4:	e0 2d       	mov	r30, r0
     ed6:	cd 01       	movw	r24, r26
     ed8:	2a 8f       	std	Y+26, r18	; 0x1a
     eda:	19 95       	eicall
     edc:	2a 8d       	ldd	r18, Y+26	; 0x1a
     ede:	b5 e0       	ldi	r27, 0x05	; 5
     ee0:	2b 9f       	mul	r18, r27
     ee2:	90 01       	movw	r18, r0
     ee4:	11 24       	eor	r1, r1
     ee6:	f5 01       	movw	r30, r10
     ee8:	35 96       	adiw	r30, 0x05	; 5
     eea:	ff 87       	std	Y+15, r31	; 0x0f
     eec:	ee 87       	std	Y+14, r30	; 0x0e
     eee:	25 01       	movw	r4, r10
     ef0:	bb 82       	std	Y+3, r11	; 0x03
     ef2:	aa 82       	std	Y+2, r10	; 0x02
     ef4:	a9 01       	movw	r20, r18
     ef6:	4a 19       	sub	r20, r10
     ef8:	5b 09       	sbc	r21, r11
     efa:	59 8b       	std	Y+17, r21	; 0x11
     efc:	48 8b       	std	Y+16, r20	; 0x10
     efe:	c1 01       	movw	r24, r2
     f00:	08 96       	adiw	r24, 0x08	; 8
     f02:	9b 8b       	std	Y+19, r25	; 0x13
     f04:	8a 8b       	std	Y+18, r24	; 0x12
     f06:	e8 89       	ldd	r30, Y+16	; 0x10
     f08:	f9 89       	ldd	r31, Y+17	; 0x11
     f0a:	e4 0d       	add	r30, r4
     f0c:	f5 1d       	adc	r31, r5
     f0e:	ea 54       	subi	r30, 0x4A	; 74
     f10:	fe 4f       	sbci	r31, 0xFE	; 254
     f12:	94 91       	lpm	r25, Z
     f14:	98 87       	std	Y+8, r25	; 0x08
     f16:	3d 82       	std	Y+5, r3	; 0x05
     f18:	2c 82       	std	Y+4, r2	; 0x04
     f1a:	61 01       	movw	r12, r2
     f1c:	a8 85       	ldd	r26, Y+8	; 0x08
     f1e:	a0 ff       	sbrs	r26, 0
     f20:	13 c0       	rjmp	.+38     	; 0xf48 <_ZN12Adafruit_GFX8drawCharEiihjjh+0x13e>
     f22:	ab 8d       	ldd	r26, Y+27	; 0x1b
     f24:	bc 8d       	ldd	r27, Y+28	; 0x1c
     f26:	ed 91       	ld	r30, X+
     f28:	fc 91       	ld	r31, X
     f2a:	b9 81       	ldd	r27, Y+1	; 0x01
     f2c:	b1 30       	cpi	r27, 0x01	; 1
     f2e:	31 f4       	brne	.+12     	; 0xf3c <_ZN12Adafruit_GFX8drawCharEiihjjh+0x132>
     f30:	04 84       	ldd	r0, Z+12	; 0x0c
     f32:	f5 85       	ldd	r31, Z+13	; 0x0d
     f34:	e0 2d       	mov	r30, r0
     f36:	2e 81       	ldd	r18, Y+6	; 0x06
     f38:	3f 81       	ldd	r19, Y+7	; 0x07
     f3a:	16 c0       	rjmp	.+44     	; 0xf68 <_ZN12Adafruit_GFX8drawCharEiihjjh+0x15e>
     f3c:	06 84       	ldd	r0, Z+14	; 0x0e
     f3e:	f7 85       	ldd	r31, Z+15	; 0x0f
     f40:	e0 2d       	mov	r30, r0
     f42:	ee 80       	ldd	r14, Y+6	; 0x06
     f44:	ff 80       	ldd	r15, Y+7	; 0x07
     f46:	1a c0       	rjmp	.+52     	; 0xf7c <_ZN12Adafruit_GFX8drawCharEiihjjh+0x172>
     f48:	ee 81       	ldd	r30, Y+6	; 0x06
     f4a:	ff 81       	ldd	r31, Y+7	; 0x07
     f4c:	6e 16       	cp	r6, r30
     f4e:	7f 06       	cpc	r7, r31
     f50:	f1 f0       	breq	.+60     	; 0xf8e <_ZN12Adafruit_GFX8drawCharEiihjjh+0x184>
     f52:	ab 8d       	ldd	r26, Y+27	; 0x1b
     f54:	bc 8d       	ldd	r27, Y+28	; 0x1c
     f56:	ed 91       	ld	r30, X+
     f58:	fc 91       	ld	r31, X
     f5a:	b9 81       	ldd	r27, Y+1	; 0x01
     f5c:	b1 30       	cpi	r27, 0x01	; 1
     f5e:	51 f4       	brne	.+20     	; 0xf74 <_ZN12Adafruit_GFX8drawCharEiihjjh+0x16a>
     f60:	04 84       	ldd	r0, Z+12	; 0x0c
     f62:	f5 85       	ldd	r31, Z+13	; 0x0d
     f64:	e0 2d       	mov	r30, r0
     f66:	93 01       	movw	r18, r6
     f68:	a6 01       	movw	r20, r12
     f6a:	b2 01       	movw	r22, r4
     f6c:	8b 8d       	ldd	r24, Y+27	; 0x1b
     f6e:	9c 8d       	ldd	r25, Y+28	; 0x1c
     f70:	19 95       	eicall
     f72:	0d c0       	rjmp	.+26     	; 0xf8e <_ZN12Adafruit_GFX8drawCharEiihjjh+0x184>
     f74:	06 84       	ldd	r0, Z+14	; 0x0e
     f76:	f7 85       	ldd	r31, Z+15	; 0x0f
     f78:	e0 2d       	mov	r30, r0
     f7a:	73 01       	movw	r14, r6
     f7c:	84 01       	movw	r16, r8
     f7e:	94 01       	movw	r18, r8
     f80:	4c 81       	ldd	r20, Y+4	; 0x04
     f82:	5d 81       	ldd	r21, Y+5	; 0x05
     f84:	6a 81       	ldd	r22, Y+2	; 0x02
     f86:	7b 81       	ldd	r23, Y+3	; 0x03
     f88:	8b 8d       	ldd	r24, Y+27	; 0x1b
     f8a:	9c 8d       	ldd	r25, Y+28	; 0x1c
     f8c:	19 95       	eicall
     f8e:	e8 85       	ldd	r30, Y+8	; 0x08
     f90:	e6 95       	lsr	r30
     f92:	e8 87       	std	Y+8, r30	; 0x08
     f94:	2c 81       	ldd	r18, Y+4	; 0x04
     f96:	3d 81       	ldd	r19, Y+5	; 0x05
     f98:	28 0d       	add	r18, r8
     f9a:	39 1d       	adc	r19, r9
     f9c:	3d 83       	std	Y+5, r19	; 0x05
     f9e:	2c 83       	std	Y+4, r18	; 0x04
     fa0:	3f ef       	ldi	r19, 0xFF	; 255
     fa2:	c3 1a       	sub	r12, r19
     fa4:	d3 0a       	sbc	r13, r19
     fa6:	4a 89       	ldd	r20, Y+18	; 0x12
     fa8:	5b 89       	ldd	r21, Y+19	; 0x13
     faa:	c4 16       	cp	r12, r20
     fac:	d5 06       	cpc	r13, r21
     fae:	09 f0       	breq	.+2      	; 0xfb2 <_ZN12Adafruit_GFX8drawCharEiihjjh+0x1a8>
     fb0:	b5 cf       	rjmp	.-150    	; 0xf1c <_ZN12Adafruit_GFX8drawCharEiihjjh+0x112>
     fb2:	8a 81       	ldd	r24, Y+2	; 0x02
     fb4:	9b 81       	ldd	r25, Y+3	; 0x03
     fb6:	88 0d       	add	r24, r8
     fb8:	99 1d       	adc	r25, r9
     fba:	9b 83       	std	Y+3, r25	; 0x03
     fbc:	8a 83       	std	Y+2, r24	; 0x02
     fbe:	9f ef       	ldi	r25, 0xFF	; 255
     fc0:	49 1a       	sub	r4, r25
     fc2:	59 0a       	sbc	r5, r25
     fc4:	ae 85       	ldd	r26, Y+14	; 0x0e
     fc6:	bf 85       	ldd	r27, Y+15	; 0x0f
     fc8:	4a 16       	cp	r4, r26
     fca:	5b 06       	cpc	r5, r27
     fcc:	09 f0       	breq	.+2      	; 0xfd0 <_ZN12Adafruit_GFX8drawCharEiihjjh+0x1c6>
     fce:	9b cf       	rjmp	.-202    	; 0xf06 <_ZN12Adafruit_GFX8drawCharEiihjjh+0xfc>
     fd0:	ee 81       	ldd	r30, Y+6	; 0x06
     fd2:	ff 81       	ldd	r31, Y+7	; 0x07
     fd4:	6e 16       	cp	r6, r30
     fd6:	7f 06       	cpc	r7, r31
     fd8:	09 f4       	brne	.+2      	; 0xfdc <_ZN12Adafruit_GFX8drawCharEiihjjh+0x1d2>
     fda:	f2 c0       	rjmp	.+484    	; 0x11c0 <_ZN12Adafruit_GFX8drawCharEiihjjh+0x3b6>
     fdc:	eb 8d       	ldd	r30, Y+27	; 0x1b
     fde:	fc 8d       	ldd	r31, Y+28	; 0x1c
     fe0:	a0 81       	ld	r26, Z
     fe2:	b1 81       	ldd	r27, Z+1	; 0x01
     fe4:	f9 81       	ldd	r31, Y+1	; 0x01
     fe6:	f1 30       	cpi	r31, 0x01	; 1
     fe8:	79 f4       	brne	.+30     	; 0x1008 <_ZN12Adafruit_GFX8drawCharEiihjjh+0x1fe>
     fea:	b5 01       	movw	r22, r10
     fec:	6b 5f       	subi	r22, 0xFB	; 251
     fee:	7f 4f       	sbci	r23, 0xFF	; 255
     ff0:	50 96       	adiw	r26, 0x10	; 16
     ff2:	ed 91       	ld	r30, X+
     ff4:	fc 91       	ld	r31, X
     ff6:	51 97       	sbiw	r26, 0x11	; 17
     ff8:	83 01       	movw	r16, r6
     ffa:	28 e0       	ldi	r18, 0x08	; 8
     ffc:	30 e0       	ldi	r19, 0x00	; 0
     ffe:	a1 01       	movw	r20, r2
    1000:	8b 8d       	ldd	r24, Y+27	; 0x1b
    1002:	9c 8d       	ldd	r25, Y+28	; 0x1c
    1004:	19 95       	eicall
    1006:	dc c0       	rjmp	.+440    	; 0x11c0 <_ZN12Adafruit_GFX8drawCharEiihjjh+0x3b6>
    1008:	6a 85       	ldd	r22, Y+10	; 0x0a
    100a:	7b 85       	ldd	r23, Y+11	; 0x0b
    100c:	68 19       	sub	r22, r8
    100e:	79 09       	sbc	r23, r9
    1010:	1e 96       	adiw	r26, 0x0e	; 14
    1012:	ed 91       	ld	r30, X+
    1014:	fc 91       	ld	r31, X
    1016:	1f 97       	sbiw	r26, 0x0f	; 15
    1018:	73 01       	movw	r14, r6
    101a:	0c 85       	ldd	r16, Y+12	; 0x0c
    101c:	1d 85       	ldd	r17, Y+13	; 0x0d
    101e:	94 01       	movw	r18, r8
    1020:	a1 01       	movw	r20, r2
    1022:	8b 8d       	ldd	r24, Y+27	; 0x1b
    1024:	9c 8d       	ldd	r25, Y+28	; 0x1c
    1026:	19 95       	eicall
    1028:	cb c0       	rjmp	.+406    	; 0x11c0 <_ZN12Adafruit_GFX8drawCharEiihjjh+0x3b6>
    102a:	fa 01       	movw	r30, r20
    102c:	34 96       	adiw	r30, 0x04	; 4
    102e:	94 91       	lpm	r25, Z
    1030:	32 97       	sbiw	r30, 0x02	; 2
    1032:	65 91       	lpm	r22, Z+
    1034:	74 91       	lpm	r23, Z
    1036:	29 1b       	sub	r18, r25
    1038:	cb 01       	movw	r24, r22
    103a:	b7 e0       	ldi	r27, 0x07	; 7
    103c:	2b 9f       	mul	r18, r27
    103e:	80 0d       	add	r24, r0
    1040:	91 1d       	adc	r25, r1
    1042:	11 24       	eor	r1, r1
    1044:	fa 01       	movw	r30, r20
    1046:	25 91       	lpm	r18, Z+
    1048:	34 91       	lpm	r19, Z
    104a:	3b 8b       	std	Y+19, r19	; 0x13
    104c:	2a 8b       	std	Y+18, r18	; 0x12
    104e:	fc 01       	movw	r30, r24
    1050:	45 91       	lpm	r20, Z+
    1052:	54 91       	lpm	r21, Z
    1054:	5b 83       	std	Y+3, r21	; 0x03
    1056:	4a 83       	std	Y+2, r20	; 0x02
    1058:	fc 01       	movw	r30, r24
    105a:	32 96       	adiw	r30, 0x02	; 2
    105c:	c4 90       	lpm	r12, Z
    105e:	31 96       	adiw	r30, 0x01	; 1
    1060:	54 91       	lpm	r21, Z
    1062:	5c 87       	std	Y+12, r21	; 0x0c
    1064:	32 96       	adiw	r30, 0x02	; 2
    1066:	14 91       	lpm	r17, Z
    1068:	31 96       	adiw	r30, 0x01	; 1
    106a:	d4 90       	lpm	r13, Z
    106c:	89 81       	ldd	r24, Y+1	; 0x01
    106e:	82 30       	cpi	r24, 0x02	; 2
    1070:	58 f0       	brcs	.+22     	; 0x1088 <_ZN12Adafruit_GFX8drawCharEiihjjh+0x27e>
    1072:	61 2e       	mov	r6, r17
    1074:	01 2e       	mov	r0, r17
    1076:	00 0c       	add	r0, r0
    1078:	77 08       	sbc	r7, r7
    107a:	ad 2d       	mov	r26, r13
    107c:	0d 2c       	mov	r0, r13
    107e:	00 0c       	add	r0, r0
    1080:	bb 0b       	sbc	r27, r27
    1082:	b9 87       	std	Y+9, r27	; 0x09
    1084:	a8 87       	std	Y+8, r26	; 0x08
    1086:	04 c0       	rjmp	.+8      	; 0x1090 <_ZN12Adafruit_GFX8drawCharEiihjjh+0x286>
    1088:	19 86       	std	Y+9, r1	; 0x09
    108a:	18 86       	std	Y+8, r1	; 0x08
    108c:	61 2c       	mov	r6, r1
    108e:	71 2c       	mov	r7, r1
    1090:	ab 8d       	ldd	r26, Y+27	; 0x1b
    1092:	bc 8d       	ldd	r27, Y+28	; 0x1c
    1094:	ed 91       	ld	r30, X+
    1096:	fc 91       	ld	r31, X
    1098:	11 97       	sbiw	r26, 0x01	; 1
    109a:	02 84       	ldd	r0, Z+10	; 0x0a
    109c:	f3 85       	ldd	r31, Z+11	; 0x0b
    109e:	e0 2d       	mov	r30, r0
    10a0:	cd 01       	movw	r24, r26
    10a2:	19 95       	eicall
    10a4:	b9 81       	ldd	r27, Y+1	; 0x01
    10a6:	8b 2e       	mov	r8, r27
    10a8:	91 2c       	mov	r9, r1
    10aa:	68 9c       	mul	r6, r8
    10ac:	c0 01       	movw	r24, r0
    10ae:	69 9c       	mul	r6, r9
    10b0:	90 0d       	add	r25, r0
    10b2:	78 9c       	mul	r7, r8
    10b4:	90 0d       	add	r25, r0
    10b6:	11 24       	eor	r1, r1
    10b8:	fc 01       	movw	r30, r24
    10ba:	ea 0d       	add	r30, r10
    10bc:	fb 1d       	adc	r31, r11
    10be:	f9 8b       	std	Y+17, r31	; 0x11
    10c0:	e8 8b       	std	Y+16, r30	; 0x10
    10c2:	1c 82       	std	Y+4, r1	; 0x04
    10c4:	71 2c       	mov	r7, r1
    10c6:	61 2c       	mov	r6, r1
    10c8:	e1 2f       	mov	r30, r17
    10ca:	11 0f       	add	r17, r17
    10cc:	ff 0b       	sbc	r31, r31
    10ce:	95 01       	movw	r18, r10
    10d0:	2e 0f       	add	r18, r30
    10d2:	3f 1f       	adc	r19, r31
    10d4:	3b 87       	std	Y+11, r19	; 0x0b
    10d6:	2a 87       	std	Y+10, r18	; 0x0a
    10d8:	ac 0c       	add	r10, r12
    10da:	b1 1c       	adc	r11, r1
    10dc:	a5 01       	movw	r20, r10
    10de:	4e 0f       	add	r20, r30
    10e0:	5f 1f       	adc	r21, r31
    10e2:	5f 8b       	std	Y+23, r21	; 0x17
    10e4:	4e 8b       	std	Y+22, r20	; 0x16
    10e6:	c1 01       	movw	r24, r2
    10e8:	8d 0d       	add	r24, r13
    10ea:	91 1d       	adc	r25, r1
    10ec:	d7 fc       	sbrc	r13, 7
    10ee:	9a 95       	dec	r25
    10f0:	99 8f       	std	Y+25, r25	; 0x19
    10f2:	88 8f       	std	Y+24, r24	; 0x18
    10f4:	4c 85       	ldd	r20, Y+12	; 0x0c
    10f6:	64 16       	cp	r6, r20
    10f8:	08 f0       	brcs	.+2      	; 0x10fc <_ZN12Adafruit_GFX8drawCharEiihjjh+0x2f2>
    10fa:	62 c0       	rjmp	.+196    	; 0x11c0 <_ZN12Adafruit_GFX8drawCharEiihjjh+0x3b6>
    10fc:	86 2d       	mov	r24, r6
    10fe:	90 e0       	ldi	r25, 0x00	; 0
    1100:	48 85       	ldd	r20, Y+8	; 0x08
    1102:	59 85       	ldd	r21, Y+9	; 0x09
    1104:	48 0f       	add	r20, r24
    1106:	59 1f       	adc	r21, r25
    1108:	48 9d       	mul	r20, r8
    110a:	90 01       	movw	r18, r0
    110c:	49 9d       	mul	r20, r9
    110e:	30 0d       	add	r19, r0
    1110:	58 9d       	mul	r21, r8
    1112:	30 0d       	add	r19, r0
    1114:	11 24       	eor	r1, r1
    1116:	d9 01       	movw	r26, r18
    1118:	a2 0d       	add	r26, r2
    111a:	b3 1d       	adc	r27, r3
    111c:	bf 87       	std	Y+15, r27	; 0x0f
    111e:	ae 87       	std	Y+14, r26	; 0x0e
    1120:	aa 84       	ldd	r10, Y+10	; 0x0a
    1122:	bb 84       	ldd	r11, Y+11	; 0x0b
    1124:	48 88       	ldd	r4, Y+16	; 0x10
    1126:	59 88       	ldd	r5, Y+17	; 0x11
    1128:	dc 80       	ldd	r13, Y+4	; 0x04
    112a:	ba 85       	ldd	r27, Y+10	; 0x0a
    112c:	db 1a       	sub	r13, r27
    112e:	e8 8d       	ldd	r30, Y+24	; 0x18
    1130:	f9 8d       	ldd	r31, Y+25	; 0x19
    1132:	e8 0f       	add	r30, r24
    1134:	f9 1f       	adc	r31, r25
    1136:	fd 8b       	std	Y+21, r31	; 0x15
    1138:	ec 8b       	std	Y+20, r30	; 0x14
    113a:	8d 2d       	mov	r24, r13
    113c:	8a 0d       	add	r24, r10
    113e:	2e 89       	ldd	r18, Y+22	; 0x16
    1140:	3f 89       	ldd	r19, Y+23	; 0x17
    1142:	a2 16       	cp	r10, r18
    1144:	b3 06       	cpc	r11, r19
    1146:	b9 f1       	breq	.+110    	; 0x11b6 <_ZN12Adafruit_GFX8drawCharEiihjjh+0x3ac>
    1148:	87 70       	andi	r24, 0x07	; 7
    114a:	61 f4       	brne	.+24     	; 0x1164 <_ZN12Adafruit_GFX8drawCharEiihjjh+0x35a>
    114c:	8a 81       	ldd	r24, Y+2	; 0x02
    114e:	9b 81       	ldd	r25, Y+3	; 0x03
    1150:	01 96       	adiw	r24, 0x01	; 1
    1152:	ea 89       	ldd	r30, Y+18	; 0x12
    1154:	fb 89       	ldd	r31, Y+19	; 0x13
    1156:	aa 81       	ldd	r26, Y+2	; 0x02
    1158:	bb 81       	ldd	r27, Y+3	; 0x03
    115a:	ea 0f       	add	r30, r26
    115c:	fb 1f       	adc	r31, r27
    115e:	74 90       	lpm	r7, Z
    1160:	9b 83       	std	Y+3, r25	; 0x03
    1162:	8a 83       	std	Y+2, r24	; 0x02
    1164:	77 fe       	sbrs	r7, 7
    1166:	20 c0       	rjmp	.+64     	; 0x11a8 <_ZN12Adafruit_GFX8drawCharEiihjjh+0x39e>
    1168:	ab 8d       	ldd	r26, Y+27	; 0x1b
    116a:	bc 8d       	ldd	r27, Y+28	; 0x1c
    116c:	ed 91       	ld	r30, X+
    116e:	fc 91       	ld	r31, X
    1170:	b9 81       	ldd	r27, Y+1	; 0x01
    1172:	b1 30       	cpi	r27, 0x01	; 1
    1174:	61 f4       	brne	.+24     	; 0x118e <_ZN12Adafruit_GFX8drawCharEiihjjh+0x384>
    1176:	04 84       	ldd	r0, Z+12	; 0x0c
    1178:	f5 85       	ldd	r31, Z+13	; 0x0d
    117a:	e0 2d       	mov	r30, r0
    117c:	2e 81       	ldd	r18, Y+6	; 0x06
    117e:	3f 81       	ldd	r19, Y+7	; 0x07
    1180:	4c 89       	ldd	r20, Y+20	; 0x14
    1182:	5d 89       	ldd	r21, Y+21	; 0x15
    1184:	b5 01       	movw	r22, r10
    1186:	8b 8d       	ldd	r24, Y+27	; 0x1b
    1188:	9c 8d       	ldd	r25, Y+28	; 0x1c
    118a:	19 95       	eicall
    118c:	0d c0       	rjmp	.+26     	; 0x11a8 <_ZN12Adafruit_GFX8drawCharEiihjjh+0x39e>
    118e:	06 84       	ldd	r0, Z+14	; 0x0e
    1190:	f7 85       	ldd	r31, Z+15	; 0x0f
    1192:	e0 2d       	mov	r30, r0
    1194:	ee 80       	ldd	r14, Y+6	; 0x06
    1196:	ff 80       	ldd	r15, Y+7	; 0x07
    1198:	84 01       	movw	r16, r8
    119a:	94 01       	movw	r18, r8
    119c:	4e 85       	ldd	r20, Y+14	; 0x0e
    119e:	5f 85       	ldd	r21, Y+15	; 0x0f
    11a0:	b2 01       	movw	r22, r4
    11a2:	8b 8d       	ldd	r24, Y+27	; 0x1b
    11a4:	9c 8d       	ldd	r25, Y+28	; 0x1c
    11a6:	19 95       	eicall
    11a8:	77 0c       	add	r7, r7
    11aa:	48 0c       	add	r4, r8
    11ac:	59 1c       	adc	r5, r9
    11ae:	ef ef       	ldi	r30, 0xFF	; 255
    11b0:	ae 1a       	sub	r10, r30
    11b2:	be 0a       	sbc	r11, r30
    11b4:	c2 cf       	rjmp	.-124    	; 0x113a <_ZN12Adafruit_GFX8drawCharEiihjjh+0x330>
    11b6:	3c 81       	ldd	r19, Y+4	; 0x04
    11b8:	3c 0d       	add	r19, r12
    11ba:	3c 83       	std	Y+4, r19	; 0x04
    11bc:	63 94       	inc	r6
    11be:	9a cf       	rjmp	.-204    	; 0x10f4 <_ZN12Adafruit_GFX8drawCharEiihjjh+0x2ea>
    11c0:	ab 8d       	ldd	r26, Y+27	; 0x1b
    11c2:	bc 8d       	ldd	r27, Y+28	; 0x1c
    11c4:	ed 91       	ld	r30, X+
    11c6:	fc 91       	ld	r31, X
    11c8:	11 97       	sbiw	r26, 0x01	; 1
    11ca:	06 88       	ldd	r0, Z+22	; 0x16
    11cc:	f7 89       	ldd	r31, Z+23	; 0x17
    11ce:	e0 2d       	mov	r30, r0
    11d0:	cd 01       	movw	r24, r26
    11d2:	6c 96       	adiw	r28, 0x1c	; 28
    11d4:	0f b6       	in	r0, 0x3f	; 63
    11d6:	f8 94       	cli
    11d8:	de bf       	out	0x3e, r29	; 62
    11da:	0f be       	out	0x3f, r0	; 63
    11dc:	cd bf       	out	0x3d, r28	; 61
    11de:	df 91       	pop	r29
    11e0:	cf 91       	pop	r28
    11e2:	1f 91       	pop	r17
    11e4:	0f 91       	pop	r16
    11e6:	ff 90       	pop	r15
    11e8:	ef 90       	pop	r14
    11ea:	df 90       	pop	r13
    11ec:	cf 90       	pop	r12
    11ee:	bf 90       	pop	r11
    11f0:	af 90       	pop	r10
    11f2:	9f 90       	pop	r9
    11f4:	8f 90       	pop	r8
    11f6:	7f 90       	pop	r7
    11f8:	6f 90       	pop	r6
    11fa:	5f 90       	pop	r5
    11fc:	4f 90       	pop	r4
    11fe:	3f 90       	pop	r3
    1200:	2f 90       	pop	r2
    1202:	19 94       	eijmp
    1204:	6c 96       	adiw	r28, 0x1c	; 28
    1206:	0f b6       	in	r0, 0x3f	; 63
    1208:	f8 94       	cli
    120a:	de bf       	out	0x3e, r29	; 62
    120c:	0f be       	out	0x3f, r0	; 63
    120e:	cd bf       	out	0x3d, r28	; 61
    1210:	df 91       	pop	r29
    1212:	cf 91       	pop	r28
    1214:	1f 91       	pop	r17
    1216:	0f 91       	pop	r16
    1218:	ff 90       	pop	r15
    121a:	ef 90       	pop	r14
    121c:	df 90       	pop	r13
    121e:	cf 90       	pop	r12
    1220:	bf 90       	pop	r11
    1222:	af 90       	pop	r10
    1224:	9f 90       	pop	r9
    1226:	8f 90       	pop	r8
    1228:	7f 90       	pop	r7
    122a:	6f 90       	pop	r6
    122c:	5f 90       	pop	r5
    122e:	4f 90       	pop	r4
    1230:	3f 90       	pop	r3
    1232:	2f 90       	pop	r2
    1234:	08 95       	ret

00001236 <_ZN12Adafruit_GFX5writeEh>:
    1236:	af 92       	push	r10
    1238:	bf 92       	push	r11
    123a:	cf 92       	push	r12
    123c:	ef 92       	push	r14
    123e:	ff 92       	push	r15
    1240:	0f 93       	push	r16
    1242:	1f 93       	push	r17
    1244:	cf 93       	push	r28
    1246:	df 93       	push	r29
    1248:	ec 01       	movw	r28, r24
    124a:	26 2f       	mov	r18, r22
    124c:	88 8d       	ldd	r24, Y+24	; 0x18
    124e:	99 8d       	ldd	r25, Y+25	; 0x19
    1250:	00 97       	sbiw	r24, 0x00	; 0
    1252:	09 f0       	breq	.+2      	; 0x1256 <_ZN12Adafruit_GFX5writeEh+0x20>
    1254:	3f c0       	rjmp	.+126    	; 0x12d4 <_ZN12Adafruit_GFX5writeEh+0x9e>
    1256:	6a 30       	cpi	r22, 0x0A	; 10
    1258:	59 f4       	brne	.+22     	; 0x1270 <_ZN12Adafruit_GFX5writeEh+0x3a>
    125a:	1d 86       	std	Y+13, r1	; 0x0d
    125c:	1c 86       	std	Y+12, r1	; 0x0c
    125e:	2c 89       	ldd	r18, Y+20	; 0x14
    1260:	8e 85       	ldd	r24, Y+14	; 0x0e
    1262:	9f 85       	ldd	r25, Y+15	; 0x0f
    1264:	38 e0       	ldi	r19, 0x08	; 8
    1266:	23 9f       	mul	r18, r19
    1268:	80 0d       	add	r24, r0
    126a:	91 1d       	adc	r25, r1
    126c:	11 24       	eor	r1, r1
    126e:	40 c0       	rjmp	.+128    	; 0x12f0 <_ZN12Adafruit_GFX5writeEh+0xba>
    1270:	6d 30       	cpi	r22, 0x0D	; 13
    1272:	09 f4       	brne	.+2      	; 0x1276 <_ZN12Adafruit_GFX5writeEh+0x40>
    1274:	a8 c0       	rjmp	.+336    	; 0x13c6 <_ZN12Adafruit_GFX5writeEh+0x190>
    1276:	8e 89       	ldd	r24, Y+22	; 0x16
    1278:	88 23       	and	r24, r24
    127a:	c1 f0       	breq	.+48     	; 0x12ac <_ZN12Adafruit_GFX5writeEh+0x76>
    127c:	3c 89       	ldd	r19, Y+20	; 0x14
    127e:	8c 85       	ldd	r24, Y+12	; 0x0c
    1280:	9d 85       	ldd	r25, Y+13	; 0x0d
    1282:	46 e0       	ldi	r20, 0x06	; 6
    1284:	34 9f       	mul	r19, r20
    1286:	80 0d       	add	r24, r0
    1288:	91 1d       	adc	r25, r1
    128a:	11 24       	eor	r1, r1
    128c:	48 85       	ldd	r20, Y+8	; 0x08
    128e:	59 85       	ldd	r21, Y+9	; 0x09
    1290:	48 17       	cp	r20, r24
    1292:	59 07       	cpc	r21, r25
    1294:	5c f4       	brge	.+22     	; 0x12ac <_ZN12Adafruit_GFX5writeEh+0x76>
    1296:	1d 86       	std	Y+13, r1	; 0x0d
    1298:	1c 86       	std	Y+12, r1	; 0x0c
    129a:	8e 85       	ldd	r24, Y+14	; 0x0e
    129c:	9f 85       	ldd	r25, Y+15	; 0x0f
    129e:	48 e0       	ldi	r20, 0x08	; 8
    12a0:	34 9f       	mul	r19, r20
    12a2:	80 0d       	add	r24, r0
    12a4:	91 1d       	adc	r25, r1
    12a6:	11 24       	eor	r1, r1
    12a8:	9f 87       	std	Y+15, r25	; 0x0f
    12aa:	8e 87       	std	Y+14, r24	; 0x0e
    12ac:	ea 88       	ldd	r14, Y+18	; 0x12
    12ae:	fb 88       	ldd	r15, Y+19	; 0x13
    12b0:	08 89       	ldd	r16, Y+16	; 0x10
    12b2:	19 89       	ldd	r17, Y+17	; 0x11
    12b4:	4e 85       	ldd	r20, Y+14	; 0x0e
    12b6:	5f 85       	ldd	r21, Y+15	; 0x0f
    12b8:	6c 85       	ldd	r22, Y+12	; 0x0c
    12ba:	7d 85       	ldd	r23, Y+13	; 0x0d
    12bc:	cc 88       	ldd	r12, Y+20	; 0x14
    12be:	ce 01       	movw	r24, r28
    12c0:	a4 dd       	rcall	.-1208   	; 0xe0a <_ZN12Adafruit_GFX8drawCharEiihjjh>
    12c2:	2c 89       	ldd	r18, Y+20	; 0x14
    12c4:	8c 85       	ldd	r24, Y+12	; 0x0c
    12c6:	9d 85       	ldd	r25, Y+13	; 0x0d
    12c8:	36 e0       	ldi	r19, 0x06	; 6
    12ca:	23 9f       	mul	r18, r19
    12cc:	80 0d       	add	r24, r0
    12ce:	91 1d       	adc	r25, r1
    12d0:	11 24       	eor	r1, r1
    12d2:	42 c0       	rjmp	.+132    	; 0x1358 <_ZN12Adafruit_GFX5writeEh+0x122>
    12d4:	6a 30       	cpi	r22, 0x0A	; 10
    12d6:	79 f4       	brne	.+30     	; 0x12f6 <_ZN12Adafruit_GFX5writeEh+0xc0>
    12d8:	1d 86       	std	Y+13, r1	; 0x0d
    12da:	1c 86       	std	Y+12, r1	; 0x0c
    12dc:	2c 89       	ldd	r18, Y+20	; 0x14
    12de:	fc 01       	movw	r30, r24
    12e0:	36 96       	adiw	r30, 0x06	; 6
    12e2:	e4 91       	lpm	r30, Z
    12e4:	8e 85       	ldd	r24, Y+14	; 0x0e
    12e6:	9f 85       	ldd	r25, Y+15	; 0x0f
    12e8:	2e 9f       	mul	r18, r30
    12ea:	80 0d       	add	r24, r0
    12ec:	91 1d       	adc	r25, r1
    12ee:	11 24       	eor	r1, r1
    12f0:	9f 87       	std	Y+15, r25	; 0x0f
    12f2:	8e 87       	std	Y+14, r24	; 0x0e
    12f4:	68 c0       	rjmp	.+208    	; 0x13c6 <_ZN12Adafruit_GFX5writeEh+0x190>
    12f6:	6d 30       	cpi	r22, 0x0D	; 13
    12f8:	09 f4       	brne	.+2      	; 0x12fc <_ZN12Adafruit_GFX5writeEh+0xc6>
    12fa:	65 c0       	rjmp	.+202    	; 0x13c6 <_ZN12Adafruit_GFX5writeEh+0x190>
    12fc:	fc 01       	movw	r30, r24
    12fe:	34 96       	adiw	r30, 0x04	; 4
    1300:	34 91       	lpm	r19, Z
    1302:	63 17       	cp	r22, r19
    1304:	08 f4       	brcc	.+2      	; 0x1308 <_ZN12Adafruit_GFX5writeEh+0xd2>
    1306:	5f c0       	rjmp	.+190    	; 0x13c6 <_ZN12Adafruit_GFX5writeEh+0x190>
    1308:	31 96       	adiw	r30, 0x01	; 1
    130a:	e4 91       	lpm	r30, Z
    130c:	e6 17       	cp	r30, r22
    130e:	08 f4       	brcc	.+2      	; 0x1312 <_ZN12Adafruit_GFX5writeEh+0xdc>
    1310:	5a c0       	rjmp	.+180    	; 0x13c6 <_ZN12Adafruit_GFX5writeEh+0x190>
    1312:	fc 01       	movw	r30, r24
    1314:	32 96       	adiw	r30, 0x02	; 2
    1316:	a5 90       	lpm	r10, Z+
    1318:	b4 90       	lpm	r11, Z
    131a:	46 2f       	mov	r20, r22
    131c:	50 e0       	ldi	r21, 0x00	; 0
    131e:	43 1b       	sub	r20, r19
    1320:	51 09       	sbc	r21, r1
    1322:	37 e0       	ldi	r19, 0x07	; 7
    1324:	34 9f       	mul	r19, r20
    1326:	b0 01       	movw	r22, r0
    1328:	35 9f       	mul	r19, r21
    132a:	70 0d       	add	r23, r0
    132c:	11 24       	eor	r1, r1
    132e:	a6 0e       	add	r10, r22
    1330:	b7 1e       	adc	r11, r23
    1332:	f5 01       	movw	r30, r10
    1334:	32 96       	adiw	r30, 0x02	; 2
    1336:	34 91       	lpm	r19, Z
    1338:	31 96       	adiw	r30, 0x01	; 1
    133a:	e4 91       	lpm	r30, Z
    133c:	33 23       	and	r19, r19
    133e:	11 f0       	breq	.+4      	; 0x1344 <_ZN12Adafruit_GFX5writeEh+0x10e>
    1340:	e1 11       	cpse	r30, r1
    1342:	0d c0       	rjmp	.+26     	; 0x135e <_ZN12Adafruit_GFX5writeEh+0x128>
    1344:	f5 01       	movw	r30, r10
    1346:	34 96       	adiw	r30, 0x04	; 4
    1348:	e4 91       	lpm	r30, Z
    134a:	2c 89       	ldd	r18, Y+20	; 0x14
    134c:	8c 85       	ldd	r24, Y+12	; 0x0c
    134e:	9d 85       	ldd	r25, Y+13	; 0x0d
    1350:	e2 9f       	mul	r30, r18
    1352:	80 0d       	add	r24, r0
    1354:	91 1d       	adc	r25, r1
    1356:	11 24       	eor	r1, r1
    1358:	9d 87       	std	Y+13, r25	; 0x0d
    135a:	8c 87       	std	Y+12, r24	; 0x0c
    135c:	34 c0       	rjmp	.+104    	; 0x13c6 <_ZN12Adafruit_GFX5writeEh+0x190>
    135e:	f5 01       	movw	r30, r10
    1360:	35 96       	adiw	r30, 0x05	; 5
    1362:	44 91       	lpm	r20, Z
    1364:	5e 89       	ldd	r21, Y+22	; 0x16
    1366:	55 23       	and	r21, r21
    1368:	11 f1       	breq	.+68     	; 0x13ae <_ZN12Adafruit_GFX5writeEh+0x178>
    136a:	6c 89       	ldd	r22, Y+20	; 0x14
    136c:	e3 2f       	mov	r30, r19
    136e:	f0 e0       	ldi	r31, 0x00	; 0
    1370:	e4 0f       	add	r30, r20
    1372:	f1 1d       	adc	r31, r1
    1374:	47 fd       	sbrc	r20, 7
    1376:	fa 95       	dec	r31
    1378:	6e 9f       	mul	r22, r30
    137a:	d0 01       	movw	r26, r0
    137c:	6f 9f       	mul	r22, r31
    137e:	b0 0d       	add	r27, r0
    1380:	11 24       	eor	r1, r1
    1382:	4c 85       	ldd	r20, Y+12	; 0x0c
    1384:	5d 85       	ldd	r21, Y+13	; 0x0d
    1386:	4a 0f       	add	r20, r26
    1388:	5b 1f       	adc	r21, r27
    138a:	e8 85       	ldd	r30, Y+8	; 0x08
    138c:	f9 85       	ldd	r31, Y+9	; 0x09
    138e:	e4 17       	cp	r30, r20
    1390:	f5 07       	cpc	r31, r21
    1392:	6c f4       	brge	.+26     	; 0x13ae <_ZN12Adafruit_GFX5writeEh+0x178>
    1394:	1d 86       	std	Y+13, r1	; 0x0d
    1396:	1c 86       	std	Y+12, r1	; 0x0c
    1398:	fc 01       	movw	r30, r24
    139a:	36 96       	adiw	r30, 0x06	; 6
    139c:	e4 91       	lpm	r30, Z
    139e:	8e 85       	ldd	r24, Y+14	; 0x0e
    13a0:	9f 85       	ldd	r25, Y+15	; 0x0f
    13a2:	6e 9f       	mul	r22, r30
    13a4:	80 0d       	add	r24, r0
    13a6:	91 1d       	adc	r25, r1
    13a8:	11 24       	eor	r1, r1
    13aa:	9f 87       	std	Y+15, r25	; 0x0f
    13ac:	8e 87       	std	Y+14, r24	; 0x0e
    13ae:	ea 88       	ldd	r14, Y+18	; 0x12
    13b0:	fb 88       	ldd	r15, Y+19	; 0x13
    13b2:	08 89       	ldd	r16, Y+16	; 0x10
    13b4:	19 89       	ldd	r17, Y+17	; 0x11
    13b6:	4e 85       	ldd	r20, Y+14	; 0x0e
    13b8:	5f 85       	ldd	r21, Y+15	; 0x0f
    13ba:	6c 85       	ldd	r22, Y+12	; 0x0c
    13bc:	7d 85       	ldd	r23, Y+13	; 0x0d
    13be:	cc 88       	ldd	r12, Y+20	; 0x14
    13c0:	ce 01       	movw	r24, r28
    13c2:	23 dd       	rcall	.-1466   	; 0xe0a <_ZN12Adafruit_GFX8drawCharEiihjjh>
    13c4:	bf cf       	rjmp	.-130    	; 0x1344 <_ZN12Adafruit_GFX5writeEh+0x10e>
    13c6:	81 e0       	ldi	r24, 0x01	; 1
    13c8:	90 e0       	ldi	r25, 0x00	; 0
    13ca:	df 91       	pop	r29
    13cc:	cf 91       	pop	r28
    13ce:	1f 91       	pop	r17
    13d0:	0f 91       	pop	r16
    13d2:	ff 90       	pop	r15
    13d4:	ef 90       	pop	r14
    13d6:	cf 90       	pop	r12
    13d8:	bf 90       	pop	r11
    13da:	af 90       	pop	r10
    13dc:	08 95       	ret

000013de <_ZN12Adafruit_GFX9setCursorEii>:
    13de:	fc 01       	movw	r30, r24
    13e0:	75 87       	std	Z+13, r23	; 0x0d
    13e2:	64 87       	std	Z+12, r22	; 0x0c
    13e4:	57 87       	std	Z+15, r21	; 0x0f
    13e6:	46 87       	std	Z+14, r20	; 0x0e
    13e8:	08 95       	ret

000013ea <_ZN12Adafruit_GFX11setTextSizeEh>:
    13ea:	61 11       	cpse	r22, r1
    13ec:	01 c0       	rjmp	.+2      	; 0x13f0 <_ZN12Adafruit_GFX11setTextSizeEh+0x6>
    13ee:	61 e0       	ldi	r22, 0x01	; 1
    13f0:	fc 01       	movw	r30, r24
    13f2:	64 8b       	std	Z+20, r22	; 0x14
    13f4:	08 95       	ret

000013f6 <_ZN12Adafruit_GFX12setTextColorEj>:
    13f6:	fc 01       	movw	r30, r24
    13f8:	73 8b       	std	Z+19, r23	; 0x13
    13fa:	62 8b       	std	Z+18, r22	; 0x12
    13fc:	71 8b       	std	Z+17, r23	; 0x11
    13fe:	60 8b       	std	Z+16, r22	; 0x10
    1400:	08 95       	ret

00001402 <_ZNK12Adafruit_GFX11getRotationEv>:
    1402:	fc 01       	movw	r30, r24
    1404:	85 89       	ldd	r24, Z+21	; 0x15
    1406:	08 95       	ret

00001408 <_ZNK12Adafruit_GFX5widthEv>:
    @returns    Width in pixels
*/
/**************************************************************************/
int16_t Adafruit_GFX::width(void) const {
    return _width;
}
    1408:	fc 01       	movw	r30, r24
    140a:	80 85       	ldd	r24, Z+8	; 0x08
    140c:	91 85       	ldd	r25, Z+9	; 0x09
    140e:	08 95       	ret

00001410 <_ZNK12Adafruit_GFX6heightEv>:
    @returns    Height in pixels
*/
/**************************************************************************/
int16_t Adafruit_GFX::height(void) const {
    return _height;
}
    1410:	fc 01       	movw	r30, r24
    1412:	82 85       	ldd	r24, Z+10	; 0x0a
    1414:	93 85       	ldd	r25, Z+11	; 0x0b
    1416:	08 95       	ret

00001418 <_ZN16Adafruit_SSD130613drawFastHLineEiiij>:
    }
  }
  // the range of contrast to too small to be really useful
  // it is useful to dim the display
  ssd1306_command(SSD1306_SETCONTRAST);
  ssd1306_command(contrast);
    1418:	0f 93       	push	r16
    141a:	1f 93       	push	r17
    141c:	cf 93       	push	r28
    141e:	df 93       	push	r29
    1420:	dc 01       	movw	r26, r24
    1422:	fb 01       	movw	r30, r22
    1424:	55 96       	adiw	r26, 0x15	; 21
    1426:	8c 91       	ld	r24, X
    1428:	55 97       	sbiw	r26, 0x15	; 21
    142a:	82 30       	cpi	r24, 0x02	; 2
    142c:	89 f0       	breq	.+34     	; 0x1450 <_ZN16Adafruit_SSD130613drawFastHLineEiiij+0x38>
    142e:	83 30       	cpi	r24, 0x03	; 3
    1430:	21 f1       	breq	.+72     	; 0x147a <_ZN16Adafruit_SSD130613drawFastHLineEiiij+0x62>
    1432:	81 30       	cpi	r24, 0x01	; 1
    1434:	09 f0       	breq	.+2      	; 0x1438 <_ZN16Adafruit_SSD130613drawFastHLineEiiij+0x20>
    1436:	e6 c0       	rjmp	.+460    	; 0x1604 <_ZN16Adafruit_SSD130613drawFastHLineEiiij+0x1ec>
    1438:	14 96       	adiw	r26, 0x04	; 4
    143a:	8d 91       	ld	r24, X+
    143c:	9c 91       	ld	r25, X
    143e:	15 97       	sbiw	r26, 0x05	; 5
    1440:	bc 01       	movw	r22, r24
    1442:	64 1b       	sub	r22, r20
    1444:	75 0b       	sbc	r23, r21
    1446:	ab 01       	movw	r20, r22
    1448:	41 50       	subi	r20, 0x01	; 1
    144a:	51 09       	sbc	r21, r1
    144c:	bf 01       	movw	r22, r30
    144e:	1d c0       	rjmp	.+58     	; 0x148a <_ZN16Adafruit_SSD130613drawFastHLineEiiij+0x72>
    1450:	14 96       	adiw	r26, 0x04	; 4
    1452:	6d 91       	ld	r22, X+
    1454:	7c 91       	ld	r23, X
    1456:	15 97       	sbiw	r26, 0x05	; 5
    1458:	cb 01       	movw	r24, r22
    145a:	8e 1b       	sub	r24, r30
    145c:	9f 0b       	sbc	r25, r31
    145e:	fc 01       	movw	r30, r24
    1460:	16 96       	adiw	r26, 0x06	; 6
    1462:	8d 91       	ld	r24, X+
    1464:	9c 91       	ld	r25, X
    1466:	17 97       	sbiw	r26, 0x07	; 7
    1468:	bc 01       	movw	r22, r24
    146a:	64 1b       	sub	r22, r20
    146c:	75 0b       	sbc	r23, r21
    146e:	ab 01       	movw	r20, r22
    1470:	41 50       	subi	r20, 0x01	; 1
    1472:	51 09       	sbc	r21, r1
    1474:	e2 1b       	sub	r30, r18
    1476:	f3 0b       	sbc	r31, r19
    1478:	c5 c0       	rjmp	.+394    	; 0x1604 <_ZN16Adafruit_SSD130613drawFastHLineEiiij+0x1ec>
    147a:	16 96       	adiw	r26, 0x06	; 6
    147c:	6d 91       	ld	r22, X+
    147e:	7c 91       	ld	r23, X
    1480:	17 97       	sbiw	r26, 0x07	; 7
    1482:	6e 1b       	sub	r22, r30
    1484:	7f 0b       	sbc	r23, r31
    1486:	62 1b       	sub	r22, r18
    1488:	73 0b       	sbc	r23, r19
    148a:	57 fd       	sbrc	r21, 7
    148c:	1a c1       	rjmp	.+564    	; 0x16c2 <_ZN16Adafruit_SSD130613drawFastHLineEiiij+0x2aa>
    148e:	14 96       	adiw	r26, 0x04	; 4
    1490:	8d 91       	ld	r24, X+
    1492:	9c 91       	ld	r25, X
    1494:	15 97       	sbiw	r26, 0x05	; 5
    1496:	48 17       	cp	r20, r24
    1498:	59 07       	cpc	r21, r25
    149a:	0c f0       	brlt	.+2      	; 0x149e <_ZN16Adafruit_SSD130613drawFastHLineEiiij+0x86>
    149c:	12 c1       	rjmp	.+548    	; 0x16c2 <_ZN16Adafruit_SSD130613drawFastHLineEiiij+0x2aa>
    149e:	77 ff       	sbrs	r23, 7
    14a0:	04 c0       	rjmp	.+8      	; 0x14aa <_ZN16Adafruit_SSD130613drawFastHLineEiiij+0x92>
    14a2:	26 0f       	add	r18, r22
    14a4:	37 1f       	adc	r19, r23
    14a6:	60 e0       	ldi	r22, 0x00	; 0
    14a8:	70 e0       	ldi	r23, 0x00	; 0
    14aa:	16 96       	adiw	r26, 0x06	; 6
    14ac:	8d 91       	ld	r24, X+
    14ae:	9c 91       	ld	r25, X
    14b0:	17 97       	sbiw	r26, 0x07	; 7
    14b2:	fb 01       	movw	r30, r22
    14b4:	e2 0f       	add	r30, r18
    14b6:	f3 1f       	adc	r31, r19
    14b8:	8e 17       	cp	r24, r30
    14ba:	9f 07       	cpc	r25, r31
    14bc:	1c f4       	brge	.+6      	; 0x14c4 <_ZN16Adafruit_SSD130613drawFastHLineEiiij+0xac>
    14be:	9c 01       	movw	r18, r24
    14c0:	26 1b       	sub	r18, r22
    14c2:	37 0b       	sbc	r19, r23
    14c4:	12 16       	cp	r1, r18
    14c6:	13 06       	cpc	r1, r19
    14c8:	0c f0       	brlt	.+2      	; 0x14cc <_ZN16Adafruit_SSD130613drawFastHLineEiiij+0xb4>
    14ca:	fb c0       	rjmp	.+502    	; 0x16c2 <_ZN16Adafruit_SSD130613drawFastHLineEiiij+0x2aa>
    14cc:	a2 2f       	mov	r26, r18
    14ce:	86 2f       	mov	r24, r22
    14d0:	86 95       	lsr	r24
    14d2:	86 95       	lsr	r24
    14d4:	86 95       	lsr	r24
    14d6:	90 e8       	ldi	r25, 0x80	; 128
    14d8:	89 9f       	mul	r24, r25
    14da:	40 0d       	add	r20, r0
    14dc:	51 1d       	adc	r21, r1
    14de:	11 24       	eor	r1, r1
    14e0:	fa 01       	movw	r30, r20
    14e2:	ea 5e       	subi	r30, 0xEA	; 234
    14e4:	fd 4f       	sbci	r31, 0xFD	; 253
    14e6:	67 70       	andi	r22, 0x07	; 7
    14e8:	a9 f1       	breq	.+106    	; 0x1554 <_ZN16Adafruit_SSD130613drawFastHLineEiiij+0x13c>
    14ea:	98 e0       	ldi	r25, 0x08	; 8
    14ec:	96 1b       	sub	r25, r22
    14ee:	49 2f       	mov	r20, r25
    14f0:	50 e0       	ldi	r21, 0x00	; 0
    14f2:	ea 01       	movw	r28, r20
    14f4:	c2 5f       	subi	r28, 0xF2	; 242
    14f6:	dd 4f       	sbci	r29, 0xFD	; 253
    14f8:	88 81       	ld	r24, Y
    14fa:	29 17       	cp	r18, r25
    14fc:	90 f4       	brcc	.+36     	; 0x1522 <_ZN16Adafruit_SSD130613drawFastHLineEiiij+0x10a>
    14fe:	42 1b       	sub	r20, r18
    1500:	51 09       	sbc	r21, r1
    1502:	2f ef       	ldi	r18, 0xFF	; 255
    1504:	30 e0       	ldi	r19, 0x00	; 0
    1506:	02 c0       	rjmp	.+4      	; 0x150c <_ZN16Adafruit_SSD130613drawFastHLineEiiij+0xf4>
    1508:	35 95       	asr	r19
    150a:	27 95       	ror	r18
    150c:	4a 95       	dec	r20
    150e:	e2 f7       	brpl	.-8      	; 0x1508 <_ZN16Adafruit_SSD130613drawFastHLineEiiij+0xf0>
    1510:	82 23       	and	r24, r18
    1512:	01 30       	cpi	r16, 0x01	; 1
    1514:	11 05       	cpc	r17, r1
    1516:	41 f0       	breq	.+16     	; 0x1528 <_ZN16Adafruit_SSD130613drawFastHLineEiiij+0x110>
    1518:	68 f0       	brcs	.+26     	; 0x1534 <_ZN16Adafruit_SSD130613drawFastHLineEiiij+0x11c>
    151a:	02 30       	cpi	r16, 0x02	; 2
    151c:	11 05       	cpc	r17, r1
    151e:	89 f0       	breq	.+34     	; 0x1542 <_ZN16Adafruit_SSD130613drawFastHLineEiiij+0x12a>
    1520:	d0 c0       	rjmp	.+416    	; 0x16c2 <_ZN16Adafruit_SSD130613drawFastHLineEiiij+0x2aa>
    1522:	01 30       	cpi	r16, 0x01	; 1
    1524:	11 05       	cpc	r17, r1
    1526:	19 f4       	brne	.+6      	; 0x152e <_ZN16Adafruit_SSD130613drawFastHLineEiiij+0x116>
    1528:	20 81       	ld	r18, Z
    152a:	82 2b       	or	r24, r18
    152c:	0c c0       	rjmp	.+24     	; 0x1546 <_ZN16Adafruit_SSD130613drawFastHLineEiiij+0x12e>
    152e:	01 30       	cpi	r16, 0x01	; 1
    1530:	11 05       	cpc	r17, r1
    1532:	20 f4       	brcc	.+8      	; 0x153c <_ZN16Adafruit_SSD130613drawFastHLineEiiij+0x124>
    1534:	80 95       	com	r24
    1536:	20 81       	ld	r18, Z
    1538:	82 23       	and	r24, r18
    153a:	05 c0       	rjmp	.+10     	; 0x1546 <_ZN16Adafruit_SSD130613drawFastHLineEiiij+0x12e>
    153c:	02 30       	cpi	r16, 0x02	; 2
    153e:	11 05       	cpc	r17, r1
    1540:	31 f4       	brne	.+12     	; 0x154e <_ZN16Adafruit_SSD130613drawFastHLineEiiij+0x136>
    1542:	20 81       	ld	r18, Z
    1544:	82 27       	eor	r24, r18
    1546:	80 83       	st	Z, r24
    1548:	a9 17       	cp	r26, r25
    154a:	08 f4       	brcc	.+2      	; 0x154e <_ZN16Adafruit_SSD130613drawFastHLineEiiij+0x136>
    154c:	ba c0       	rjmp	.+372    	; 0x16c2 <_ZN16Adafruit_SSD130613drawFastHLineEiiij+0x2aa>
    154e:	a9 1b       	sub	r26, r25
    1550:	e0 58       	subi	r30, 0x80	; 128
    1552:	ff 4f       	sbci	r31, 0xFF	; 255
    1554:	a8 30       	cpi	r26, 0x08	; 8
    1556:	48 f1       	brcs	.+82     	; 0x15aa <_ZN16Adafruit_SSD130613drawFastHLineEiiij+0x192>
    1558:	02 30       	cpi	r16, 0x02	; 2
    155a:	11 05       	cpc	r17, r1
    155c:	59 f4       	brne	.+22     	; 0x1574 <_ZN16Adafruit_SSD130613drawFastHLineEiiij+0x15c>
    155e:	ef 01       	movw	r28, r30
    1560:	8a 2f       	mov	r24, r26
    1562:	98 81       	ld	r25, Y
    1564:	90 95       	com	r25
    1566:	98 83       	st	Y, r25
    1568:	c0 58       	subi	r28, 0x80	; 128
    156a:	df 4f       	sbci	r29, 0xFF	; 255
    156c:	88 50       	subi	r24, 0x08	; 8
    156e:	88 30       	cpi	r24, 0x08	; 8
    1570:	c0 f7       	brcc	.-16     	; 0x1562 <_ZN16Adafruit_SSD130613drawFastHLineEiiij+0x14a>
    1572:	32 c0       	rjmp	.+100    	; 0x15d8 <_ZN16Adafruit_SSD130613drawFastHLineEiiij+0x1c0>
    1574:	81 e0       	ldi	r24, 0x01	; 1
    1576:	01 30       	cpi	r16, 0x01	; 1
    1578:	11 05       	cpc	r17, r1
    157a:	09 f0       	breq	.+2      	; 0x157e <_ZN16Adafruit_SSD130613drawFastHLineEiiij+0x166>
    157c:	80 e0       	ldi	r24, 0x00	; 0
    157e:	81 95       	neg	r24
    1580:	ef 01       	movw	r28, r30
    1582:	9a 2f       	mov	r25, r26
    1584:	88 83       	st	Y, r24
    1586:	c0 58       	subi	r28, 0x80	; 128
    1588:	df 4f       	sbci	r29, 0xFF	; 255
    158a:	98 50       	subi	r25, 0x08	; 8
    158c:	98 30       	cpi	r25, 0x08	; 8
    158e:	d0 f7       	brcc	.-12     	; 0x1584 <_ZN16Adafruit_SSD130613drawFastHLineEiiij+0x16c>
    1590:	88 ef       	ldi	r24, 0xF8	; 248
    1592:	8a 0f       	add	r24, r26
    1594:	86 95       	lsr	r24
    1596:	86 95       	lsr	r24
    1598:	86 95       	lsr	r24
    159a:	60 e8       	ldi	r22, 0x80	; 128
    159c:	86 9f       	mul	r24, r22
    159e:	e0 0d       	add	r30, r0
    15a0:	f1 1d       	adc	r31, r1
    15a2:	11 24       	eor	r1, r1
    15a4:	e0 58       	subi	r30, 0x80	; 128
    15a6:	ff 4f       	sbci	r31, 0xFF	; 255
    15a8:	a7 70       	andi	r26, 0x07	; 7
    15aa:	aa 23       	and	r26, r26
    15ac:	09 f4       	brne	.+2      	; 0x15b0 <_ZN16Adafruit_SSD130613drawFastHLineEiiij+0x198>
    15ae:	89 c0       	rjmp	.+274    	; 0x16c2 <_ZN16Adafruit_SSD130613drawFastHLineEiiij+0x2aa>
    15b0:	b0 e0       	ldi	r27, 0x00	; 0
    15b2:	aa 5f       	subi	r26, 0xFA	; 250
    15b4:	bd 4f       	sbci	r27, 0xFD	; 253
    15b6:	8c 91       	ld	r24, X
    15b8:	01 30       	cpi	r16, 0x01	; 1
    15ba:	11 05       	cpc	r17, r1
    15bc:	29 f0       	breq	.+10     	; 0x15c8 <_ZN16Adafruit_SSD130613drawFastHLineEiiij+0x1b0>
    15be:	38 f0       	brcs	.+14     	; 0x15ce <_ZN16Adafruit_SSD130613drawFastHLineEiiij+0x1b6>
    15c0:	02 30       	cpi	r16, 0x02	; 2
    15c2:	11 05       	cpc	r17, r1
    15c4:	e1 f0       	breq	.+56     	; 0x15fe <_ZN16Adafruit_SSD130613drawFastHLineEiiij+0x1e6>
    15c6:	7d c0       	rjmp	.+250    	; 0x16c2 <_ZN16Adafruit_SSD130613drawFastHLineEiiij+0x2aa>
    15c8:	90 81       	ld	r25, Z
    15ca:	89 2b       	or	r24, r25
    15cc:	03 c0       	rjmp	.+6      	; 0x15d4 <_ZN16Adafruit_SSD130613drawFastHLineEiiij+0x1bc>
    15ce:	80 95       	com	r24
    15d0:	90 81       	ld	r25, Z
    15d2:	89 23       	and	r24, r25
    15d4:	80 83       	st	Z, r24
    15d6:	75 c0       	rjmp	.+234    	; 0x16c2 <_ZN16Adafruit_SSD130613drawFastHLineEiiij+0x2aa>
    15d8:	88 ef       	ldi	r24, 0xF8	; 248
    15da:	8a 0f       	add	r24, r26
    15dc:	86 95       	lsr	r24
    15de:	86 95       	lsr	r24
    15e0:	86 95       	lsr	r24
    15e2:	70 e8       	ldi	r23, 0x80	; 128
    15e4:	87 9f       	mul	r24, r23
    15e6:	e0 0d       	add	r30, r0
    15e8:	f1 1d       	adc	r31, r1
    15ea:	11 24       	eor	r1, r1
    15ec:	e0 58       	subi	r30, 0x80	; 128
    15ee:	ff 4f       	sbci	r31, 0xFF	; 255
    15f0:	a7 70       	andi	r26, 0x07	; 7
    15f2:	09 f4       	brne	.+2      	; 0x15f6 <_ZN16Adafruit_SSD130613drawFastHLineEiiij+0x1de>
    15f4:	66 c0       	rjmp	.+204    	; 0x16c2 <_ZN16Adafruit_SSD130613drawFastHLineEiiij+0x2aa>
    15f6:	b0 e0       	ldi	r27, 0x00	; 0
    15f8:	aa 5f       	subi	r26, 0xFA	; 250
    15fa:	bd 4f       	sbci	r27, 0xFD	; 253
    15fc:	8c 91       	ld	r24, X
    15fe:	90 81       	ld	r25, Z
    1600:	89 27       	eor	r24, r25
    1602:	e8 cf       	rjmp	.-48     	; 0x15d4 <_ZN16Adafruit_SSD130613drawFastHLineEiiij+0x1bc>
    1604:	57 fd       	sbrc	r21, 7
    1606:	5d c0       	rjmp	.+186    	; 0x16c2 <_ZN16Adafruit_SSD130613drawFastHLineEiiij+0x2aa>
    1608:	16 96       	adiw	r26, 0x06	; 6
    160a:	8d 91       	ld	r24, X+
    160c:	9c 91       	ld	r25, X
    160e:	17 97       	sbiw	r26, 0x07	; 7
    1610:	48 17       	cp	r20, r24
    1612:	59 07       	cpc	r21, r25
    1614:	0c f0       	brlt	.+2      	; 0x1618 <_ZN16Adafruit_SSD130613drawFastHLineEiiij+0x200>
    1616:	55 c0       	rjmp	.+170    	; 0x16c2 <_ZN16Adafruit_SSD130613drawFastHLineEiiij+0x2aa>
    1618:	f7 ff       	sbrs	r31, 7
    161a:	04 c0       	rjmp	.+8      	; 0x1624 <_ZN16Adafruit_SSD130613drawFastHLineEiiij+0x20c>
    161c:	2e 0f       	add	r18, r30
    161e:	3f 1f       	adc	r19, r31
    1620:	e0 e0       	ldi	r30, 0x00	; 0
    1622:	f0 e0       	ldi	r31, 0x00	; 0
    1624:	14 96       	adiw	r26, 0x04	; 4
    1626:	8d 91       	ld	r24, X+
    1628:	9c 91       	ld	r25, X
    162a:	15 97       	sbiw	r26, 0x05	; 5
    162c:	bf 01       	movw	r22, r30
    162e:	62 0f       	add	r22, r18
    1630:	73 1f       	adc	r23, r19
    1632:	86 17       	cp	r24, r22
    1634:	97 07       	cpc	r25, r23
    1636:	1c f4       	brge	.+6      	; 0x163e <_ZN16Adafruit_SSD130613drawFastHLineEiiij+0x226>
    1638:	9c 01       	movw	r18, r24
    163a:	2e 1b       	sub	r18, r30
    163c:	3f 0b       	sbc	r19, r31
    163e:	12 16       	cp	r1, r18
    1640:	13 06       	cpc	r1, r19
    1642:	0c f0       	brlt	.+2      	; 0x1646 <_ZN16Adafruit_SSD130613drawFastHLineEiiij+0x22e>
    1644:	3e c0       	rjmp	.+124    	; 0x16c2 <_ZN16Adafruit_SSD130613drawFastHLineEiiij+0x2aa>
    1646:	ca 01       	movw	r24, r20
    1648:	57 fd       	sbrc	r21, 7
    164a:	07 96       	adiw	r24, 0x07	; 7
    164c:	63 e0       	ldi	r22, 0x03	; 3
    164e:	95 95       	asr	r25
    1650:	87 95       	ror	r24
    1652:	6a 95       	dec	r22
    1654:	e1 f7       	brne	.-8      	; 0x164e <_ZN16Adafruit_SSD130613drawFastHLineEiiij+0x236>
    1656:	96 95       	lsr	r25
    1658:	98 2f       	mov	r25, r24
    165a:	88 27       	eor	r24, r24
    165c:	97 95       	ror	r25
    165e:	87 95       	ror	r24
    1660:	e8 0f       	add	r30, r24
    1662:	f9 1f       	adc	r31, r25
    1664:	ea 5e       	subi	r30, 0xEA	; 234
    1666:	fd 4f       	sbci	r31, 0xFD	; 253
    1668:	47 70       	andi	r20, 0x07	; 7
    166a:	55 27       	eor	r21, r21
    166c:	81 e0       	ldi	r24, 0x01	; 1
    166e:	90 e0       	ldi	r25, 0x00	; 0
    1670:	01 c0       	rjmp	.+2      	; 0x1674 <_ZN16Adafruit_SSD130613drawFastHLineEiiij+0x25c>
    1672:	88 0f       	add	r24, r24
    1674:	4a 95       	dec	r20
    1676:	ea f7       	brpl	.-6      	; 0x1672 <_ZN16Adafruit_SSD130613drawFastHLineEiiij+0x25a>
    1678:	48 2f       	mov	r20, r24
    167a:	01 30       	cpi	r16, 0x01	; 1
    167c:	11 05       	cpc	r17, r1
    167e:	39 f0       	breq	.+14     	; 0x168e <_ZN16Adafruit_SSD130613drawFastHLineEiiij+0x276>
    1680:	78 f0       	brcs	.+30     	; 0x16a0 <_ZN16Adafruit_SSD130613drawFastHLineEiiij+0x288>
    1682:	02 30       	cpi	r16, 0x02	; 2
    1684:	11 05       	cpc	r17, r1
    1686:	e9 f4       	brne	.+58     	; 0x16c2 <_ZN16Adafruit_SSD130613drawFastHLineEiiij+0x2aa>
    1688:	2e 0f       	add	r18, r30
    168a:	3f 1f       	adc	r19, r31
    168c:	13 c0       	rjmp	.+38     	; 0x16b4 <_ZN16Adafruit_SSD130613drawFastHLineEiiij+0x29c>
    168e:	2e 0f       	add	r18, r30
    1690:	3f 1f       	adc	r19, r31
    1692:	e2 17       	cp	r30, r18
    1694:	f3 07       	cpc	r31, r19
    1696:	a9 f0       	breq	.+42     	; 0x16c2 <_ZN16Adafruit_SSD130613drawFastHLineEiiij+0x2aa>
    1698:	80 81       	ld	r24, Z
    169a:	84 2b       	or	r24, r20
    169c:	81 93       	st	Z+, r24
    169e:	f9 cf       	rjmp	.-14     	; 0x1692 <_ZN16Adafruit_SSD130613drawFastHLineEiiij+0x27a>
    16a0:	80 95       	com	r24
    16a2:	2e 0f       	add	r18, r30
    16a4:	3f 1f       	adc	r19, r31
    16a6:	e2 17       	cp	r30, r18
    16a8:	f3 07       	cpc	r31, r19
    16aa:	59 f0       	breq	.+22     	; 0x16c2 <_ZN16Adafruit_SSD130613drawFastHLineEiiij+0x2aa>
    16ac:	90 81       	ld	r25, Z
    16ae:	98 23       	and	r25, r24
    16b0:	91 93       	st	Z+, r25
    16b2:	f9 cf       	rjmp	.-14     	; 0x16a6 <_ZN16Adafruit_SSD130613drawFastHLineEiiij+0x28e>
    16b4:	e2 17       	cp	r30, r18
    16b6:	f3 07       	cpc	r31, r19
    16b8:	21 f0       	breq	.+8      	; 0x16c2 <_ZN16Adafruit_SSD130613drawFastHLineEiiij+0x2aa>
    16ba:	80 81       	ld	r24, Z
    16bc:	84 27       	eor	r24, r20
    16be:	81 93       	st	Z+, r24
    16c0:	f9 cf       	rjmp	.-14     	; 0x16b4 <_ZN16Adafruit_SSD130613drawFastHLineEiiij+0x29c>
    16c2:	df 91       	pop	r29
    16c4:	cf 91       	pop	r28
    16c6:	1f 91       	pop	r17
    16c8:	0f 91       	pop	r16
    16ca:	08 95       	ret

000016cc <_ZN16Adafruit_SSD130613drawFastVLineEiiij>:
    16cc:	0f 93       	push	r16
    16ce:	1f 93       	push	r17
    16d0:	cf 93       	push	r28
    16d2:	df 93       	push	r29
    16d4:	dc 01       	movw	r26, r24
    16d6:	55 96       	adiw	r26, 0x15	; 21
    16d8:	8c 91       	ld	r24, X
    16da:	55 97       	sbiw	r26, 0x15	; 21
    16dc:	82 30       	cpi	r24, 0x02	; 2
    16de:	71 f0       	breq	.+28     	; 0x16fc <_ZN16Adafruit_SSD130613drawFastVLineEiiij+0x30>
    16e0:	83 30       	cpi	r24, 0x03	; 3
    16e2:	09 f1       	breq	.+66     	; 0x1726 <_ZN16Adafruit_SSD130613drawFastVLineEiiij+0x5a>
    16e4:	81 30       	cpi	r24, 0x01	; 1
    16e6:	09 f0       	breq	.+2      	; 0x16ea <_ZN16Adafruit_SSD130613drawFastVLineEiiij+0x1e>
    16e8:	8c c0       	rjmp	.+280    	; 0x1802 <_ZN16Adafruit_SSD130613drawFastVLineEiiij+0x136>
    16ea:	14 96       	adiw	r26, 0x04	; 4
    16ec:	ed 91       	ld	r30, X+
    16ee:	fc 91       	ld	r31, X
    16f0:	15 97       	sbiw	r26, 0x05	; 5
    16f2:	e4 1b       	sub	r30, r20
    16f4:	f5 0b       	sbc	r31, r21
    16f6:	e2 1b       	sub	r30, r18
    16f8:	f3 0b       	sbc	r31, r19
    16fa:	20 c0       	rjmp	.+64     	; 0x173c <_ZN16Adafruit_SSD130613drawFastVLineEiiij+0x70>
    16fc:	14 96       	adiw	r26, 0x04	; 4
    16fe:	ed 91       	ld	r30, X+
    1700:	fc 91       	ld	r31, X
    1702:	15 97       	sbiw	r26, 0x05	; 5
    1704:	cf 01       	movw	r24, r30
    1706:	86 1b       	sub	r24, r22
    1708:	97 0b       	sbc	r25, r23
    170a:	bc 01       	movw	r22, r24
    170c:	61 50       	subi	r22, 0x01	; 1
    170e:	71 09       	sbc	r23, r1
    1710:	16 96       	adiw	r26, 0x06	; 6
    1712:	ed 91       	ld	r30, X+
    1714:	fc 91       	ld	r31, X
    1716:	17 97       	sbiw	r26, 0x07	; 7
    1718:	cf 01       	movw	r24, r30
    171a:	84 1b       	sub	r24, r20
    171c:	95 0b       	sbc	r25, r21
    171e:	ac 01       	movw	r20, r24
    1720:	42 1b       	sub	r20, r18
    1722:	53 0b       	sbc	r21, r19
    1724:	6e c0       	rjmp	.+220    	; 0x1802 <_ZN16Adafruit_SSD130613drawFastVLineEiiij+0x136>
    1726:	16 96       	adiw	r26, 0x06	; 6
    1728:	ed 91       	ld	r30, X+
    172a:	fc 91       	ld	r31, X
    172c:	17 97       	sbiw	r26, 0x07	; 7
    172e:	cf 01       	movw	r24, r30
    1730:	86 1b       	sub	r24, r22
    1732:	97 0b       	sbc	r25, r23
    1734:	bc 01       	movw	r22, r24
    1736:	61 50       	subi	r22, 0x01	; 1
    1738:	71 09       	sbc	r23, r1
    173a:	fa 01       	movw	r30, r20
    173c:	77 fd       	sbrc	r23, 7
    173e:	1b c1       	rjmp	.+566    	; 0x1976 <_ZN16Adafruit_SSD130613drawFastVLineEiiij+0x2aa>
    1740:	16 96       	adiw	r26, 0x06	; 6
    1742:	8d 91       	ld	r24, X+
    1744:	9c 91       	ld	r25, X
    1746:	17 97       	sbiw	r26, 0x07	; 7
    1748:	68 17       	cp	r22, r24
    174a:	79 07       	cpc	r23, r25
    174c:	0c f0       	brlt	.+2      	; 0x1750 <_ZN16Adafruit_SSD130613drawFastVLineEiiij+0x84>
    174e:	13 c1       	rjmp	.+550    	; 0x1976 <_ZN16Adafruit_SSD130613drawFastVLineEiiij+0x2aa>
    1750:	f7 ff       	sbrs	r31, 7
    1752:	04 c0       	rjmp	.+8      	; 0x175c <_ZN16Adafruit_SSD130613drawFastVLineEiiij+0x90>
    1754:	2e 0f       	add	r18, r30
    1756:	3f 1f       	adc	r19, r31
    1758:	e0 e0       	ldi	r30, 0x00	; 0
    175a:	f0 e0       	ldi	r31, 0x00	; 0
    175c:	14 96       	adiw	r26, 0x04	; 4
    175e:	8d 91       	ld	r24, X+
    1760:	9c 91       	ld	r25, X
    1762:	15 97       	sbiw	r26, 0x05	; 5
    1764:	af 01       	movw	r20, r30
    1766:	42 0f       	add	r20, r18
    1768:	53 1f       	adc	r21, r19
    176a:	84 17       	cp	r24, r20
    176c:	95 07       	cpc	r25, r21
    176e:	1c f4       	brge	.+6      	; 0x1776 <_ZN16Adafruit_SSD130613drawFastVLineEiiij+0xaa>
    1770:	9c 01       	movw	r18, r24
    1772:	2e 1b       	sub	r18, r30
    1774:	3f 0b       	sbc	r19, r31
    1776:	12 16       	cp	r1, r18
    1778:	13 06       	cpc	r1, r19
    177a:	0c f0       	brlt	.+2      	; 0x177e <_ZN16Adafruit_SSD130613drawFastVLineEiiij+0xb2>
    177c:	fc c0       	rjmp	.+504    	; 0x1976 <_ZN16Adafruit_SSD130613drawFastVLineEiiij+0x2aa>
    177e:	cb 01       	movw	r24, r22
    1780:	77 fd       	sbrc	r23, 7
    1782:	07 96       	adiw	r24, 0x07	; 7
    1784:	43 e0       	ldi	r20, 0x03	; 3
    1786:	95 95       	asr	r25
    1788:	87 95       	ror	r24
    178a:	4a 95       	dec	r20
    178c:	e1 f7       	brne	.-8      	; 0x1786 <_ZN16Adafruit_SSD130613drawFastVLineEiiij+0xba>
    178e:	96 95       	lsr	r25
    1790:	98 2f       	mov	r25, r24
    1792:	88 27       	eor	r24, r24
    1794:	97 95       	ror	r25
    1796:	87 95       	ror	r24
    1798:	e8 0f       	add	r30, r24
    179a:	f9 1f       	adc	r31, r25
    179c:	ea 5e       	subi	r30, 0xEA	; 234
    179e:	fd 4f       	sbci	r31, 0xFD	; 253
    17a0:	67 70       	andi	r22, 0x07	; 7
    17a2:	77 27       	eor	r23, r23
    17a4:	81 e0       	ldi	r24, 0x01	; 1
    17a6:	90 e0       	ldi	r25, 0x00	; 0
    17a8:	01 c0       	rjmp	.+2      	; 0x17ac <_ZN16Adafruit_SSD130613drawFastVLineEiiij+0xe0>
    17aa:	88 0f       	add	r24, r24
    17ac:	6a 95       	dec	r22
    17ae:	ea f7       	brpl	.-6      	; 0x17aa <_ZN16Adafruit_SSD130613drawFastVLineEiiij+0xde>
    17b0:	48 2f       	mov	r20, r24
    17b2:	01 30       	cpi	r16, 0x01	; 1
    17b4:	11 05       	cpc	r17, r1
    17b6:	41 f0       	breq	.+16     	; 0x17c8 <_ZN16Adafruit_SSD130613drawFastVLineEiiij+0xfc>
    17b8:	88 f0       	brcs	.+34     	; 0x17dc <_ZN16Adafruit_SSD130613drawFastVLineEiiij+0x110>
    17ba:	02 30       	cpi	r16, 0x02	; 2
    17bc:	11 05       	cpc	r17, r1
    17be:	09 f0       	breq	.+2      	; 0x17c2 <_ZN16Adafruit_SSD130613drawFastVLineEiiij+0xf6>
    17c0:	da c0       	rjmp	.+436    	; 0x1976 <_ZN16Adafruit_SSD130613drawFastVLineEiiij+0x2aa>
    17c2:	2e 0f       	add	r18, r30
    17c4:	3f 1f       	adc	r19, r31
    17c6:	15 c0       	rjmp	.+42     	; 0x17f2 <_ZN16Adafruit_SSD130613drawFastVLineEiiij+0x126>
    17c8:	2e 0f       	add	r18, r30
    17ca:	3f 1f       	adc	r19, r31
    17cc:	e2 17       	cp	r30, r18
    17ce:	f3 07       	cpc	r31, r19
    17d0:	09 f4       	brne	.+2      	; 0x17d4 <_ZN16Adafruit_SSD130613drawFastVLineEiiij+0x108>
    17d2:	d1 c0       	rjmp	.+418    	; 0x1976 <_ZN16Adafruit_SSD130613drawFastVLineEiiij+0x2aa>
    17d4:	80 81       	ld	r24, Z
    17d6:	84 2b       	or	r24, r20
    17d8:	81 93       	st	Z+, r24
    17da:	f8 cf       	rjmp	.-16     	; 0x17cc <_ZN16Adafruit_SSD130613drawFastVLineEiiij+0x100>
    17dc:	80 95       	com	r24
    17de:	2e 0f       	add	r18, r30
    17e0:	3f 1f       	adc	r19, r31
    17e2:	e2 17       	cp	r30, r18
    17e4:	f3 07       	cpc	r31, r19
    17e6:	09 f4       	brne	.+2      	; 0x17ea <_ZN16Adafruit_SSD130613drawFastVLineEiiij+0x11e>
    17e8:	c6 c0       	rjmp	.+396    	; 0x1976 <_ZN16Adafruit_SSD130613drawFastVLineEiiij+0x2aa>
    17ea:	90 81       	ld	r25, Z
    17ec:	98 23       	and	r25, r24
    17ee:	91 93       	st	Z+, r25
    17f0:	f8 cf       	rjmp	.-16     	; 0x17e2 <_ZN16Adafruit_SSD130613drawFastVLineEiiij+0x116>
    17f2:	e2 17       	cp	r30, r18
    17f4:	f3 07       	cpc	r31, r19
    17f6:	09 f4       	brne	.+2      	; 0x17fa <_ZN16Adafruit_SSD130613drawFastVLineEiiij+0x12e>
    17f8:	be c0       	rjmp	.+380    	; 0x1976 <_ZN16Adafruit_SSD130613drawFastVLineEiiij+0x2aa>
    17fa:	80 81       	ld	r24, Z
    17fc:	84 27       	eor	r24, r20
    17fe:	81 93       	st	Z+, r24
    1800:	f8 cf       	rjmp	.-16     	; 0x17f2 <_ZN16Adafruit_SSD130613drawFastVLineEiiij+0x126>
    1802:	77 fd       	sbrc	r23, 7
    1804:	b8 c0       	rjmp	.+368    	; 0x1976 <_ZN16Adafruit_SSD130613drawFastVLineEiiij+0x2aa>
    1806:	14 96       	adiw	r26, 0x04	; 4
    1808:	8d 91       	ld	r24, X+
    180a:	9c 91       	ld	r25, X
    180c:	15 97       	sbiw	r26, 0x05	; 5
    180e:	68 17       	cp	r22, r24
    1810:	79 07       	cpc	r23, r25
    1812:	0c f0       	brlt	.+2      	; 0x1816 <_ZN16Adafruit_SSD130613drawFastVLineEiiij+0x14a>
    1814:	b0 c0       	rjmp	.+352    	; 0x1976 <_ZN16Adafruit_SSD130613drawFastVLineEiiij+0x2aa>
    1816:	57 ff       	sbrs	r21, 7
    1818:	04 c0       	rjmp	.+8      	; 0x1822 <_ZN16Adafruit_SSD130613drawFastVLineEiiij+0x156>
    181a:	24 0f       	add	r18, r20
    181c:	35 1f       	adc	r19, r21
    181e:	40 e0       	ldi	r20, 0x00	; 0
    1820:	50 e0       	ldi	r21, 0x00	; 0
    1822:	16 96       	adiw	r26, 0x06	; 6
    1824:	8d 91       	ld	r24, X+
    1826:	9c 91       	ld	r25, X
    1828:	17 97       	sbiw	r26, 0x07	; 7
    182a:	fa 01       	movw	r30, r20
    182c:	e2 0f       	add	r30, r18
    182e:	f3 1f       	adc	r31, r19
    1830:	8e 17       	cp	r24, r30
    1832:	9f 07       	cpc	r25, r31
    1834:	1c f4       	brge	.+6      	; 0x183c <_ZN16Adafruit_SSD130613drawFastVLineEiiij+0x170>
    1836:	9c 01       	movw	r18, r24
    1838:	24 1b       	sub	r18, r20
    183a:	35 0b       	sbc	r19, r21
    183c:	12 16       	cp	r1, r18
    183e:	13 06       	cpc	r1, r19
    1840:	0c f0       	brlt	.+2      	; 0x1844 <_ZN16Adafruit_SSD130613drawFastVLineEiiij+0x178>
    1842:	99 c0       	rjmp	.+306    	; 0x1976 <_ZN16Adafruit_SSD130613drawFastVLineEiiij+0x2aa>
    1844:	a2 2f       	mov	r26, r18
    1846:	84 2f       	mov	r24, r20
    1848:	86 95       	lsr	r24
    184a:	86 95       	lsr	r24
    184c:	86 95       	lsr	r24
    184e:	90 e8       	ldi	r25, 0x80	; 128
    1850:	89 9f       	mul	r24, r25
    1852:	60 0d       	add	r22, r0
    1854:	71 1d       	adc	r23, r1
    1856:	11 24       	eor	r1, r1
    1858:	fb 01       	movw	r30, r22
    185a:	ea 5e       	subi	r30, 0xEA	; 234
    185c:	fd 4f       	sbci	r31, 0xFD	; 253
    185e:	47 70       	andi	r20, 0x07	; 7
    1860:	a9 f1       	breq	.+106    	; 0x18cc <_ZN16Adafruit_SSD130613drawFastVLineEiiij+0x200>
    1862:	98 e0       	ldi	r25, 0x08	; 8
    1864:	94 1b       	sub	r25, r20
    1866:	49 2f       	mov	r20, r25
    1868:	50 e0       	ldi	r21, 0x00	; 0
    186a:	ea 01       	movw	r28, r20
    186c:	c2 5f       	subi	r28, 0xF2	; 242
    186e:	dd 4f       	sbci	r29, 0xFD	; 253
    1870:	88 81       	ld	r24, Y
    1872:	29 17       	cp	r18, r25
    1874:	90 f4       	brcc	.+36     	; 0x189a <_ZN16Adafruit_SSD130613drawFastVLineEiiij+0x1ce>
    1876:	42 1b       	sub	r20, r18
    1878:	51 09       	sbc	r21, r1
    187a:	2f ef       	ldi	r18, 0xFF	; 255
    187c:	30 e0       	ldi	r19, 0x00	; 0
    187e:	02 c0       	rjmp	.+4      	; 0x1884 <_ZN16Adafruit_SSD130613drawFastVLineEiiij+0x1b8>
    1880:	35 95       	asr	r19
    1882:	27 95       	ror	r18
    1884:	4a 95       	dec	r20
    1886:	e2 f7       	brpl	.-8      	; 0x1880 <_ZN16Adafruit_SSD130613drawFastVLineEiiij+0x1b4>
    1888:	82 23       	and	r24, r18
    188a:	01 30       	cpi	r16, 0x01	; 1
    188c:	11 05       	cpc	r17, r1
    188e:	41 f0       	breq	.+16     	; 0x18a0 <_ZN16Adafruit_SSD130613drawFastVLineEiiij+0x1d4>
    1890:	68 f0       	brcs	.+26     	; 0x18ac <_ZN16Adafruit_SSD130613drawFastVLineEiiij+0x1e0>
    1892:	02 30       	cpi	r16, 0x02	; 2
    1894:	11 05       	cpc	r17, r1
    1896:	89 f0       	breq	.+34     	; 0x18ba <_ZN16Adafruit_SSD130613drawFastVLineEiiij+0x1ee>
    1898:	6e c0       	rjmp	.+220    	; 0x1976 <_ZN16Adafruit_SSD130613drawFastVLineEiiij+0x2aa>
    189a:	01 30       	cpi	r16, 0x01	; 1
    189c:	11 05       	cpc	r17, r1
    189e:	19 f4       	brne	.+6      	; 0x18a6 <_ZN16Adafruit_SSD130613drawFastVLineEiiij+0x1da>
    18a0:	20 81       	ld	r18, Z
    18a2:	82 2b       	or	r24, r18
    18a4:	0c c0       	rjmp	.+24     	; 0x18be <_ZN16Adafruit_SSD130613drawFastVLineEiiij+0x1f2>
    18a6:	01 30       	cpi	r16, 0x01	; 1
    18a8:	11 05       	cpc	r17, r1
    18aa:	20 f4       	brcc	.+8      	; 0x18b4 <_ZN16Adafruit_SSD130613drawFastVLineEiiij+0x1e8>
    18ac:	80 95       	com	r24
    18ae:	20 81       	ld	r18, Z
    18b0:	82 23       	and	r24, r18
    18b2:	05 c0       	rjmp	.+10     	; 0x18be <_ZN16Adafruit_SSD130613drawFastVLineEiiij+0x1f2>
    18b4:	02 30       	cpi	r16, 0x02	; 2
    18b6:	11 05       	cpc	r17, r1
    18b8:	31 f4       	brne	.+12     	; 0x18c6 <_ZN16Adafruit_SSD130613drawFastVLineEiiij+0x1fa>
    18ba:	20 81       	ld	r18, Z
    18bc:	82 27       	eor	r24, r18
    18be:	80 83       	st	Z, r24
    18c0:	a9 17       	cp	r26, r25
    18c2:	08 f4       	brcc	.+2      	; 0x18c6 <_ZN16Adafruit_SSD130613drawFastVLineEiiij+0x1fa>
    18c4:	58 c0       	rjmp	.+176    	; 0x1976 <_ZN16Adafruit_SSD130613drawFastVLineEiiij+0x2aa>
    18c6:	a9 1b       	sub	r26, r25
    18c8:	e0 58       	subi	r30, 0x80	; 128
    18ca:	ff 4f       	sbci	r31, 0xFF	; 255
    18cc:	a8 30       	cpi	r26, 0x08	; 8
    18ce:	48 f1       	brcs	.+82     	; 0x1922 <_ZN16Adafruit_SSD130613drawFastVLineEiiij+0x256>
    18d0:	02 30       	cpi	r16, 0x02	; 2
    18d2:	11 05       	cpc	r17, r1
    18d4:	59 f4       	brne	.+22     	; 0x18ec <_ZN16Adafruit_SSD130613drawFastVLineEiiij+0x220>
    18d6:	ef 01       	movw	r28, r30
    18d8:	8a 2f       	mov	r24, r26
    18da:	98 81       	ld	r25, Y
    18dc:	90 95       	com	r25
    18de:	98 83       	st	Y, r25
    18e0:	c0 58       	subi	r28, 0x80	; 128
    18e2:	df 4f       	sbci	r29, 0xFF	; 255
    18e4:	88 50       	subi	r24, 0x08	; 8
    18e6:	88 30       	cpi	r24, 0x08	; 8
    18e8:	c0 f7       	brcc	.-16     	; 0x18da <_ZN16Adafruit_SSD130613drawFastVLineEiiij+0x20e>
    18ea:	30 c0       	rjmp	.+96     	; 0x194c <_ZN16Adafruit_SSD130613drawFastVLineEiiij+0x280>
    18ec:	81 e0       	ldi	r24, 0x01	; 1
    18ee:	01 30       	cpi	r16, 0x01	; 1
    18f0:	11 05       	cpc	r17, r1
    18f2:	09 f0       	breq	.+2      	; 0x18f6 <_ZN16Adafruit_SSD130613drawFastVLineEiiij+0x22a>
    18f4:	80 e0       	ldi	r24, 0x00	; 0
    18f6:	81 95       	neg	r24
    18f8:	ef 01       	movw	r28, r30
    18fa:	9a 2f       	mov	r25, r26
    18fc:	88 83       	st	Y, r24
    18fe:	c0 58       	subi	r28, 0x80	; 128
    1900:	df 4f       	sbci	r29, 0xFF	; 255
    1902:	98 50       	subi	r25, 0x08	; 8
    1904:	98 30       	cpi	r25, 0x08	; 8
    1906:	d0 f7       	brcc	.-12     	; 0x18fc <_ZN16Adafruit_SSD130613drawFastVLineEiiij+0x230>
    1908:	88 ef       	ldi	r24, 0xF8	; 248
    190a:	8a 0f       	add	r24, r26
    190c:	86 95       	lsr	r24
    190e:	86 95       	lsr	r24
    1910:	86 95       	lsr	r24
    1912:	90 e8       	ldi	r25, 0x80	; 128
    1914:	89 9f       	mul	r24, r25
    1916:	e0 0d       	add	r30, r0
    1918:	f1 1d       	adc	r31, r1
    191a:	11 24       	eor	r1, r1
    191c:	e0 58       	subi	r30, 0x80	; 128
    191e:	ff 4f       	sbci	r31, 0xFF	; 255
    1920:	a7 70       	andi	r26, 0x07	; 7
    1922:	aa 23       	and	r26, r26
    1924:	41 f1       	breq	.+80     	; 0x1976 <_ZN16Adafruit_SSD130613drawFastVLineEiiij+0x2aa>
    1926:	b0 e0       	ldi	r27, 0x00	; 0
    1928:	aa 5f       	subi	r26, 0xFA	; 250
    192a:	bd 4f       	sbci	r27, 0xFD	; 253
    192c:	8c 91       	ld	r24, X
    192e:	01 30       	cpi	r16, 0x01	; 1
    1930:	11 05       	cpc	r17, r1
    1932:	29 f0       	breq	.+10     	; 0x193e <_ZN16Adafruit_SSD130613drawFastVLineEiiij+0x272>
    1934:	38 f0       	brcs	.+14     	; 0x1944 <_ZN16Adafruit_SSD130613drawFastVLineEiiij+0x278>
    1936:	02 30       	cpi	r16, 0x02	; 2
    1938:	11 05       	cpc	r17, r1
    193a:	d1 f0       	breq	.+52     	; 0x1970 <_ZN16Adafruit_SSD130613drawFastVLineEiiij+0x2a4>
    193c:	1c c0       	rjmp	.+56     	; 0x1976 <_ZN16Adafruit_SSD130613drawFastVLineEiiij+0x2aa>
    193e:	90 81       	ld	r25, Z
    1940:	89 2b       	or	r24, r25
    1942:	18 c0       	rjmp	.+48     	; 0x1974 <_ZN16Adafruit_SSD130613drawFastVLineEiiij+0x2a8>
    1944:	80 95       	com	r24
    1946:	90 81       	ld	r25, Z
    1948:	89 23       	and	r24, r25
    194a:	14 c0       	rjmp	.+40     	; 0x1974 <_ZN16Adafruit_SSD130613drawFastVLineEiiij+0x2a8>
    194c:	88 ef       	ldi	r24, 0xF8	; 248
    194e:	8a 0f       	add	r24, r26
    1950:	86 95       	lsr	r24
    1952:	86 95       	lsr	r24
    1954:	86 95       	lsr	r24
    1956:	90 e8       	ldi	r25, 0x80	; 128
    1958:	89 9f       	mul	r24, r25
    195a:	e0 0d       	add	r30, r0
    195c:	f1 1d       	adc	r31, r1
    195e:	11 24       	eor	r1, r1
    1960:	e0 58       	subi	r30, 0x80	; 128
    1962:	ff 4f       	sbci	r31, 0xFF	; 255
    1964:	a7 70       	andi	r26, 0x07	; 7
    1966:	39 f0       	breq	.+14     	; 0x1976 <_ZN16Adafruit_SSD130613drawFastVLineEiiij+0x2aa>
    1968:	b0 e0       	ldi	r27, 0x00	; 0
    196a:	aa 5f       	subi	r26, 0xFA	; 250
    196c:	bd 4f       	sbci	r27, 0xFD	; 253
    196e:	8c 91       	ld	r24, X
    1970:	90 81       	ld	r25, Z
    1972:	89 27       	eor	r24, r25
    1974:	80 83       	st	Z, r24
    1976:	df 91       	pop	r29
    1978:	cf 91       	pop	r28
    197a:	1f 91       	pop	r17
    197c:	0f 91       	pop	r16
    197e:	08 95       	ret

00001980 <_ZN16Adafruit_SSD13069drawPixelEiij>:
    1980:	cf 92       	push	r12
    1982:	df 92       	push	r13
    1984:	ef 92       	push	r14
    1986:	ff 92       	push	r15
    1988:	0f 93       	push	r16
    198a:	1f 93       	push	r17
    198c:	cf 93       	push	r28
    198e:	df 93       	push	r29
    1990:	7c 01       	movw	r14, r24
    1992:	8b 01       	movw	r16, r22
    1994:	ea 01       	movw	r28, r20
    1996:	69 01       	movw	r12, r18
    1998:	77 fd       	sbrc	r23, 7
    199a:	9d c0       	rjmp	.+314    	; 0x1ad6 <_ZN16Adafruit_SSD13069drawPixelEiij+0x156>
    199c:	35 dd       	rcall	.-1430   	; 0x1408 <_ZNK12Adafruit_GFX5widthEv>
    199e:	08 17       	cp	r16, r24
    19a0:	19 07       	cpc	r17, r25
    19a2:	0c f0       	brlt	.+2      	; 0x19a6 <_ZN16Adafruit_SSD13069drawPixelEiij+0x26>
    19a4:	98 c0       	rjmp	.+304    	; 0x1ad6 <_ZN16Adafruit_SSD13069drawPixelEiij+0x156>
    19a6:	d7 fd       	sbrc	r29, 7
    19a8:	96 c0       	rjmp	.+300    	; 0x1ad6 <_ZN16Adafruit_SSD13069drawPixelEiij+0x156>
    19aa:	c7 01       	movw	r24, r14
    19ac:	31 dd       	rcall	.-1438   	; 0x1410 <_ZNK12Adafruit_GFX6heightEv>
    19ae:	c8 17       	cp	r28, r24
    19b0:	d9 07       	cpc	r29, r25
    19b2:	0c f0       	brlt	.+2      	; 0x19b6 <_ZN16Adafruit_SSD13069drawPixelEiij+0x36>
    19b4:	90 c0       	rjmp	.+288    	; 0x1ad6 <_ZN16Adafruit_SSD13069drawPixelEiij+0x156>
    19b6:	c7 01       	movw	r24, r14
    19b8:	24 dd       	rcall	.-1464   	; 0x1402 <_ZNK12Adafruit_GFX11getRotationEv>
    19ba:	82 30       	cpi	r24, 0x02	; 2
    19bc:	09 f0       	breq	.+2      	; 0x19c0 <_ZN16Adafruit_SSD13069drawPixelEiij+0x40>
    19be:	7f c0       	rjmp	.+254    	; 0x1abe <_ZN16Adafruit_SSD13069drawPixelEiij+0x13e>
    19c0:	f7 01       	movw	r30, r14
    19c2:	64 81       	ldd	r22, Z+4	; 0x04
    19c4:	75 81       	ldd	r23, Z+5	; 0x05
    19c6:	cb 01       	movw	r24, r22
    19c8:	80 1b       	sub	r24, r16
    19ca:	91 0b       	sbc	r25, r17
    19cc:	8c 01       	movw	r16, r24
    19ce:	01 50       	subi	r16, 0x01	; 1
    19d0:	11 09       	sbc	r17, r1
    19d2:	46 81       	ldd	r20, Z+6	; 0x06
    19d4:	57 81       	ldd	r21, Z+7	; 0x07
    19d6:	fa 01       	movw	r30, r20
    19d8:	ec 1b       	sub	r30, r28
    19da:	fd 0b       	sbc	r31, r29
    19dc:	ef 01       	movw	r28, r30
    19de:	21 97       	sbiw	r28, 0x01	; 1
    19e0:	0b c0       	rjmp	.+22     	; 0x19f8 <_ZN16Adafruit_SSD13069drawPixelEiij+0x78>
    19e2:	81 30       	cpi	r24, 0x01	; 1
    19e4:	49 f4       	brne	.+18     	; 0x19f8 <_ZN16Adafruit_SSD13069drawPixelEiij+0x78>
    19e6:	f7 01       	movw	r30, r14
    19e8:	84 81       	ldd	r24, Z+4	; 0x04
    19ea:	95 81       	ldd	r25, Z+5	; 0x05
    19ec:	8c 1b       	sub	r24, r28
    19ee:	9d 0b       	sbc	r25, r29
    19f0:	e8 01       	movw	r28, r16
    19f2:	8c 01       	movw	r16, r24
    19f4:	01 50       	subi	r16, 0x01	; 1
    19f6:	11 09       	sbc	r17, r1
    19f8:	f1 e0       	ldi	r31, 0x01	; 1
    19fa:	cf 16       	cp	r12, r31
    19fc:	d1 04       	cpc	r13, r1
    19fe:	31 f0       	breq	.+12     	; 0x1a0c <_ZN16Adafruit_SSD13069drawPixelEiij+0x8c>
    1a00:	10 f1       	brcs	.+68     	; 0x1a46 <_ZN16Adafruit_SSD13069drawPixelEiij+0xc6>
    1a02:	82 e0       	ldi	r24, 0x02	; 2
    1a04:	c8 16       	cp	r12, r24
    1a06:	d1 04       	cpc	r13, r1
    1a08:	e1 f1       	breq	.+120    	; 0x1a82 <_ZN16Adafruit_SSD13069drawPixelEiij+0x102>
    1a0a:	65 c0       	rjmp	.+202    	; 0x1ad6 <_ZN16Adafruit_SSD13069drawPixelEiij+0x156>
    1a0c:	fe 01       	movw	r30, r28
    1a0e:	d7 fd       	sbrc	r29, 7
    1a10:	37 96       	adiw	r30, 0x07	; 7
    1a12:	43 e0       	ldi	r20, 0x03	; 3
    1a14:	f5 95       	asr	r31
    1a16:	e7 95       	ror	r30
    1a18:	4a 95       	dec	r20
    1a1a:	e1 f7       	brne	.-8      	; 0x1a14 <_ZN16Adafruit_SSD13069drawPixelEiij+0x94>
    1a1c:	f6 95       	lsr	r31
    1a1e:	fe 2f       	mov	r31, r30
    1a20:	ee 27       	eor	r30, r30
    1a22:	f7 95       	ror	r31
    1a24:	e7 95       	ror	r30
    1a26:	0e 0f       	add	r16, r30
    1a28:	1f 1f       	adc	r17, r31
    1a2a:	f8 01       	movw	r30, r16
    1a2c:	ea 5e       	subi	r30, 0xEA	; 234
    1a2e:	fd 4f       	sbci	r31, 0xFD	; 253
    1a30:	c7 70       	andi	r28, 0x07	; 7
    1a32:	dd 27       	eor	r29, r29
    1a34:	81 e0       	ldi	r24, 0x01	; 1
    1a36:	90 e0       	ldi	r25, 0x00	; 0
    1a38:	01 c0       	rjmp	.+2      	; 0x1a3c <_ZN16Adafruit_SSD13069drawPixelEiij+0xbc>
    1a3a:	88 0f       	add	r24, r24
    1a3c:	ca 95       	dec	r28
    1a3e:	ea f7       	brpl	.-6      	; 0x1a3a <_ZN16Adafruit_SSD13069drawPixelEiij+0xba>
    1a40:	90 81       	ld	r25, Z
    1a42:	89 2b       	or	r24, r25
    1a44:	3a c0       	rjmp	.+116    	; 0x1aba <_ZN16Adafruit_SSD13069drawPixelEiij+0x13a>
    1a46:	fe 01       	movw	r30, r28
    1a48:	d7 fd       	sbrc	r29, 7
    1a4a:	37 96       	adiw	r30, 0x07	; 7
    1a4c:	23 e0       	ldi	r18, 0x03	; 3
    1a4e:	f5 95       	asr	r31
    1a50:	e7 95       	ror	r30
    1a52:	2a 95       	dec	r18
    1a54:	e1 f7       	brne	.-8      	; 0x1a4e <_ZN16Adafruit_SSD13069drawPixelEiij+0xce>
    1a56:	f6 95       	lsr	r31
    1a58:	fe 2f       	mov	r31, r30
    1a5a:	ee 27       	eor	r30, r30
    1a5c:	f7 95       	ror	r31
    1a5e:	e7 95       	ror	r30
    1a60:	0e 0f       	add	r16, r30
    1a62:	1f 1f       	adc	r17, r31
    1a64:	f8 01       	movw	r30, r16
    1a66:	ea 5e       	subi	r30, 0xEA	; 234
    1a68:	fd 4f       	sbci	r31, 0xFD	; 253
    1a6a:	c7 70       	andi	r28, 0x07	; 7
    1a6c:	dd 27       	eor	r29, r29
    1a6e:	81 e0       	ldi	r24, 0x01	; 1
    1a70:	90 e0       	ldi	r25, 0x00	; 0
    1a72:	01 c0       	rjmp	.+2      	; 0x1a76 <_ZN16Adafruit_SSD13069drawPixelEiij+0xf6>
    1a74:	88 0f       	add	r24, r24
    1a76:	ca 95       	dec	r28
    1a78:	ea f7       	brpl	.-6      	; 0x1a74 <_ZN16Adafruit_SSD13069drawPixelEiij+0xf4>
    1a7a:	80 95       	com	r24
    1a7c:	90 81       	ld	r25, Z
    1a7e:	89 23       	and	r24, r25
    1a80:	1c c0       	rjmp	.+56     	; 0x1aba <_ZN16Adafruit_SSD13069drawPixelEiij+0x13a>
    1a82:	fe 01       	movw	r30, r28
    1a84:	d7 fd       	sbrc	r29, 7
    1a86:	37 96       	adiw	r30, 0x07	; 7
    1a88:	83 e0       	ldi	r24, 0x03	; 3
    1a8a:	f5 95       	asr	r31
    1a8c:	e7 95       	ror	r30
    1a8e:	8a 95       	dec	r24
    1a90:	e1 f7       	brne	.-8      	; 0x1a8a <_ZN16Adafruit_SSD13069drawPixelEiij+0x10a>
    1a92:	f6 95       	lsr	r31
    1a94:	fe 2f       	mov	r31, r30
    1a96:	ee 27       	eor	r30, r30
    1a98:	f7 95       	ror	r31
    1a9a:	e7 95       	ror	r30
    1a9c:	0e 0f       	add	r16, r30
    1a9e:	1f 1f       	adc	r17, r31
    1aa0:	f8 01       	movw	r30, r16
    1aa2:	ea 5e       	subi	r30, 0xEA	; 234
    1aa4:	fd 4f       	sbci	r31, 0xFD	; 253
    1aa6:	c7 70       	andi	r28, 0x07	; 7
    1aa8:	dd 27       	eor	r29, r29
    1aaa:	81 e0       	ldi	r24, 0x01	; 1
    1aac:	90 e0       	ldi	r25, 0x00	; 0
    1aae:	01 c0       	rjmp	.+2      	; 0x1ab2 <_ZN16Adafruit_SSD13069drawPixelEiij+0x132>
    1ab0:	88 0f       	add	r24, r24
    1ab2:	ca 95       	dec	r28
    1ab4:	ea f7       	brpl	.-6      	; 0x1ab0 <_ZN16Adafruit_SSD13069drawPixelEiij+0x130>
    1ab6:	90 81       	ld	r25, Z
    1ab8:	89 27       	eor	r24, r25
    1aba:	80 83       	st	Z, r24
    1abc:	0c c0       	rjmp	.+24     	; 0x1ad6 <_ZN16Adafruit_SSD13069drawPixelEiij+0x156>
    1abe:	83 30       	cpi	r24, 0x03	; 3
    1ac0:	09 f0       	breq	.+2      	; 0x1ac4 <_ZN16Adafruit_SSD13069drawPixelEiij+0x144>
    1ac2:	8f cf       	rjmp	.-226    	; 0x19e2 <_ZN16Adafruit_SSD13069drawPixelEiij+0x62>
    1ac4:	f7 01       	movw	r30, r14
    1ac6:	86 81       	ldd	r24, Z+6	; 0x06
    1ac8:	97 81       	ldd	r25, Z+7	; 0x07
    1aca:	80 1b       	sub	r24, r16
    1acc:	91 0b       	sbc	r25, r17
    1ace:	8e 01       	movw	r16, r28
    1ad0:	ec 01       	movw	r28, r24
    1ad2:	21 97       	sbiw	r28, 0x01	; 1
    1ad4:	91 cf       	rjmp	.-222    	; 0x19f8 <_ZN16Adafruit_SSD13069drawPixelEiij+0x78>
    1ad6:	df 91       	pop	r29
    1ad8:	cf 91       	pop	r28
    1ada:	1f 91       	pop	r17
    1adc:	0f 91       	pop	r16
    1ade:	ff 90       	pop	r15
    1ae0:	ef 90       	pop	r14
    1ae2:	df 90       	pop	r13
    1ae4:	cf 90       	pop	r12
    1ae6:	08 95       	ret

00001ae8 <_ZN16Adafruit_SSD1306C1Ea>:
    1ae8:	1f 93       	push	r17
    1aea:	cf 93       	push	r28
    1aec:	df 93       	push	r29
    1aee:	ec 01       	movw	r28, r24
    1af0:	16 2f       	mov	r17, r22
    1af2:	40 e4       	ldi	r20, 0x40	; 64
    1af4:	50 e0       	ldi	r21, 0x00	; 0
    1af6:	60 e8       	ldi	r22, 0x80	; 128
    1af8:	70 e0       	ldi	r23, 0x00	; 0
    1afa:	66 d9       	rcall	.-3380   	; 0xdc8 <_ZN12Adafruit_GFXC1Eii>
    1afc:	87 e8       	ldi	r24, 0x87	; 135
    1afe:	96 e0       	ldi	r25, 0x06	; 6
    1b00:	99 83       	std	Y+1, r25	; 0x01
    1b02:	88 83       	st	Y, r24
    1b04:	8f ef       	ldi	r24, 0xFF	; 255
    1b06:	8c 8f       	std	Y+28, r24	; 0x1c
    1b08:	88 a3       	std	Y+32, r24	; 0x20
    1b0a:	8e 8f       	std	Y+30, r24	; 0x1e
    1b0c:	8d 8f       	std	Y+29, r24	; 0x1d
    1b0e:	1f 8f       	std	Y+31, r17	; 0x1f
    1b10:	df 91       	pop	r29
    1b12:	cf 91       	pop	r28
    1b14:	1f 91       	pop	r17
    1b16:	08 95       	ret

00001b18 <_ZN16Adafruit_SSD130612clearDisplayEv>:
    1b18:	80 e0       	ldi	r24, 0x00	; 0
    1b1a:	94 e0       	ldi	r25, 0x04	; 4
    1b1c:	e6 e1       	ldi	r30, 0x16	; 22
    1b1e:	f2 e0       	ldi	r31, 0x02	; 2
    1b20:	df 01       	movw	r26, r30
    1b22:	9c 01       	movw	r18, r24
    1b24:	1d 92       	st	X+, r1
    1b26:	21 50       	subi	r18, 0x01	; 1
    1b28:	30 40       	sbci	r19, 0x00	; 0
    1b2a:	e1 f7       	brne	.-8      	; 0x1b24 <_ZN16Adafruit_SSD130612clearDisplayEv+0xc>
    1b2c:	08 95       	ret

00001b2e <_ZN16Adafruit_SSD130612fastSPIwriteEh>:
    1b2e:	fc 01       	movw	r30, r24
    1b30:	81 a1       	ldd	r24, Z+33	; 0x21
    1b32:	88 23       	and	r24, r24
    1b34:	39 f0       	breq	.+14     	; 0x1b44 <_ZN16Adafruit_SSD130612fastSPIwriteEh+0x16>
    1b36:	6e bd       	out	0x2e, r22	; 46
    1b38:	00 00       	nop
    1b3a:	0d b4       	in	r0, 0x2d	; 45
    1b3c:	07 fe       	sbrs	r0, 7
    1b3e:	fd cf       	rjmp	.-6      	; 0x1b3a <_ZN16Adafruit_SSD130612fastSPIwriteEh+0xc>
    1b40:	8e b5       	in	r24, 0x2e	; 46
    1b42:	08 95       	ret
    1b44:	28 e0       	ldi	r18, 0x08	; 8
    1b46:	30 e0       	ldi	r19, 0x00	; 0
    1b48:	90 e8       	ldi	r25, 0x80	; 128
    1b4a:	a4 a1       	ldd	r26, Z+36	; 0x24
    1b4c:	b5 a1       	ldd	r27, Z+37	; 0x25
    1b4e:	4c 91       	ld	r20, X
    1b50:	83 a5       	ldd	r24, Z+43	; 0x2b
    1b52:	80 95       	com	r24
    1b54:	84 23       	and	r24, r20
    1b56:	8c 93       	st	X, r24
    1b58:	a2 a1       	ldd	r26, Z+34	; 0x22
    1b5a:	b3 a1       	ldd	r27, Z+35	; 0x23
    1b5c:	82 a5       	ldd	r24, Z+42	; 0x2a
    1b5e:	49 2f       	mov	r20, r25
    1b60:	46 23       	and	r20, r22
    1b62:	19 f0       	breq	.+6      	; 0x1b6a <_ZN16Adafruit_SSD130612fastSPIwriteEh+0x3c>
    1b64:	4c 91       	ld	r20, X
    1b66:	84 2b       	or	r24, r20
    1b68:	03 c0       	rjmp	.+6      	; 0x1b70 <_ZN16Adafruit_SSD130612fastSPIwriteEh+0x42>
    1b6a:	4c 91       	ld	r20, X
    1b6c:	80 95       	com	r24
    1b6e:	84 23       	and	r24, r20
    1b70:	8c 93       	st	X, r24
    1b72:	a4 a1       	ldd	r26, Z+36	; 0x24
    1b74:	b5 a1       	ldd	r27, Z+37	; 0x25
    1b76:	4c 91       	ld	r20, X
    1b78:	83 a5       	ldd	r24, Z+43	; 0x2b
    1b7a:	84 2b       	or	r24, r20
    1b7c:	8c 93       	st	X, r24
    1b7e:	96 95       	lsr	r25
    1b80:	21 50       	subi	r18, 0x01	; 1
    1b82:	31 09       	sbc	r19, r1
    1b84:	11 f7       	brne	.-60     	; 0x1b4a <_ZN16Adafruit_SSD130612fastSPIwriteEh+0x1c>
    1b86:	08 95       	ret

00001b88 <_ZN16Adafruit_SSD130615ssd1306_commandEh>:
    1b88:	1f 93       	push	r17
    1b8a:	cf 93       	push	r28
    1b8c:	df 93       	push	r29
    1b8e:	ec 01       	movw	r28, r24
    1b90:	16 2f       	mov	r17, r22
    1b92:	8c 8d       	ldd	r24, Y+28	; 0x1c
    1b94:	8f 3f       	cpi	r24, 0xFF	; 255
    1b96:	01 f1       	breq	.+64     	; 0x1bd8 <_ZN16Adafruit_SSD130615ssd1306_commandEh+0x50>
    1b98:	ee a1       	ldd	r30, Y+38	; 0x26
    1b9a:	ff a1       	ldd	r31, Y+39	; 0x27
    1b9c:	90 81       	ld	r25, Z
    1b9e:	8c a5       	ldd	r24, Y+44	; 0x2c
    1ba0:	89 2b       	or	r24, r25
    1ba2:	80 83       	st	Z, r24
    1ba4:	e8 a5       	ldd	r30, Y+40	; 0x28
    1ba6:	f9 a5       	ldd	r31, Y+41	; 0x29
    1ba8:	90 81       	ld	r25, Z
    1baa:	8d a5       	ldd	r24, Y+45	; 0x2d
    1bac:	80 95       	com	r24
    1bae:	89 23       	and	r24, r25
    1bb0:	80 83       	st	Z, r24
    1bb2:	ee a1       	ldd	r30, Y+38	; 0x26
    1bb4:	ff a1       	ldd	r31, Y+39	; 0x27
    1bb6:	90 81       	ld	r25, Z
    1bb8:	8c a5       	ldd	r24, Y+44	; 0x2c
    1bba:	80 95       	com	r24
    1bbc:	89 23       	and	r24, r25
    1bbe:	80 83       	st	Z, r24
    1bc0:	ce 01       	movw	r24, r28
    1bc2:	b5 df       	rcall	.-150    	; 0x1b2e <_ZN16Adafruit_SSD130612fastSPIwriteEh>
    1bc4:	ee a1       	ldd	r30, Y+38	; 0x26
    1bc6:	ff a1       	ldd	r31, Y+39	; 0x27
    1bc8:	90 81       	ld	r25, Z
    1bca:	8c a5       	ldd	r24, Y+44	; 0x2c
    1bcc:	89 2b       	or	r24, r25
    1bce:	80 83       	st	Z, r24
    1bd0:	df 91       	pop	r29
    1bd2:	cf 91       	pop	r28
    1bd4:	1f 91       	pop	r17
    1bd6:	08 95       	ret
    1bd8:	8a 8d       	ldd	r24, Y+26	; 0x1a
    1bda:	68 2f       	mov	r22, r24
    1bdc:	88 0f       	add	r24, r24
    1bde:	77 0b       	sbc	r23, r23
    1be0:	82 e3       	ldi	r24, 0x32	; 50
    1be2:	9e e0       	ldi	r25, 0x0E	; 14
    1be4:	0e 94 d1 23 	call	0x47a2	; 0x47a2 <_ZN7TwoWire17beginTransmissionEi>
    1be8:	60 e0       	ldi	r22, 0x00	; 0
    1bea:	82 e3       	ldi	r24, 0x32	; 50
    1bec:	9e e0       	ldi	r25, 0x0E	; 14
    1bee:	0e 94 80 23 	call	0x4700	; 0x4700 <_ZN7TwoWire5writeEh>
    1bf2:	61 2f       	mov	r22, r17
    1bf4:	82 e3       	ldi	r24, 0x32	; 50
    1bf6:	9e e0       	ldi	r25, 0x0E	; 14
    1bf8:	0e 94 80 23 	call	0x4700	; 0x4700 <_ZN7TwoWire5writeEh>
    1bfc:	82 e3       	ldi	r24, 0x32	; 50
    1bfe:	9e e0       	ldi	r25, 0x0E	; 14
    1c00:	df 91       	pop	r29
    1c02:	cf 91       	pop	r28
    1c04:	1f 91       	pop	r17
    1c06:	0c 94 46 24 	jmp	0x488c	; 0x488c <_ZN7TwoWire15endTransmissionEv>

00001c0a <_ZN16Adafruit_SSD13065beginEhhb>:
    1c0a:	0f 93       	push	r16
    1c0c:	1f 93       	push	r17
    1c0e:	cf 93       	push	r28
    1c10:	df 93       	push	r29
    1c12:	ec 01       	movw	r28, r24
    1c14:	16 2f       	mov	r17, r22
    1c16:	02 2f       	mov	r16, r18
    1c18:	6b 8f       	std	Y+27, r22	; 0x1b
    1c1a:	4a 8f       	std	Y+26, r20	; 0x1a
    1c1c:	8c 8d       	ldd	r24, Y+28	; 0x1c
    1c1e:	8f 3f       	cpi	r24, 0xFF	; 255
    1c20:	09 f4       	brne	.+2      	; 0x1c24 <_ZN16Adafruit_SSD13065beginEhhb+0x1a>
    1c22:	8c c0       	rjmp	.+280    	; 0x1d3c <_ZN16Adafruit_SSD13065beginEhhb+0x132>
    1c24:	61 e0       	ldi	r22, 0x01	; 1
    1c26:	8e 8d       	ldd	r24, Y+30	; 0x1e
    1c28:	0e 94 88 31 	call	0x6310	; 0x6310 <pinMode>
    1c2c:	61 e0       	ldi	r22, 0x01	; 1
    1c2e:	88 a1       	ldd	r24, Y+32	; 0x20
    1c30:	0e 94 88 31 	call	0x6310	; 0x6310 <pinMode>
    1c34:	88 a1       	ldd	r24, Y+32	; 0x20
    1c36:	08 2e       	mov	r0, r24
    1c38:	00 0c       	add	r0, r0
    1c3a:	99 0b       	sbc	r25, r25
    1c3c:	fc 01       	movw	r30, r24
    1c3e:	ee 5b       	subi	r30, 0xBE	; 190
    1c40:	f8 4f       	sbci	r31, 0xF8	; 248
    1c42:	e4 91       	lpm	r30, Z
    1c44:	f0 e0       	ldi	r31, 0x00	; 0
    1c46:	ee 0f       	add	r30, r30
    1c48:	ff 1f       	adc	r31, r31
    1c4a:	ee 55       	subi	r30, 0x5E	; 94
    1c4c:	f8 4f       	sbci	r31, 0xF8	; 248
    1c4e:	25 91       	lpm	r18, Z+
    1c50:	34 91       	lpm	r19, Z
    1c52:	3f a3       	std	Y+39, r19	; 0x27
    1c54:	2e a3       	std	Y+38, r18	; 0x26
    1c56:	fc 01       	movw	r30, r24
    1c58:	e4 50       	subi	r30, 0x04	; 4
    1c5a:	f9 4f       	sbci	r31, 0xF9	; 249
    1c5c:	e4 91       	lpm	r30, Z
    1c5e:	ec a7       	std	Y+44, r30	; 0x2c
    1c60:	8e 8d       	ldd	r24, Y+30	; 0x1e
    1c62:	08 2e       	mov	r0, r24
    1c64:	00 0c       	add	r0, r0
    1c66:	99 0b       	sbc	r25, r25
    1c68:	fc 01       	movw	r30, r24
    1c6a:	ee 5b       	subi	r30, 0xBE	; 190
    1c6c:	f8 4f       	sbci	r31, 0xF8	; 248
    1c6e:	e4 91       	lpm	r30, Z
    1c70:	f0 e0       	ldi	r31, 0x00	; 0
    1c72:	ee 0f       	add	r30, r30
    1c74:	ff 1f       	adc	r31, r31
    1c76:	ee 55       	subi	r30, 0x5E	; 94
    1c78:	f8 4f       	sbci	r31, 0xF8	; 248
    1c7a:	25 91       	lpm	r18, Z+
    1c7c:	34 91       	lpm	r19, Z
    1c7e:	39 a7       	std	Y+41, r19	; 0x29
    1c80:	28 a7       	std	Y+40, r18	; 0x28
    1c82:	fc 01       	movw	r30, r24
    1c84:	e4 50       	subi	r30, 0x04	; 4
    1c86:	f9 4f       	sbci	r31, 0xF9	; 249
    1c88:	e4 91       	lpm	r30, Z
    1c8a:	ed a7       	std	Y+45, r30	; 0x2d
    1c8c:	89 a1       	ldd	r24, Y+33	; 0x21
    1c8e:	81 11       	cpse	r24, r1
    1c90:	34 c0       	rjmp	.+104    	; 0x1cfa <_ZN16Adafruit_SSD13065beginEhhb+0xf0>
    1c92:	61 e0       	ldi	r22, 0x01	; 1
    1c94:	8c 8d       	ldd	r24, Y+28	; 0x1c
    1c96:	0e 94 88 31 	call	0x6310	; 0x6310 <pinMode>
    1c9a:	61 e0       	ldi	r22, 0x01	; 1
    1c9c:	8d 8d       	ldd	r24, Y+29	; 0x1d
    1c9e:	0e 94 88 31 	call	0x6310	; 0x6310 <pinMode>
    1ca2:	8d 8d       	ldd	r24, Y+29	; 0x1d
    1ca4:	08 2e       	mov	r0, r24
    1ca6:	00 0c       	add	r0, r0
    1ca8:	99 0b       	sbc	r25, r25
    1caa:	fc 01       	movw	r30, r24
    1cac:	ee 5b       	subi	r30, 0xBE	; 190
    1cae:	f8 4f       	sbci	r31, 0xF8	; 248
    1cb0:	e4 91       	lpm	r30, Z
    1cb2:	f0 e0       	ldi	r31, 0x00	; 0
    1cb4:	ee 0f       	add	r30, r30
    1cb6:	ff 1f       	adc	r31, r31
    1cb8:	ee 55       	subi	r30, 0x5E	; 94
    1cba:	f8 4f       	sbci	r31, 0xF8	; 248
    1cbc:	25 91       	lpm	r18, Z+
    1cbe:	34 91       	lpm	r19, Z
    1cc0:	3d a3       	std	Y+37, r19	; 0x25
    1cc2:	2c a3       	std	Y+36, r18	; 0x24
    1cc4:	fc 01       	movw	r30, r24
    1cc6:	e4 50       	subi	r30, 0x04	; 4
    1cc8:	f9 4f       	sbci	r31, 0xF9	; 249
    1cca:	e4 91       	lpm	r30, Z
    1ccc:	eb a7       	std	Y+43, r30	; 0x2b
    1cce:	8c 8d       	ldd	r24, Y+28	; 0x1c
    1cd0:	08 2e       	mov	r0, r24
    1cd2:	00 0c       	add	r0, r0
    1cd4:	99 0b       	sbc	r25, r25
    1cd6:	fc 01       	movw	r30, r24
    1cd8:	ee 5b       	subi	r30, 0xBE	; 190
    1cda:	f8 4f       	sbci	r31, 0xF8	; 248
    1cdc:	e4 91       	lpm	r30, Z
    1cde:	f0 e0       	ldi	r31, 0x00	; 0
    1ce0:	ee 0f       	add	r30, r30
    1ce2:	ff 1f       	adc	r31, r31
    1ce4:	ee 55       	subi	r30, 0x5E	; 94
    1ce6:	f8 4f       	sbci	r31, 0xF8	; 248
    1ce8:	25 91       	lpm	r18, Z+
    1cea:	34 91       	lpm	r19, Z
    1cec:	3b a3       	std	Y+35, r19	; 0x23
    1cee:	2a a3       	std	Y+34, r18	; 0x22
    1cf0:	fc 01       	movw	r30, r24
    1cf2:	e4 50       	subi	r30, 0x04	; 4
    1cf4:	f9 4f       	sbci	r31, 0xF9	; 249
    1cf6:	e4 91       	lpm	r30, Z
    1cf8:	ea a7       	std	Y+42, r30	; 0x2a
    1cfa:	89 a1       	ldd	r24, Y+33	; 0x21
    1cfc:	88 23       	and	r24, r24
    1cfe:	11 f1       	breq	.+68     	; 0x1d44 <_ZN16Adafruit_SSD13065beginEhhb+0x13a>
    1d00:	0e 94 cd 20 	call	0x419a	; 0x419a <_ZN8SPIClass5beginEv>
    1d04:	80 91 c2 0d 	lds	r24, 0x0DC2	; 0x800dc2 <_ZN8SPIClass13interruptModeE>
    1d08:	88 23       	and	r24, r24
    1d0a:	99 f0       	breq	.+38     	; 0x1d32 <_ZN16Adafruit_SSD13065beginEhhb+0x128>
    1d0c:	2f b7       	in	r18, 0x3f	; 63
    1d0e:	f8 94       	cli
    1d10:	80 91 c2 0d 	lds	r24, 0x0DC2	; 0x800dc2 <_ZN8SPIClass13interruptModeE>
    1d14:	81 30       	cpi	r24, 0x01	; 1
    1d16:	59 f4       	brne	.+22     	; 0x1d2e <_ZN16Adafruit_SSD13065beginEhhb+0x124>
    1d18:	8d b3       	in	r24, 0x1d	; 29
    1d1a:	80 93 c0 0d 	sts	0x0DC0, r24	; 0x800dc0 <_ZN8SPIClass13interruptSaveE>
    1d1e:	9d b3       	in	r25, 0x1d	; 29
    1d20:	80 91 c1 0d 	lds	r24, 0x0DC1	; 0x800dc1 <_ZN8SPIClass13interruptMaskE>
    1d24:	80 95       	com	r24
    1d26:	89 23       	and	r24, r25
    1d28:	8d bb       	out	0x1d, r24	; 29
    1d2a:	2f bf       	out	0x3f, r18	; 63
    1d2c:	02 c0       	rjmp	.+4      	; 0x1d32 <_ZN16Adafruit_SSD13065beginEhhb+0x128>
    1d2e:	20 93 c0 0d 	sts	0x0DC0, r18	; 0x800dc0 <_ZN8SPIClass13interruptSaveE>
    1d32:	80 e5       	ldi	r24, 0x50	; 80
    1d34:	8c bd       	out	0x2c, r24	; 44
    1d36:	81 e0       	ldi	r24, 0x01	; 1
    1d38:	8d bd       	out	0x2d, r24	; 45
    1d3a:	04 c0       	rjmp	.+8      	; 0x1d44 <_ZN16Adafruit_SSD13065beginEhhb+0x13a>
    1d3c:	82 e3       	ldi	r24, 0x32	; 50
    1d3e:	9e e0       	ldi	r25, 0x0E	; 14
    1d40:	0e 94 be 23 	call	0x477c	; 0x477c <_ZN7TwoWire5beginEv>
    1d44:	00 23       	and	r16, r16
    1d46:	f1 f0       	breq	.+60     	; 0x1d84 <_ZN16Adafruit_SSD13065beginEhhb+0x17a>
    1d48:	8f 8d       	ldd	r24, Y+31	; 0x1f
    1d4a:	87 fd       	sbrc	r24, 7
    1d4c:	1b c0       	rjmp	.+54     	; 0x1d84 <_ZN16Adafruit_SSD13065beginEhhb+0x17a>
    1d4e:	61 e0       	ldi	r22, 0x01	; 1
    1d50:	0e 94 88 31 	call	0x6310	; 0x6310 <pinMode>
    1d54:	61 e0       	ldi	r22, 0x01	; 1
    1d56:	8f 8d       	ldd	r24, Y+31	; 0x1f
    1d58:	0e 94 c4 31 	call	0x6388	; 0x6388 <digitalWrite>
    1d5c:	61 e0       	ldi	r22, 0x01	; 1
    1d5e:	70 e0       	ldi	r23, 0x00	; 0
    1d60:	80 e0       	ldi	r24, 0x00	; 0
    1d62:	90 e0       	ldi	r25, 0x00	; 0
    1d64:	0e 94 8d 30 	call	0x611a	; 0x611a <delay>
    1d68:	60 e0       	ldi	r22, 0x00	; 0
    1d6a:	8f 8d       	ldd	r24, Y+31	; 0x1f
    1d6c:	0e 94 c4 31 	call	0x6388	; 0x6388 <digitalWrite>
    1d70:	6a e0       	ldi	r22, 0x0A	; 10
    1d72:	70 e0       	ldi	r23, 0x00	; 0
    1d74:	80 e0       	ldi	r24, 0x00	; 0
    1d76:	90 e0       	ldi	r25, 0x00	; 0
    1d78:	0e 94 8d 30 	call	0x611a	; 0x611a <delay>
    1d7c:	61 e0       	ldi	r22, 0x01	; 1
    1d7e:	8f 8d       	ldd	r24, Y+31	; 0x1f
    1d80:	0e 94 c4 31 	call	0x6388	; 0x6388 <digitalWrite>
    1d84:	6e ea       	ldi	r22, 0xAE	; 174
    1d86:	ce 01       	movw	r24, r28
    1d88:	ff de       	rcall	.-514    	; 0x1b88 <_ZN16Adafruit_SSD130615ssd1306_commandEh>
    1d8a:	65 ed       	ldi	r22, 0xD5	; 213
    1d8c:	ce 01       	movw	r24, r28
    1d8e:	fc de       	rcall	.-520    	; 0x1b88 <_ZN16Adafruit_SSD130615ssd1306_commandEh>
    1d90:	60 e8       	ldi	r22, 0x80	; 128
    1d92:	ce 01       	movw	r24, r28
    1d94:	f9 de       	rcall	.-526    	; 0x1b88 <_ZN16Adafruit_SSD130615ssd1306_commandEh>
    1d96:	68 ea       	ldi	r22, 0xA8	; 168
    1d98:	ce 01       	movw	r24, r28
    1d9a:	f6 de       	rcall	.-532    	; 0x1b88 <_ZN16Adafruit_SSD130615ssd1306_commandEh>
    1d9c:	6f e3       	ldi	r22, 0x3F	; 63
    1d9e:	ce 01       	movw	r24, r28
    1da0:	f3 de       	rcall	.-538    	; 0x1b88 <_ZN16Adafruit_SSD130615ssd1306_commandEh>
    1da2:	63 ed       	ldi	r22, 0xD3	; 211
    1da4:	ce 01       	movw	r24, r28
    1da6:	f0 de       	rcall	.-544    	; 0x1b88 <_ZN16Adafruit_SSD130615ssd1306_commandEh>
    1da8:	60 e0       	ldi	r22, 0x00	; 0
    1daa:	ce 01       	movw	r24, r28
    1dac:	ed de       	rcall	.-550    	; 0x1b88 <_ZN16Adafruit_SSD130615ssd1306_commandEh>
    1dae:	60 e4       	ldi	r22, 0x40	; 64
    1db0:	ce 01       	movw	r24, r28
    1db2:	ea de       	rcall	.-556    	; 0x1b88 <_ZN16Adafruit_SSD130615ssd1306_commandEh>
    1db4:	6d e8       	ldi	r22, 0x8D	; 141
    1db6:	ce 01       	movw	r24, r28
    1db8:	e7 de       	rcall	.-562    	; 0x1b88 <_ZN16Adafruit_SSD130615ssd1306_commandEh>
    1dba:	11 30       	cpi	r17, 0x01	; 1
    1dbc:	11 f4       	brne	.+4      	; 0x1dc2 <_ZN16Adafruit_SSD13065beginEhhb+0x1b8>
    1dbe:	60 e1       	ldi	r22, 0x10	; 16
    1dc0:	01 c0       	rjmp	.+2      	; 0x1dc4 <_ZN16Adafruit_SSD13065beginEhhb+0x1ba>
    1dc2:	64 e1       	ldi	r22, 0x14	; 20
    1dc4:	ce 01       	movw	r24, r28
    1dc6:	e0 de       	rcall	.-576    	; 0x1b88 <_ZN16Adafruit_SSD130615ssd1306_commandEh>
    1dc8:	60 e2       	ldi	r22, 0x20	; 32
    1dca:	ce 01       	movw	r24, r28
    1dcc:	dd de       	rcall	.-582    	; 0x1b88 <_ZN16Adafruit_SSD130615ssd1306_commandEh>
    1dce:	60 e0       	ldi	r22, 0x00	; 0
    1dd0:	ce 01       	movw	r24, r28
    1dd2:	da de       	rcall	.-588    	; 0x1b88 <_ZN16Adafruit_SSD130615ssd1306_commandEh>
    1dd4:	61 ea       	ldi	r22, 0xA1	; 161
    1dd6:	ce 01       	movw	r24, r28
    1dd8:	d7 de       	rcall	.-594    	; 0x1b88 <_ZN16Adafruit_SSD130615ssd1306_commandEh>
    1dda:	68 ec       	ldi	r22, 0xC8	; 200
    1ddc:	ce 01       	movw	r24, r28
    1dde:	d4 de       	rcall	.-600    	; 0x1b88 <_ZN16Adafruit_SSD130615ssd1306_commandEh>
    1de0:	6a ed       	ldi	r22, 0xDA	; 218
    1de2:	ce 01       	movw	r24, r28
    1de4:	d1 de       	rcall	.-606    	; 0x1b88 <_ZN16Adafruit_SSD130615ssd1306_commandEh>
    1de6:	62 e1       	ldi	r22, 0x12	; 18
    1de8:	ce 01       	movw	r24, r28
    1dea:	ce de       	rcall	.-612    	; 0x1b88 <_ZN16Adafruit_SSD130615ssd1306_commandEh>
    1dec:	61 e8       	ldi	r22, 0x81	; 129
    1dee:	ce 01       	movw	r24, r28
    1df0:	cb de       	rcall	.-618    	; 0x1b88 <_ZN16Adafruit_SSD130615ssd1306_commandEh>
    1df2:	11 30       	cpi	r17, 0x01	; 1
    1df4:	11 f4       	brne	.+4      	; 0x1dfa <_ZN16Adafruit_SSD13065beginEhhb+0x1f0>
    1df6:	6f e9       	ldi	r22, 0x9F	; 159
    1df8:	01 c0       	rjmp	.+2      	; 0x1dfc <_ZN16Adafruit_SSD13065beginEhhb+0x1f2>
    1dfa:	6f ec       	ldi	r22, 0xCF	; 207
    1dfc:	ce 01       	movw	r24, r28
    1dfe:	c4 de       	rcall	.-632    	; 0x1b88 <_ZN16Adafruit_SSD130615ssd1306_commandEh>
    1e00:	69 ed       	ldi	r22, 0xD9	; 217
    1e02:	ce 01       	movw	r24, r28
    1e04:	c1 de       	rcall	.-638    	; 0x1b88 <_ZN16Adafruit_SSD130615ssd1306_commandEh>
    1e06:	11 30       	cpi	r17, 0x01	; 1
    1e08:	11 f4       	brne	.+4      	; 0x1e0e <_ZN16Adafruit_SSD13065beginEhhb+0x204>
    1e0a:	62 e2       	ldi	r22, 0x22	; 34
    1e0c:	01 c0       	rjmp	.+2      	; 0x1e10 <_ZN16Adafruit_SSD13065beginEhhb+0x206>
    1e0e:	61 ef       	ldi	r22, 0xF1	; 241
    1e10:	ce 01       	movw	r24, r28
    1e12:	ba de       	rcall	.-652    	; 0x1b88 <_ZN16Adafruit_SSD130615ssd1306_commandEh>
    1e14:	6b ed       	ldi	r22, 0xDB	; 219
    1e16:	ce 01       	movw	r24, r28
    1e18:	b7 de       	rcall	.-658    	; 0x1b88 <_ZN16Adafruit_SSD130615ssd1306_commandEh>
    1e1a:	60 e4       	ldi	r22, 0x40	; 64
    1e1c:	ce 01       	movw	r24, r28
    1e1e:	b4 de       	rcall	.-664    	; 0x1b88 <_ZN16Adafruit_SSD130615ssd1306_commandEh>
    1e20:	64 ea       	ldi	r22, 0xA4	; 164
    1e22:	ce 01       	movw	r24, r28
    1e24:	b1 de       	rcall	.-670    	; 0x1b88 <_ZN16Adafruit_SSD130615ssd1306_commandEh>
    1e26:	66 ea       	ldi	r22, 0xA6	; 166
    1e28:	ce 01       	movw	r24, r28
    1e2a:	ae de       	rcall	.-676    	; 0x1b88 <_ZN16Adafruit_SSD130615ssd1306_commandEh>
    1e2c:	6e e2       	ldi	r22, 0x2E	; 46
    1e2e:	ce 01       	movw	r24, r28
    1e30:	ab de       	rcall	.-682    	; 0x1b88 <_ZN16Adafruit_SSD130615ssd1306_commandEh>
    1e32:	6f ea       	ldi	r22, 0xAF	; 175
    1e34:	ce 01       	movw	r24, r28
    1e36:	df 91       	pop	r29
    1e38:	cf 91       	pop	r28
    1e3a:	1f 91       	pop	r17
    1e3c:	0f 91       	pop	r16
    1e3e:	a4 ce       	rjmp	.-696    	; 0x1b88 <_ZN16Adafruit_SSD130615ssd1306_commandEh>

00001e40 <_ZN16Adafruit_SSD13067displayEv>:
}

void Adafruit_SSD1306::display(void) {
    1e40:	df 92       	push	r13
    1e42:	ef 92       	push	r14
    1e44:	ff 92       	push	r15
    1e46:	0f 93       	push	r16
    1e48:	1f 93       	push	r17
    1e4a:	cf 93       	push	r28
    1e4c:	df 93       	push	r29
    1e4e:	ec 01       	movw	r28, r24
  ssd1306_command(SSD1306_COLUMNADDR);
    1e50:	61 e2       	ldi	r22, 0x21	; 33
    1e52:	9a de       	rcall	.-716    	; 0x1b88 <_ZN16Adafruit_SSD130615ssd1306_commandEh>
  ssd1306_command(0);   // Column start address (0 = reset)
    1e54:	60 e0       	ldi	r22, 0x00	; 0
    1e56:	ce 01       	movw	r24, r28
    1e58:	97 de       	rcall	.-722    	; 0x1b88 <_ZN16Adafruit_SSD130615ssd1306_commandEh>
  ssd1306_command(SSD1306_LCDWIDTH-1); // Column end address (127 = reset)
    1e5a:	6f e7       	ldi	r22, 0x7F	; 127
    1e5c:	ce 01       	movw	r24, r28
    1e5e:	94 de       	rcall	.-728    	; 0x1b88 <_ZN16Adafruit_SSD130615ssd1306_commandEh>

  ssd1306_command(SSD1306_PAGEADDR);
    1e60:	62 e2       	ldi	r22, 0x22	; 34
    1e62:	ce 01       	movw	r24, r28
    1e64:	91 de       	rcall	.-734    	; 0x1b88 <_ZN16Adafruit_SSD130615ssd1306_commandEh>
  ssd1306_command(0); // Page start address (0 = reset)
    1e66:	60 e0       	ldi	r22, 0x00	; 0
    1e68:	ce 01       	movw	r24, r28
    1e6a:	8e de       	rcall	.-740    	; 0x1b88 <_ZN16Adafruit_SSD130615ssd1306_commandEh>
  #if SSD1306_LCDHEIGHT == 64
    ssd1306_command(7); // Page end address
    1e6c:	67 e0       	ldi	r22, 0x07	; 7
    1e6e:	ce 01       	movw	r24, r28
    1e70:	8b de       	rcall	.-746    	; 0x1b88 <_ZN16Adafruit_SSD130615ssd1306_commandEh>
  #endif
  #if SSD1306_LCDHEIGHT == 16
    ssd1306_command(1); // Page end address
  #endif

  if (sid != -1)
    1e72:	8c 8d       	ldd	r24, Y+28	; 0x1c
    1e74:	8f 3f       	cpi	r24, 0xFF	; 255
    1e76:	29 f1       	breq	.+74     	; 0x1ec2 <_ZN16Adafruit_SSD13067displayEv+0x82>
  {
    // SPI
#ifdef HAVE_PORTREG
    *csport |= cspinmask;
    1e78:	ee a1       	ldd	r30, Y+38	; 0x26
    1e7a:	ff a1       	ldd	r31, Y+39	; 0x27
    1e7c:	90 81       	ld	r25, Z
    1e7e:	8c a5       	ldd	r24, Y+44	; 0x2c
    1e80:	89 2b       	or	r24, r25
    1e82:	80 83       	st	Z, r24
    *dcport |= dcpinmask;
    1e84:	e8 a5       	ldd	r30, Y+40	; 0x28
    1e86:	f9 a5       	ldd	r31, Y+41	; 0x29
    1e88:	90 81       	ld	r25, Z
    1e8a:	8d a5       	ldd	r24, Y+45	; 0x2d
    1e8c:	89 2b       	or	r24, r25
    1e8e:	80 83       	st	Z, r24
    *csport &= ~cspinmask;
    1e90:	ee a1       	ldd	r30, Y+38	; 0x26
    1e92:	ff a1       	ldd	r31, Y+39	; 0x27
    1e94:	90 81       	ld	r25, Z
    1e96:	8c a5       	ldd	r24, Y+44	; 0x2c
    1e98:	80 95       	com	r24
    1e9a:	89 23       	and	r24, r25
    1e9c:	80 83       	st	Z, r24
    1e9e:	06 e1       	ldi	r16, 0x16	; 22
    1ea0:	12 e0       	ldi	r17, 0x02	; 2
    digitalWrite(dc, HIGH);
    digitalWrite(cs, LOW);
#endif

    for (uint16_t i=0; i<(SSD1306_LCDWIDTH*SSD1306_LCDHEIGHT/8); i++) {
      fastSPIwrite(buffer[i]);
    1ea2:	f8 01       	movw	r30, r16
    1ea4:	61 91       	ld	r22, Z+
    1ea6:	8f 01       	movw	r16, r30
    1ea8:	ce 01       	movw	r24, r28
    1eaa:	41 de       	rcall	.-894    	; 0x1b2e <_ZN16Adafruit_SSD130612fastSPIwriteEh>
    digitalWrite(cs, HIGH);
    digitalWrite(dc, HIGH);
    digitalWrite(cs, LOW);
#endif

    for (uint16_t i=0; i<(SSD1306_LCDWIDTH*SSD1306_LCDHEIGHT/8); i++) {
    1eac:	f6 e0       	ldi	r31, 0x06	; 6
    1eae:	06 31       	cpi	r16, 0x16	; 22
    1eb0:	1f 07       	cpc	r17, r31
    1eb2:	b9 f7       	brne	.-18     	; 0x1ea2 <_ZN16Adafruit_SSD13067displayEv+0x62>
      fastSPIwrite(buffer[i]);
    }
#ifdef HAVE_PORTREG
    *csport |= cspinmask;
    1eb4:	ee a1       	ldd	r30, Y+38	; 0x26
    1eb6:	ff a1       	ldd	r31, Y+39	; 0x27
    1eb8:	90 81       	ld	r25, Z
    1eba:	8c a5       	ldd	r24, Y+44	; 0x2c
    1ebc:	89 2b       	or	r24, r25
    1ebe:	80 83       	st	Z, r24
    1ec0:	31 c0       	rjmp	.+98     	; 0x1f24 <_ZN16Adafruit_SSD13067displayEv+0xe4>
  }
  else
  {
    // save I2C bitrate
#ifdef TWBR
    uint8_t twbrbackup = TWBR;
    1ec2:	d0 90 b8 00 	lds	r13, 0x00B8	; 0x8000b8 <__TEXT_REGION_LENGTH__+0x7000b8>
    TWBR = 12; // upgrade to 400KHz!
    1ec6:	8c e0       	ldi	r24, 0x0C	; 12
    1ec8:	80 93 b8 00 	sts	0x00B8, r24	; 0x8000b8 <__TEXT_REGION_LENGTH__+0x7000b8>
    1ecc:	06 e1       	ldi	r16, 0x16	; 22
    1ece:	12 e0       	ldi	r17, 0x02	; 2
    //Serial.println(TWSR & 0x3, DEC);

    // I2C
    for (uint16_t i=0; i<(SSD1306_LCDWIDTH*SSD1306_LCDHEIGHT/8); i++) {
      // send a bunch of data in one xmission
      Wire.beginTransmission(_i2caddr);
    1ed0:	6a 8d       	ldd	r22, Y+26	; 0x1a
    1ed2:	06 2e       	mov	r0, r22
    1ed4:	00 0c       	add	r0, r0
    1ed6:	77 0b       	sbc	r23, r23
    1ed8:	82 e3       	ldi	r24, 0x32	; 50
    1eda:	9e e0       	ldi	r25, 0x0E	; 14
    1edc:	0e 94 d1 23 	call	0x47a2	; 0x47a2 <_ZN7TwoWire17beginTransmissionEi>
    void onRequest( void (*)(void) );

    inline size_t write(unsigned long n) { return write((uint8_t)n); }
    inline size_t write(long n) { return write((uint8_t)n); }
    inline size_t write(unsigned int n) { return write((uint8_t)n); }
    inline size_t write(int n) { return write((uint8_t)n); }
    1ee0:	60 e4       	ldi	r22, 0x40	; 64
    1ee2:	82 e3       	ldi	r24, 0x32	; 50
    1ee4:	9e e0       	ldi	r25, 0x0E	; 14
    1ee6:	0e 94 80 23 	call	0x4700	; 0x4700 <_ZN7TwoWire5writeEh>
    1eea:	e1 2c       	mov	r14, r1
    1eec:	f1 2c       	mov	r15, r1
    1eee:	f8 01       	movw	r30, r16
    1ef0:	ee 0d       	add	r30, r14
    1ef2:	ff 1d       	adc	r31, r15
      WIRE_WRITE(0x40);
      for (uint8_t x=0; x<16; x++) {
        WIRE_WRITE(buffer[i]);
    1ef4:	60 81       	ld	r22, Z
    1ef6:	82 e3       	ldi	r24, 0x32	; 50
    1ef8:	9e e0       	ldi	r25, 0x0E	; 14
    1efa:	0e 94 80 23 	call	0x4700	; 0x4700 <_ZN7TwoWire5writeEh>
    1efe:	8f ef       	ldi	r24, 0xFF	; 255
    1f00:	e8 1a       	sub	r14, r24
    1f02:	f8 0a       	sbc	r15, r24
    // I2C
    for (uint16_t i=0; i<(SSD1306_LCDWIDTH*SSD1306_LCDHEIGHT/8); i++) {
      // send a bunch of data in one xmission
      Wire.beginTransmission(_i2caddr);
      WIRE_WRITE(0x40);
      for (uint8_t x=0; x<16; x++) {
    1f04:	e0 e1       	ldi	r30, 0x10	; 16
    1f06:	ee 16       	cp	r14, r30
    1f08:	f1 04       	cpc	r15, r1
    1f0a:	89 f7       	brne	.-30     	; 0x1eee <_ZN16Adafruit_SSD13067displayEv+0xae>
        WIRE_WRITE(buffer[i]);
        i++;
      }
      i--;
      Wire.endTransmission();
    1f0c:	82 e3       	ldi	r24, 0x32	; 50
    1f0e:	9e e0       	ldi	r25, 0x0E	; 14
    1f10:	0e 94 46 24 	call	0x488c	; 0x488c <_ZN7TwoWire15endTransmissionEv>
    1f14:	00 5f       	subi	r16, 0xF0	; 240
    1f16:	1f 4f       	sbci	r17, 0xFF	; 255

    //Serial.println(TWBR, DEC);
    //Serial.println(TWSR & 0x3, DEC);

    // I2C
    for (uint16_t i=0; i<(SSD1306_LCDWIDTH*SSD1306_LCDHEIGHT/8); i++) {
    1f18:	f6 e0       	ldi	r31, 0x06	; 6
    1f1a:	06 31       	cpi	r16, 0x16	; 22
    1f1c:	1f 07       	cpc	r17, r31
    1f1e:	c1 f6       	brne	.-80     	; 0x1ed0 <_ZN16Adafruit_SSD13067displayEv+0x90>
      }
      i--;
      Wire.endTransmission();
    }
#ifdef TWBR
    TWBR = twbrbackup;
    1f20:	d0 92 b8 00 	sts	0x00B8, r13	; 0x8000b8 <__TEXT_REGION_LENGTH__+0x7000b8>
#endif
  }
}
    1f24:	df 91       	pop	r29
    1f26:	cf 91       	pop	r28
    1f28:	1f 91       	pop	r17
    1f2a:	0f 91       	pop	r16
    1f2c:	ff 90       	pop	r15
    1f2e:	ef 90       	pop	r14
    1f30:	df 90       	pop	r13
    1f32:	08 95       	ret

00001f34 <_ZN12ComwithMotorC1Ev>:
	Wire.println();
	Wire.endTransmission();
}

void ComwithMotor::getK()
{
    1f34:	cf 93       	push	r28
    1f36:	df 93       	push	r29
    1f38:	fc 01       	movw	r30, r24
    1f3a:	88 e0       	ldi	r24, 0x08	; 8
    1f3c:	df 01       	movw	r26, r30
    1f3e:	c8 2f       	mov	r28, r24
    1f40:	1d 92       	st	X+, r1
    1f42:	ca 95       	dec	r28
    1f44:	e9 f7       	brne	.-6      	; 0x1f40 <_ZN12ComwithMotorC1Ev+0xc>
    1f46:	df 01       	movw	r26, r30
    1f48:	18 96       	adiw	r26, 0x08	; 8
    1f4a:	ed 01       	movw	r28, r26
    1f4c:	19 92       	st	Y+, r1
    1f4e:	8a 95       	dec	r24
    1f50:	e9 f7       	brne	.-6      	; 0x1f4c <_ZN12ComwithMotorC1Ev+0x18>
    1f52:	14 8e       	std	Z+28, r1	; 0x1c
    1f54:	15 8e       	std	Z+29, r1	; 0x1d
    1f56:	16 8e       	std	Z+30, r1	; 0x1e
    1f58:	17 8e       	std	Z+31, r1	; 0x1f
    1f5a:	10 a2       	std	Z+32, r1	; 0x20
    1f5c:	80 e0       	ldi	r24, 0x00	; 0
    1f5e:	90 e0       	ldi	r25, 0x00	; 0
    1f60:	a0 e8       	ldi	r26, 0x80	; 128
    1f62:	bf e3       	ldi	r27, 0x3F	; 63
    1f64:	80 8b       	std	Z+16, r24	; 0x10
    1f66:	91 8b       	std	Z+17, r25	; 0x11
    1f68:	a2 8b       	std	Z+18, r26	; 0x12
    1f6a:	b3 8b       	std	Z+19, r27	; 0x13
    1f6c:	84 8b       	std	Z+20, r24	; 0x14
    1f6e:	95 8b       	std	Z+21, r25	; 0x15
    1f70:	a6 8b       	std	Z+22, r26	; 0x16
    1f72:	b7 8b       	std	Z+23, r27	; 0x17
    1f74:	80 8f       	std	Z+24, r24	; 0x18
    1f76:	91 8f       	std	Z+25, r25	; 0x19
    1f78:	a2 8f       	std	Z+26, r26	; 0x1a
    1f7a:	b3 8f       	std	Z+27, r27	; 0x1b
    1f7c:	df 91       	pop	r29
    1f7e:	cf 91       	pop	r28
    1f80:	08 95       	ret

00001f82 <_ZN12ComwithMotor7SendAtoENS_5MotorEi>:
    1f82:	cf 93       	push	r28
    1f84:	df 93       	push	r29
    1f86:	ea 01       	movw	r28, r20
    1f88:	70 e0       	ldi	r23, 0x00	; 0
    1f8a:	82 e3       	ldi	r24, 0x32	; 50
    1f8c:	9e e0       	ldi	r25, 0x0E	; 14
    1f8e:	0e 94 d1 23 	call	0x47a2	; 0x47a2 <_ZN7TwoWire17beginTransmissionEi>
    1f92:	6f ea       	ldi	r22, 0xAF	; 175
    1f94:	76 e0       	ldi	r23, 0x06	; 6
    1f96:	82 e3       	ldi	r24, 0x32	; 50
    1f98:	9e e0       	ldi	r25, 0x0E	; 14
    1f9a:	0e 94 73 2c 	call	0x58e6	; 0x58e6 <_ZN5Print5printEPKc>
    1f9e:	4a e0       	ldi	r20, 0x0A	; 10
    1fa0:	50 e0       	ldi	r21, 0x00	; 0
    1fa2:	be 01       	movw	r22, r28
    1fa4:	82 e3       	ldi	r24, 0x32	; 50
    1fa6:	9e e0       	ldi	r25, 0x0E	; 14
    1fa8:	0e 94 2d 2d 	call	0x5a5a	; 0x5a5a <_ZN5Print7printlnEii>
    1fac:	82 e3       	ldi	r24, 0x32	; 50
    1fae:	9e e0       	ldi	r25, 0x0E	; 14
    1fb0:	df 91       	pop	r29
    1fb2:	cf 91       	pop	r28
    1fb4:	0c 94 46 24 	jmp	0x488c	; 0x488c <_ZN7TwoWire15endTransmissionEv>

00001fb8 <_ZN12ComwithMotor10SendAtoALLEiiii>:
    1fb8:	cf 92       	push	r12
    1fba:	df 92       	push	r13
    1fbc:	ef 92       	push	r14
    1fbe:	ff 92       	push	r15
    1fc0:	0f 93       	push	r16
    1fc2:	1f 93       	push	r17
    1fc4:	cf 93       	push	r28
    1fc6:	df 93       	push	r29
    1fc8:	ec 01       	movw	r28, r24
    1fca:	6a 01       	movw	r12, r20
    1fcc:	79 01       	movw	r14, r18
    1fce:	ab 01       	movw	r20, r22
    1fd0:	61 e0       	ldi	r22, 0x01	; 1
    1fd2:	d7 df       	rcall	.-82     	; 0x1f82 <_ZN12ComwithMotor7SendAtoENS_5MotorEi>
    1fd4:	a6 01       	movw	r20, r12
    1fd6:	62 e0       	ldi	r22, 0x02	; 2
    1fd8:	ce 01       	movw	r24, r28
    1fda:	d3 df       	rcall	.-90     	; 0x1f82 <_ZN12ComwithMotor7SendAtoENS_5MotorEi>
    1fdc:	a7 01       	movw	r20, r14
    1fde:	63 e0       	ldi	r22, 0x03	; 3
    1fe0:	ce 01       	movw	r24, r28
    1fe2:	cf df       	rcall	.-98     	; 0x1f82 <_ZN12ComwithMotor7SendAtoENS_5MotorEi>
    1fe4:	a8 01       	movw	r20, r16
    1fe6:	64 e0       	ldi	r22, 0x04	; 4
    1fe8:	ce 01       	movw	r24, r28
    1fea:	df 91       	pop	r29
    1fec:	cf 91       	pop	r28
    1fee:	1f 91       	pop	r17
    1ff0:	0f 91       	pop	r16
    1ff2:	ff 90       	pop	r15
    1ff4:	ef 90       	pop	r14
    1ff6:	df 90       	pop	r13
    1ff8:	cf 90       	pop	r12
    1ffa:	c3 cf       	rjmp	.-122    	; 0x1f82 <_ZN12ComwithMotor7SendAtoENS_5MotorEi>

00001ffc <_ZN12ComwithMotor7SendKtoENS_5MotorEddd>:
    1ffc:	4f 92       	push	r4
    1ffe:	5f 92       	push	r5
    2000:	6f 92       	push	r6
    2002:	7f 92       	push	r7
    2004:	af 92       	push	r10
    2006:	bf 92       	push	r11
    2008:	cf 92       	push	r12
    200a:	df 92       	push	r13
    200c:	ef 92       	push	r14
    200e:	ff 92       	push	r15
    2010:	0f 93       	push	r16
    2012:	1f 93       	push	r17
    2014:	cf 93       	push	r28
    2016:	df 93       	push	r29
    2018:	00 d0       	rcall	.+0      	; 0x201a <_ZN12ComwithMotor7SendKtoENS_5MotorEddd+0x1e>
    201a:	1f 92       	push	r1
    201c:	cd b7       	in	r28, 0x3d	; 61
    201e:	de b7       	in	r29, 0x3e	; 62
    2020:	29 01       	movw	r4, r18
    2022:	3a 01       	movw	r6, r20
    2024:	e9 82       	std	Y+1, r14	; 0x01
    2026:	fa 82       	std	Y+2, r15	; 0x02
    2028:	0b 83       	std	Y+3, r16	; 0x03
    202a:	1c 83       	std	Y+4, r17	; 0x04
    202c:	70 e0       	ldi	r23, 0x00	; 0
    202e:	82 e3       	ldi	r24, 0x32	; 50
    2030:	9e e0       	ldi	r25, 0x0E	; 14
    2032:	0e 94 d1 23 	call	0x47a2	; 0x47a2 <_ZN7TwoWire17beginTransmissionEi>
    2036:	62 eb       	ldi	r22, 0xB2	; 178
    2038:	76 e0       	ldi	r23, 0x06	; 6
    203a:	82 e3       	ldi	r24, 0x32	; 50
    203c:	9e e0       	ldi	r25, 0x0E	; 14
    203e:	0e 94 73 2c 	call	0x58e6	; 0x58e6 <_ZN5Print5printEPKc>
    2042:	22 e0       	ldi	r18, 0x02	; 2
    2044:	30 e0       	ldi	r19, 0x00	; 0
    2046:	b3 01       	movw	r22, r6
    2048:	a2 01       	movw	r20, r4
    204a:	82 e3       	ldi	r24, 0x32	; 50
    204c:	9e e0       	ldi	r25, 0x0E	; 14
    204e:	0e 94 35 2e 	call	0x5c6a	; 0x5c6a <_ZN5Print5printEdi>
    2052:	66 eb       	ldi	r22, 0xB6	; 182
    2054:	76 e0       	ldi	r23, 0x06	; 6
    2056:	82 e3       	ldi	r24, 0x32	; 50
    2058:	9e e0       	ldi	r25, 0x0E	; 14
    205a:	0e 94 73 2c 	call	0x58e6	; 0x58e6 <_ZN5Print5printEPKc>
    205e:	22 e0       	ldi	r18, 0x02	; 2
    2060:	30 e0       	ldi	r19, 0x00	; 0
    2062:	49 81       	ldd	r20, Y+1	; 0x01
    2064:	5a 81       	ldd	r21, Y+2	; 0x02
    2066:	6b 81       	ldd	r22, Y+3	; 0x03
    2068:	7c 81       	ldd	r23, Y+4	; 0x04
    206a:	82 e3       	ldi	r24, 0x32	; 50
    206c:	9e e0       	ldi	r25, 0x0E	; 14
    206e:	0e 94 35 2e 	call	0x5c6a	; 0x5c6a <_ZN5Print5printEdi>
    2072:	6a eb       	ldi	r22, 0xBA	; 186
    2074:	76 e0       	ldi	r23, 0x06	; 6
    2076:	82 e3       	ldi	r24, 0x32	; 50
    2078:	9e e0       	ldi	r25, 0x0E	; 14
    207a:	0e 94 73 2c 	call	0x58e6	; 0x58e6 <_ZN5Print5printEPKc>
    207e:	22 e0       	ldi	r18, 0x02	; 2
    2080:	30 e0       	ldi	r19, 0x00	; 0
    2082:	b6 01       	movw	r22, r12
    2084:	a5 01       	movw	r20, r10
    2086:	82 e3       	ldi	r24, 0x32	; 50
    2088:	9e e0       	ldi	r25, 0x0E	; 14
    208a:	0e 94 35 2e 	call	0x5c6a	; 0x5c6a <_ZN5Print5printEdi>
    208e:	82 e3       	ldi	r24, 0x32	; 50
    2090:	9e e0       	ldi	r25, 0x0E	; 14
    2092:	0e 94 7b 2c 	call	0x58f6	; 0x58f6 <_ZN5Print7printlnEv>
    2096:	82 e3       	ldi	r24, 0x32	; 50
    2098:	9e e0       	ldi	r25, 0x0E	; 14
    209a:	0f 90       	pop	r0
    209c:	0f 90       	pop	r0
    209e:	0f 90       	pop	r0
    20a0:	0f 90       	pop	r0
    20a2:	df 91       	pop	r29
    20a4:	cf 91       	pop	r28
    20a6:	1f 91       	pop	r17
    20a8:	0f 91       	pop	r16
    20aa:	ff 90       	pop	r15
    20ac:	ef 90       	pop	r14
    20ae:	df 90       	pop	r13
    20b0:	cf 90       	pop	r12
    20b2:	bf 90       	pop	r11
    20b4:	af 90       	pop	r10
    20b6:	7f 90       	pop	r7
    20b8:	6f 90       	pop	r6
    20ba:	5f 90       	pop	r5
    20bc:	4f 90       	pop	r4
    20be:	0c 94 46 24 	jmp	0x488c	; 0x488c <_ZN7TwoWire15endTransmissionEv>

000020c2 <_ZN12ComwithMotor10SendKtoALLEddd>:
    20c2:	af 92       	push	r10
    20c4:	bf 92       	push	r11
    20c6:	cf 92       	push	r12
    20c8:	df 92       	push	r13
    20ca:	ef 92       	push	r14
    20cc:	ff 92       	push	r15
    20ce:	0f 93       	push	r16
    20d0:	1f 93       	push	r17
    20d2:	cf 93       	push	r28
    20d4:	df 93       	push	r29
    20d6:	ec 01       	movw	r28, r24
    20d8:	a8 8c       	ldd	r10, Y+24	; 0x18
    20da:	b9 8c       	ldd	r11, Y+25	; 0x19
    20dc:	ca 8c       	ldd	r12, Y+26	; 0x1a
    20de:	db 8c       	ldd	r13, Y+27	; 0x1b
    20e0:	ec 88       	ldd	r14, Y+20	; 0x14
    20e2:	fd 88       	ldd	r15, Y+21	; 0x15
    20e4:	0e 89       	ldd	r16, Y+22	; 0x16
    20e6:	1f 89       	ldd	r17, Y+23	; 0x17
    20e8:	28 89       	ldd	r18, Y+16	; 0x10
    20ea:	39 89       	ldd	r19, Y+17	; 0x11
    20ec:	4a 89       	ldd	r20, Y+18	; 0x12
    20ee:	5b 89       	ldd	r21, Y+19	; 0x13
    20f0:	61 e0       	ldi	r22, 0x01	; 1
    20f2:	84 df       	rcall	.-248    	; 0x1ffc <_ZN12ComwithMotor7SendKtoENS_5MotorEddd>
    20f4:	a8 8c       	ldd	r10, Y+24	; 0x18
    20f6:	b9 8c       	ldd	r11, Y+25	; 0x19
    20f8:	ca 8c       	ldd	r12, Y+26	; 0x1a
    20fa:	db 8c       	ldd	r13, Y+27	; 0x1b
    20fc:	ec 88       	ldd	r14, Y+20	; 0x14
    20fe:	fd 88       	ldd	r15, Y+21	; 0x15
    2100:	0e 89       	ldd	r16, Y+22	; 0x16
    2102:	1f 89       	ldd	r17, Y+23	; 0x17
    2104:	28 89       	ldd	r18, Y+16	; 0x10
    2106:	39 89       	ldd	r19, Y+17	; 0x11
    2108:	4a 89       	ldd	r20, Y+18	; 0x12
    210a:	5b 89       	ldd	r21, Y+19	; 0x13
    210c:	62 e0       	ldi	r22, 0x02	; 2
    210e:	ce 01       	movw	r24, r28
    2110:	75 df       	rcall	.-278    	; 0x1ffc <_ZN12ComwithMotor7SendKtoENS_5MotorEddd>
    2112:	a8 8c       	ldd	r10, Y+24	; 0x18
    2114:	b9 8c       	ldd	r11, Y+25	; 0x19
    2116:	ca 8c       	ldd	r12, Y+26	; 0x1a
    2118:	db 8c       	ldd	r13, Y+27	; 0x1b
    211a:	ec 88       	ldd	r14, Y+20	; 0x14
    211c:	fd 88       	ldd	r15, Y+21	; 0x15
    211e:	0e 89       	ldd	r16, Y+22	; 0x16
    2120:	1f 89       	ldd	r17, Y+23	; 0x17
    2122:	28 89       	ldd	r18, Y+16	; 0x10
    2124:	39 89       	ldd	r19, Y+17	; 0x11
    2126:	4a 89       	ldd	r20, Y+18	; 0x12
    2128:	5b 89       	ldd	r21, Y+19	; 0x13
    212a:	63 e0       	ldi	r22, 0x03	; 3
    212c:	ce 01       	movw	r24, r28
    212e:	66 df       	rcall	.-308    	; 0x1ffc <_ZN12ComwithMotor7SendKtoENS_5MotorEddd>
    2130:	a8 8c       	ldd	r10, Y+24	; 0x18
    2132:	b9 8c       	ldd	r11, Y+25	; 0x19
    2134:	ca 8c       	ldd	r12, Y+26	; 0x1a
    2136:	db 8c       	ldd	r13, Y+27	; 0x1b
    2138:	ec 88       	ldd	r14, Y+20	; 0x14
    213a:	fd 88       	ldd	r15, Y+21	; 0x15
    213c:	0e 89       	ldd	r16, Y+22	; 0x16
    213e:	1f 89       	ldd	r17, Y+23	; 0x17
    2140:	28 89       	ldd	r18, Y+16	; 0x10
    2142:	39 89       	ldd	r19, Y+17	; 0x11
    2144:	4a 89       	ldd	r20, Y+18	; 0x12
    2146:	5b 89       	ldd	r21, Y+19	; 0x13
    2148:	64 e0       	ldi	r22, 0x04	; 4
    214a:	ce 01       	movw	r24, r28
    214c:	57 df       	rcall	.-338    	; 0x1ffc <_ZN12ComwithMotor7SendKtoENS_5MotorEddd>
    214e:	df 91       	pop	r29
    2150:	cf 91       	pop	r28
    2152:	1f 91       	pop	r17
    2154:	0f 91       	pop	r16
    2156:	ff 90       	pop	r15
    2158:	ef 90       	pop	r14
    215a:	df 90       	pop	r13
    215c:	cf 90       	pop	r12
    215e:	bf 90       	pop	r11
    2160:	af 90       	pop	r10
    2162:	08 95       	ret

00002164 <_ZN12ComwithMotor9ReadBfromENS_5MotorE>:
	if (c == R1){connectedR1 = true;}
	if (d == R2){connectedR2 = true;}
}

int ComwithMotor::ReadBfrom(Motor m)
{
    2164:	cf 93       	push	r28
    2166:	df 93       	push	r29
    2168:	1f 92       	push	r1
    216a:	cd b7       	in	r28, 0x3d	; 61
    216c:	de b7       	in	r29, 0x3e	; 62
	Wire.begin();
    216e:	82 e3       	ldi	r24, 0x32	; 50
    2170:	9e e0       	ldi	r25, 0x0E	; 14
    2172:	69 83       	std	Y+1, r22	; 0x01
    2174:	0e 94 be 23 	call	0x477c	; 0x477c <_ZN7TwoWire5beginEv>
	Wire.requestFrom(m,1);
    2178:	69 81       	ldd	r22, Y+1	; 0x01
    217a:	70 e0       	ldi	r23, 0x00	; 0
    217c:	41 e0       	ldi	r20, 0x01	; 1
    217e:	50 e0       	ldi	r21, 0x00	; 0
    2180:	82 e3       	ldi	r24, 0x32	; 50
    2182:	9e e0       	ldi	r25, 0x0E	; 14
    2184:	0e 94 44 24 	call	0x4888	; 0x4888 <_ZN7TwoWire11requestFromEii>
	if(Wire.available())
    2188:	82 e3       	ldi	r24, 0x32	; 50
    218a:	9e e0       	ldi	r25, 0x0E	; 14
    218c:	0e 94 25 23 	call	0x464a	; 0x464a <_ZN7TwoWire9availableEv>
    2190:	89 2b       	or	r24, r25
    2192:	39 f0       	breq	.+14     	; 0x21a2 <_ZN12ComwithMotor9ReadBfromENS_5MotorE+0x3e>
	{
		int c = Wire.read();
    2194:	82 e3       	ldi	r24, 0x32	; 50
    2196:	9e e0       	ldi	r25, 0x0E	; 14
		return c;
	}
}
    2198:	0f 90       	pop	r0
    219a:	df 91       	pop	r29
    219c:	cf 91       	pop	r28
{
	Wire.begin();
	Wire.requestFrom(m,1);
	if(Wire.available())
	{
		int c = Wire.read();
    219e:	0c 94 2d 23 	jmp	0x465a	; 0x465a <_ZN7TwoWire4readEv>
		return c;
	}
}
    21a2:	0f 90       	pop	r0
    21a4:	df 91       	pop	r29
    21a6:	cf 91       	pop	r28
    21a8:	08 95       	ret

000021aa <_ZN12ComwithMotor5beginEv>:
	ki = 1.0;
	kd = 1.0;//111111111
} //ComwithMotor

void ComwithMotor::begin()
{
    21aa:	af 92       	push	r10
    21ac:	bf 92       	push	r11
    21ae:	cf 92       	push	r12
    21b0:	df 92       	push	r13
    21b2:	ef 92       	push	r14
    21b4:	ff 92       	push	r15
    21b6:	0f 93       	push	r16
    21b8:	1f 93       	push	r17
    21ba:	cf 93       	push	r28
    21bc:	df 93       	push	r29
    21be:	ec 01       	movw	r28, r24
	Wire.begin();
    21c0:	82 e3       	ldi	r24, 0x32	; 50
    21c2:	9e e0       	ldi	r25, 0x0E	; 14
    21c4:	0e 94 be 23 	call	0x477c	; 0x477c <_ZN7TwoWire5beginEv>
	Serial.println("IN");
    21c8:	6e eb       	ldi	r22, 0xBE	; 190
    21ca:	76 e0       	ldi	r23, 0x06	; 6
    21cc:	84 e8       	ldi	r24, 0x84	; 132
    21ce:	9e e0       	ldi	r25, 0x0E	; 14
    21d0:	0e 94 7e 2c 	call	0x58fc	; 0x58fc <_ZN5Print7printlnEPKc>
    21d4:	86 e0       	ldi	r24, 0x06	; 6
    21d6:	a8 2e       	mov	r10, r24
    21d8:	b1 2c       	mov	r11, r1
	for (int i=0;i<=5;i++)
	{
			//K
			SendKtoALL(kp,ki,kd);
    21da:	c8 8c       	ldd	r12, Y+24	; 0x18
    21dc:	d9 8c       	ldd	r13, Y+25	; 0x19
    21de:	ea 8c       	ldd	r14, Y+26	; 0x1a
    21e0:	fb 8c       	ldd	r15, Y+27	; 0x1b
    21e2:	0c 89       	ldd	r16, Y+20	; 0x14
    21e4:	1d 89       	ldd	r17, Y+21	; 0x15
    21e6:	2e 89       	ldd	r18, Y+22	; 0x16
    21e8:	3f 89       	ldd	r19, Y+23	; 0x17
    21ea:	48 89       	ldd	r20, Y+16	; 0x10
    21ec:	59 89       	ldd	r21, Y+17	; 0x11
    21ee:	6a 89       	ldd	r22, Y+18	; 0x12
    21f0:	7b 89       	ldd	r23, Y+19	; 0x13
    21f2:	ce 01       	movw	r24, r28
    21f4:	66 df       	rcall	.-308    	; 0x20c2 <_ZN12ComwithMotor10SendKtoALLEddd>
			Serial.println("IN2");
    21f6:	61 ec       	ldi	r22, 0xC1	; 193
    21f8:	76 e0       	ldi	r23, 0x06	; 6
    21fa:	84 e8       	ldi	r24, 0x84	; 132
    21fc:	9e e0       	ldi	r25, 0x0E	; 14
    21fe:	0e 94 7e 2c 	call	0x58fc	; 0x58fc <_ZN5Print7printlnEPKc>
			//
			int a = ReadBfrom(L1);
    2202:	61 e0       	ldi	r22, 0x01	; 1
    2204:	ce 01       	movw	r24, r28
    2206:	ae df       	rcall	.-164    	; 0x2164 <_ZN12ComwithMotor9ReadBfromENS_5MotorE>
    2208:	6c 01       	movw	r12, r24
			int b = ReadBfrom(L2);
    220a:	62 e0       	ldi	r22, 0x02	; 2
    220c:	ce 01       	movw	r24, r28
    220e:	aa df       	rcall	.-172    	; 0x2164 <_ZN12ComwithMotor9ReadBfromENS_5MotorE>
    2210:	7c 01       	movw	r14, r24
			int c = ReadBfrom(R1);
    2212:	63 e0       	ldi	r22, 0x03	; 3
    2214:	ce 01       	movw	r24, r28
    2216:	a6 df       	rcall	.-180    	; 0x2164 <_ZN12ComwithMotor9ReadBfromENS_5MotorE>
    2218:	8c 01       	movw	r16, r24
			int d = ReadBfrom(R2);
    221a:	64 e0       	ldi	r22, 0x04	; 4
    221c:	ce 01       	movw	r24, r28
    221e:	a2 df       	rcall	.-188    	; 0x2164 <_ZN12ComwithMotor9ReadBfromENS_5MotorE>
    2220:	9c 01       	movw	r18, r24
			if (a == L1 && b== L2 && c==R1 && d == R2)
    2222:	81 e0       	ldi	r24, 0x01	; 1
    2224:	c8 16       	cp	r12, r24
    2226:	d1 04       	cpc	r13, r1
    2228:	69 f4       	brne	.+26     	; 0x2244 <__stack+0x45>
    222a:	82 e0       	ldi	r24, 0x02	; 2
    222c:	e8 16       	cp	r14, r24
    222e:	f1 04       	cpc	r15, r1
    2230:	49 f4       	brne	.+18     	; 0x2244 <__stack+0x45>
    2232:	03 30       	cpi	r16, 0x03	; 3
    2234:	11 05       	cpc	r17, r1
    2236:	31 f4       	brne	.+12     	; 0x2244 <__stack+0x45>
    2238:	24 30       	cpi	r18, 0x04	; 4
    223a:	31 05       	cpc	r19, r1
    223c:	19 f4       	brne	.+6      	; 0x2244 <__stack+0x45>
			{
				connected = true;
    223e:	81 e0       	ldi	r24, 0x01	; 1
    2240:	8c 8f       	std	Y+28, r24	; 0x1c
    2242:	04 c0       	rjmp	.+8      	; 0x224c <__stack+0x4d>
			}
			else
			{
				connected = false;
    2244:	1c 8e       	std	Y+28, r1	; 0x1c
			}
			
			//
			if (a == L1){connectedL1 = true;}
    2246:	ca 94       	dec	r12
    2248:	cd 28       	or	r12, r13
    224a:	11 f4       	brne	.+4      	; 0x2250 <__stack+0x51>
    224c:	81 e0       	ldi	r24, 0x01	; 1
    224e:	8d 8f       	std	Y+29, r24	; 0x1d
			if (b == L2){connectedL2 = true;}
    2250:	82 e0       	ldi	r24, 0x02	; 2
    2252:	e8 16       	cp	r14, r24
    2254:	f1 04       	cpc	r15, r1
    2256:	11 f4       	brne	.+4      	; 0x225c <__stack+0x5d>
    2258:	81 e0       	ldi	r24, 0x01	; 1
    225a:	8e 8f       	std	Y+30, r24	; 0x1e
			if (c == R1){connectedR1 = true;}
    225c:	03 30       	cpi	r16, 0x03	; 3
    225e:	11 05       	cpc	r17, r1
    2260:	11 f4       	brne	.+4      	; 0x2266 <__stack+0x67>
    2262:	81 e0       	ldi	r24, 0x01	; 1
    2264:	8f 8f       	std	Y+31, r24	; 0x1f
			if (d == R2){connectedR2 = true;}
    2266:	24 30       	cpi	r18, 0x04	; 4
    2268:	31 05       	cpc	r19, r1
    226a:	11 f4       	brne	.+4      	; 0x2270 <__stack+0x71>
    226c:	81 e0       	ldi	r24, 0x01	; 1
    226e:	88 a3       	std	Y+32, r24	; 0x20
    2270:	81 e0       	ldi	r24, 0x01	; 1
    2272:	a8 1a       	sub	r10, r24
    2274:	b1 08       	sbc	r11, r1

void ComwithMotor::begin()
{
	Wire.begin();
	Serial.println("IN");
	for (int i=0;i<=5;i++)
    2276:	09 f0       	breq	.+2      	; 0x227a <__stack+0x7b>
    2278:	b0 cf       	rjmp	.-160    	; 0x21da <_ZN12ComwithMotor5beginEv+0x30>
			if (a == L1){connectedL1 = true;}
			if (b == L2){connectedL2 = true;}
			if (c == R1){connectedR1 = true;}
			if (d == R2){connectedR2 = true;}
	}
	Serial.println("OUT");
    227a:	65 ec       	ldi	r22, 0xC5	; 197
    227c:	76 e0       	ldi	r23, 0x06	; 6
    227e:	84 e8       	ldi	r24, 0x84	; 132
    2280:	9e e0       	ldi	r25, 0x0E	; 14
}
    2282:	df 91       	pop	r29
    2284:	cf 91       	pop	r28
    2286:	1f 91       	pop	r17
    2288:	0f 91       	pop	r16
    228a:	ff 90       	pop	r15
    228c:	ef 90       	pop	r14
    228e:	df 90       	pop	r13
    2290:	cf 90       	pop	r12
    2292:	bf 90       	pop	r11
    2294:	af 90       	pop	r10
			if (a == L1){connectedL1 = true;}
			if (b == L2){connectedL2 = true;}
			if (c == R1){connectedR1 = true;}
			if (d == R2){connectedR2 = true;}
	}
	Serial.println("OUT");
    2296:	0c 94 7e 2c 	jmp	0x58fc	; 0x58fc <_ZN5Print7printlnEPKc>

0000229a <_ZN9ComwithPCC1Ev>:
	Serial2.print(',');
	Serial2.print(dir_L);
	Serial2.print(',');
	Serial2.print(speed_R);
	Serial2.print(',');
	Serial2.println(dir_R);
    229a:	08 95       	ret

0000229c <_ZN9ComwithPC5beginEm>:
    229c:	26 e0       	ldi	r18, 0x06	; 6
    229e:	81 e2       	ldi	r24, 0x21	; 33
    22a0:	9f e0       	ldi	r25, 0x0F	; 15
    22a2:	0e 94 89 2a 	call	0x5512	; 0x5512 <_ZN14HardwareSerial5beginEmh>
    22a6:	69 ec       	ldi	r22, 0xC9	; 201
    22a8:	76 e0       	ldi	r23, 0x06	; 6
    22aa:	81 e2       	ldi	r24, 0x21	; 33
    22ac:	9f e0       	ldi	r25, 0x0F	; 15
    22ae:	0c 94 7e 2c 	jmp	0x58fc	; 0x58fc <_ZN5Print7printlnEPKc>

000022b2 <_ZN9ComwithPC7tellXYPEddd>:
}

void ComwithPC::tellXYP(double x,double y,double p)
{
    22b2:	4f 92       	push	r4
    22b4:	5f 92       	push	r5
    22b6:	6f 92       	push	r6
    22b8:	7f 92       	push	r7
    22ba:	8f 92       	push	r8
    22bc:	9f 92       	push	r9
    22be:	af 92       	push	r10
    22c0:	bf 92       	push	r11
    22c2:	cf 92       	push	r12
    22c4:	df 92       	push	r13
    22c6:	ef 92       	push	r14
    22c8:	ff 92       	push	r15
    22ca:	0f 93       	push	r16
    22cc:	1f 93       	push	r17
    22ce:	2a 01       	movw	r4, r20
    22d0:	3b 01       	movw	r6, r22
    22d2:	48 01       	movw	r8, r16
    22d4:	59 01       	movw	r10, r18
	Serial2.print("A:");
    22d6:	6f ea       	ldi	r22, 0xAF	; 175
    22d8:	76 e0       	ldi	r23, 0x06	; 6
    22da:	81 e2       	ldi	r24, 0x21	; 33
    22dc:	9f e0       	ldi	r25, 0x0F	; 15
    22de:	0e 94 73 2c 	call	0x58e6	; 0x58e6 <_ZN5Print5printEPKc>
	Serial2.print(0);
    22e2:	4a e0       	ldi	r20, 0x0A	; 10
    22e4:	50 e0       	ldi	r21, 0x00	; 0
    22e6:	60 e0       	ldi	r22, 0x00	; 0
    22e8:	70 e0       	ldi	r23, 0x00	; 0
    22ea:	81 e2       	ldi	r24, 0x21	; 33
    22ec:	9f e0       	ldi	r25, 0x0F	; 15
    22ee:	0e 94 27 2d 	call	0x5a4e	; 0x5a4e <_ZN5Print5printEii>
	Serial2.print("B:");
    22f2:	65 ed       	ldi	r22, 0xD5	; 213
    22f4:	76 e0       	ldi	r23, 0x06	; 6
    22f6:	81 e2       	ldi	r24, 0x21	; 33
    22f8:	9f e0       	ldi	r25, 0x0F	; 15
    22fa:	0e 94 73 2c 	call	0x58e6	; 0x58e6 <_ZN5Print5printEPKc>
	Serial2.print(0);
    22fe:	4a e0       	ldi	r20, 0x0A	; 10
    2300:	50 e0       	ldi	r21, 0x00	; 0
    2302:	60 e0       	ldi	r22, 0x00	; 0
    2304:	70 e0       	ldi	r23, 0x00	; 0
    2306:	81 e2       	ldi	r24, 0x21	; 33
    2308:	9f e0       	ldi	r25, 0x0F	; 15
    230a:	0e 94 27 2d 	call	0x5a4e	; 0x5a4e <_ZN5Print5printEii>
	Serial2.print("x:");
    230e:	68 ed       	ldi	r22, 0xD8	; 216
    2310:	76 e0       	ldi	r23, 0x06	; 6
    2312:	81 e2       	ldi	r24, 0x21	; 33
    2314:	9f e0       	ldi	r25, 0x0F	; 15
    2316:	0e 94 73 2c 	call	0x58e6	; 0x58e6 <_ZN5Print5printEPKc>
	Serial2.print(x);
    231a:	22 e0       	ldi	r18, 0x02	; 2
    231c:	30 e0       	ldi	r19, 0x00	; 0
    231e:	b3 01       	movw	r22, r6
    2320:	a2 01       	movw	r20, r4
    2322:	81 e2       	ldi	r24, 0x21	; 33
    2324:	9f e0       	ldi	r25, 0x0F	; 15
    2326:	0e 94 35 2e 	call	0x5c6a	; 0x5c6a <_ZN5Print5printEdi>
	Serial2.print("y:");
    232a:	6b ed       	ldi	r22, 0xDB	; 219
    232c:	76 e0       	ldi	r23, 0x06	; 6
    232e:	81 e2       	ldi	r24, 0x21	; 33
    2330:	9f e0       	ldi	r25, 0x0F	; 15
    2332:	0e 94 73 2c 	call	0x58e6	; 0x58e6 <_ZN5Print5printEPKc>
	Serial2.print(y);
    2336:	22 e0       	ldi	r18, 0x02	; 2
    2338:	30 e0       	ldi	r19, 0x00	; 0
    233a:	b5 01       	movw	r22, r10
    233c:	a4 01       	movw	r20, r8
    233e:	81 e2       	ldi	r24, 0x21	; 33
    2340:	9f e0       	ldi	r25, 0x0F	; 15
    2342:	0e 94 35 2e 	call	0x5c6a	; 0x5c6a <_ZN5Print5printEdi>
	Serial2.print("p:");
    2346:	66 e0       	ldi	r22, 0x06	; 6
    2348:	7c e0       	ldi	r23, 0x0C	; 12
    234a:	81 e2       	ldi	r24, 0x21	; 33
    234c:	9f e0       	ldi	r25, 0x0F	; 15
    234e:	0e 94 73 2c 	call	0x58e6	; 0x58e6 <_ZN5Print5printEPKc>
	Serial2.println(p);
    2352:	22 e0       	ldi	r18, 0x02	; 2
    2354:	30 e0       	ldi	r19, 0x00	; 0
    2356:	b7 01       	movw	r22, r14
    2358:	a6 01       	movw	r20, r12
    235a:	81 e2       	ldi	r24, 0x21	; 33
    235c:	9f e0       	ldi	r25, 0x0F	; 15
// 	 	Serial2.print(x);
// 	 	Serial2.print(',');
// 	 	Serial2.print(y);
// 	 	Serial2.print(',');
// 	 	Serial2.println(p);
}
    235e:	1f 91       	pop	r17
    2360:	0f 91       	pop	r16
    2362:	ff 90       	pop	r15
    2364:	ef 90       	pop	r14
    2366:	df 90       	pop	r13
    2368:	cf 90       	pop	r12
    236a:	bf 90       	pop	r11
    236c:	af 90       	pop	r10
    236e:	9f 90       	pop	r9
    2370:	8f 90       	pop	r8
    2372:	7f 90       	pop	r7
    2374:	6f 90       	pop	r6
    2376:	5f 90       	pop	r5
    2378:	4f 90       	pop	r4
	Serial2.print("x:");
	Serial2.print(x);
	Serial2.print("y:");
	Serial2.print(y);
	Serial2.print("p:");
	Serial2.println(p);
    237a:	0c 94 36 2e 	jmp	0x5c6c	; 0x5c6c <_ZN5Print7printlnEdi>

0000237e <_ZN11ComwithShotC1Ev>:
	Wire.begin();
	Serial.println("ComwithShot begin!");
	
	Wire.beginTransmission(address);
	Wire.println("begin:");//  
	Wire.endTransmission();
    237e:	25 e0       	ldi	r18, 0x05	; 5
    2380:	30 e0       	ldi	r19, 0x00	; 0
    2382:	fc 01       	movw	r30, r24
    2384:	31 83       	std	Z+1, r19	; 0x01
    2386:	20 83       	st	Z, r18
    2388:	12 82       	std	Z+2, r1	; 0x02
    238a:	08 95       	ret

0000238c <_ZN11ComwithShot14SendXYPandSHOTEddd>:
		connected = false;
	}
}

void ComwithShot::SendXYPandSHOT(double x,double y,double p)
{
    238c:	4f 92       	push	r4
    238e:	5f 92       	push	r5
    2390:	6f 92       	push	r6
    2392:	7f 92       	push	r7
    2394:	8f 92       	push	r8
    2396:	9f 92       	push	r9
    2398:	af 92       	push	r10
    239a:	bf 92       	push	r11
    239c:	cf 92       	push	r12
    239e:	df 92       	push	r13
    23a0:	ef 92       	push	r14
    23a2:	ff 92       	push	r15
    23a4:	0f 93       	push	r16
    23a6:	1f 93       	push	r17
    23a8:	cf 93       	push	r28
    23aa:	df 93       	push	r29
    23ac:	ec 01       	movw	r28, r24
    23ae:	2a 01       	movw	r4, r20
    23b0:	3b 01       	movw	r6, r22
    23b2:	48 01       	movw	r8, r16
    23b4:	59 01       	movw	r10, r18
	Serial.print("ComwithShot");
    23b6:	6f ef       	ldi	r22, 0xFF	; 255
    23b8:	76 e0       	ldi	r23, 0x06	; 6
    23ba:	84 e8       	ldi	r24, 0x84	; 132
    23bc:	9e e0       	ldi	r25, 0x0E	; 14
    23be:	0e 94 73 2c 	call	0x58e6	; 0x58e6 <_ZN5Print5printEPKc>
	Serial.print("X:");
    23c2:	6b e0       	ldi	r22, 0x0B	; 11
    23c4:	77 e0       	ldi	r23, 0x07	; 7
    23c6:	84 e8       	ldi	r24, 0x84	; 132
    23c8:	9e e0       	ldi	r25, 0x0E	; 14
    23ca:	0e 94 73 2c 	call	0x58e6	; 0x58e6 <_ZN5Print5printEPKc>
	Serial.print(x);
    23ce:	22 e0       	ldi	r18, 0x02	; 2
    23d0:	30 e0       	ldi	r19, 0x00	; 0
    23d2:	b3 01       	movw	r22, r6
    23d4:	a2 01       	movw	r20, r4
    23d6:	84 e8       	ldi	r24, 0x84	; 132
    23d8:	9e e0       	ldi	r25, 0x0E	; 14
    23da:	0e 94 35 2e 	call	0x5c6a	; 0x5c6a <_ZN5Print5printEdi>
	Serial.print("Y:");
    23de:	6e e0       	ldi	r22, 0x0E	; 14
    23e0:	77 e0       	ldi	r23, 0x07	; 7
    23e2:	84 e8       	ldi	r24, 0x84	; 132
    23e4:	9e e0       	ldi	r25, 0x0E	; 14
    23e6:	0e 94 73 2c 	call	0x58e6	; 0x58e6 <_ZN5Print5printEPKc>
	Serial.print(y);
    23ea:	22 e0       	ldi	r18, 0x02	; 2
    23ec:	30 e0       	ldi	r19, 0x00	; 0
    23ee:	b5 01       	movw	r22, r10
    23f0:	a4 01       	movw	r20, r8
    23f2:	84 e8       	ldi	r24, 0x84	; 132
    23f4:	9e e0       	ldi	r25, 0x0E	; 14
    23f6:	0e 94 35 2e 	call	0x5c6a	; 0x5c6a <_ZN5Print5printEdi>
	Serial.print("P:");
    23fa:	68 e1       	ldi	r22, 0x18	; 24
    23fc:	77 e0       	ldi	r23, 0x07	; 7
    23fe:	84 e8       	ldi	r24, 0x84	; 132
    2400:	9e e0       	ldi	r25, 0x0E	; 14
    2402:	0e 94 73 2c 	call	0x58e6	; 0x58e6 <_ZN5Print5printEPKc>
	Serial.print(p);
    2406:	22 e0       	ldi	r18, 0x02	; 2
    2408:	30 e0       	ldi	r19, 0x00	; 0
    240a:	b7 01       	movw	r22, r14
    240c:	a6 01       	movw	r20, r12
    240e:	84 e8       	ldi	r24, 0x84	; 132
    2410:	9e e0       	ldi	r25, 0x0E	; 14
    2412:	0e 94 35 2e 	call	0x5c6a	; 0x5c6a <_ZN5Print5printEdi>
	Serial.println("Fire");
    2416:	61 e1       	ldi	r22, 0x11	; 17
    2418:	77 e0       	ldi	r23, 0x07	; 7
    241a:	84 e8       	ldi	r24, 0x84	; 132
    241c:	9e e0       	ldi	r25, 0x0E	; 14
    241e:	0e 94 7e 2c 	call	0x58fc	; 0x58fc <_ZN5Print7printlnEPKc>
	
	Wire.beginTransmission(address);
    2422:	68 81       	ld	r22, Y
    2424:	79 81       	ldd	r23, Y+1	; 0x01
    2426:	82 e3       	ldi	r24, 0x32	; 50
    2428:	9e e0       	ldi	r25, 0x0E	; 14
    242a:	0e 94 d1 23 	call	0x47a2	; 0x47a2 <_ZN7TwoWire17beginTransmissionEi>
	Wire.print("XYP:");
    242e:	66 e1       	ldi	r22, 0x16	; 22
    2430:	77 e0       	ldi	r23, 0x07	; 7
    2432:	82 e3       	ldi	r24, 0x32	; 50
    2434:	9e e0       	ldi	r25, 0x0E	; 14
    2436:	0e 94 73 2c 	call	0x58e6	; 0x58e6 <_ZN5Print5printEPKc>
	Wire.print("X:");
    243a:	6b e0       	ldi	r22, 0x0B	; 11
    243c:	77 e0       	ldi	r23, 0x07	; 7
    243e:	82 e3       	ldi	r24, 0x32	; 50
    2440:	9e e0       	ldi	r25, 0x0E	; 14
    2442:	0e 94 73 2c 	call	0x58e6	; 0x58e6 <_ZN5Print5printEPKc>
	Wire.print(x);
    2446:	22 e0       	ldi	r18, 0x02	; 2
    2448:	30 e0       	ldi	r19, 0x00	; 0
    244a:	b3 01       	movw	r22, r6
    244c:	a2 01       	movw	r20, r4
    244e:	82 e3       	ldi	r24, 0x32	; 50
    2450:	9e e0       	ldi	r25, 0x0E	; 14
    2452:	0e 94 35 2e 	call	0x5c6a	; 0x5c6a <_ZN5Print5printEdi>
	Wire.print("Y:");
    2456:	6e e0       	ldi	r22, 0x0E	; 14
    2458:	77 e0       	ldi	r23, 0x07	; 7
    245a:	82 e3       	ldi	r24, 0x32	; 50
    245c:	9e e0       	ldi	r25, 0x0E	; 14
    245e:	0e 94 73 2c 	call	0x58e6	; 0x58e6 <_ZN5Print5printEPKc>
	Wire.print(y);
    2462:	22 e0       	ldi	r18, 0x02	; 2
    2464:	30 e0       	ldi	r19, 0x00	; 0
    2466:	b5 01       	movw	r22, r10
    2468:	a4 01       	movw	r20, r8
    246a:	82 e3       	ldi	r24, 0x32	; 50
    246c:	9e e0       	ldi	r25, 0x0E	; 14
    246e:	0e 94 35 2e 	call	0x5c6a	; 0x5c6a <_ZN5Print5printEdi>
	Wire.print("P:");
    2472:	68 e1       	ldi	r22, 0x18	; 24
    2474:	77 e0       	ldi	r23, 0x07	; 7
    2476:	82 e3       	ldi	r24, 0x32	; 50
    2478:	9e e0       	ldi	r25, 0x0E	; 14
    247a:	0e 94 73 2c 	call	0x58e6	; 0x58e6 <_ZN5Print5printEPKc>
	Wire.print(p);
    247e:	22 e0       	ldi	r18, 0x02	; 2
    2480:	30 e0       	ldi	r19, 0x00	; 0
    2482:	b7 01       	movw	r22, r14
    2484:	a6 01       	movw	r20, r12
    2486:	82 e3       	ldi	r24, 0x32	; 50
    2488:	9e e0       	ldi	r25, 0x0E	; 14
    248a:	0e 94 35 2e 	call	0x5c6a	; 0x5c6a <_ZN5Print5printEdi>
	Wire.println("SHOT");
    248e:	6b e1       	ldi	r22, 0x1B	; 27
    2490:	77 e0       	ldi	r23, 0x07	; 7
    2492:	82 e3       	ldi	r24, 0x32	; 50
    2494:	9e e0       	ldi	r25, 0x0E	; 14
    2496:	0e 94 7e 2c 	call	0x58fc	; 0x58fc <_ZN5Print7printlnEPKc>
	Wire.endTransmission();
    249a:	82 e3       	ldi	r24, 0x32	; 50
    249c:	9e e0       	ldi	r25, 0x0E	; 14
}
    249e:	df 91       	pop	r29
    24a0:	cf 91       	pop	r28
    24a2:	1f 91       	pop	r17
    24a4:	0f 91       	pop	r16
    24a6:	ff 90       	pop	r15
    24a8:	ef 90       	pop	r14
    24aa:	df 90       	pop	r13
    24ac:	cf 90       	pop	r12
    24ae:	bf 90       	pop	r11
    24b0:	af 90       	pop	r10
    24b2:	9f 90       	pop	r9
    24b4:	8f 90       	pop	r8
    24b6:	7f 90       	pop	r7
    24b8:	6f 90       	pop	r6
    24ba:	5f 90       	pop	r5
    24bc:	4f 90       	pop	r4
	Wire.print("Y:");
	Wire.print(y);
	Wire.print("P:");
	Wire.print(p);
	Wire.println("SHOT");
	Wire.endTransmission();
    24be:	0c 94 46 24 	jmp	0x488c	; 0x488c <_ZN7TwoWire15endTransmissionEv>

000024c2 <_ZN7DisplayC1Ev>:
	display.setTextColor(WHITE);
	display.setCursor(0,5);
	display.clearDisplay();
	display.print("Time:");
	display.println(str);
	display.display();
    24c2:	fc 01       	movw	r30, r24
    24c4:	11 82       	std	Z+1, r1	; 0x01
    24c6:	10 82       	st	Z, r1
    24c8:	13 82       	std	Z+3, r1	; 0x03
    24ca:	12 82       	std	Z+2, r1	; 0x02
    24cc:	15 82       	std	Z+5, r1	; 0x05
    24ce:	14 82       	std	Z+4, r1	; 0x04
    24d0:	2a e0       	ldi	r18, 0x0A	; 10
    24d2:	30 e0       	ldi	r19, 0x00	; 0
    24d4:	37 83       	std	Z+7, r19	; 0x07
    24d6:	26 83       	std	Z+6, r18	; 0x06
    24d8:	80 e4       	ldi	r24, 0x40	; 64
    24da:	90 e0       	ldi	r25, 0x00	; 0
    24dc:	91 87       	std	Z+9, r25	; 0x09
    24de:	80 87       	std	Z+8, r24	; 0x08
    24e0:	33 87       	std	Z+11, r19	; 0x0b
    24e2:	22 87       	std	Z+10, r18	; 0x0a
    24e4:	15 86       	std	Z+13, r1	; 0x0d
    24e6:	14 86       	std	Z+12, r1	; 0x0c
    24e8:	22 e1       	ldi	r18, 0x12	; 18
    24ea:	30 e0       	ldi	r19, 0x00	; 0
    24ec:	37 87       	std	Z+15, r19	; 0x0f
    24ee:	26 87       	std	Z+14, r18	; 0x0e
    24f0:	91 8b       	std	Z+17, r25	; 0x11
    24f2:	80 8b       	std	Z+16, r24	; 0x10
    24f4:	33 8b       	std	Z+19, r19	; 0x13
    24f6:	22 8b       	std	Z+18, r18	; 0x12
    24f8:	15 8a       	std	Z+21, r1	; 0x15
    24fa:	14 8a       	std	Z+20, r1	; 0x14
    24fc:	2c e1       	ldi	r18, 0x1C	; 28
    24fe:	30 e0       	ldi	r19, 0x00	; 0
    2500:	37 8b       	std	Z+23, r19	; 0x17
    2502:	26 8b       	std	Z+22, r18	; 0x16
    2504:	91 8f       	std	Z+25, r25	; 0x19
    2506:	80 8f       	std	Z+24, r24	; 0x18
    2508:	33 8f       	std	Z+27, r19	; 0x1b
    250a:	22 8f       	std	Z+26, r18	; 0x1a
    250c:	15 8e       	std	Z+29, r1	; 0x1d
    250e:	14 8e       	std	Z+28, r1	; 0x1c
    2510:	24 e2       	ldi	r18, 0x24	; 36
    2512:	30 e0       	ldi	r19, 0x00	; 0
    2514:	37 8f       	std	Z+31, r19	; 0x1f
    2516:	26 8f       	std	Z+30, r18	; 0x1e
    2518:	11 a2       	std	Z+33, r1	; 0x21
    251a:	10 a2       	std	Z+32, r1	; 0x20
    251c:	2e e2       	ldi	r18, 0x2E	; 46
    251e:	30 e0       	ldi	r19, 0x00	; 0
    2520:	33 a3       	std	Z+35, r19	; 0x23
    2522:	22 a3       	std	Z+34, r18	; 0x22
    2524:	95 a3       	std	Z+37, r25	; 0x25
    2526:	84 a3       	std	Z+36, r24	; 0x24
    2528:	37 a3       	std	Z+39, r19	; 0x27
    252a:	26 a3       	std	Z+38, r18	; 0x26
    252c:	11 a6       	std	Z+41, r1	; 0x29
    252e:	10 a6       	std	Z+40, r1	; 0x28
    2530:	86 e3       	ldi	r24, 0x36	; 54
    2532:	90 e0       	ldi	r25, 0x00	; 0
    2534:	93 a7       	std	Z+43, r25	; 0x2b
    2536:	82 a7       	std	Z+42, r24	; 0x2a
    2538:	08 95       	ret

0000253a <_ZN7Display5beginEv>:
    253a:	21 e0       	ldi	r18, 0x01	; 1
    253c:	4c e3       	ldi	r20, 0x3C	; 60
    253e:	62 e0       	ldi	r22, 0x02	; 2
    2540:	8a e8       	ldi	r24, 0x8A	; 138
    2542:	9c e0       	ldi	r25, 0x0C	; 12
    2544:	62 db       	rcall	.-2364   	; 0x1c0a <_ZN16Adafruit_SSD13065beginEhhb>
    2546:	8a e8       	ldi	r24, 0x8A	; 138
    2548:	9c e0       	ldi	r25, 0x0C	; 12
    254a:	7a dc       	rcall	.-1804   	; 0x1e40 <_ZN16Adafruit_SSD13067displayEv>
    254c:	68 ee       	ldi	r22, 0xE8	; 232
    254e:	73 e0       	ldi	r23, 0x03	; 3
    2550:	80 e0       	ldi	r24, 0x00	; 0
    2552:	90 e0       	ldi	r25, 0x00	; 0
    2554:	0e 94 8d 30 	call	0x611a	; 0x611a <delay>
    2558:	8a e8       	ldi	r24, 0x8A	; 138
    255a:	9c e0       	ldi	r25, 0x0C	; 12
    255c:	dd ca       	rjmp	.-2630   	; 0x1b18 <_ZN16Adafruit_SSD130612clearDisplayEv>

0000255e <_ZN7Display7refreshEiiiiddd6String>:
}

void Display::refresh(int L1_speed,int L2_speed,int R1_speed,int R2_speed,double pos_x,double pos_y,double pos_p,String state)
{
    255e:	2f 92       	push	r2
    2560:	3f 92       	push	r3
    2562:	4f 92       	push	r4
    2564:	5f 92       	push	r5
    2566:	6f 92       	push	r6
    2568:	7f 92       	push	r7
    256a:	8f 92       	push	r8
    256c:	9f 92       	push	r9
    256e:	af 92       	push	r10
    2570:	bf 92       	push	r11
    2572:	cf 92       	push	r12
    2574:	df 92       	push	r13
    2576:	ef 92       	push	r14
    2578:	ff 92       	push	r15
    257a:	0f 93       	push	r16
    257c:	1f 93       	push	r17
    257e:	cf 93       	push	r28
    2580:	df 93       	push	r29
    2582:	cd b7       	in	r28, 0x3d	; 61
    2584:	de b7       	in	r29, 0x3e	; 62
    2586:	28 97       	sbiw	r28, 0x08	; 8
    2588:	0f b6       	in	r0, 0x3f	; 63
    258a:	f8 94       	cli
    258c:	de bf       	out	0x3e, r29	; 62
    258e:	0f be       	out	0x3f, r0	; 63
    2590:	cd bf       	out	0x3d, r28	; 61
    2592:	3c 01       	movw	r6, r24
    2594:	7a 83       	std	Y+2, r23	; 0x02
    2596:	69 83       	std	Y+1, r22	; 0x01
    2598:	2a 01       	movw	r4, r20
    259a:	19 01       	movw	r2, r18
    259c:	8e 8d       	ldd	r24, Y+30	; 0x1e
    259e:	9f 8d       	ldd	r25, Y+31	; 0x1f
    25a0:	a8 a1       	ldd	r26, Y+32	; 0x20
    25a2:	b9 a1       	ldd	r27, Y+33	; 0x21
    25a4:	8b 83       	std	Y+3, r24	; 0x03
    25a6:	9c 83       	std	Y+4, r25	; 0x04
    25a8:	ad 83       	std	Y+5, r26	; 0x05
    25aa:	be 83       	std	Y+6, r27	; 0x06
    25ac:	aa a1       	ldd	r26, Y+34	; 0x22
    25ae:	bb a1       	ldd	r27, Y+35	; 0x23
    25b0:	b8 87       	std	Y+8, r27	; 0x08
    25b2:	af 83       	std	Y+7, r26	; 0x07
	display.setTextSize(1);
    25b4:	61 e0       	ldi	r22, 0x01	; 1
    25b6:	8a e8       	ldi	r24, 0x8A	; 138
    25b8:	9c e0       	ldi	r25, 0x0C	; 12
    25ba:	0e 94 f5 09 	call	0x13ea	; 0x13ea <_ZN12Adafruit_GFX11setTextSizeEh>
	display.setTextColor(WHITE);
    25be:	61 e0       	ldi	r22, 0x01	; 1
    25c0:	70 e0       	ldi	r23, 0x00	; 0
    25c2:	8a e8       	ldi	r24, 0x8A	; 138
    25c4:	9c e0       	ldi	r25, 0x0C	; 12
    25c6:	0e 94 fb 09 	call	0x13f6	; 0x13f6 <_ZN12Adafruit_GFX12setTextColorEj>
	display.setCursor(0,0);
    25ca:	40 e0       	ldi	r20, 0x00	; 0
    25cc:	50 e0       	ldi	r21, 0x00	; 0
    25ce:	60 e0       	ldi	r22, 0x00	; 0
    25d0:	70 e0       	ldi	r23, 0x00	; 0
    25d2:	8a e8       	ldi	r24, 0x8A	; 138
    25d4:	9c e0       	ldi	r25, 0x0C	; 12
    25d6:	0e 94 ef 09 	call	0x13de	; 0x13de <_ZN12Adafruit_GFX9setCursorEii>
	display.clearDisplay();
    25da:	8a e8       	ldi	r24, 0x8A	; 138
    25dc:	9c e0       	ldi	r25, 0x0C	; 12
    25de:	9c da       	rcall	.-2760   	; 0x1b18 <_ZN16Adafruit_SSD130612clearDisplayEv>
	//
	display.print("Time:");
    25e0:	63 e3       	ldi	r22, 0x33	; 51
    25e2:	77 e0       	ldi	r23, 0x07	; 7
    25e4:	8a e8       	ldi	r24, 0x8A	; 138
    25e6:	9c e0       	ldi	r25, 0x0C	; 12
    25e8:	0e 94 73 2c 	call	0x58e6	; 0x58e6 <_ZN5Print5printEPKc>
	display.print(millis());
    25ec:	0e 94 5c 30 	call	0x60b8	; 0x60b8 <millis>
    25f0:	ab 01       	movw	r20, r22
    25f2:	bc 01       	movw	r22, r24
    25f4:	2a e0       	ldi	r18, 0x0A	; 10
    25f6:	30 e0       	ldi	r19, 0x00	; 0
    25f8:	8a e8       	ldi	r24, 0x8A	; 138
    25fa:	9c e0       	ldi	r25, 0x0C	; 12
    25fc:	0e 94 42 2d 	call	0x5a84	; 0x5a84 <_ZN5Print5printEmi>
	
	//PWM
	display.setCursor(PWML1_x,PWML1_y);
    2600:	f3 01       	movw	r30, r6
    2602:	46 81       	ldd	r20, Z+6	; 0x06
    2604:	57 81       	ldd	r21, Z+7	; 0x07
    2606:	64 81       	ldd	r22, Z+4	; 0x04
    2608:	75 81       	ldd	r23, Z+5	; 0x05
    260a:	8a e8       	ldi	r24, 0x8A	; 138
    260c:	9c e0       	ldi	r25, 0x0C	; 12
    260e:	0e 94 ef 09 	call	0x13de	; 0x13de <_ZN12Adafruit_GFX9setCursorEii>
	display.print("L1:");
    2612:	69 e3       	ldi	r22, 0x39	; 57
    2614:	77 e0       	ldi	r23, 0x07	; 7
    2616:	8a e8       	ldi	r24, 0x8A	; 138
    2618:	9c e0       	ldi	r25, 0x0C	; 12
    261a:	0e 94 73 2c 	call	0x58e6	; 0x58e6 <_ZN5Print5printEPKc>
	display.print(L1_speed);
    261e:	4a e0       	ldi	r20, 0x0A	; 10
    2620:	50 e0       	ldi	r21, 0x00	; 0
    2622:	69 81       	ldd	r22, Y+1	; 0x01
    2624:	7a 81       	ldd	r23, Y+2	; 0x02
    2626:	8a e8       	ldi	r24, 0x8A	; 138
    2628:	9c e0       	ldi	r25, 0x0C	; 12
    262a:	0e 94 27 2d 	call	0x5a4e	; 0x5a4e <_ZN5Print5printEii>
	display.setCursor(PWMR1_x,PWMR1_y);
    262e:	d3 01       	movw	r26, r6
    2630:	1a 96       	adiw	r26, 0x0a	; 10
    2632:	4d 91       	ld	r20, X+
    2634:	5c 91       	ld	r21, X
    2636:	1b 97       	sbiw	r26, 0x0b	; 11
    2638:	18 96       	adiw	r26, 0x08	; 8
    263a:	6d 91       	ld	r22, X+
    263c:	7c 91       	ld	r23, X
    263e:	19 97       	sbiw	r26, 0x09	; 9
    2640:	8a e8       	ldi	r24, 0x8A	; 138
    2642:	9c e0       	ldi	r25, 0x0C	; 12
    2644:	0e 94 ef 09 	call	0x13de	; 0x13de <_ZN12Adafruit_GFX9setCursorEii>
	display.print("R1:");
    2648:	6d e3       	ldi	r22, 0x3D	; 61
    264a:	77 e0       	ldi	r23, 0x07	; 7
    264c:	8a e8       	ldi	r24, 0x8A	; 138
    264e:	9c e0       	ldi	r25, 0x0C	; 12
    2650:	0e 94 73 2c 	call	0x58e6	; 0x58e6 <_ZN5Print5printEPKc>
	display.print(R1_speed);
    2654:	4a e0       	ldi	r20, 0x0A	; 10
    2656:	50 e0       	ldi	r21, 0x00	; 0
    2658:	b1 01       	movw	r22, r2
    265a:	8a e8       	ldi	r24, 0x8A	; 138
    265c:	9c e0       	ldi	r25, 0x0C	; 12
    265e:	0e 94 27 2d 	call	0x5a4e	; 0x5a4e <_ZN5Print5printEii>
	
	display.setCursor(PWML2_x,PWML2_y);
    2662:	f3 01       	movw	r30, r6
    2664:	46 85       	ldd	r20, Z+14	; 0x0e
    2666:	57 85       	ldd	r21, Z+15	; 0x0f
    2668:	64 85       	ldd	r22, Z+12	; 0x0c
    266a:	75 85       	ldd	r23, Z+13	; 0x0d
    266c:	8a e8       	ldi	r24, 0x8A	; 138
    266e:	9c e0       	ldi	r25, 0x0C	; 12
    2670:	0e 94 ef 09 	call	0x13de	; 0x13de <_ZN12Adafruit_GFX9setCursorEii>
	display.print("L2:");
    2674:	61 e4       	ldi	r22, 0x41	; 65
    2676:	77 e0       	ldi	r23, 0x07	; 7
    2678:	8a e8       	ldi	r24, 0x8A	; 138
    267a:	9c e0       	ldi	r25, 0x0C	; 12
    267c:	0e 94 73 2c 	call	0x58e6	; 0x58e6 <_ZN5Print5printEPKc>
	display.print(L2_speed);
    2680:	4a e0       	ldi	r20, 0x0A	; 10
    2682:	50 e0       	ldi	r21, 0x00	; 0
    2684:	b2 01       	movw	r22, r4
    2686:	8a e8       	ldi	r24, 0x8A	; 138
    2688:	9c e0       	ldi	r25, 0x0C	; 12
    268a:	0e 94 27 2d 	call	0x5a4e	; 0x5a4e <_ZN5Print5printEii>
	display.setCursor(PWMR2_x,PWMR2_y);
    268e:	d3 01       	movw	r26, r6
    2690:	52 96       	adiw	r26, 0x12	; 18
    2692:	4d 91       	ld	r20, X+
    2694:	5c 91       	ld	r21, X
    2696:	53 97       	sbiw	r26, 0x13	; 19
    2698:	50 96       	adiw	r26, 0x10	; 16
    269a:	6d 91       	ld	r22, X+
    269c:	7c 91       	ld	r23, X
    269e:	51 97       	sbiw	r26, 0x11	; 17
    26a0:	8a e8       	ldi	r24, 0x8A	; 138
    26a2:	9c e0       	ldi	r25, 0x0C	; 12
    26a4:	0e 94 ef 09 	call	0x13de	; 0x13de <_ZN12Adafruit_GFX9setCursorEii>
	display.print("R2:");
    26a8:	65 e4       	ldi	r22, 0x45	; 69
    26aa:	77 e0       	ldi	r23, 0x07	; 7
    26ac:	8a e8       	ldi	r24, 0x8A	; 138
    26ae:	9c e0       	ldi	r25, 0x0C	; 12
    26b0:	0e 94 73 2c 	call	0x58e6	; 0x58e6 <_ZN5Print5printEPKc>
	display.print(R2_speed);
    26b4:	4a e0       	ldi	r20, 0x0A	; 10
    26b6:	50 e0       	ldi	r21, 0x00	; 0
    26b8:	b8 01       	movw	r22, r16
    26ba:	8a e8       	ldi	r24, 0x8A	; 138
    26bc:	9c e0       	ldi	r25, 0x0C	; 12
    26be:	0e 94 27 2d 	call	0x5a4e	; 0x5a4e <_ZN5Print5printEii>
	
	//
	display.setCursor(X_encode_x,X_encode_y);
    26c2:	f3 01       	movw	r30, r6
    26c4:	46 89       	ldd	r20, Z+22	; 0x16
    26c6:	57 89       	ldd	r21, Z+23	; 0x17
    26c8:	64 89       	ldd	r22, Z+20	; 0x14
    26ca:	75 89       	ldd	r23, Z+21	; 0x15
    26cc:	8a e8       	ldi	r24, 0x8A	; 138
    26ce:	9c e0       	ldi	r25, 0x0C	; 12
    26d0:	0e 94 ef 09 	call	0x13de	; 0x13de <_ZN12Adafruit_GFX9setCursorEii>
	display.print("X_mm:");
    26d4:	69 e4       	ldi	r22, 0x49	; 73
    26d6:	77 e0       	ldi	r23, 0x07	; 7
    26d8:	8a e8       	ldi	r24, 0x8A	; 138
    26da:	9c e0       	ldi	r25, 0x0C	; 12
    26dc:	0e 94 73 2c 	call	0x58e6	; 0x58e6 <_ZN5Print5printEPKc>
	display.print(pos_x);
    26e0:	22 e0       	ldi	r18, 0x02	; 2
    26e2:	30 e0       	ldi	r19, 0x00	; 0
    26e4:	b7 01       	movw	r22, r14
    26e6:	a6 01       	movw	r20, r12
    26e8:	8a e8       	ldi	r24, 0x8A	; 138
    26ea:	9c e0       	ldi	r25, 0x0C	; 12
    26ec:	0e 94 35 2e 	call	0x5c6a	; 0x5c6a <_ZN5Print5printEdi>
	display.setCursor(Y_encode_x,Y_encode_y);
    26f0:	d3 01       	movw	r26, r6
    26f2:	5a 96       	adiw	r26, 0x1a	; 26
    26f4:	4d 91       	ld	r20, X+
    26f6:	5c 91       	ld	r21, X
    26f8:	5b 97       	sbiw	r26, 0x1b	; 27
    26fa:	58 96       	adiw	r26, 0x18	; 24
    26fc:	6d 91       	ld	r22, X+
    26fe:	7c 91       	ld	r23, X
    2700:	59 97       	sbiw	r26, 0x19	; 25
    2702:	8a e8       	ldi	r24, 0x8A	; 138
    2704:	9c e0       	ldi	r25, 0x0C	; 12
    2706:	0e 94 ef 09 	call	0x13de	; 0x13de <_ZN12Adafruit_GFX9setCursorEii>
	display.print("Y_mm:");
    270a:	6f e4       	ldi	r22, 0x4F	; 79
    270c:	77 e0       	ldi	r23, 0x07	; 7
    270e:	8a e8       	ldi	r24, 0x8A	; 138
    2710:	9c e0       	ldi	r25, 0x0C	; 12
    2712:	0e 94 73 2c 	call	0x58e6	; 0x58e6 <_ZN5Print5printEPKc>
	display.print(pos_y);
    2716:	22 e0       	ldi	r18, 0x02	; 2
    2718:	30 e0       	ldi	r19, 0x00	; 0
    271a:	b5 01       	movw	r22, r10
    271c:	a4 01       	movw	r20, r8
    271e:	8a e8       	ldi	r24, 0x8A	; 138
    2720:	9c e0       	ldi	r25, 0x0C	; 12
    2722:	0e 94 35 2e 	call	0x5c6a	; 0x5c6a <_ZN5Print5printEdi>
	display.setCursor(P_encode_x,P_encode_y);
    2726:	f3 01       	movw	r30, r6
    2728:	46 8d       	ldd	r20, Z+30	; 0x1e
    272a:	57 8d       	ldd	r21, Z+31	; 0x1f
    272c:	64 8d       	ldd	r22, Z+28	; 0x1c
    272e:	75 8d       	ldd	r23, Z+29	; 0x1d
    2730:	8a e8       	ldi	r24, 0x8A	; 138
    2732:	9c e0       	ldi	r25, 0x0C	; 12
    2734:	0e 94 ef 09 	call	0x13de	; 0x13de <_ZN12Adafruit_GFX9setCursorEii>
	display.print("P_mm:");
    2738:	65 e5       	ldi	r22, 0x55	; 85
    273a:	77 e0       	ldi	r23, 0x07	; 7
    273c:	8a e8       	ldi	r24, 0x8A	; 138
    273e:	9c e0       	ldi	r25, 0x0C	; 12
    2740:	0e 94 73 2c 	call	0x58e6	; 0x58e6 <_ZN5Print5printEPKc>
	display.print(pos_p);
    2744:	22 e0       	ldi	r18, 0x02	; 2
    2746:	30 e0       	ldi	r19, 0x00	; 0
    2748:	4b 81       	ldd	r20, Y+3	; 0x03
    274a:	5c 81       	ldd	r21, Y+4	; 0x04
    274c:	6d 81       	ldd	r22, Y+5	; 0x05
    274e:	7e 81       	ldd	r23, Y+6	; 0x06
    2750:	8a e8       	ldi	r24, 0x8A	; 138
    2752:	9c e0       	ldi	r25, 0x0C	; 12
    2754:	0e 94 35 2e 	call	0x5c6a	; 0x5c6a <_ZN5Print5printEdi>
	
	//
	display.setCursor(X_real_x,X_encode_y);
    2758:	d3 01       	movw	r26, r6
    275a:	56 96       	adiw	r26, 0x16	; 22
    275c:	4d 91       	ld	r20, X+
    275e:	5c 91       	ld	r21, X
    2760:	57 97       	sbiw	r26, 0x17	; 23
    2762:	90 96       	adiw	r26, 0x20	; 32
    2764:	6d 91       	ld	r22, X+
    2766:	7c 91       	ld	r23, X
    2768:	91 97       	sbiw	r26, 0x21	; 33
    276a:	8a e8       	ldi	r24, 0x8A	; 138
    276c:	9c e0       	ldi	r25, 0x0C	; 12
    276e:	0e 94 ef 09 	call	0x13de	; 0x13de <_ZN12Adafruit_GFX9setCursorEii>
	display.print("PS2:");
    2772:	6b e5       	ldi	r22, 0x5B	; 91
    2774:	77 e0       	ldi	r23, 0x07	; 7
    2776:	8a e8       	ldi	r24, 0x8A	; 138
    2778:	9c e0       	ldi	r25, 0x0C	; 12
    277a:	0e 94 73 2c 	call	0x58e6	; 0x58e6 <_ZN5Print5printEPKc>
	display.print(state);
    277e:	6f 81       	ldd	r22, Y+7	; 0x07
    2780:	78 85       	ldd	r23, Y+8	; 0x08
    2782:	8a e8       	ldi	r24, 0x8A	; 138
    2784:	9c e0       	ldi	r25, 0x0C	; 12
    2786:	0e 94 65 2c 	call	0x58ca	; 0x58ca <_ZN5Print5printERK6String>
	
	display.display();
    278a:	8a e8       	ldi	r24, 0x8A	; 138
    278c:	9c e0       	ldi	r25, 0x0C	; 12
}
    278e:	28 96       	adiw	r28, 0x08	; 8
    2790:	0f b6       	in	r0, 0x3f	; 63
    2792:	f8 94       	cli
    2794:	de bf       	out	0x3e, r29	; 62
    2796:	0f be       	out	0x3f, r0	; 63
    2798:	cd bf       	out	0x3d, r28	; 61
    279a:	df 91       	pop	r29
    279c:	cf 91       	pop	r28
    279e:	1f 91       	pop	r17
    27a0:	0f 91       	pop	r16
    27a2:	ff 90       	pop	r15
    27a4:	ef 90       	pop	r14
    27a6:	df 90       	pop	r13
    27a8:	cf 90       	pop	r12
    27aa:	bf 90       	pop	r11
    27ac:	af 90       	pop	r10
    27ae:	9f 90       	pop	r9
    27b0:	8f 90       	pop	r8
    27b2:	7f 90       	pop	r7
    27b4:	6f 90       	pop	r6
    27b6:	5f 90       	pop	r5
    27b8:	4f 90       	pop	r4
    27ba:	3f 90       	pop	r3
    27bc:	2f 90       	pop	r2
	//
	display.setCursor(X_real_x,X_encode_y);
	display.print("PS2:");
	display.print(state);
	
	display.display();
    27be:	40 cb       	rjmp	.-2432   	; 0x1e40 <_ZN16Adafruit_SSD13067displayEv>

000027c0 <_GLOBAL__sub_I_display>:

#include "Display.h"
#include <Wire.h>
#include "Adafruit_SSD1306.h"
#define OLED_RESET 4
Adafruit_SSD1306 display(OLED_RESET);
    27c0:	64 e0       	ldi	r22, 0x04	; 4
    27c2:	8a e8       	ldi	r24, 0x8A	; 138
    27c4:	9c e0       	ldi	r25, 0x0C	; 12
    27c6:	90 c9       	rjmp	.-3296   	; 0x1ae8 <_ZN16Adafruit_SSD1306C1Ea>

000027c8 <_ZN10KinematicsC1Eiffi>:
	//convert revolutions per minute to revolutions per second
	double average_rps_a = average_rpm_a / 60;
	vel.angular_z =  (average_rps_a * (wheel_diameter_ * PI)) / base_width_;

	return vel;
}
    27c8:	4f 92       	push	r4
    27ca:	5f 92       	push	r5
    27cc:	6f 92       	push	r6
    27ce:	7f 92       	push	r7
    27d0:	af 92       	push	r10
    27d2:	bf 92       	push	r11
    27d4:	cf 92       	push	r12
    27d6:	df 92       	push	r13
    27d8:	ef 92       	push	r14
    27da:	ff 92       	push	r15
    27dc:	0f 93       	push	r16
    27de:	1f 93       	push	r17
    27e0:	cf 93       	push	r28
    27e2:	df 93       	push	r29
    27e4:	ec 01       	movw	r28, r24
    27e6:	5b 01       	movw	r10, r22
    27e8:	ca 01       	movw	r24, r20
    27ea:	b9 01       	movw	r22, r18
    27ec:	2a a3       	std	Y+34, r18	; 0x22
    27ee:	3b a3       	std	Y+35, r19	; 0x23
    27f0:	4c a3       	std	Y+36, r20	; 0x24
    27f2:	5d a3       	std	Y+37, r21	; 0x25
    27f4:	2b ed       	ldi	r18, 0xDB	; 219
    27f6:	3f e0       	ldi	r19, 0x0F	; 15
    27f8:	49 e4       	ldi	r20, 0x49	; 73
    27fa:	50 e4       	ldi	r21, 0x40	; 64
    27fc:	0e 94 b6 27 	call	0x4f6c	; 0x4f6c <__mulsf3>
    2800:	6c 87       	std	Y+12, r22	; 0x0c
    2802:	7d 87       	std	Y+13, r23	; 0x0d
    2804:	8e 87       	std	Y+14, r24	; 0x0e
    2806:	9f 87       	std	Y+15, r25	; 0x0f
    2808:	b9 a2       	std	Y+33, r11	; 0x21
    280a:	a8 a2       	std	Y+32, r10	; 0x20
    280c:	ee a2       	std	Y+38, r14	; 0x26
    280e:	ff a2       	std	Y+39, r15	; 0x27
    2810:	08 a7       	std	Y+40, r16	; 0x28
    2812:	19 a7       	std	Y+41, r17	; 0x29
    2814:	b6 01       	movw	r22, r12
    2816:	dd 0c       	add	r13, r13
    2818:	88 0b       	sbc	r24, r24
    281a:	99 0b       	sbc	r25, r25
    281c:	0e 94 6d 26 	call	0x4cda	; 0x4cda <__floatsisf>
    2820:	9b 01       	movw	r18, r22
    2822:	ac 01       	movw	r20, r24
    2824:	60 e0       	ldi	r22, 0x00	; 0
    2826:	70 e0       	ldi	r23, 0x00	; 0
    2828:	80 e0       	ldi	r24, 0x00	; 0
    282a:	90 e4       	ldi	r25, 0x40	; 64
    282c:	0e 94 19 28 	call	0x5032	; 0x5032 <pow>
    2830:	20 e0       	ldi	r18, 0x00	; 0
    2832:	30 e0       	ldi	r19, 0x00	; 0
    2834:	40 e8       	ldi	r20, 0x80	; 128
    2836:	5f e3       	ldi	r21, 0x3F	; 63
    2838:	0e 94 66 25 	call	0x4acc	; 0x4acc <__subsf3>
    283c:	6a a7       	std	Y+42, r22	; 0x2a
    283e:	7b a7       	std	Y+43, r23	; 0x2b
    2840:	8c a7       	std	Y+44, r24	; 0x2c
    2842:	9d a7       	std	Y+45, r25	; 0x2d
    2844:	df 91       	pop	r29
    2846:	cf 91       	pop	r28
    2848:	1f 91       	pop	r17
    284a:	0f 91       	pop	r16
    284c:	ff 90       	pop	r15
    284e:	ef 90       	pop	r14
    2850:	df 90       	pop	r13
    2852:	cf 90       	pop	r12
    2854:	bf 90       	pop	r11
    2856:	af 90       	pop	r10
    2858:	7f 90       	pop	r7
    285a:	6f 90       	pop	r6
    285c:	5f 90       	pop	r5
    285e:	4f 90       	pop	r4
    2860:	08 95       	ret

00002862 <_ZN10Kinematics6getRPMEfff>:
    2862:	2f 92       	push	r2
    2864:	3f 92       	push	r3
    2866:	4f 92       	push	r4
    2868:	5f 92       	push	r5
    286a:	6f 92       	push	r6
    286c:	7f 92       	push	r7
    286e:	8f 92       	push	r8
    2870:	9f 92       	push	r9
    2872:	af 92       	push	r10
    2874:	bf 92       	push	r11
    2876:	cf 92       	push	r12
    2878:	df 92       	push	r13
    287a:	ef 92       	push	r14
    287c:	ff 92       	push	r15
    287e:	0f 93       	push	r16
    2880:	1f 93       	push	r17
    2882:	cf 93       	push	r28
    2884:	df 93       	push	r29
    2886:	cd b7       	in	r28, 0x3d	; 61
    2888:	de b7       	in	r29, 0x3e	; 62
    288a:	60 97       	sbiw	r28, 0x10	; 16
    288c:	0f b6       	in	r0, 0x3f	; 63
    288e:	f8 94       	cli
    2890:	de bf       	out	0x3e, r29	; 62
    2892:	0f be       	out	0x3f, r0	; 63
    2894:	cd bf       	out	0x3d, r28	; 61
    2896:	1c 01       	movw	r2, r24
    2898:	cb 01       	movw	r24, r22
    289a:	ba 01       	movw	r22, r20
    289c:	48 01       	movw	r8, r16
    289e:	59 01       	movw	r10, r18
    28a0:	20 e0       	ldi	r18, 0x00	; 0
    28a2:	30 e0       	ldi	r19, 0x00	; 0
    28a4:	40 e7       	ldi	r20, 0x70	; 112
    28a6:	52 e4       	ldi	r21, 0x42	; 66
    28a8:	0e 94 b6 27 	call	0x4f6c	; 0x4f6c <__mulsf3>
    28ac:	69 87       	std	Y+9, r22	; 0x09
    28ae:	7a 87       	std	Y+10, r23	; 0x0a
    28b0:	8b 87       	std	Y+11, r24	; 0x0b
    28b2:	9c 87       	std	Y+12, r25	; 0x0c
    28b4:	d1 01       	movw	r26, r2
    28b6:	6d 93       	st	X+, r22
    28b8:	7d 93       	st	X+, r23
    28ba:	8d 93       	st	X+, r24
    28bc:	9c 93       	st	X, r25
    28be:	13 97       	sbiw	r26, 0x03	; 3
    28c0:	20 e0       	ldi	r18, 0x00	; 0
    28c2:	30 e0       	ldi	r19, 0x00	; 0
    28c4:	40 e7       	ldi	r20, 0x70	; 112
    28c6:	52 e4       	ldi	r21, 0x42	; 66
    28c8:	c5 01       	movw	r24, r10
    28ca:	b4 01       	movw	r22, r8
    28cc:	0e 94 b6 27 	call	0x4f6c	; 0x4f6c <__mulsf3>
    28d0:	2b 01       	movw	r4, r22
    28d2:	3c 01       	movw	r6, r24
    28d4:	f1 01       	movw	r30, r2
    28d6:	64 83       	std	Z+4, r22	; 0x04
    28d8:	75 83       	std	Z+5, r23	; 0x05
    28da:	86 83       	std	Z+6, r24	; 0x06
    28dc:	97 83       	std	Z+7, r25	; 0x07
    28de:	20 e0       	ldi	r18, 0x00	; 0
    28e0:	30 e0       	ldi	r19, 0x00	; 0
    28e2:	40 e7       	ldi	r20, 0x70	; 112
    28e4:	52 e4       	ldi	r21, 0x42	; 66
    28e6:	c7 01       	movw	r24, r14
    28e8:	b6 01       	movw	r22, r12
    28ea:	0e 94 b6 27 	call	0x4f6c	; 0x4f6c <__mulsf3>
    28ee:	d1 01       	movw	r26, r2
    28f0:	18 96       	adiw	r26, 0x08	; 8
    28f2:	6d 93       	st	X+, r22
    28f4:	7d 93       	st	X+, r23
    28f6:	8d 93       	st	X+, r24
    28f8:	9c 93       	st	X, r25
    28fa:	1b 97       	sbiw	r26, 0x0b	; 11
    28fc:	96 96       	adiw	r26, 0x26	; 38
    28fe:	2d 91       	ld	r18, X+
    2900:	3d 91       	ld	r19, X+
    2902:	4d 91       	ld	r20, X+
    2904:	5c 91       	ld	r21, X
    2906:	99 97       	sbiw	r26, 0x29	; 41
    2908:	0e 94 b6 27 	call	0x4f6c	; 0x4f6c <__mulsf3>
    290c:	6d 87       	std	Y+13, r22	; 0x0d
    290e:	7e 87       	std	Y+14, r23	; 0x0e
    2910:	8f 87       	std	Y+15, r24	; 0x0f
    2912:	98 8b       	std	Y+16, r25	; 0x10
    2914:	f1 01       	movw	r30, r2
    2916:	60 8b       	std	Z+16, r22	; 0x10
    2918:	71 8b       	std	Z+17, r23	; 0x11
    291a:	82 8b       	std	Z+18, r24	; 0x12
    291c:	93 8b       	std	Z+19, r25	; 0x13
    291e:	84 84       	ldd	r8, Z+12	; 0x0c
    2920:	95 84       	ldd	r9, Z+13	; 0x0d
    2922:	a6 84       	ldd	r10, Z+14	; 0x0e
    2924:	b7 84       	ldd	r11, Z+15	; 0x0f
    2926:	a5 01       	movw	r20, r10
    2928:	94 01       	movw	r18, r8
    292a:	69 85       	ldd	r22, Y+9	; 0x09
    292c:	7a 85       	ldd	r23, Y+10	; 0x0a
    292e:	8b 85       	ldd	r24, Y+11	; 0x0b
    2930:	9c 85       	ldd	r25, Y+12	; 0x0c
    2932:	0e 94 d2 25 	call	0x4ba4	; 0x4ba4 <__divsf3>
    2936:	6b 01       	movw	r12, r22
    2938:	7c 01       	movw	r14, r24
    293a:	d1 01       	movw	r26, r2
    293c:	54 96       	adiw	r26, 0x14	; 20
    293e:	6d 93       	st	X+, r22
    2940:	7d 93       	st	X+, r23
    2942:	8d 93       	st	X+, r24
    2944:	9c 93       	st	X, r25
    2946:	57 97       	sbiw	r26, 0x17	; 23
    2948:	a5 01       	movw	r20, r10
    294a:	94 01       	movw	r18, r8
    294c:	c3 01       	movw	r24, r6
    294e:	b2 01       	movw	r22, r4
    2950:	0e 94 d2 25 	call	0x4ba4	; 0x4ba4 <__divsf3>
    2954:	2b 01       	movw	r4, r22
    2956:	3c 01       	movw	r6, r24
    2958:	f1 01       	movw	r30, r2
    295a:	60 8f       	std	Z+24, r22	; 0x18
    295c:	71 8f       	std	Z+25, r23	; 0x19
    295e:	82 8f       	std	Z+26, r24	; 0x1a
    2960:	93 8f       	std	Z+27, r25	; 0x1b
    2962:	a5 01       	movw	r20, r10
    2964:	94 01       	movw	r18, r8
    2966:	6d 85       	ldd	r22, Y+13	; 0x0d
    2968:	7e 85       	ldd	r23, Y+14	; 0x0e
    296a:	8f 85       	ldd	r24, Y+15	; 0x0f
    296c:	98 89       	ldd	r25, Y+16	; 0x10
    296e:	0e 94 d2 25 	call	0x4ba4	; 0x4ba4 <__divsf3>
    2972:	4b 01       	movw	r8, r22
    2974:	5c 01       	movw	r10, r24
    2976:	d1 01       	movw	r26, r2
    2978:	5c 96       	adiw	r26, 0x1c	; 28
    297a:	6d 93       	st	X+, r22
    297c:	7d 93       	st	X+, r23
    297e:	8d 93       	st	X+, r24
    2980:	9c 93       	st	X, r25
    2982:	5f 97       	sbiw	r26, 0x1f	; 31
    2984:	a3 01       	movw	r20, r6
    2986:	92 01       	movw	r18, r4
    2988:	c7 01       	movw	r24, r14
    298a:	b6 01       	movw	r22, r12
    298c:	0e 94 66 25 	call	0x4acc	; 0x4acc <__subsf3>
    2990:	69 87       	std	Y+9, r22	; 0x09
    2992:	7a 87       	std	Y+10, r23	; 0x0a
    2994:	8b 87       	std	Y+11, r24	; 0x0b
    2996:	9c 87       	std	Y+12, r25	; 0x0c
    2998:	a3 01       	movw	r20, r6
    299a:	92 01       	movw	r18, r4
    299c:	c7 01       	movw	r24, r14
    299e:	b6 01       	movw	r22, r12
    29a0:	0e 94 67 25 	call	0x4ace	; 0x4ace <__addsf3>
    29a4:	6b 01       	movw	r12, r22
    29a6:	7c 01       	movw	r14, r24
    29a8:	a5 01       	movw	r20, r10
    29aa:	94 01       	movw	r18, r8
    29ac:	69 85       	ldd	r22, Y+9	; 0x09
    29ae:	7a 85       	ldd	r23, Y+10	; 0x0a
    29b0:	8b 85       	ldd	r24, Y+11	; 0x0b
    29b2:	9c 85       	ldd	r25, Y+12	; 0x0c
    29b4:	0e 94 66 25 	call	0x4acc	; 0x4acc <__subsf3>
    29b8:	0e 94 3a 26 	call	0x4c74	; 0x4c74 <__fixsfsi>
    29bc:	66 2e       	mov	r6, r22
    29be:	7a 83       	std	Y+2, r23	; 0x02
    29c0:	69 83       	std	Y+1, r22	; 0x01
    29c2:	a5 01       	movw	r20, r10
    29c4:	94 01       	movw	r18, r8
    29c6:	c7 01       	movw	r24, r14
    29c8:	b6 01       	movw	r22, r12
    29ca:	0e 94 66 25 	call	0x4acc	; 0x4acc <__subsf3>
    29ce:	0e 94 3a 26 	call	0x4c74	; 0x4c74 <__fixsfsi>
    29d2:	76 2e       	mov	r7, r22
    29d4:	7c 83       	std	Y+4, r23	; 0x04
    29d6:	6b 83       	std	Y+3, r22	; 0x03
    29d8:	a5 01       	movw	r20, r10
    29da:	94 01       	movw	r18, r8
    29dc:	c7 01       	movw	r24, r14
    29de:	b6 01       	movw	r22, r12
    29e0:	0e 94 67 25 	call	0x4ace	; 0x4ace <__addsf3>
    29e4:	0e 94 3a 26 	call	0x4c74	; 0x4c74 <__fixsfsi>
    29e8:	f6 2e       	mov	r15, r22
    29ea:	7e 83       	std	Y+6, r23	; 0x06
    29ec:	6d 83       	std	Y+5, r22	; 0x05
    29ee:	a5 01       	movw	r20, r10
    29f0:	94 01       	movw	r18, r8
    29f2:	69 85       	ldd	r22, Y+9	; 0x09
    29f4:	7a 85       	ldd	r23, Y+10	; 0x0a
    29f6:	8b 85       	ldd	r24, Y+11	; 0x0b
    29f8:	9c 85       	ldd	r25, Y+12	; 0x0c
    29fa:	0e 94 67 25 	call	0x4ace	; 0x4ace <__addsf3>
    29fe:	0e 94 3a 26 	call	0x4c74	; 0x4c74 <__fixsfsi>
    2a02:	86 2f       	mov	r24, r22
    2a04:	26 2f       	mov	r18, r22
    2a06:	37 2f       	mov	r19, r23
    2a08:	38 87       	std	Y+8, r19	; 0x08
    2a0a:	2f 83       	std	Y+7, r18	; 0x07
    2a0c:	26 2d       	mov	r18, r6
    2a0e:	3a 81       	ldd	r19, Y+2	; 0x02
    2a10:	47 2d       	mov	r20, r7
    2a12:	5c 81       	ldd	r21, Y+4	; 0x04
    2a14:	6f 2d       	mov	r22, r15
    2a16:	7e 81       	ldd	r23, Y+6	; 0x06
    2a18:	98 85       	ldd	r25, Y+8	; 0x08
    2a1a:	60 96       	adiw	r28, 0x10	; 16
    2a1c:	0f b6       	in	r0, 0x3f	; 63
    2a1e:	f8 94       	cli
    2a20:	de bf       	out	0x3e, r29	; 62
    2a22:	0f be       	out	0x3f, r0	; 63
    2a24:	cd bf       	out	0x3d, r28	; 61
    2a26:	df 91       	pop	r29
    2a28:	cf 91       	pop	r28
    2a2a:	1f 91       	pop	r17
    2a2c:	0f 91       	pop	r16
    2a2e:	ff 90       	pop	r15
    2a30:	ef 90       	pop	r14
    2a32:	df 90       	pop	r13
    2a34:	cf 90       	pop	r12
    2a36:	bf 90       	pop	r11
    2a38:	af 90       	pop	r10
    2a3a:	9f 90       	pop	r9
    2a3c:	8f 90       	pop	r8
    2a3e:	7f 90       	pop	r7
    2a40:	6f 90       	pop	r6
    2a42:	5f 90       	pop	r5
    2a44:	4f 90       	pop	r4
    2a46:	3f 90       	pop	r3
    2a48:	2f 90       	pop	r2
    2a4a:	08 95       	ret

00002a4c <_ZN10Kinematics8rpmToPWMEi>:

int Kinematics::rpmToPWM(int rpm)
{
    2a4c:	cf 92       	push	r12
    2a4e:	df 92       	push	r13
    2a50:	ef 92       	push	r14
    2a52:	ff 92       	push	r15
    2a54:	cf 93       	push	r28
    2a56:	df 93       	push	r29
    2a58:	ec 01       	movw	r28, r24
	//remap scale of target RPM vs MAX_RPM to PWM
	return (((double) rpm / (double) max_rpm_) * pwm_res_);
    2a5a:	07 2e       	mov	r0, r23
    2a5c:	00 0c       	add	r0, r0
    2a5e:	88 0b       	sbc	r24, r24
    2a60:	99 0b       	sbc	r25, r25
    2a62:	0e 94 6d 26 	call	0x4cda	; 0x4cda <__floatsisf>
    2a66:	6b 01       	movw	r12, r22
    2a68:	7c 01       	movw	r14, r24
    2a6a:	48 a1       	ldd	r20, Y+32	; 0x20
    2a6c:	59 a1       	ldd	r21, Y+33	; 0x21
    2a6e:	ba 01       	movw	r22, r20
    2a70:	55 0f       	add	r21, r21
    2a72:	88 0b       	sbc	r24, r24
    2a74:	99 0b       	sbc	r25, r25
    2a76:	0e 94 6d 26 	call	0x4cda	; 0x4cda <__floatsisf>
    2a7a:	9b 01       	movw	r18, r22
    2a7c:	ac 01       	movw	r20, r24
    2a7e:	c7 01       	movw	r24, r14
    2a80:	b6 01       	movw	r22, r12
    2a82:	0e 94 d2 25 	call	0x4ba4	; 0x4ba4 <__divsf3>
    2a86:	2a a5       	ldd	r18, Y+42	; 0x2a
    2a88:	3b a5       	ldd	r19, Y+43	; 0x2b
    2a8a:	4c a5       	ldd	r20, Y+44	; 0x2c
    2a8c:	5d a5       	ldd	r21, Y+45	; 0x2d
    2a8e:	0e 94 b6 27 	call	0x4f6c	; 0x4f6c <__mulsf3>
    2a92:	0e 94 3a 26 	call	0x4c74	; 0x4c74 <__fixsfsi>
}
    2a96:	cb 01       	movw	r24, r22
    2a98:	df 91       	pop	r29
    2a9a:	cf 91       	pop	r28
    2a9c:	ff 90       	pop	r15
    2a9e:	ef 90       	pop	r14
    2aa0:	df 90       	pop	r13
    2aa2:	cf 90       	pop	r12
    2aa4:	08 95       	ret

00002aa6 <_ZN10Kinematics6getPWMEfff>:
	
	return rpm;
}

Kinematics::output Kinematics::getPWM(float linear_x, float linear_y, float angular_z)
{
    2aa6:	2f 92       	push	r2
    2aa8:	3f 92       	push	r3
    2aaa:	4f 92       	push	r4
    2aac:	5f 92       	push	r5
    2aae:	6f 92       	push	r6
    2ab0:	7f 92       	push	r7
    2ab2:	8f 92       	push	r8
    2ab4:	9f 92       	push	r9
    2ab6:	af 92       	push	r10
    2ab8:	bf 92       	push	r11
    2aba:	cf 92       	push	r12
    2abc:	df 92       	push	r13
    2abe:	ef 92       	push	r14
    2ac0:	ff 92       	push	r15
    2ac2:	0f 93       	push	r16
    2ac4:	1f 93       	push	r17
    2ac6:	cf 93       	push	r28
    2ac8:	df 93       	push	r29
    2aca:	cd b7       	in	r28, 0x3d	; 61
    2acc:	de b7       	in	r29, 0x3e	; 62
    2ace:	66 97       	sbiw	r28, 0x16	; 22
    2ad0:	0f b6       	in	r0, 0x3f	; 63
    2ad2:	f8 94       	cli
    2ad4:	de bf       	out	0x3e, r29	; 62
    2ad6:	0f be       	out	0x3f, r0	; 63
    2ad8:	cd bf       	out	0x3d, r28	; 61
    2ada:	1c 01       	movw	r2, r24
    2adc:	4a 01       	movw	r8, r20
    2ade:	5b 01       	movw	r10, r22
    2ae0:	09 8b       	std	Y+17, r16	; 0x11
    2ae2:	1a 8b       	std	Y+18, r17	; 0x12
    2ae4:	2b 8b       	std	Y+19, r18	; 0x13
    2ae6:	3c 8b       	std	Y+20, r19	; 0x14
    2ae8:	26 01       	movw	r4, r12
    2aea:	37 01       	movw	r6, r14
	Kinematics::output rpm;
	Kinematics::output pwm;

	rpm = getRPM(linear_x, linear_y, angular_z);
    2aec:	ba de       	rcall	.-652    	; 0x2862 <_ZN10Kinematics6getRPMEfff>
    2aee:	29 87       	std	Y+9, r18	; 0x09
    2af0:	3a 87       	std	Y+10, r19	; 0x0a
    2af2:	4b 87       	std	Y+11, r20	; 0x0b
    2af4:	5c 87       	std	Y+12, r21	; 0x0c
    2af6:	6d 87       	std	Y+13, r22	; 0x0d
    2af8:	7e 87       	std	Y+14, r23	; 0x0e
    2afa:	8f 87       	std	Y+15, r24	; 0x0f
    2afc:	98 8b       	std	Y+16, r25	; 0x10
    2afe:	cb 84       	ldd	r12, Y+11	; 0x0b
    2b00:	dc 84       	ldd	r13, Y+12	; 0x0c
    2b02:	0d 85       	ldd	r16, Y+13	; 0x0d
    2b04:	1e 85       	ldd	r17, Y+14	; 0x0e
    2b06:	ef 84       	ldd	r14, Y+15	; 0x0f
    2b08:	f8 88       	ldd	r15, Y+16	; 0x10

	//convert from RPM to PWM
	//front-left motor
	pwm.motor1 = rpmToPWM(rpm.motor1);
    2b0a:	69 85       	ldd	r22, Y+9	; 0x09
    2b0c:	7a 85       	ldd	r23, Y+10	; 0x0a
    2b0e:	c1 01       	movw	r24, r2
    2b10:	9d df       	rcall	.-198    	; 0x2a4c <_ZN10Kinematics8rpmToPWMEi>
    2b12:	38 2f       	mov	r19, r24
    2b14:	29 2f       	mov	r18, r25
	//rear-left motor
	pwm.motor2 = rpmToPWM(rpm.motor2);
    2b16:	b6 01       	movw	r22, r12
    2b18:	c1 01       	movw	r24, r2
    2b1a:	2e 8b       	std	Y+22, r18	; 0x16
    2b1c:	3d 8b       	std	Y+21, r19	; 0x15
    2b1e:	96 df       	rcall	.-212    	; 0x2a4c <_ZN10Kinematics8rpmToPWMEi>
    2b20:	6c 01       	movw	r12, r24

	//front-right motor
	pwm.motor3 = rpmToPWM(rpm.motor3);
    2b22:	b8 01       	movw	r22, r16
    2b24:	c1 01       	movw	r24, r2
    2b26:	92 df       	rcall	.-220    	; 0x2a4c <_ZN10Kinematics8rpmToPWMEi>
    2b28:	8c 01       	movw	r16, r24
	//rear-right motor
	pwm.motor4 = rpmToPWM(rpm.motor4);
    2b2a:	b7 01       	movw	r22, r14
    2b2c:	c1 01       	movw	r24, r2
    2b2e:	8e df       	rcall	.-228    	; 0x2a4c <_ZN10Kinematics8rpmToPWMEi>

	if (abs(pwm.motor1)>255||abs(pwm.motor2)>255||abs(pwm.motor3)>255||abs(pwm.motor4)>255)
    2b30:	3d 89       	ldd	r19, Y+21	; 0x15
    2b32:	43 2f       	mov	r20, r19
    2b34:	2e 89       	ldd	r18, Y+22	; 0x16
    2b36:	52 2f       	mov	r21, r18
    2b38:	57 ff       	sbrs	r21, 7
    2b3a:	03 c0       	rjmp	.+6      	; 0x2b42 <_ZN10Kinematics6getPWMEfff+0x9c>
    2b3c:	51 95       	neg	r21
    2b3e:	41 95       	neg	r20
    2b40:	51 09       	sbc	r21, r1
    2b42:	4f 3f       	cpi	r20, 0xFF	; 255
    2b44:	51 05       	cpc	r21, r1
    2b46:	09 f0       	breq	.+2      	; 0x2b4a <_ZN10Kinematics6getPWMEfff+0xa4>
    2b48:	f4 f4       	brge	.+60     	; 0x2b86 <_ZN10Kinematics6getPWMEfff+0xe0>
    2b4a:	96 01       	movw	r18, r12
    2b4c:	d7 fe       	sbrs	r13, 7
    2b4e:	03 c0       	rjmp	.+6      	; 0x2b56 <_ZN10Kinematics6getPWMEfff+0xb0>
    2b50:	31 95       	neg	r19
    2b52:	21 95       	neg	r18
    2b54:	31 09       	sbc	r19, r1
    2b56:	2f 3f       	cpi	r18, 0xFF	; 255
    2b58:	31 05       	cpc	r19, r1
    2b5a:	09 f0       	breq	.+2      	; 0x2b5e <_ZN10Kinematics6getPWMEfff+0xb8>
    2b5c:	a4 f4       	brge	.+40     	; 0x2b86 <_ZN10Kinematics6getPWMEfff+0xe0>
    2b5e:	98 01       	movw	r18, r16
    2b60:	17 ff       	sbrs	r17, 7
    2b62:	03 c0       	rjmp	.+6      	; 0x2b6a <_ZN10Kinematics6getPWMEfff+0xc4>
    2b64:	31 95       	neg	r19
    2b66:	21 95       	neg	r18
    2b68:	31 09       	sbc	r19, r1
    2b6a:	2f 3f       	cpi	r18, 0xFF	; 255
    2b6c:	31 05       	cpc	r19, r1
    2b6e:	09 f0       	breq	.+2      	; 0x2b72 <_ZN10Kinematics6getPWMEfff+0xcc>
    2b70:	54 f4       	brge	.+20     	; 0x2b86 <_ZN10Kinematics6getPWMEfff+0xe0>
    2b72:	9c 01       	movw	r18, r24
    2b74:	97 ff       	sbrs	r25, 7
    2b76:	03 c0       	rjmp	.+6      	; 0x2b7e <_ZN10Kinematics6getPWMEfff+0xd8>
    2b78:	31 95       	neg	r19
    2b7a:	21 95       	neg	r18
    2b7c:	31 09       	sbc	r19, r1
    2b7e:	2f 3f       	cpi	r18, 0xFF	; 255
    2b80:	31 05       	cpc	r19, r1
    2b82:	59 f0       	breq	.+22     	; 0x2b9a <_ZN10Kinematics6getPWMEfff+0xf4>
    2b84:	54 f0       	brlt	.+20     	; 0x2b9a <_ZN10Kinematics6getPWMEfff+0xf4>
	{
		linear_x /=4;
    2b86:	20 e0       	ldi	r18, 0x00	; 0
    2b88:	30 e0       	ldi	r19, 0x00	; 0
    2b8a:	40 e8       	ldi	r20, 0x80	; 128
    2b8c:	5e e3       	ldi	r21, 0x3E	; 62
    2b8e:	c5 01       	movw	r24, r10
    2b90:	b4 01       	movw	r22, r8
    2b92:	0e 94 b6 27 	call	0x4f6c	; 0x4f6c <__mulsf3>
    2b96:	4b 01       	movw	r8, r22
    2b98:	5c 01       	movw	r10, r24
	}
	rpm = getRPM(linear_x, linear_y, angular_z);
    2b9a:	73 01       	movw	r14, r6
    2b9c:	62 01       	movw	r12, r4
    2b9e:	09 89       	ldd	r16, Y+17	; 0x11
    2ba0:	1a 89       	ldd	r17, Y+18	; 0x12
    2ba2:	2b 89       	ldd	r18, Y+19	; 0x13
    2ba4:	3c 89       	ldd	r19, Y+20	; 0x14
    2ba6:	b5 01       	movw	r22, r10
    2ba8:	a4 01       	movw	r20, r8
    2baa:	c1 01       	movw	r24, r2
    2bac:	5a de       	rcall	.-844    	; 0x2862 <_ZN10Kinematics6getRPMEfff>
    2bae:	29 87       	std	Y+9, r18	; 0x09
    2bb0:	3a 87       	std	Y+10, r19	; 0x0a
    2bb2:	4b 87       	std	Y+11, r20	; 0x0b
    2bb4:	5c 87       	std	Y+12, r21	; 0x0c
    2bb6:	6d 87       	std	Y+13, r22	; 0x0d
    2bb8:	7e 87       	std	Y+14, r23	; 0x0e
    2bba:	8f 87       	std	Y+15, r24	; 0x0f
    2bbc:	98 8b       	std	Y+16, r25	; 0x10
    2bbe:	0b 85       	ldd	r16, Y+11	; 0x0b
    2bc0:	1c 85       	ldd	r17, Y+12	; 0x0c
    2bc2:	8d 84       	ldd	r8, Y+13	; 0x0d
    2bc4:	9e 84       	ldd	r9, Y+14	; 0x0e
    2bc6:	af 84       	ldd	r10, Y+15	; 0x0f
    2bc8:	b8 88       	ldd	r11, Y+16	; 0x10
	//convert from RPM to PWM
	//front-left motor
	pwm.motor1 = rpmToPWM(rpm.motor1);
    2bca:	69 85       	ldd	r22, Y+9	; 0x09
    2bcc:	7a 85       	ldd	r23, Y+10	; 0x0a
    2bce:	c1 01       	movw	r24, r2
    2bd0:	3d df       	rcall	.-390    	; 0x2a4c <_ZN10Kinematics8rpmToPWMEi>
    2bd2:	f8 2e       	mov	r15, r24
    2bd4:	c9 2e       	mov	r12, r25
	//rear-left motor
	pwm.motor2 = rpmToPWM(rpm.motor2);
    2bd6:	b8 01       	movw	r22, r16
    2bd8:	c1 01       	movw	r24, r2
    2bda:	38 df       	rcall	.-400    	; 0x2a4c <_ZN10Kinematics8rpmToPWMEi>
    2bdc:	08 2f       	mov	r16, r24
    2bde:	d9 2e       	mov	r13, r25

	//front-right motor
	pwm.motor3 = rpmToPWM(rpm.motor3);
    2be0:	b4 01       	movw	r22, r8
    2be2:	c1 01       	movw	r24, r2
    2be4:	33 df       	rcall	.-410    	; 0x2a4c <_ZN10Kinematics8rpmToPWMEi>
    2be6:	18 2f       	mov	r17, r24
    2be8:	e9 2e       	mov	r14, r25
	//rear-right motor
	pwm.motor4 = rpmToPWM(rpm.motor4);
    2bea:	b5 01       	movw	r22, r10
    2bec:	c1 01       	movw	r24, r2
    2bee:	2e df       	rcall	.-420    	; 0x2a4c <_ZN10Kinematics8rpmToPWMEi>
	return pwm;
    2bf0:	2f 2d       	mov	r18, r15
    2bf2:	3c 2d       	mov	r19, r12
    2bf4:	40 2f       	mov	r20, r16
    2bf6:	5d 2d       	mov	r21, r13
    2bf8:	61 2f       	mov	r22, r17
    2bfa:	7e 2d       	mov	r23, r14
}
    2bfc:	66 96       	adiw	r28, 0x16	; 22
    2bfe:	0f b6       	in	r0, 0x3f	; 63
    2c00:	f8 94       	cli
    2c02:	de bf       	out	0x3e, r29	; 62
    2c04:	0f be       	out	0x3f, r0	; 63
    2c06:	cd bf       	out	0x3d, r28	; 61
    2c08:	df 91       	pop	r29
    2c0a:	cf 91       	pop	r28
    2c0c:	1f 91       	pop	r17
    2c0e:	0f 91       	pop	r16
    2c10:	ff 90       	pop	r15
    2c12:	ef 90       	pop	r14
    2c14:	df 90       	pop	r13
    2c16:	cf 90       	pop	r12
    2c18:	bf 90       	pop	r11
    2c1a:	af 90       	pop	r10
    2c1c:	9f 90       	pop	r9
    2c1e:	8f 90       	pop	r8
    2c20:	7f 90       	pop	r7
    2c22:	6f 90       	pop	r6
    2c24:	5f 90       	pop	r5
    2c26:	4f 90       	pop	r4
    2c28:	3f 90       	pop	r3
    2c2a:	2f 90       	pop	r2
    2c2c:	08 95       	ret

00002c2e <_ZN6mMotorC1Ev>:


#include "mMotor.h"

// default constructor
mMotor::mMotor()
    2c2e:	fc 01       	movw	r30, r24
    2c30:	82 e0       	ldi	r24, 0x02	; 2
    2c32:	80 83       	st	Z, r24
    2c34:	83 e0       	ldi	r24, 0x03	; 3
    2c36:	81 83       	std	Z+1, r24	; 0x01
    2c38:	84 e0       	ldi	r24, 0x04	; 4
    2c3a:	82 83       	std	Z+2, r24	; 0x02
    2c3c:	85 e0       	ldi	r24, 0x05	; 5
    2c3e:	83 83       	std	Z+3, r24	; 0x03
    2c40:	15 82       	std	Z+5, r1	; 0x05
    2c42:	14 82       	std	Z+4, r1	; 0x04
    2c44:	81 e0       	ldi	r24, 0x01	; 1
    2c46:	90 e0       	ldi	r25, 0x00	; 0
    2c48:	97 83       	std	Z+7, r25	; 0x07
    2c4a:	86 83       	std	Z+6, r24	; 0x06
    2c4c:	11 86       	std	Z+9, r1	; 0x09
    2c4e:	10 86       	std	Z+8, r1	; 0x08
    2c50:	93 87       	std	Z+11, r25	; 0x0b
    2c52:	82 87       	std	Z+10, r24	; 0x0a
    2c54:	08 95       	ret

00002c56 <_ZN4mPS2C1Ev>:
//right now, the library does NOT support hot pluggable controllers, meaning
//you must always either restart your Arduino after you connect the controller,
//or call config_gamepad(pins) again after connecting the controller.
// default constructor

mPS2::mPS2()
    2c56:	fc 01       	movw	r30, r24
    2c58:	11 82       	std	Z+1, r1	; 0x01
    2c5a:	10 82       	st	Z, r1
    2c5c:	12 82       	std	Z+2, r1	; 0x02
    2c5e:	13 82       	std	Z+3, r1	; 0x03
    2c60:	14 82       	std	Z+4, r1	; 0x04
    2c62:	15 82       	std	Z+5, r1	; 0x05
    2c64:	16 82       	std	Z+6, r1	; 0x06
    2c66:	17 82       	std	Z+7, r1	; 0x07
    2c68:	10 86       	std	Z+8, r1	; 0x08
    2c6a:	11 86       	std	Z+9, r1	; 0x09
    2c6c:	12 86       	std	Z+10, r1	; 0x0a
    2c6e:	8f e7       	ldi	r24, 0x7F	; 127
    2c70:	90 e0       	ldi	r25, 0x00	; 0
    2c72:	94 87       	std	Z+12, r25	; 0x0c
    2c74:	83 87       	std	Z+11, r24	; 0x0b
    2c76:	96 87       	std	Z+14, r25	; 0x0e
    2c78:	85 87       	std	Z+13, r24	; 0x0d
    2c7a:	90 8b       	std	Z+16, r25	; 0x10
    2c7c:	87 87       	std	Z+15, r24	; 0x0f
    2c7e:	92 8b       	std	Z+18, r25	; 0x12
    2c80:	81 8b       	std	Z+17, r24	; 0x11
    2c82:	6c e7       	ldi	r22, 0x7C	; 124
    2c84:	7c e0       	ldi	r23, 0x0C	; 12
    2c86:	cf 01       	movw	r24, r30
    2c88:	43 96       	adiw	r24, 0x13	; 19
    2c8a:	0c 94 c1 32 	jmp	0x6582	; 0x6582 <_ZN6StringC1EPKc>

00002c8e <_ZN4mPS25beginEv>:
{
} //mPS2

void mPS2::begin()
{
    2c8e:	cf 92       	push	r12
    2c90:	ef 92       	push	r14
    2c92:	0f 93       	push	r16
    2c94:	cf 93       	push	r28
    2c96:	df 93       	push	r29
    2c98:	ec 01       	movw	r28, r24
  public:
    inline HardwareSerial(
      volatile uint8_t *ubrrh, volatile uint8_t *ubrrl,
      volatile uint8_t *ucsra, volatile uint8_t *ucsrb,
      volatile uint8_t *ucsrc, volatile uint8_t *udr);
    void begin(unsigned long baud) { begin(baud, SERIAL_8N1); }
    2c9a:	26 e0       	ldi	r18, 0x06	; 6
    2c9c:	40 e0       	ldi	r20, 0x00	; 0
    2c9e:	52 ec       	ldi	r21, 0xC2	; 194
    2ca0:	61 e0       	ldi	r22, 0x01	; 1
    2ca2:	70 e0       	ldi	r23, 0x00	; 0
    2ca4:	84 e8       	ldi	r24, 0x84	; 132
    2ca6:	9e e0       	ldi	r25, 0x0E	; 14
    2ca8:	0e 94 89 2a 	call	0x5512	; 0x5512 <_ZN14HardwareSerial5beginEmh>
	Serial.begin(115200);
	
	delay(300);  //added delay to give wireless ps2 module some time to startup, before configuring it
    2cac:	6c e2       	ldi	r22, 0x2C	; 44
    2cae:	71 e0       	ldi	r23, 0x01	; 1
    2cb0:	80 e0       	ldi	r24, 0x00	; 0
    2cb2:	90 e0       	ldi	r25, 0x00	; 0
    2cb4:	0e 94 8d 30 	call	0x611a	; 0x611a <delay>
	
	//CHANGES for v1.6 HERE!!! **************PAY ATTENTION*************
	
	//setup pins and settings: GamePad(clock, command, attention, data, Pressures?, Rumble?) check for error
	error = ps2x.config_gamepad(PS2_CLK, PS2_CMD, PS2_SEL, PS2_DAT, pressures, rumble);
    2cb8:	c1 2c       	mov	r12, r1
    2cba:	e1 2c       	mov	r14, r1
    2cbc:	0d e0       	ldi	r16, 0x0D	; 13
    2cbe:	2a e0       	ldi	r18, 0x0A	; 10
    2cc0:	4b e0       	ldi	r20, 0x0B	; 11
    2cc2:	6c e0       	ldi	r22, 0x0C	; 12
    2cc4:	88 eb       	ldi	r24, 0xB8	; 184
    2cc6:	9c e0       	ldi	r25, 0x0C	; 12
    2cc8:	49 d4       	rcall	.+2194   	; 0x355c <_ZN4PS2X14config_gamepadEhhhhbb>
    2cca:	28 2f       	mov	r18, r24
    2ccc:	30 e0       	ldi	r19, 0x00	; 0
    2cce:	39 83       	std	Y+1, r19	; 0x01
    2cd0:	28 83       	st	Y, r18
	
	if(error == 0){
    2cd2:	21 15       	cp	r18, r1
    2cd4:	31 05       	cpc	r19, r1
    2cd6:	69 f5       	brne	.+90     	; 0x2d32 <_ZN4mPS25beginEv+0xa4>
		Serial.print("Found Controller, configured successful ");
    2cd8:	60 e6       	ldi	r22, 0x60	; 96
    2cda:	77 e0       	ldi	r23, 0x07	; 7
    2cdc:	84 e8       	ldi	r24, 0x84	; 132
    2cde:	9e e0       	ldi	r25, 0x0E	; 14
    2ce0:	0e 94 73 2c 	call	0x58e6	; 0x58e6 <_ZN5Print5printEPKc>
		Serial.print("pressures = ");
    2ce4:	69 e8       	ldi	r22, 0x89	; 137
    2ce6:	77 e0       	ldi	r23, 0x07	; 7
    2ce8:	84 e8       	ldi	r24, 0x84	; 132
    2cea:	9e e0       	ldi	r25, 0x0E	; 14
    2cec:	0e 94 73 2c 	call	0x58e6	; 0x58e6 <_ZN5Print5printEPKc>
		if (pressures)
		Serial.println("true ");
		else
		Serial.println("false");
    2cf0:	66 e9       	ldi	r22, 0x96	; 150
    2cf2:	77 e0       	ldi	r23, 0x07	; 7
    2cf4:	84 e8       	ldi	r24, 0x84	; 132
    2cf6:	9e e0       	ldi	r25, 0x0E	; 14
    2cf8:	0e 94 7e 2c 	call	0x58fc	; 0x58fc <_ZN5Print7printlnEPKc>
		Serial.print("rumble = ");
    2cfc:	6c e9       	ldi	r22, 0x9C	; 156
    2cfe:	77 e0       	ldi	r23, 0x07	; 7
    2d00:	84 e8       	ldi	r24, 0x84	; 132
    2d02:	9e e0       	ldi	r25, 0x0E	; 14
    2d04:	0e 94 73 2c 	call	0x58e6	; 0x58e6 <_ZN5Print5printEPKc>
		if (rumble)
		Serial.println("true)");
		else
		Serial.println("false");
    2d08:	66 e9       	ldi	r22, 0x96	; 150
    2d0a:	77 e0       	ldi	r23, 0x07	; 7
    2d0c:	84 e8       	ldi	r24, 0x84	; 132
    2d0e:	9e e0       	ldi	r25, 0x0E	; 14
    2d10:	0e 94 7e 2c 	call	0x58fc	; 0x58fc <_ZN5Print7printlnEPKc>
		Serial.println("Try out all the buttons, X will vibrate the controller, faster as you press harder;");
    2d14:	66 ea       	ldi	r22, 0xA6	; 166
    2d16:	77 e0       	ldi	r23, 0x07	; 7
    2d18:	84 e8       	ldi	r24, 0x84	; 132
    2d1a:	9e e0       	ldi	r25, 0x0E	; 14
    2d1c:	0e 94 7e 2c 	call	0x58fc	; 0x58fc <_ZN5Print7printlnEPKc>
		Serial.println("holding L1 or R1 will print out the analog stick values.");
    2d20:	6a ef       	ldi	r22, 0xFA	; 250
    2d22:	77 e0       	ldi	r23, 0x07	; 7
    2d24:	84 e8       	ldi	r24, 0x84	; 132
    2d26:	9e e0       	ldi	r25, 0x0E	; 14
    2d28:	0e 94 7e 2c 	call	0x58fc	; 0x58fc <_ZN5Print7printlnEPKc>
		Serial.println("Note: Go to www.billporter.info for updates and to report bugs.");
    2d2c:	63 e3       	ldi	r22, 0x33	; 51
    2d2e:	78 e0       	ldi	r23, 0x08	; 8
    2d30:	11 c0       	rjmp	.+34     	; 0x2d54 <_ZN4mPS25beginEv+0xc6>
	}
	else if(error == 1)
    2d32:	21 30       	cpi	r18, 0x01	; 1
    2d34:	31 05       	cpc	r19, r1
    2d36:	19 f4       	brne	.+6      	; 0x2d3e <_ZN4mPS25beginEv+0xb0>
	Serial.println("No controller found, check wiring, see readme.txt to enable debug. visit www.billporter.info for troubleshooting tips");
    2d38:	63 e7       	ldi	r22, 0x73	; 115
    2d3a:	78 e0       	ldi	r23, 0x08	; 8
    2d3c:	0b c0       	rjmp	.+22     	; 0x2d54 <_ZN4mPS25beginEv+0xc6>
	
	else if(error == 2)
    2d3e:	22 30       	cpi	r18, 0x02	; 2
    2d40:	31 05       	cpc	r19, r1
    2d42:	19 f4       	brne	.+6      	; 0x2d4a <_ZN4mPS25beginEv+0xbc>
	Serial.println("Controller found but not accepting commands. see readme.txt to enable debug. Visit www.billporter.info for troubleshooting tips");
    2d44:	69 ee       	ldi	r22, 0xE9	; 233
    2d46:	78 e0       	ldi	r23, 0x08	; 8
    2d48:	05 c0       	rjmp	.+10     	; 0x2d54 <_ZN4mPS25beginEv+0xc6>

	else if(error == 3)
    2d4a:	23 30       	cpi	r18, 0x03	; 3
    2d4c:	31 05       	cpc	r19, r1
    2d4e:	31 f4       	brne	.+12     	; 0x2d5c <_ZN4mPS25beginEv+0xce>
	Serial.println("Controller refusing to enter Pressures mode, may not support it. ");
    2d50:	69 e6       	ldi	r22, 0x69	; 105
    2d52:	79 e0       	ldi	r23, 0x09	; 9
    2d54:	84 e8       	ldi	r24, 0x84	; 132
    2d56:	9e e0       	ldi	r25, 0x0E	; 14
    2d58:	0e 94 7e 2c 	call	0x58fc	; 0x58fc <_ZN5Print7printlnEPKc>
	
	//  Serial.print(ps2x.Analog(1), HEX);
	
	type = ps2x.readType();
    2d5c:	88 eb       	ldi	r24, 0xB8	; 184
    2d5e:	9c e0       	ldi	r25, 0x0C	; 12
    2d60:	ff d1       	rcall	.+1022   	; 0x3160 <_ZN4PS2X8readTypeEv>
    2d62:	8a 83       	std	Y+2, r24	; 0x02
	switch(type) {
    2d64:	81 30       	cpi	r24, 0x01	; 1
    2d66:	59 f0       	breq	.+22     	; 0x2d7e <_ZN4mPS25beginEv+0xf0>
    2d68:	38 f0       	brcs	.+14     	; 0x2d78 <_ZN4mPS25beginEv+0xea>
    2d6a:	82 30       	cpi	r24, 0x02	; 2
    2d6c:	59 f0       	breq	.+22     	; 0x2d84 <_ZN4mPS25beginEv+0xf6>
    2d6e:	83 30       	cpi	r24, 0x03	; 3
    2d70:	a1 f4       	brne	.+40     	; 0x2d9a <_ZN4mPS25beginEv+0x10c>
		break;
		case 2:
		Serial.print("GuitarHero Controller found ");
		break;
		case 3:
		Serial.print("Wireless Sony DualShock Controller found ");
    2d72:	67 ee       	ldi	r22, 0xE7	; 231
    2d74:	79 e0       	ldi	r23, 0x09	; 9
    2d76:	08 c0       	rjmp	.+16     	; 0x2d88 <_ZN4mPS25beginEv+0xfa>
	//  Serial.print(ps2x.Analog(1), HEX);
	
	type = ps2x.readType();
	switch(type) {
		case 0:
		Serial.print("Unknown Controller type found ");
    2d78:	6b ea       	ldi	r22, 0xAB	; 171
    2d7a:	79 e0       	ldi	r23, 0x09	; 9
    2d7c:	05 c0       	rjmp	.+10     	; 0x2d88 <_ZN4mPS25beginEv+0xfa>
		break;
		case 1:
		Serial.print("DualShock Controller found ");
    2d7e:	65 ef       	ldi	r22, 0xF5	; 245
    2d80:	79 e0       	ldi	r23, 0x09	; 9
    2d82:	02 c0       	rjmp	.+4      	; 0x2d88 <_ZN4mPS25beginEv+0xfa>
		break;
		case 2:
		Serial.print("GuitarHero Controller found ");
    2d84:	6a ec       	ldi	r22, 0xCA	; 202
    2d86:	79 e0       	ldi	r23, 0x09	; 9
		break;
		case 3:
		Serial.print("Wireless Sony DualShock Controller found ");
    2d88:	84 e8       	ldi	r24, 0x84	; 132
    2d8a:	9e e0       	ldi	r25, 0x0E	; 14
		break;
	}
}
    2d8c:	df 91       	pop	r29
    2d8e:	cf 91       	pop	r28
    2d90:	0f 91       	pop	r16
    2d92:	ef 90       	pop	r14
    2d94:	cf 90       	pop	r12
		break;
		case 2:
		Serial.print("GuitarHero Controller found ");
		break;
		case 3:
		Serial.print("Wireless Sony DualShock Controller found ");
    2d96:	0c 94 73 2c 	jmp	0x58e6	; 0x58e6 <_ZN5Print5printEPKc>
		break;
	}
}
    2d9a:	df 91       	pop	r29
    2d9c:	cf 91       	pop	r28
    2d9e:	0f 91       	pop	r16
    2da0:	ef 90       	pop	r14
    2da2:	cf 90       	pop	r12
    2da4:	08 95       	ret

00002da6 <_ZN4mPS27refreshEv>:

void mPS2::refresh()
{
    2da6:	cf 93       	push	r28
    2da8:	df 93       	push	r29
	if(type == 2){ //Guitar Hero Controller
    2daa:	fc 01       	movw	r30, r24
    2dac:	22 81       	ldd	r18, Z+2	; 0x02
    2dae:	22 30       	cpi	r18, 0x02	; 2
    2db0:	09 f4       	brne	.+2      	; 0x2db4 <_ZN4mPS27refreshEv+0xe>
    2db2:	71 c1       	rjmp	.+738    	; 0x3096 <_ZN4mPS27refreshEv+0x2f0>
    2db4:	ec 01       	movw	r28, r24
	}
	else { //DualShock Controller
		ps2x.read_gamepad(false, vibrate); //read controller and set large motor to spin at 'vibrate' speed
    2db6:	43 81       	ldd	r20, Z+3	; 0x03
    2db8:	60 e0       	ldi	r22, 0x00	; 0
    2dba:	88 eb       	ldi	r24, 0xB8	; 184
    2dbc:	9c e0       	ldi	r25, 0x0C	; 12
    2dbe:	cd d2       	rcall	.+1434   	; 0x335a <_ZN4PS2X12read_gamepadEbh>
		
		if(ps2x.Button(PSB_START))
    2dc0:	68 e0       	ldi	r22, 0x08	; 8
    2dc2:	70 e0       	ldi	r23, 0x00	; 0
    2dc4:	88 eb       	ldi	r24, 0xB8	; 184
    2dc6:	9c e0       	ldi	r25, 0x0C	; 12
    2dc8:	ba d1       	rcall	.+884    	; 0x313e <_ZN4PS2X6ButtonEj>
    2dca:	88 23       	and	r24, r24
    2dcc:	61 f0       	breq	.+24     	; 0x2de6 <_ZN4mPS27refreshEv+0x40>
		{
			Serial.println("Start is being held");
    2dce:	61 e1       	ldi	r22, 0x11	; 17
    2dd0:	7a e0       	ldi	r23, 0x0A	; 10
    2dd2:	84 e8       	ldi	r24, 0x84	; 132
    2dd4:	9e e0       	ldi	r25, 0x0E	; 14
    2dd6:	0e 94 7e 2c 	call	0x58fc	; 0x58fc <_ZN5Print7printlnEPKc>
			state = "Start is being held";
    2dda:	61 e1       	ldi	r22, 0x11	; 17
    2ddc:	7a e0       	ldi	r23, 0x0A	; 10
    2dde:	ce 01       	movw	r24, r28
    2de0:	43 96       	adiw	r24, 0x13	; 19
    2de2:	0e 94 f2 32 	call	0x65e4	; 0x65e4 <_ZN6StringaSEPKc>
		}
		//will be TRUE as long as button is pressed

		
		if(ps2x.Button(PSB_SELECT)){Serial.println("Select is being held");state="Select is being held";}
    2de6:	61 e0       	ldi	r22, 0x01	; 1
    2de8:	70 e0       	ldi	r23, 0x00	; 0
    2dea:	88 eb       	ldi	r24, 0xB8	; 184
    2dec:	9c e0       	ldi	r25, 0x0C	; 12
    2dee:	a7 d1       	rcall	.+846    	; 0x313e <_ZN4PS2X6ButtonEj>
    2df0:	88 23       	and	r24, r24
    2df2:	61 f0       	breq	.+24     	; 0x2e0c <_ZN4mPS27refreshEv+0x66>
    2df4:	65 e2       	ldi	r22, 0x25	; 37
    2df6:	7a e0       	ldi	r23, 0x0A	; 10
    2df8:	84 e8       	ldi	r24, 0x84	; 132
    2dfa:	9e e0       	ldi	r25, 0x0E	; 14
    2dfc:	0e 94 7e 2c 	call	0x58fc	; 0x58fc <_ZN5Print7printlnEPKc>
    2e00:	65 e2       	ldi	r22, 0x25	; 37
    2e02:	7a e0       	ldi	r23, 0x0A	; 10
    2e04:	ce 01       	movw	r24, r28
    2e06:	43 96       	adiw	r24, 0x13	; 19
    2e08:	0e 94 f2 32 	call	0x65e4	; 0x65e4 <_ZN6StringaSEPKc>
		
		if(ps2x.Button(PSB_PAD_UP)) {      //will be TRUE as long as button is pressed
    2e0c:	60 e1       	ldi	r22, 0x10	; 16
    2e0e:	70 e0       	ldi	r23, 0x00	; 0
    2e10:	88 eb       	ldi	r24, 0xB8	; 184
    2e12:	9c e0       	ldi	r25, 0x0C	; 12
    2e14:	94 d1       	rcall	.+808    	; 0x313e <_ZN4PS2X6ButtonEj>
    2e16:	88 23       	and	r24, r24
    2e18:	c9 f0       	breq	.+50     	; 0x2e4c <_ZN4mPS27refreshEv+0xa6>
			Serial.print("Up held this hard: ");
    2e1a:	6a e3       	ldi	r22, 0x3A	; 58
    2e1c:	7a e0       	ldi	r23, 0x0A	; 10
    2e1e:	84 e8       	ldi	r24, 0x84	; 132
    2e20:	9e e0       	ldi	r25, 0x0E	; 14
    2e22:	0e 94 73 2c 	call	0x58e6	; 0x58e6 <_ZN5Print5printEPKc>
			Serial.println(ps2x.Analog(PSAB_PAD_UP), DEC);
    2e26:	6b e0       	ldi	r22, 0x0B	; 11
    2e28:	88 eb       	ldi	r24, 0xB8	; 184
    2e2a:	9c e0       	ldi	r25, 0x0C	; 12
    2e2c:	94 d1       	rcall	.+808    	; 0x3156 <_ZN4PS2X6AnalogEh>
    2e2e:	4a e0       	ldi	r20, 0x0A	; 10
    2e30:	50 e0       	ldi	r21, 0x00	; 0
    2e32:	68 2f       	mov	r22, r24
    2e34:	84 e8       	ldi	r24, 0x84	; 132
    2e36:	9e e0       	ldi	r25, 0x0E	; 14
    2e38:	0e 94 4e 2d 	call	0x5a9c	; 0x5a9c <_ZN5Print7printlnEhi>
			up = true;
    2e3c:	81 e0       	ldi	r24, 0x01	; 1
    2e3e:	8c 83       	std	Y+4, r24	; 0x04
			state = "up is being held";
    2e40:	6e e4       	ldi	r22, 0x4E	; 78
    2e42:	7a e0       	ldi	r23, 0x0A	; 10
    2e44:	ce 01       	movw	r24, r28
    2e46:	43 96       	adiw	r24, 0x13	; 19
    2e48:	0e 94 f2 32 	call	0x65e4	; 0x65e4 <_ZN6StringaSEPKc>
		}
		if(ps2x.Button(PSB_PAD_RIGHT)){
    2e4c:	60 e2       	ldi	r22, 0x20	; 32
    2e4e:	70 e0       	ldi	r23, 0x00	; 0
    2e50:	88 eb       	ldi	r24, 0xB8	; 184
    2e52:	9c e0       	ldi	r25, 0x0C	; 12
    2e54:	74 d1       	rcall	.+744    	; 0x313e <_ZN4PS2X6ButtonEj>
    2e56:	88 23       	and	r24, r24
    2e58:	c9 f0       	breq	.+50     	; 0x2e8c <_ZN4mPS27refreshEv+0xe6>
			Serial.print("Right held this hard: ");
    2e5a:	6f e5       	ldi	r22, 0x5F	; 95
    2e5c:	7a e0       	ldi	r23, 0x0A	; 10
    2e5e:	84 e8       	ldi	r24, 0x84	; 132
    2e60:	9e e0       	ldi	r25, 0x0E	; 14
    2e62:	0e 94 73 2c 	call	0x58e6	; 0x58e6 <_ZN5Print5printEPKc>
			Serial.println(ps2x.Analog(PSAB_PAD_RIGHT), DEC);
    2e66:	69 e0       	ldi	r22, 0x09	; 9
    2e68:	88 eb       	ldi	r24, 0xB8	; 184
    2e6a:	9c e0       	ldi	r25, 0x0C	; 12
    2e6c:	74 d1       	rcall	.+744    	; 0x3156 <_ZN4PS2X6AnalogEh>
    2e6e:	4a e0       	ldi	r20, 0x0A	; 10
    2e70:	50 e0       	ldi	r21, 0x00	; 0
    2e72:	68 2f       	mov	r22, r24
    2e74:	84 e8       	ldi	r24, 0x84	; 132
    2e76:	9e e0       	ldi	r25, 0x0E	; 14
    2e78:	0e 94 4e 2d 	call	0x5a9c	; 0x5a9c <_ZN5Print7printlnEhi>
			right = true;
    2e7c:	81 e0       	ldi	r24, 0x01	; 1
    2e7e:	8f 83       	std	Y+7, r24	; 0x07
			state = "Right is being held";
    2e80:	66 e7       	ldi	r22, 0x76	; 118
    2e82:	7a e0       	ldi	r23, 0x0A	; 10
    2e84:	ce 01       	movw	r24, r28
    2e86:	43 96       	adiw	r24, 0x13	; 19
    2e88:	0e 94 f2 32 	call	0x65e4	; 0x65e4 <_ZN6StringaSEPKc>
		}
		if(ps2x.Button(PSB_PAD_LEFT)){
    2e8c:	60 e8       	ldi	r22, 0x80	; 128
    2e8e:	70 e0       	ldi	r23, 0x00	; 0
    2e90:	88 eb       	ldi	r24, 0xB8	; 184
    2e92:	9c e0       	ldi	r25, 0x0C	; 12
    2e94:	54 d1       	rcall	.+680    	; 0x313e <_ZN4PS2X6ButtonEj>
    2e96:	88 23       	and	r24, r24
    2e98:	c9 f0       	breq	.+50     	; 0x2ecc <_ZN4mPS27refreshEv+0x126>
			Serial.print("LEFT held this hard: ");
    2e9a:	6a e8       	ldi	r22, 0x8A	; 138
    2e9c:	7a e0       	ldi	r23, 0x0A	; 10
    2e9e:	84 e8       	ldi	r24, 0x84	; 132
    2ea0:	9e e0       	ldi	r25, 0x0E	; 14
    2ea2:	0e 94 73 2c 	call	0x58e6	; 0x58e6 <_ZN5Print5printEPKc>
			Serial.println(ps2x.Analog(PSAB_PAD_LEFT), DEC);
    2ea6:	6a e0       	ldi	r22, 0x0A	; 10
    2ea8:	88 eb       	ldi	r24, 0xB8	; 184
    2eaa:	9c e0       	ldi	r25, 0x0C	; 12
    2eac:	54 d1       	rcall	.+680    	; 0x3156 <_ZN4PS2X6AnalogEh>
    2eae:	4a e0       	ldi	r20, 0x0A	; 10
    2eb0:	50 e0       	ldi	r21, 0x00	; 0
    2eb2:	68 2f       	mov	r22, r24
    2eb4:	84 e8       	ldi	r24, 0x84	; 132
    2eb6:	9e e0       	ldi	r25, 0x0E	; 14
    2eb8:	0e 94 4e 2d 	call	0x5a9c	; 0x5a9c <_ZN5Print7printlnEhi>
			left = true;
    2ebc:	81 e0       	ldi	r24, 0x01	; 1
    2ebe:	8e 83       	std	Y+6, r24	; 0x06
			state = "LEFT is being held";
    2ec0:	60 ea       	ldi	r22, 0xA0	; 160
    2ec2:	7a e0       	ldi	r23, 0x0A	; 10
    2ec4:	ce 01       	movw	r24, r28
    2ec6:	43 96       	adiw	r24, 0x13	; 19
    2ec8:	0e 94 f2 32 	call	0x65e4	; 0x65e4 <_ZN6StringaSEPKc>
		}
		if(ps2x.Button(PSB_PAD_DOWN)){
    2ecc:	60 e4       	ldi	r22, 0x40	; 64
    2ece:	70 e0       	ldi	r23, 0x00	; 0
    2ed0:	88 eb       	ldi	r24, 0xB8	; 184
    2ed2:	9c e0       	ldi	r25, 0x0C	; 12
    2ed4:	34 d1       	rcall	.+616    	; 0x313e <_ZN4PS2X6ButtonEj>
    2ed6:	88 23       	and	r24, r24
    2ed8:	c9 f0       	breq	.+50     	; 0x2f0c <_ZN4mPS27refreshEv+0x166>
			Serial.print("DOWN held this hard: ");
    2eda:	63 eb       	ldi	r22, 0xB3	; 179
    2edc:	7a e0       	ldi	r23, 0x0A	; 10
    2ede:	84 e8       	ldi	r24, 0x84	; 132
    2ee0:	9e e0       	ldi	r25, 0x0E	; 14
    2ee2:	0e 94 73 2c 	call	0x58e6	; 0x58e6 <_ZN5Print5printEPKc>
			Serial.println(ps2x.Analog(PSAB_PAD_DOWN), DEC);
    2ee6:	6c e0       	ldi	r22, 0x0C	; 12
    2ee8:	88 eb       	ldi	r24, 0xB8	; 184
    2eea:	9c e0       	ldi	r25, 0x0C	; 12
    2eec:	34 d1       	rcall	.+616    	; 0x3156 <_ZN4PS2X6AnalogEh>
    2eee:	4a e0       	ldi	r20, 0x0A	; 10
    2ef0:	50 e0       	ldi	r21, 0x00	; 0
    2ef2:	68 2f       	mov	r22, r24
    2ef4:	84 e8       	ldi	r24, 0x84	; 132
    2ef6:	9e e0       	ldi	r25, 0x0E	; 14
    2ef8:	0e 94 4e 2d 	call	0x5a9c	; 0x5a9c <_ZN5Print7printlnEhi>
			down = true;
    2efc:	81 e0       	ldi	r24, 0x01	; 1
    2efe:	8d 83       	std	Y+5, r24	; 0x05
			state = "DOWN is being held";
    2f00:	69 ec       	ldi	r22, 0xC9	; 201
    2f02:	7a e0       	ldi	r23, 0x0A	; 10
    2f04:	ce 01       	movw	r24, r28
    2f06:	43 96       	adiw	r24, 0x13	; 19
    2f08:	0e 94 f2 32 	call	0x65e4	; 0x65e4 <_ZN6StringaSEPKc>
		}

		vibrate = ps2x.Analog(PSAB_CROSS);  //this will set the large motor vibrate speed based on how hard you press the blue (X) button
    2f0c:	6f e0       	ldi	r22, 0x0F	; 15
    2f0e:	88 eb       	ldi	r24, 0xB8	; 184
    2f10:	9c e0       	ldi	r25, 0x0C	; 12
    2f12:	21 d1       	rcall	.+578    	; 0x3156 <_ZN4PS2X6AnalogEh>
    2f14:	8b 83       	std	Y+3, r24	; 0x03
		if (ps2x.NewButtonState()) {        //will be TRUE if any button changes state (on to off, or off to on)
    2f16:	88 eb       	ldi	r24, 0xB8	; 184
    2f18:	9c e0       	ldi	r25, 0x0C	; 12
    2f1a:	c0 d0       	rcall	.+384    	; 0x309c <_ZN4PS2X14NewButtonStateEv>
    2f1c:	88 23       	and	r24, r24
    2f1e:	09 f4       	brne	.+2      	; 0x2f22 <_ZN4mPS27refreshEv+0x17c>
    2f20:	5f c0       	rjmp	.+190    	; 0x2fe0 <_ZN4mPS27refreshEv+0x23a>
			if(ps2x.Button(PSB_L3)){Serial.println("L3 pressed");state = "L3 is being held";}
    2f22:	62 e0       	ldi	r22, 0x02	; 2
    2f24:	70 e0       	ldi	r23, 0x00	; 0
    2f26:	88 eb       	ldi	r24, 0xB8	; 184
    2f28:	9c e0       	ldi	r25, 0x0C	; 12
    2f2a:	09 d1       	rcall	.+530    	; 0x313e <_ZN4PS2X6ButtonEj>
    2f2c:	88 23       	and	r24, r24
    2f2e:	61 f0       	breq	.+24     	; 0x2f48 <_ZN4mPS27refreshEv+0x1a2>
    2f30:	6c ed       	ldi	r22, 0xDC	; 220
    2f32:	7a e0       	ldi	r23, 0x0A	; 10
    2f34:	84 e8       	ldi	r24, 0x84	; 132
    2f36:	9e e0       	ldi	r25, 0x0E	; 14
    2f38:	0e 94 7e 2c 	call	0x58fc	; 0x58fc <_ZN5Print7printlnEPKc>
    2f3c:	67 ee       	ldi	r22, 0xE7	; 231
    2f3e:	7a e0       	ldi	r23, 0x0A	; 10
    2f40:	ce 01       	movw	r24, r28
    2f42:	43 96       	adiw	r24, 0x13	; 19
    2f44:	0e 94 f2 32 	call	0x65e4	; 0x65e4 <_ZN6StringaSEPKc>
			
			if(ps2x.Button(PSB_R3)){Serial.println("R3 pressed");state = "R3 is being held";}
    2f48:	64 e0       	ldi	r22, 0x04	; 4
    2f4a:	70 e0       	ldi	r23, 0x00	; 0
    2f4c:	88 eb       	ldi	r24, 0xB8	; 184
    2f4e:	9c e0       	ldi	r25, 0x0C	; 12
    2f50:	f6 d0       	rcall	.+492    	; 0x313e <_ZN4PS2X6ButtonEj>
    2f52:	88 23       	and	r24, r24
    2f54:	61 f0       	breq	.+24     	; 0x2f6e <_ZN4mPS27refreshEv+0x1c8>
    2f56:	68 ef       	ldi	r22, 0xF8	; 248
    2f58:	7a e0       	ldi	r23, 0x0A	; 10
    2f5a:	84 e8       	ldi	r24, 0x84	; 132
    2f5c:	9e e0       	ldi	r25, 0x0E	; 14
    2f5e:	0e 94 7e 2c 	call	0x58fc	; 0x58fc <_ZN5Print7printlnEPKc>
    2f62:	63 e0       	ldi	r22, 0x03	; 3
    2f64:	7b e0       	ldi	r23, 0x0B	; 11
    2f66:	ce 01       	movw	r24, r28
    2f68:	43 96       	adiw	r24, 0x13	; 19
    2f6a:	0e 94 f2 32 	call	0x65e4	; 0x65e4 <_ZN6StringaSEPKc>

			if(ps2x.Button(PSB_L2)){Serial.println("L2 pressed");state = "L2 is being held";}
    2f6e:	60 e0       	ldi	r22, 0x00	; 0
    2f70:	71 e0       	ldi	r23, 0x01	; 1
    2f72:	88 eb       	ldi	r24, 0xB8	; 184
    2f74:	9c e0       	ldi	r25, 0x0C	; 12
    2f76:	e3 d0       	rcall	.+454    	; 0x313e <_ZN4PS2X6ButtonEj>
    2f78:	88 23       	and	r24, r24
    2f7a:	61 f0       	breq	.+24     	; 0x2f94 <_ZN4mPS27refreshEv+0x1ee>
    2f7c:	64 e1       	ldi	r22, 0x14	; 20
    2f7e:	7b e0       	ldi	r23, 0x0B	; 11
    2f80:	84 e8       	ldi	r24, 0x84	; 132
    2f82:	9e e0       	ldi	r25, 0x0E	; 14
    2f84:	0e 94 7e 2c 	call	0x58fc	; 0x58fc <_ZN5Print7printlnEPKc>
    2f88:	6f e1       	ldi	r22, 0x1F	; 31
    2f8a:	7b e0       	ldi	r23, 0x0B	; 11
    2f8c:	ce 01       	movw	r24, r28
    2f8e:	43 96       	adiw	r24, 0x13	; 19
    2f90:	0e 94 f2 32 	call	0x65e4	; 0x65e4 <_ZN6StringaSEPKc>
			
			if(ps2x.Button(PSB_R2)){Serial.println("R2 pressed");state = "R2 is being held";}
    2f94:	60 e0       	ldi	r22, 0x00	; 0
    2f96:	72 e0       	ldi	r23, 0x02	; 2
    2f98:	88 eb       	ldi	r24, 0xB8	; 184
    2f9a:	9c e0       	ldi	r25, 0x0C	; 12
    2f9c:	d0 d0       	rcall	.+416    	; 0x313e <_ZN4PS2X6ButtonEj>
    2f9e:	88 23       	and	r24, r24
    2fa0:	61 f0       	breq	.+24     	; 0x2fba <_ZN4mPS27refreshEv+0x214>
    2fa2:	60 e3       	ldi	r22, 0x30	; 48
    2fa4:	7b e0       	ldi	r23, 0x0B	; 11
    2fa6:	84 e8       	ldi	r24, 0x84	; 132
    2fa8:	9e e0       	ldi	r25, 0x0E	; 14
    2faa:	0e 94 7e 2c 	call	0x58fc	; 0x58fc <_ZN5Print7printlnEPKc>
    2fae:	6b e3       	ldi	r22, 0x3B	; 59
    2fb0:	7b e0       	ldi	r23, 0x0B	; 11
    2fb2:	ce 01       	movw	r24, r28
    2fb4:	43 96       	adiw	r24, 0x13	; 19
    2fb6:	0e 94 f2 32 	call	0x65e4	; 0x65e4 <_ZN6StringaSEPKc>

			if(ps2x.Button(PSB_TRIANGLE)){Serial.println("Triangle pressed");state = "Triangle is being held";}
    2fba:	60 e0       	ldi	r22, 0x00	; 0
    2fbc:	70 e1       	ldi	r23, 0x10	; 16
    2fbe:	88 eb       	ldi	r24, 0xB8	; 184
    2fc0:	9c e0       	ldi	r25, 0x0C	; 12
    2fc2:	bd d0       	rcall	.+378    	; 0x313e <_ZN4PS2X6ButtonEj>
    2fc4:	88 23       	and	r24, r24
    2fc6:	61 f0       	breq	.+24     	; 0x2fe0 <_ZN4mPS27refreshEv+0x23a>
    2fc8:	6c e4       	ldi	r22, 0x4C	; 76
    2fca:	7b e0       	ldi	r23, 0x0B	; 11
    2fcc:	84 e8       	ldi	r24, 0x84	; 132
    2fce:	9e e0       	ldi	r25, 0x0E	; 14
    2fd0:	0e 94 7e 2c 	call	0x58fc	; 0x58fc <_ZN5Print7printlnEPKc>
    2fd4:	6d e5       	ldi	r22, 0x5D	; 93
    2fd6:	7b e0       	ldi	r23, 0x0B	; 11
    2fd8:	ce 01       	movw	r24, r28
    2fda:	43 96       	adiw	r24, 0x13	; 19
    2fdc:	0e 94 f2 32 	call	0x65e4	; 0x65e4 <_ZN6StringaSEPKc>

		}

		if(ps2x.ButtonPressed(PSB_CIRCLE)){Serial.println("Circle just pressed");shot_left = true;state = "Circle is being held";}
    2fe0:	60 e0       	ldi	r22, 0x00	; 0
    2fe2:	70 e2       	ldi	r23, 0x20	; 32
    2fe4:	88 eb       	ldi	r24, 0xB8	; 184
    2fe6:	9c e0       	ldi	r25, 0x0C	; 12
    2fe8:	72 d0       	rcall	.+228    	; 0x30ce <_ZN4PS2X13ButtonPressedEj>
    2fea:	88 23       	and	r24, r24
    2fec:	71 f0       	breq	.+28     	; 0x300a <_ZN4mPS27refreshEv+0x264>
    2fee:	64 e7       	ldi	r22, 0x74	; 116
    2ff0:	7b e0       	ldi	r23, 0x0B	; 11
    2ff2:	84 e8       	ldi	r24, 0x84	; 132
    2ff4:	9e e0       	ldi	r25, 0x0E	; 14
    2ff6:	0e 94 7e 2c 	call	0x58fc	; 0x58fc <_ZN5Print7printlnEPKc>
    2ffa:	81 e0       	ldi	r24, 0x01	; 1
    2ffc:	89 87       	std	Y+9, r24	; 0x09
    2ffe:	68 e8       	ldi	r22, 0x88	; 136
    3000:	7b e0       	ldi	r23, 0x0B	; 11
    3002:	ce 01       	movw	r24, r28
    3004:	43 96       	adiw	r24, 0x13	; 19
    3006:	0e 94 f2 32 	call	0x65e4	; 0x65e4 <_ZN6StringaSEPKc>
		
		if(ps2x.NewButtonState(PSB_CROSS)){Serial.println("X just changed");shot = true;state = "X is being held";}
    300a:	60 e0       	ldi	r22, 0x00	; 0
    300c:	70 e4       	ldi	r23, 0x40	; 64
    300e:	88 eb       	ldi	r24, 0xB8	; 184
    3010:	9c e0       	ldi	r25, 0x0C	; 12
    3012:	4f d0       	rcall	.+158    	; 0x30b2 <_ZN4PS2X14NewButtonStateEj>
    3014:	88 23       	and	r24, r24
    3016:	71 f0       	breq	.+28     	; 0x3034 <_ZN4mPS27refreshEv+0x28e>
    3018:	6d e9       	ldi	r22, 0x9D	; 157
    301a:	7b e0       	ldi	r23, 0x0B	; 11
    301c:	84 e8       	ldi	r24, 0x84	; 132
    301e:	9e e0       	ldi	r25, 0x0E	; 14
    3020:	0e 94 7e 2c 	call	0x58fc	; 0x58fc <_ZN5Print7printlnEPKc>
    3024:	81 e0       	ldi	r24, 0x01	; 1
    3026:	8a 87       	std	Y+10, r24	; 0x0a
    3028:	6c ea       	ldi	r22, 0xAC	; 172
    302a:	7b e0       	ldi	r23, 0x0B	; 11
    302c:	ce 01       	movw	r24, r28
    302e:	43 96       	adiw	r24, 0x13	; 19
    3030:	0e 94 f2 32 	call	0x65e4	; 0x65e4 <_ZN6StringaSEPKc>
		
		if(ps2x.ButtonReleased(PSB_SQUARE)){Serial.println("Square just released");shot_left = true;state = "Square is being held";}              //will be TRUE if button was JUST released
    3034:	60 e0       	ldi	r22, 0x00	; 0
    3036:	70 e8       	ldi	r23, 0x80	; 128
    3038:	88 eb       	ldi	r24, 0xB8	; 184
    303a:	9c e0       	ldi	r25, 0x0C	; 12
    303c:	64 d0       	rcall	.+200    	; 0x3106 <_ZN4PS2X14ButtonReleasedEj>
    303e:	88 23       	and	r24, r24
    3040:	71 f0       	breq	.+28     	; 0x305e <_ZN4mPS27refreshEv+0x2b8>
    3042:	6c eb       	ldi	r22, 0xBC	; 188
    3044:	7b e0       	ldi	r23, 0x0B	; 11
    3046:	84 e8       	ldi	r24, 0x84	; 132
    3048:	9e e0       	ldi	r25, 0x0E	; 14
    304a:	0e 94 7e 2c 	call	0x58fc	; 0x58fc <_ZN5Print7printlnEPKc>
    304e:	81 e0       	ldi	r24, 0x01	; 1
    3050:	89 87       	std	Y+9, r24	; 0x09
    3052:	61 ed       	ldi	r22, 0xD1	; 209
    3054:	7b e0       	ldi	r23, 0x0B	; 11
    3056:	ce 01       	movw	r24, r28
    3058:	43 96       	adiw	r24, 0x13	; 19
    305a:	0e 94 f2 32 	call	0x65e4	; 0x65e4 <_ZN6StringaSEPKc>
		
		if(1) { //print stick values if either is TRUE
			analog_LY = ps2x.Analog(PSS_LY);
    305e:	68 e0       	ldi	r22, 0x08	; 8
    3060:	88 eb       	ldi	r24, 0xB8	; 184
    3062:	9c e0       	ldi	r25, 0x0C	; 12
    3064:	78 d0       	rcall	.+240    	; 0x3156 <_ZN4PS2X6AnalogEh>
    3066:	90 e0       	ldi	r25, 0x00	; 0
    3068:	9c 87       	std	Y+12, r25	; 0x0c
    306a:	8b 87       	std	Y+11, r24	; 0x0b
			analog_LX = ps2x.Analog(PSS_LX);
    306c:	67 e0       	ldi	r22, 0x07	; 7
    306e:	88 eb       	ldi	r24, 0xB8	; 184
    3070:	9c e0       	ldi	r25, 0x0C	; 12
    3072:	71 d0       	rcall	.+226    	; 0x3156 <_ZN4PS2X6AnalogEh>
    3074:	90 e0       	ldi	r25, 0x00	; 0
    3076:	9e 87       	std	Y+14, r25	; 0x0e
    3078:	8d 87       	std	Y+13, r24	; 0x0d
			analog_RY = ps2x.Analog(PSS_RY);
    307a:	66 e0       	ldi	r22, 0x06	; 6
    307c:	88 eb       	ldi	r24, 0xB8	; 184
    307e:	9c e0       	ldi	r25, 0x0C	; 12
    3080:	6a d0       	rcall	.+212    	; 0x3156 <_ZN4PS2X6AnalogEh>
    3082:	90 e0       	ldi	r25, 0x00	; 0
    3084:	98 8b       	std	Y+16, r25	; 0x10
    3086:	8f 87       	std	Y+15, r24	; 0x0f
			analog_RX = ps2x.Analog(PSS_RX);
    3088:	65 e0       	ldi	r22, 0x05	; 5
    308a:	88 eb       	ldi	r24, 0xB8	; 184
    308c:	9c e0       	ldi	r25, 0x0C	; 12
    308e:	63 d0       	rcall	.+198    	; 0x3156 <_ZN4PS2X6AnalogEh>
    3090:	90 e0       	ldi	r25, 0x00	; 0
    3092:	9a 8b       	std	Y+18, r25	; 0x12
    3094:	89 8b       	std	Y+17, r24	; 0x11
			
			#endif

		}
	}
    3096:	df 91       	pop	r29
    3098:	cf 91       	pop	r28
    309a:	08 95       	ret

0000309c <_ZN4PS2X14NewButtonStateEv>:
  if(PS2data[1] != 0x79)
    return false;

  en_Pressures = true;
    return true;
}
    309c:	fc 01       	movw	r30, r24
    309e:	81 e0       	ldi	r24, 0x01	; 1
    30a0:	46 89       	ldd	r20, Z+22	; 0x16
    30a2:	57 89       	ldd	r21, Z+23	; 0x17
    30a4:	20 8d       	ldd	r18, Z+24	; 0x18
    30a6:	31 8d       	ldd	r19, Z+25	; 0x19
    30a8:	42 17       	cp	r20, r18
    30aa:	53 07       	cpc	r21, r19
    30ac:	09 f4       	brne	.+2      	; 0x30b0 <_ZN4PS2X14NewButtonStateEv+0x14>
    30ae:	80 e0       	ldi	r24, 0x00	; 0
    30b0:	08 95       	ret

000030b2 <_ZN4PS2X14NewButtonStateEj>:
    30b2:	fc 01       	movw	r30, r24
    30b4:	20 8d       	ldd	r18, Z+24	; 0x18
    30b6:	31 8d       	ldd	r19, Z+25	; 0x19
    30b8:	86 89       	ldd	r24, Z+22	; 0x16
    30ba:	97 89       	ldd	r25, Z+23	; 0x17
    30bc:	82 27       	eor	r24, r18
    30be:	93 27       	eor	r25, r19
    30c0:	68 23       	and	r22, r24
    30c2:	79 23       	and	r23, r25
    30c4:	81 e0       	ldi	r24, 0x01	; 1
    30c6:	67 2b       	or	r22, r23
    30c8:	09 f4       	brne	.+2      	; 0x30cc <_ZN4PS2X14NewButtonStateEj+0x1a>
    30ca:	80 e0       	ldi	r24, 0x00	; 0
    30cc:	08 95       	ret

000030ce <_ZN4PS2X13ButtonPressedEj>:
    30ce:	dc 01       	movw	r26, r24
    30d0:	58 96       	adiw	r26, 0x18	; 24
    30d2:	ed 91       	ld	r30, X+
    30d4:	fc 91       	ld	r31, X
    30d6:	59 97       	sbiw	r26, 0x19	; 25
    30d8:	af 01       	movw	r20, r30
    30da:	40 95       	com	r20
    30dc:	50 95       	com	r21
    30de:	46 23       	and	r20, r22
    30e0:	57 23       	and	r21, r23
    30e2:	91 e0       	ldi	r25, 0x01	; 1
    30e4:	45 2b       	or	r20, r21
    30e6:	09 f4       	brne	.+2      	; 0x30ea <_ZN4PS2X13ButtonPressedEj+0x1c>
    30e8:	90 e0       	ldi	r25, 0x00	; 0
    30ea:	56 96       	adiw	r26, 0x16	; 22
    30ec:	2d 91       	ld	r18, X+
    30ee:	3c 91       	ld	r19, X
    30f0:	57 97       	sbiw	r26, 0x17	; 23
    30f2:	2e 27       	eor	r18, r30
    30f4:	3f 27       	eor	r19, r31
    30f6:	62 23       	and	r22, r18
    30f8:	73 23       	and	r23, r19
    30fa:	81 e0       	ldi	r24, 0x01	; 1
    30fc:	67 2b       	or	r22, r23
    30fe:	09 f4       	brne	.+2      	; 0x3102 <_ZN4PS2X13ButtonPressedEj+0x34>
    3100:	80 e0       	ldi	r24, 0x00	; 0
    3102:	89 23       	and	r24, r25
    3104:	08 95       	ret

00003106 <_ZN4PS2X14ButtonReleasedEj>:
    3106:	dc 01       	movw	r26, r24
    3108:	56 96       	adiw	r26, 0x16	; 22
    310a:	ed 91       	ld	r30, X+
    310c:	fc 91       	ld	r31, X
    310e:	57 97       	sbiw	r26, 0x17	; 23
    3110:	af 01       	movw	r20, r30
    3112:	40 95       	com	r20
    3114:	50 95       	com	r21
    3116:	46 23       	and	r20, r22
    3118:	57 23       	and	r21, r23
    311a:	91 e0       	ldi	r25, 0x01	; 1
    311c:	45 2b       	or	r20, r21
    311e:	09 f4       	brne	.+2      	; 0x3122 <_ZN4PS2X14ButtonReleasedEj+0x1c>
    3120:	90 e0       	ldi	r25, 0x00	; 0
    3122:	58 96       	adiw	r26, 0x18	; 24
    3124:	2d 91       	ld	r18, X+
    3126:	3c 91       	ld	r19, X
    3128:	59 97       	sbiw	r26, 0x19	; 25
    312a:	2e 27       	eor	r18, r30
    312c:	3f 27       	eor	r19, r31
    312e:	62 23       	and	r22, r18
    3130:	73 23       	and	r23, r19
    3132:	81 e0       	ldi	r24, 0x01	; 1
    3134:	67 2b       	or	r22, r23
    3136:	09 f4       	brne	.+2      	; 0x313a <_ZN4PS2X14ButtonReleasedEj+0x34>
    3138:	80 e0       	ldi	r24, 0x00	; 0
    313a:	89 23       	and	r24, r25
    313c:	08 95       	ret

0000313e <_ZN4PS2X6ButtonEj>:
    313e:	fc 01       	movw	r30, r24
    3140:	80 8d       	ldd	r24, Z+24	; 0x18
    3142:	91 8d       	ldd	r25, Z+25	; 0x19
    3144:	80 95       	com	r24
    3146:	90 95       	com	r25
    3148:	68 23       	and	r22, r24
    314a:	79 23       	and	r23, r25
    314c:	81 e0       	ldi	r24, 0x01	; 1
    314e:	67 2b       	or	r22, r23
    3150:	09 f4       	brne	.+2      	; 0x3154 <_ZN4PS2X6ButtonEj+0x16>
    3152:	80 e0       	ldi	r24, 0x00	; 0
    3154:	08 95       	ret

00003156 <_ZN4PS2X6AnalogEh>:
    3156:	86 0f       	add	r24, r22
    3158:	91 1d       	adc	r25, r1
    315a:	fc 01       	movw	r30, r24
    315c:	80 81       	ld	r24, Z
    315e:	08 95       	ret

00003160 <_ZN4PS2X8readTypeEv>:
    3160:	fc 01       	movw	r30, r24
    3162:	83 a5       	ldd	r24, Z+43	; 0x2b
    3164:	83 30       	cpi	r24, 0x03	; 3
    3166:	31 f0       	breq	.+12     	; 0x3174 <_ZN4PS2X8readTypeEv+0x14>
    3168:	81 30       	cpi	r24, 0x01	; 1
    316a:	31 f0       	breq	.+12     	; 0x3178 <_ZN4PS2X8readTypeEv+0x18>
    316c:	8c 30       	cpi	r24, 0x0C	; 12
    316e:	31 f0       	breq	.+12     	; 0x317c <_ZN4PS2X8readTypeEv+0x1c>
    3170:	80 e0       	ldi	r24, 0x00	; 0
    3172:	08 95       	ret
    3174:	81 e0       	ldi	r24, 0x01	; 1
    3176:	08 95       	ret
    3178:	82 e0       	ldi	r24, 0x02	; 2
    317a:	08 95       	ret
    317c:	83 e0       	ldi	r24, 0x03	; 3
    317e:	08 95       	ret

00003180 <_ZN4PS2X7CLK_SETEv>:
    3180:	dc 01       	movw	r26, r24
    3182:	9f b7       	in	r25, 0x3f	; 63
    3184:	f8 94       	cli
    3186:	5b 96       	adiw	r26, 0x1b	; 27
    3188:	ed 91       	ld	r30, X+
    318a:	fc 91       	ld	r31, X
    318c:	5c 97       	sbiw	r26, 0x1c	; 28
    318e:	20 81       	ld	r18, Z
    3190:	5a 96       	adiw	r26, 0x1a	; 26
    3192:	8c 91       	ld	r24, X
    3194:	82 2b       	or	r24, r18
    3196:	80 83       	st	Z, r24
    3198:	9f bf       	out	0x3f, r25	; 63
    319a:	08 95       	ret

0000319c <_ZN4PS2X7CMD_SETEv>:
    319c:	dc 01       	movw	r26, r24
    319e:	9f b7       	in	r25, 0x3f	; 63
    31a0:	f8 94       	cli
    31a2:	5e 96       	adiw	r26, 0x1e	; 30
    31a4:	ed 91       	ld	r30, X+
    31a6:	fc 91       	ld	r31, X
    31a8:	5f 97       	sbiw	r26, 0x1f	; 31
    31aa:	20 81       	ld	r18, Z
    31ac:	5d 96       	adiw	r26, 0x1d	; 29
    31ae:	8c 91       	ld	r24, X
    31b0:	82 2b       	or	r24, r18
    31b2:	80 83       	st	Z, r24
    31b4:	9f bf       	out	0x3f, r25	; 63
    31b6:	08 95       	ret

000031b8 <_ZN4PS2X19_gamepad_shiftinoutEc>:
    31b8:	8f 92       	push	r8
    31ba:	9f 92       	push	r9
    31bc:	af 92       	push	r10
    31be:	bf 92       	push	r11
    31c0:	cf 92       	push	r12
    31c2:	df 92       	push	r13
    31c4:	ef 92       	push	r14
    31c6:	ff 92       	push	r15
    31c8:	0f 93       	push	r16
    31ca:	1f 93       	push	r17
    31cc:	cf 93       	push	r28
    31ce:	df 93       	push	r29
    31d0:	ec 01       	movw	r28, r24
    31d2:	00 e0       	ldi	r16, 0x00	; 0
    31d4:	10 e0       	ldi	r17, 0x00	; 0
    31d6:	f1 2c       	mov	r15, r1
    31d8:	c6 2e       	mov	r12, r22
    31da:	d1 2c       	mov	r13, r1
    31dc:	81 2c       	mov	r8, r1
    31de:	91 2c       	mov	r9, r1
    31e0:	54 01       	movw	r10, r8
    31e2:	83 94       	inc	r8
    31e4:	e0 2e       	mov	r14, r16
    31e6:	c6 01       	movw	r24, r12
    31e8:	00 2e       	mov	r0, r16
    31ea:	02 c0       	rjmp	.+4      	; 0x31f0 <_ZN4PS2X19_gamepad_shiftinoutEc+0x38>
    31ec:	95 95       	asr	r25
    31ee:	87 95       	ror	r24
    31f0:	0a 94       	dec	r0
    31f2:	e2 f7       	brpl	.-8      	; 0x31ec <_ZN4PS2X19_gamepad_shiftinoutEc+0x34>
    31f4:	80 ff       	sbrs	r24, 0
    31f6:	03 c0       	rjmp	.+6      	; 0x31fe <_ZN4PS2X19_gamepad_shiftinoutEc+0x46>
    31f8:	ce 01       	movw	r24, r28
    31fa:	d0 df       	rcall	.-96     	; 0x319c <_ZN4PS2X7CMD_SETEv>
    31fc:	0a c0       	rjmp	.+20     	; 0x3212 <_ZN4PS2X19_gamepad_shiftinoutEc+0x5a>
    31fe:	2f b7       	in	r18, 0x3f	; 63
    3200:	f8 94       	cli
    3202:	ee 8d       	ldd	r30, Y+30	; 0x1e
    3204:	ff 8d       	ldd	r31, Y+31	; 0x1f
    3206:	90 81       	ld	r25, Z
    3208:	8d 8d       	ldd	r24, Y+29	; 0x1d
    320a:	80 95       	com	r24
    320c:	89 23       	and	r24, r25
    320e:	80 83       	st	Z, r24
    3210:	2f bf       	out	0x3f, r18	; 63
    3212:	2f b7       	in	r18, 0x3f	; 63
    3214:	f8 94       	cli
    3216:	eb 8d       	ldd	r30, Y+27	; 0x1b
    3218:	fc 8d       	ldd	r31, Y+28	; 0x1c
    321a:	90 81       	ld	r25, Z
    321c:	8a 8d       	ldd	r24, Y+26	; 0x1a
    321e:	80 95       	com	r24
    3220:	89 23       	and	r24, r25
    3222:	80 83       	st	Z, r24
    3224:	2f bf       	out	0x3f, r18	; 63
    3226:	84 e0       	ldi	r24, 0x04	; 4
    3228:	90 e0       	ldi	r25, 0x00	; 0
    322a:	0e 94 c6 30 	call	0x618c	; 0x618c <delayMicroseconds>
    322e:	ec a1       	ldd	r30, Y+36	; 0x24
    3230:	fd a1       	ldd	r31, Y+37	; 0x25
    3232:	90 81       	ld	r25, Z
    3234:	8b a1       	ldd	r24, Y+35	; 0x23
    3236:	89 23       	and	r24, r25
    3238:	51 f0       	breq	.+20     	; 0x324e <_ZN4PS2X19_gamepad_shiftinoutEc+0x96>
    323a:	d5 01       	movw	r26, r10
    323c:	c4 01       	movw	r24, r8
    323e:	04 c0       	rjmp	.+8      	; 0x3248 <_ZN4PS2X19_gamepad_shiftinoutEc+0x90>
    3240:	88 0f       	add	r24, r24
    3242:	99 1f       	adc	r25, r25
    3244:	aa 1f       	adc	r26, r26
    3246:	bb 1f       	adc	r27, r27
    3248:	ea 94       	dec	r14
    324a:	d2 f7       	brpl	.-12     	; 0x3240 <_ZN4PS2X19_gamepad_shiftinoutEc+0x88>
    324c:	f8 2a       	or	r15, r24
    324e:	ce 01       	movw	r24, r28
    3250:	97 df       	rcall	.-210    	; 0x3180 <_ZN4PS2X7CLK_SETEv>
    3252:	0f 5f       	subi	r16, 0xFF	; 255
    3254:	1f 4f       	sbci	r17, 0xFF	; 255
    3256:	08 30       	cpi	r16, 0x08	; 8
    3258:	11 05       	cpc	r17, r1
    325a:	09 f0       	breq	.+2      	; 0x325e <_ZN4PS2X19_gamepad_shiftinoutEc+0xa6>
    325c:	c3 cf       	rjmp	.-122    	; 0x31e4 <_ZN4PS2X19_gamepad_shiftinoutEc+0x2c>
    325e:	ce 01       	movw	r24, r28
    3260:	9d df       	rcall	.-198    	; 0x319c <_ZN4PS2X7CMD_SETEv>
    3262:	83 e0       	ldi	r24, 0x03	; 3
    3264:	90 e0       	ldi	r25, 0x00	; 0
    3266:	0e 94 c6 30 	call	0x618c	; 0x618c <delayMicroseconds>
    326a:	8f 2d       	mov	r24, r15
    326c:	df 91       	pop	r29
    326e:	cf 91       	pop	r28
    3270:	1f 91       	pop	r17
    3272:	0f 91       	pop	r16
    3274:	ff 90       	pop	r15
    3276:	ef 90       	pop	r14
    3278:	df 90       	pop	r13
    327a:	cf 90       	pop	r12
    327c:	bf 90       	pop	r11
    327e:	af 90       	pop	r10
    3280:	9f 90       	pop	r9
    3282:	8f 90       	pop	r8
    3284:	08 95       	ret

00003286 <_ZN4PS2X7ATT_SETEv>:
    3286:	dc 01       	movw	r26, r24
    3288:	9f b7       	in	r25, 0x3f	; 63
    328a:	f8 94       	cli
    328c:	91 96       	adiw	r26, 0x21	; 33
    328e:	ed 91       	ld	r30, X+
    3290:	fc 91       	ld	r31, X
    3292:	92 97       	sbiw	r26, 0x22	; 34
    3294:	20 81       	ld	r18, Z
    3296:	90 96       	adiw	r26, 0x20	; 32
    3298:	8c 91       	ld	r24, X
    329a:	82 2b       	or	r24, r18
    329c:	80 83       	st	Z, r24
    329e:	9f bf       	out	0x3f, r25	; 63
    32a0:	08 95       	ret

000032a2 <_ZN4PS2X7ATT_CLREv>:
    32a2:	dc 01       	movw	r26, r24
    32a4:	2f b7       	in	r18, 0x3f	; 63
    32a6:	f8 94       	cli
    32a8:	91 96       	adiw	r26, 0x21	; 33
    32aa:	ed 91       	ld	r30, X+
    32ac:	fc 91       	ld	r31, X
    32ae:	92 97       	sbiw	r26, 0x22	; 34
    32b0:	90 81       	ld	r25, Z
    32b2:	90 96       	adiw	r26, 0x20	; 32
    32b4:	8c 91       	ld	r24, X
    32b6:	80 95       	com	r24
    32b8:	89 23       	and	r24, r25
    32ba:	80 83       	st	Z, r24
    32bc:	2f bf       	out	0x3f, r18	; 63
    32be:	08 95       	ret

000032c0 <_ZN4PS2X17sendCommandStringEPhh>:
    32c0:	cf 92       	push	r12
    32c2:	df 92       	push	r13
    32c4:	ef 92       	push	r14
    32c6:	ff 92       	push	r15
    32c8:	0f 93       	push	r16
    32ca:	1f 93       	push	r17
    32cc:	cf 93       	push	r28
    32ce:	df 93       	push	r29
    32d0:	ec 01       	movw	r28, r24
    32d2:	6b 01       	movw	r12, r22
    32d4:	04 2f       	mov	r16, r20
    32d6:	e5 df       	rcall	.-54     	; 0x32a2 <_ZN4PS2X7ATT_CLREv>
    32d8:	76 01       	movw	r14, r12
    32da:	10 e0       	ldi	r17, 0x00	; 0
    32dc:	c7 01       	movw	r24, r14
    32de:	8c 19       	sub	r24, r12
    32e0:	9d 09       	sbc	r25, r13
    32e2:	80 17       	cp	r24, r16
    32e4:	91 07       	cpc	r25, r17
    32e6:	34 f4       	brge	.+12     	; 0x32f4 <_ZN4PS2X17sendCommandStringEPhh+0x34>
    32e8:	f7 01       	movw	r30, r14
    32ea:	61 91       	ld	r22, Z+
    32ec:	7f 01       	movw	r14, r30
    32ee:	ce 01       	movw	r24, r28
    32f0:	63 df       	rcall	.-314    	; 0x31b8 <_ZN4PS2X19_gamepad_shiftinoutEc>
    32f2:	f4 cf       	rjmp	.-24     	; 0x32dc <_ZN4PS2X17sendCommandStringEPhh+0x1c>
    32f4:	ce 01       	movw	r24, r28
    32f6:	c7 df       	rcall	.-114    	; 0x3286 <_ZN4PS2X7ATT_SETEv>
    32f8:	6a a5       	ldd	r22, Y+42	; 0x2a
    32fa:	70 e0       	ldi	r23, 0x00	; 0
    32fc:	80 e0       	ldi	r24, 0x00	; 0
    32fe:	90 e0       	ldi	r25, 0x00	; 0
    3300:	df 91       	pop	r29
    3302:	cf 91       	pop	r28
    3304:	1f 91       	pop	r17
    3306:	0f 91       	pop	r16
    3308:	ff 90       	pop	r15
    330a:	ef 90       	pop	r14
    330c:	df 90       	pop	r13
    330e:	cf 90       	pop	r12
    3310:	0c 94 8d 30 	jmp	0x611a	; 0x611a <delay>

00003314 <_ZN4PS2X16reconfig_gamepadEv>:
    3314:	cf 93       	push	r28
    3316:	df 93       	push	r29
    3318:	ec 01       	movw	r28, r24
    331a:	45 e0       	ldi	r20, 0x05	; 5
    331c:	66 e3       	ldi	r22, 0x36	; 54
    331e:	76 e0       	ldi	r23, 0x06	; 6
    3320:	cf df       	rcall	.-98     	; 0x32c0 <_ZN4PS2X17sendCommandStringEPhh>
    3322:	49 e0       	ldi	r20, 0x09	; 9
    3324:	6d e2       	ldi	r22, 0x2D	; 45
    3326:	76 e0       	ldi	r23, 0x06	; 6
    3328:	ce 01       	movw	r24, r28
    332a:	ca df       	rcall	.-108    	; 0x32c0 <_ZN4PS2X17sendCommandStringEPhh>
    332c:	8c a5       	ldd	r24, Y+44	; 0x2c
    332e:	88 23       	and	r24, r24
    3330:	29 f0       	breq	.+10     	; 0x333c <_ZN4PS2X16reconfig_gamepadEv+0x28>
    3332:	45 e0       	ldi	r20, 0x05	; 5
    3334:	66 e1       	ldi	r22, 0x16	; 22
    3336:	76 e0       	ldi	r23, 0x06	; 6
    3338:	ce 01       	movw	r24, r28
    333a:	c2 df       	rcall	.-124    	; 0x32c0 <_ZN4PS2X17sendCommandStringEPhh>
    333c:	8d a5       	ldd	r24, Y+45	; 0x2d
    333e:	88 23       	and	r24, r24
    3340:	29 f0       	breq	.+10     	; 0x334c <_ZN4PS2X16reconfig_gamepadEv+0x38>
    3342:	49 e0       	ldi	r20, 0x09	; 9
    3344:	64 e2       	ldi	r22, 0x24	; 36
    3346:	76 e0       	ldi	r23, 0x06	; 6
    3348:	ce 01       	movw	r24, r28
    334a:	ba df       	rcall	.-140    	; 0x32c0 <_ZN4PS2X17sendCommandStringEPhh>
    334c:	49 e0       	ldi	r20, 0x09	; 9
    334e:	6b e1       	ldi	r22, 0x1B	; 27
    3350:	76 e0       	ldi	r23, 0x06	; 6
    3352:	ce 01       	movw	r24, r28
    3354:	df 91       	pop	r29
    3356:	cf 91       	pop	r28
    3358:	b3 cf       	rjmp	.-154    	; 0x32c0 <_ZN4PS2X17sendCommandStringEPhh>

0000335a <_ZN4PS2X12read_gamepadEbh>:
    335a:	2f 92       	push	r2
    335c:	3f 92       	push	r3
    335e:	4f 92       	push	r4
    3360:	5f 92       	push	r5
    3362:	6f 92       	push	r6
    3364:	7f 92       	push	r7
    3366:	8f 92       	push	r8
    3368:	9f 92       	push	r9
    336a:	af 92       	push	r10
    336c:	bf 92       	push	r11
    336e:	cf 92       	push	r12
    3370:	df 92       	push	r13
    3372:	ef 92       	push	r14
    3374:	ff 92       	push	r15
    3376:	0f 93       	push	r16
    3378:	1f 93       	push	r17
    337a:	cf 93       	push	r28
    337c:	df 93       	push	r29
    337e:	cd b7       	in	r28, 0x3d	; 61
    3380:	de b7       	in	r29, 0x3e	; 62
    3382:	29 97       	sbiw	r28, 0x09	; 9
    3384:	0f b6       	in	r0, 0x3f	; 63
    3386:	f8 94       	cli
    3388:	de bf       	out	0x3e, r29	; 62
    338a:	0f be       	out	0x3f, r0	; 63
    338c:	cd bf       	out	0x3d, r28	; 61
    338e:	4c 01       	movw	r8, r24
    3390:	76 2e       	mov	r7, r22
    3392:	14 2f       	mov	r17, r20
    3394:	0e 94 5c 30 	call	0x60b8	; 0x60b8 <millis>
    3398:	f4 01       	movw	r30, r8
    339a:	c6 a0       	ldd	r12, Z+38	; 0x26
    339c:	d7 a0       	ldd	r13, Z+39	; 0x27
    339e:	e0 a4       	ldd	r14, Z+40	; 0x28
    33a0:	f1 a4       	ldd	r15, Z+41	; 0x29
    33a2:	6c 19       	sub	r22, r12
    33a4:	7d 09       	sbc	r23, r13
    33a6:	8e 09       	sbc	r24, r14
    33a8:	9f 09       	sbc	r25, r15
    33aa:	0e 94 6b 26 	call	0x4cd6	; 0x4cd6 <__floatunsisf>
    33ae:	6b 01       	movw	r12, r22
    33b0:	7c 01       	movw	r14, r24
    33b2:	20 e0       	ldi	r18, 0x00	; 0
    33b4:	30 e8       	ldi	r19, 0x80	; 128
    33b6:	4b eb       	ldi	r20, 0xBB	; 187
    33b8:	54 e4       	ldi	r21, 0x44	; 68
    33ba:	0e 94 b2 27 	call	0x4f64	; 0x4f64 <__gesf2>
    33be:	18 16       	cp	r1, r24
    33c0:	14 f4       	brge	.+4      	; 0x33c6 <_ZN4PS2X12read_gamepadEbh+0x6c>
    33c2:	c4 01       	movw	r24, r8
    33c4:	a7 df       	rcall	.-178    	; 0x3314 <_ZN4PS2X16reconfig_gamepadEv>
    33c6:	f4 01       	movw	r30, r8
    33c8:	62 a5       	ldd	r22, Z+42	; 0x2a
    33ca:	70 e0       	ldi	r23, 0x00	; 0
    33cc:	80 e0       	ldi	r24, 0x00	; 0
    33ce:	90 e0       	ldi	r25, 0x00	; 0
    33d0:	0e 94 6d 26 	call	0x4cda	; 0x4cda <__floatsisf>
    33d4:	1b 01       	movw	r2, r22
    33d6:	2c 01       	movw	r4, r24
    33d8:	9b 01       	movw	r18, r22
    33da:	ac 01       	movw	r20, r24
    33dc:	c7 01       	movw	r24, r14
    33de:	b6 01       	movw	r22, r12
    33e0:	0e 94 cb 25 	call	0x4b96	; 0x4b96 <__cmpsf2>
    33e4:	87 ff       	sbrs	r24, 7
    33e6:	0a c0       	rjmp	.+20     	; 0x33fc <_ZN4PS2X12read_gamepadEbh+0xa2>
    33e8:	a7 01       	movw	r20, r14
    33ea:	96 01       	movw	r18, r12
    33ec:	c2 01       	movw	r24, r4
    33ee:	b1 01       	movw	r22, r2
    33f0:	0e 94 66 25 	call	0x4acc	; 0x4acc <__subsf3>
    33f4:	0e 94 3f 26 	call	0x4c7e	; 0x4c7e <__fixunssfsi>
    33f8:	0e 94 8d 30 	call	0x611a	; 0x611a <delay>
    33fc:	11 23       	and	r17, r17
    33fe:	e1 f0       	breq	.+56     	; 0x3438 <_ZN4PS2X12read_gamepadEbh+0xde>
    3400:	61 2f       	mov	r22, r17
    3402:	70 e0       	ldi	r23, 0x00	; 0
    3404:	80 e0       	ldi	r24, 0x00	; 0
    3406:	90 e0       	ldi	r25, 0x00	; 0
    3408:	1f 92       	push	r1
    340a:	1f 92       	push	r1
    340c:	1f 92       	push	r1
    340e:	2f ef       	ldi	r18, 0xFF	; 255
    3410:	2f 93       	push	r18
    3412:	20 e4       	ldi	r18, 0x40	; 64
    3414:	a2 2e       	mov	r10, r18
    3416:	b1 2c       	mov	r11, r1
    3418:	c1 2c       	mov	r12, r1
    341a:	d1 2c       	mov	r13, r1
    341c:	e1 2c       	mov	r14, r1
    341e:	f1 2c       	mov	r15, r1
    3420:	87 01       	movw	r16, r14
    3422:	ea 94       	dec	r14
    3424:	20 e0       	ldi	r18, 0x00	; 0
    3426:	30 e0       	ldi	r19, 0x00	; 0
    3428:	a9 01       	movw	r20, r18
    342a:	0e 94 1b 32 	call	0x6436	; 0x6436 <_Z3maplllll>
    342e:	16 2f       	mov	r17, r22
    3430:	0f 90       	pop	r0
    3432:	0f 90       	pop	r0
    3434:	0f 90       	pop	r0
    3436:	0f 90       	pop	r0
    3438:	ce 01       	movw	r24, r28
    343a:	01 96       	adiw	r24, 0x01	; 1
    343c:	7c 01       	movw	r14, r24
    343e:	89 e0       	ldi	r24, 0x09	; 9
    3440:	f7 01       	movw	r30, r14
    3442:	11 92       	st	Z+, r1
    3444:	8a 95       	dec	r24
    3446:	e9 f7       	brne	.-6      	; 0x3442 <_ZN4PS2X12read_gamepadEbh+0xe8>
    3448:	81 e0       	ldi	r24, 0x01	; 1
    344a:	89 83       	std	Y+1, r24	; 0x01
    344c:	82 e4       	ldi	r24, 0x42	; 66
    344e:	8a 83       	std	Y+2, r24	; 0x02
    3450:	7c 82       	std	Y+4, r7	; 0x04
    3452:	1d 83       	std	Y+5, r17	; 0x05
    3454:	85 e0       	ldi	r24, 0x05	; 5
    3456:	38 2e       	mov	r3, r24
    3458:	8e 01       	movw	r16, r28
    345a:	06 5f       	subi	r16, 0xF6	; 246
    345c:	1f 4f       	sbci	r17, 0xFF	; 255
    345e:	64 01       	movw	r12, r8
    3460:	f9 e0       	ldi	r31, 0x09	; 9
    3462:	cf 0e       	add	r12, r31
    3464:	d1 1c       	adc	r13, r1
    3466:	54 01       	movw	r10, r8
    3468:	85 e1       	ldi	r24, 0x15	; 21
    346a:	a8 0e       	add	r10, r24
    346c:	b1 1c       	adc	r11, r1
    346e:	c4 01       	movw	r24, r8
    3470:	95 de       	rcall	.-726    	; 0x319c <_ZN4PS2X7CMD_SETEv>
    3472:	c4 01       	movw	r24, r8
    3474:	85 de       	rcall	.-758    	; 0x3180 <_ZN4PS2X7CLK_SETEv>
    3476:	c4 01       	movw	r24, r8
    3478:	14 df       	rcall	.-472    	; 0x32a2 <_ZN4PS2X7ATT_CLREv>
    347a:	83 e0       	ldi	r24, 0x03	; 3
    347c:	90 e0       	ldi	r25, 0x00	; 0
    347e:	0e 94 c6 30 	call	0x618c	; 0x618c <delayMicroseconds>
    3482:	27 01       	movw	r4, r14
    3484:	34 01       	movw	r6, r8
    3486:	f2 01       	movw	r30, r4
    3488:	61 91       	ld	r22, Z+
    348a:	2f 01       	movw	r4, r30
    348c:	c4 01       	movw	r24, r8
    348e:	94 de       	rcall	.-728    	; 0x31b8 <_ZN4PS2X19_gamepad_shiftinoutEc>
    3490:	f3 01       	movw	r30, r6
    3492:	81 93       	st	Z+, r24
    3494:	3f 01       	movw	r6, r30
    3496:	40 16       	cp	r4, r16
    3498:	51 06       	cpc	r5, r17
    349a:	a9 f7       	brne	.-22     	; 0x3486 <_ZN4PS2X12read_gamepadEbh+0x12c>
    349c:	f4 01       	movw	r30, r8
    349e:	81 81       	ldd	r24, Z+1	; 0x01
    34a0:	89 37       	cpi	r24, 0x79	; 121
    34a2:	41 f0       	breq	.+16     	; 0x34b4 <_ZN4PS2X12read_gamepadEbh+0x15a>
    34a4:	c4 01       	movw	r24, r8
    34a6:	ef de       	rcall	.-546    	; 0x3286 <_ZN4PS2X7ATT_SETEv>
    34a8:	f4 01       	movw	r30, r8
    34aa:	81 81       	ldd	r24, Z+1	; 0x01
    34ac:	80 7f       	andi	r24, 0xF0	; 240
    34ae:	80 37       	cpi	r24, 0x70	; 112
    34b0:	61 f4       	brne	.+24     	; 0x34ca <_ZN4PS2X12read_gamepadEbh+0x170>
    34b2:	17 c0       	rjmp	.+46     	; 0x34e2 <_ZN4PS2X12read_gamepadEbh+0x188>
    34b4:	36 01       	movw	r6, r12
    34b6:	60 e0       	ldi	r22, 0x00	; 0
    34b8:	c4 01       	movw	r24, r8
    34ba:	7e de       	rcall	.-772    	; 0x31b8 <_ZN4PS2X19_gamepad_shiftinoutEc>
    34bc:	f3 01       	movw	r30, r6
    34be:	81 93       	st	Z+, r24
    34c0:	3f 01       	movw	r6, r30
    34c2:	ea 15       	cp	r30, r10
    34c4:	fb 05       	cpc	r31, r11
    34c6:	b9 f7       	brne	.-18     	; 0x34b6 <_ZN4PS2X12read_gamepadEbh+0x15c>
    34c8:	ed cf       	rjmp	.-38     	; 0x34a4 <_ZN4PS2X12read_gamepadEbh+0x14a>
    34ca:	c4 01       	movw	r24, r8
    34cc:	23 df       	rcall	.-442    	; 0x3314 <_ZN4PS2X16reconfig_gamepadEv>
    34ce:	f4 01       	movw	r30, r8
    34d0:	62 a5       	ldd	r22, Z+42	; 0x2a
    34d2:	70 e0       	ldi	r23, 0x00	; 0
    34d4:	80 e0       	ldi	r24, 0x00	; 0
    34d6:	90 e0       	ldi	r25, 0x00	; 0
    34d8:	0e 94 8d 30 	call	0x611a	; 0x611a <delay>
    34dc:	3a 94       	dec	r3
    34de:	31 10       	cpse	r3, r1
    34e0:	c6 cf       	rjmp	.-116    	; 0x346e <_ZN4PS2X12read_gamepadEbh+0x114>
    34e2:	f4 01       	movw	r30, r8
    34e4:	81 81       	ldd	r24, Z+1	; 0x01
    34e6:	80 7f       	andi	r24, 0xF0	; 240
    34e8:	80 37       	cpi	r24, 0x70	; 112
    34ea:	31 f0       	breq	.+12     	; 0x34f8 <_ZN4PS2X12read_gamepadEbh+0x19e>
    34ec:	f4 01       	movw	r30, r8
    34ee:	82 a5       	ldd	r24, Z+42	; 0x2a
    34f0:	8a 30       	cpi	r24, 0x0A	; 10
    34f2:	10 f4       	brcc	.+4      	; 0x34f8 <_ZN4PS2X12read_gamepadEbh+0x19e>
    34f4:	8f 5f       	subi	r24, 0xFF	; 255
    34f6:	82 a7       	std	Z+42, r24	; 0x2a
    34f8:	f4 01       	movw	r30, r8
    34fa:	80 8d       	ldd	r24, Z+24	; 0x18
    34fc:	91 8d       	ldd	r25, Z+25	; 0x19
    34fe:	97 8b       	std	Z+23, r25	; 0x17
    3500:	86 8b       	std	Z+22, r24	; 0x16
    3502:	83 81       	ldd	r24, Z+3	; 0x03
    3504:	94 81       	ldd	r25, Z+4	; 0x04
    3506:	91 8f       	std	Z+25, r25	; 0x19
    3508:	80 8f       	std	Z+24, r24	; 0x18
    350a:	0e 94 5c 30 	call	0x60b8	; 0x60b8 <millis>
    350e:	f4 01       	movw	r30, r8
    3510:	66 a3       	std	Z+38, r22	; 0x26
    3512:	77 a3       	std	Z+39, r23	; 0x27
    3514:	80 a7       	std	Z+40, r24	; 0x28
    3516:	91 a7       	std	Z+41, r25	; 0x29
    3518:	91 81       	ldd	r25, Z+1	; 0x01
    351a:	90 7f       	andi	r25, 0xF0	; 240
    351c:	81 e0       	ldi	r24, 0x01	; 1
    351e:	90 37       	cpi	r25, 0x70	; 112
    3520:	09 f0       	breq	.+2      	; 0x3524 <_ZN4PS2X12read_gamepadEbh+0x1ca>
    3522:	80 e0       	ldi	r24, 0x00	; 0
    3524:	29 96       	adiw	r28, 0x09	; 9
    3526:	0f b6       	in	r0, 0x3f	; 63
    3528:	f8 94       	cli
    352a:	de bf       	out	0x3e, r29	; 62
    352c:	0f be       	out	0x3f, r0	; 63
    352e:	cd bf       	out	0x3d, r28	; 61
    3530:	df 91       	pop	r29
    3532:	cf 91       	pop	r28
    3534:	1f 91       	pop	r17
    3536:	0f 91       	pop	r16
    3538:	ff 90       	pop	r15
    353a:	ef 90       	pop	r14
    353c:	df 90       	pop	r13
    353e:	cf 90       	pop	r12
    3540:	bf 90       	pop	r11
    3542:	af 90       	pop	r10
    3544:	9f 90       	pop	r9
    3546:	8f 90       	pop	r8
    3548:	7f 90       	pop	r7
    354a:	6f 90       	pop	r6
    354c:	5f 90       	pop	r5
    354e:	4f 90       	pop	r4
    3550:	3f 90       	pop	r3
    3552:	2f 90       	pop	r2
    3554:	08 95       	ret

00003556 <_ZN4PS2X12read_gamepadEv>:
    3556:	40 e0       	ldi	r20, 0x00	; 0
    3558:	60 e0       	ldi	r22, 0x00	; 0
    355a:	ff ce       	rjmp	.-514    	; 0x335a <_ZN4PS2X12read_gamepadEbh>

0000355c <_ZN4PS2X14config_gamepadEhhhhbb>:
byte PS2X::config_gamepad(uint8_t clk, uint8_t cmd, uint8_t att, uint8_t dat) {
   return config_gamepad(clk, cmd, att, dat, false, false);
}

/****************************************************************************************/
byte PS2X::config_gamepad(uint8_t clk, uint8_t cmd, uint8_t att, uint8_t dat, bool pressures, bool rumble) {
    355c:	6f 92       	push	r6
    355e:	7f 92       	push	r7
    3560:	8f 92       	push	r8
    3562:	9f 92       	push	r9
    3564:	af 92       	push	r10
    3566:	bf 92       	push	r11
    3568:	cf 92       	push	r12
    356a:	ef 92       	push	r14
    356c:	ff 92       	push	r15
    356e:	0f 93       	push	r16
    3570:	1f 93       	push	r17
    3572:	cf 93       	push	r28
    3574:	df 93       	push	r29
    3576:	cd b7       	in	r28, 0x3d	; 61
    3578:	de b7       	in	r29, 0x3e	; 62
    357a:	2b 97       	sbiw	r28, 0x0b	; 11
    357c:	0f b6       	in	r0, 0x3f	; 63
    357e:	f8 94       	cli
    3580:	de bf       	out	0x3e, r29	; 62
    3582:	0f be       	out	0x3f, r0	; 63
    3584:	cd bf       	out	0x3d, r28	; 61
    3586:	5c 01       	movw	r10, r24
    3588:	86 2f       	mov	r24, r22

  byte temp[sizeof(type_read)];

#ifdef __AVR__
  _clk_mask = digitalPinToBitMask(clk);
    358a:	70 e0       	ldi	r23, 0x00	; 0
    358c:	fb 01       	movw	r30, r22
    358e:	e4 50       	subi	r30, 0x04	; 4
    3590:	f9 4f       	sbci	r31, 0xF9	; 249
    3592:	e4 91       	lpm	r30, Z
    3594:	d5 01       	movw	r26, r10
    3596:	5a 96       	adiw	r26, 0x1a	; 26
    3598:	ec 93       	st	X, r30
    359a:	5a 97       	sbiw	r26, 0x1a	; 26
  _clk_oreg = portOutputRegister(digitalPinToPort(clk));
    359c:	fb 01       	movw	r30, r22
    359e:	ee 5b       	subi	r30, 0xBE	; 190
    35a0:	f8 4f       	sbci	r31, 0xF8	; 248
    35a2:	e4 91       	lpm	r30, Z
    35a4:	f0 e0       	ldi	r31, 0x00	; 0
    35a6:	ee 0f       	add	r30, r30
    35a8:	ff 1f       	adc	r31, r31
    35aa:	ee 55       	subi	r30, 0x5E	; 94
    35ac:	f8 4f       	sbci	r31, 0xF8	; 248
    35ae:	65 91       	lpm	r22, Z+
    35b0:	74 91       	lpm	r23, Z
    35b2:	f5 01       	movw	r30, r10
    35b4:	74 8f       	std	Z+28, r23	; 0x1c
    35b6:	63 8f       	std	Z+27, r22	; 0x1b
  _cmd_mask = digitalPinToBitMask(cmd);
    35b8:	64 2f       	mov	r22, r20
    35ba:	70 e0       	ldi	r23, 0x00	; 0
    35bc:	fb 01       	movw	r30, r22
    35be:	e4 50       	subi	r30, 0x04	; 4
    35c0:	f9 4f       	sbci	r31, 0xF9	; 249
    35c2:	e4 91       	lpm	r30, Z
    35c4:	5d 96       	adiw	r26, 0x1d	; 29
    35c6:	ec 93       	st	X, r30
    35c8:	5d 97       	sbiw	r26, 0x1d	; 29
  _cmd_oreg = portOutputRegister(digitalPinToPort(cmd));
    35ca:	fb 01       	movw	r30, r22
    35cc:	ee 5b       	subi	r30, 0xBE	; 190
    35ce:	f8 4f       	sbci	r31, 0xF8	; 248
    35d0:	e4 91       	lpm	r30, Z
    35d2:	f0 e0       	ldi	r31, 0x00	; 0
    35d4:	ee 0f       	add	r30, r30
    35d6:	ff 1f       	adc	r31, r31
    35d8:	ee 55       	subi	r30, 0x5E	; 94
    35da:	f8 4f       	sbci	r31, 0xF8	; 248
    35dc:	65 91       	lpm	r22, Z+
    35de:	74 91       	lpm	r23, Z
    35e0:	f5 01       	movw	r30, r10
    35e2:	77 8f       	std	Z+31, r23	; 0x1f
    35e4:	66 8f       	std	Z+30, r22	; 0x1e
  _att_mask = digitalPinToBitMask(att);
    35e6:	62 2f       	mov	r22, r18
    35e8:	70 e0       	ldi	r23, 0x00	; 0
    35ea:	fb 01       	movw	r30, r22
    35ec:	e4 50       	subi	r30, 0x04	; 4
    35ee:	f9 4f       	sbci	r31, 0xF9	; 249
    35f0:	e4 91       	lpm	r30, Z
    35f2:	90 96       	adiw	r26, 0x20	; 32
    35f4:	ec 93       	st	X, r30
  _att_oreg = portOutputRegister(digitalPinToPort(att));
    35f6:	fb 01       	movw	r30, r22
    35f8:	ee 5b       	subi	r30, 0xBE	; 190
    35fa:	f8 4f       	sbci	r31, 0xF8	; 248
    35fc:	e4 91       	lpm	r30, Z
    35fe:	f0 e0       	ldi	r31, 0x00	; 0
    3600:	ee 0f       	add	r30, r30
    3602:	ff 1f       	adc	r31, r31
    3604:	ee 55       	subi	r30, 0x5E	; 94
    3606:	f8 4f       	sbci	r31, 0xF8	; 248
    3608:	65 91       	lpm	r22, Z+
    360a:	74 91       	lpm	r23, Z
    360c:	f5 01       	movw	r30, r10
    360e:	72 a3       	std	Z+34, r23	; 0x22
    3610:	61 a3       	std	Z+33, r22	; 0x21
  _dat_mask = digitalPinToBitMask(dat);
    3612:	a0 2f       	mov	r26, r16
    3614:	b0 e0       	ldi	r27, 0x00	; 0
    3616:	fd 01       	movw	r30, r26
    3618:	e4 50       	subi	r30, 0x04	; 4
    361a:	f9 4f       	sbci	r31, 0xF9	; 249
    361c:	94 91       	lpm	r25, Z
    361e:	f5 01       	movw	r30, r10
    3620:	93 a3       	std	Z+35, r25	; 0x23
  _dat_ireg = portInputRegister(digitalPinToPort(dat));
    3622:	fd 01       	movw	r30, r26
    3624:	ee 5b       	subi	r30, 0xBE	; 190
    3626:	f8 4f       	sbci	r31, 0xF8	; 248
    3628:	e4 91       	lpm	r30, Z
    362a:	f0 e0       	ldi	r31, 0x00	; 0
    362c:	ee 0f       	add	r30, r30
    362e:	ff 1f       	adc	r31, r31
    3630:	e8 57       	subi	r30, 0x78	; 120
    3632:	f8 4f       	sbci	r31, 0xF8	; 248
    3634:	65 91       	lpm	r22, Z+
    3636:	74 91       	lpm	r23, Z
    3638:	d5 01       	movw	r26, r10
    363a:	95 96       	adiw	r26, 0x25	; 37
    363c:	7c 93       	st	X, r23
    363e:	6e 93       	st	-X, r22
    3640:	94 97       	sbiw	r26, 0x24	; 36

  _dat_mask = digitalPinToBitMask(dat);
  _dat_lport = portInputRegister(digitalPinToPort(dat));
#endif

  pinMode(clk, OUTPUT); //configure ports
    3642:	61 e0       	ldi	r22, 0x01	; 1
    3644:	2a 87       	std	Y+10, r18	; 0x0a
    3646:	4b 87       	std	Y+11, r20	; 0x0b
    3648:	0e 94 88 31 	call	0x6310	; 0x6310 <pinMode>
  pinMode(att, OUTPUT);
    364c:	61 e0       	ldi	r22, 0x01	; 1
    364e:	2a 85       	ldd	r18, Y+10	; 0x0a
    3650:	82 2f       	mov	r24, r18
    3652:	0e 94 88 31 	call	0x6310	; 0x6310 <pinMode>
  pinMode(cmd, OUTPUT);
    3656:	61 e0       	ldi	r22, 0x01	; 1
    3658:	4b 85       	ldd	r20, Y+11	; 0x0b
    365a:	84 2f       	mov	r24, r20
    365c:	0e 94 88 31 	call	0x6310	; 0x6310 <pinMode>
  pinMode(dat, INPUT);
    3660:	60 e0       	ldi	r22, 0x00	; 0
    3662:	80 2f       	mov	r24, r16
    3664:	0e 94 88 31 	call	0x6310	; 0x6310 <pinMode>

#if defined(__AVR__)
  digitalWrite(dat, HIGH); //enable pull-up
    3668:	61 e0       	ldi	r22, 0x01	; 1
    366a:	80 2f       	mov	r24, r16
    366c:	0e 94 c4 31 	call	0x6388	; 0x6388 <digitalWrite>
#endif

  CMD_SET(); // SET(*_cmd_oreg,_cmd_mask);
    3670:	c5 01       	movw	r24, r10
    3672:	94 dd       	rcall	.-1240   	; 0x319c <_ZN4PS2X7CMD_SETEv>
  CLK_SET();
    3674:	c5 01       	movw	r24, r10
    3676:	84 dd       	rcall	.-1272   	; 0x3180 <_ZN4PS2X7CLK_SETEv>

  //new error checking. First, read gamepad a few times to see if it's talking
  read_gamepad();
    3678:	c5 01       	movw	r24, r10
    367a:	6d df       	rcall	.-294    	; 0x3556 <_ZN4PS2X12read_gamepadEv>
  read_gamepad();
    367c:	c5 01       	movw	r24, r10
    367e:	6b df       	rcall	.-298    	; 0x3556 <_ZN4PS2X12read_gamepadEv>

  //see if it talked - see if mode came back. 
  //If still anything but 41, 73 or 79, then it's not talking
  if(PS2data[1] != 0x41 && PS2data[1] != 0x73 && PS2data[1] != 0x79){ 
    3680:	f5 01       	movw	r30, r10
    3682:	81 81       	ldd	r24, Z+1	; 0x01
    3684:	81 34       	cpi	r24, 0x41	; 65
    3686:	29 f0       	breq	.+10     	; 0x3692 <_ZN4PS2X14config_gamepadEhhhhbb+0x136>
    3688:	83 37       	cpi	r24, 0x73	; 115
    368a:	19 f0       	breq	.+6      	; 0x3692 <_ZN4PS2X14config_gamepadEhhhhbb+0x136>
    368c:	89 37       	cpi	r24, 0x79	; 121
    368e:	09 f0       	breq	.+2      	; 0x3692 <_ZN4PS2X14config_gamepadEhhhhbb+0x136>
    3690:	65 c0       	rjmp	.+202    	; 0x375c <_ZN4PS2X14config_gamepadEhhhhbb+0x200>
#endif
    return 1; //return error code 1
  }

  //try setting mode, increasing delays if need be.
  read_delay = 1;
    3692:	81 e0       	ldi	r24, 0x01	; 1
    3694:	d5 01       	movw	r26, r10
    3696:	9a 96       	adiw	r26, 0x2a	; 42
    3698:	8c 93       	st	X, r24

  for(int y = 0; y <= 10; y++) {
    369a:	8b e0       	ldi	r24, 0x0B	; 11
    369c:	88 2e       	mov	r8, r24
    369e:	91 2c       	mov	r9, r1
    ATT_SET(); // HI disable joystick

    controller_type = temp[3];

    sendCommandString(set_mode, sizeof(set_mode));
    if(rumble){ sendCommandString(enable_rumble, sizeof(enable_rumble)); en_Rumble = true; }
    36a0:	ff 24       	eor	r15, r15
    36a2:	f3 94       	inc	r15

  //try setting mode, increasing delays if need be.
  read_delay = 1;

  for(int y = 0; y <= 10; y++) {
    sendCommandString(enter_config, sizeof(enter_config)); //start config run
    36a4:	45 e0       	ldi	r20, 0x05	; 5
    36a6:	66 e3       	ldi	r22, 0x36	; 54
    36a8:	76 e0       	ldi	r23, 0x06	; 6
    36aa:	c5 01       	movw	r24, r10
    36ac:	09 de       	rcall	.-1006   	; 0x32c0 <_ZN4PS2X17sendCommandStringEPhh>

    //read type
    delayMicroseconds(CTRL_BYTE_DELAY);
    36ae:	83 e0       	ldi	r24, 0x03	; 3
    36b0:	90 e0       	ldi	r25, 0x00	; 0
    36b2:	0e 94 c6 30 	call	0x618c	; 0x618c <delayMicroseconds>

    CMD_SET();
    36b6:	c5 01       	movw	r24, r10
    36b8:	71 dd       	rcall	.-1310   	; 0x319c <_ZN4PS2X7CMD_SETEv>
    CLK_SET();
    36ba:	c5 01       	movw	r24, r10
    36bc:	61 dd       	rcall	.-1342   	; 0x3180 <_ZN4PS2X7CLK_SETEv>
    ATT_CLR(); // low enable joystick
    36be:	c5 01       	movw	r24, r10
    36c0:	f0 dd       	rcall	.-1056   	; 0x32a2 <_ZN4PS2X7ATT_CLREv>

    delayMicroseconds(CTRL_BYTE_DELAY);
    36c2:	83 e0       	ldi	r24, 0x03	; 3
    36c4:	90 e0       	ldi	r25, 0x00	; 0
    36c6:	0e 94 c6 30 	call	0x618c	; 0x618c <delayMicroseconds>
    36ca:	06 ee       	ldi	r16, 0xE6	; 230
    36cc:	1b e0       	ldi	r17, 0x0B	; 11
    36ce:	ce 01       	movw	r24, r28
    36d0:	01 96       	adiw	r24, 0x01	; 1
    36d2:	3c 01       	movw	r6, r24

    for (int i = 0; i<9; i++) {
      temp[i] = _gamepad_shiftinout(type_read[i]);
    36d4:	f8 01       	movw	r30, r16
    36d6:	61 91       	ld	r22, Z+
    36d8:	8f 01       	movw	r16, r30
    36da:	c5 01       	movw	r24, r10
    36dc:	6d dd       	rcall	.-1318   	; 0x31b8 <_ZN4PS2X19_gamepad_shiftinoutEc>
    36de:	d3 01       	movw	r26, r6
    36e0:	8d 93       	st	X+, r24
    36e2:	3d 01       	movw	r6, r26
    CLK_SET();
    ATT_CLR(); // low enable joystick

    delayMicroseconds(CTRL_BYTE_DELAY);

    for (int i = 0; i<9; i++) {
    36e4:	bb e0       	ldi	r27, 0x0B	; 11
    36e6:	0f 3e       	cpi	r16, 0xEF	; 239
    36e8:	1b 07       	cpc	r17, r27
    36ea:	a1 f7       	brne	.-24     	; 0x36d4 <_ZN4PS2X14config_gamepadEhhhhbb+0x178>
      temp[i] = _gamepad_shiftinout(type_read[i]);
    }

    ATT_SET(); // HI disable joystick
    36ec:	c5 01       	movw	r24, r10
    36ee:	cb dd       	rcall	.-1130   	; 0x3286 <_ZN4PS2X7ATT_SETEv>

    controller_type = temp[3];
    36f0:	8c 81       	ldd	r24, Y+4	; 0x04
    36f2:	f5 01       	movw	r30, r10
    36f4:	83 a7       	std	Z+43, r24	; 0x2b

    sendCommandString(set_mode, sizeof(set_mode));
    36f6:	49 e0       	ldi	r20, 0x09	; 9
    36f8:	6d e2       	ldi	r22, 0x2D	; 45
    36fa:	76 e0       	ldi	r23, 0x06	; 6
    36fc:	c5 01       	movw	r24, r10
    36fe:	e0 dd       	rcall	.-1088   	; 0x32c0 <_ZN4PS2X17sendCommandStringEPhh>
    if(rumble){ sendCommandString(enable_rumble, sizeof(enable_rumble)); en_Rumble = true; }
    3700:	cc 20       	and	r12, r12
    3702:	41 f0       	breq	.+16     	; 0x3714 <_ZN4PS2X14config_gamepadEhhhhbb+0x1b8>
    3704:	45 e0       	ldi	r20, 0x05	; 5
    3706:	66 e1       	ldi	r22, 0x16	; 22
    3708:	76 e0       	ldi	r23, 0x06	; 6
    370a:	c5 01       	movw	r24, r10
    370c:	d9 dd       	rcall	.-1102   	; 0x32c0 <_ZN4PS2X17sendCommandStringEPhh>
    370e:	d5 01       	movw	r26, r10
    3710:	9c 96       	adiw	r26, 0x2c	; 44
    3712:	fc 92       	st	X, r15
    if(pressures){ sendCommandString(set_bytes_large, sizeof(set_bytes_large)); en_Pressures = true; }
    3714:	ee 20       	and	r14, r14
    3716:	39 f0       	breq	.+14     	; 0x3726 <_ZN4PS2X14config_gamepadEhhhhbb+0x1ca>
    3718:	49 e0       	ldi	r20, 0x09	; 9
    371a:	64 e2       	ldi	r22, 0x24	; 36
    371c:	76 e0       	ldi	r23, 0x06	; 6
    371e:	c5 01       	movw	r24, r10
    3720:	cf dd       	rcall	.-1122   	; 0x32c0 <_ZN4PS2X17sendCommandStringEPhh>
    3722:	f5 01       	movw	r30, r10
    3724:	f5 a6       	std	Z+45, r15	; 0x2d
    sendCommandString(exit_config, sizeof(exit_config));
    3726:	49 e0       	ldi	r20, 0x09	; 9
    3728:	6b e1       	ldi	r22, 0x1B	; 27
    372a:	76 e0       	ldi	r23, 0x06	; 6
    372c:	c5 01       	movw	r24, r10
    372e:	c8 dd       	rcall	.-1136   	; 0x32c0 <_ZN4PS2X17sendCommandStringEPhh>

    read_gamepad();
    3730:	c5 01       	movw	r24, r10
    3732:	11 df       	rcall	.-478    	; 0x3556 <_ZN4PS2X12read_gamepadEv>
    3734:	d5 01       	movw	r26, r10
    3736:	11 96       	adiw	r26, 0x01	; 1
    3738:	8c 91       	ld	r24, X

    if(pressures){
    373a:	ee 20       	and	r14, r14
    373c:	21 f0       	breq	.+8      	; 0x3746 <_ZN4PS2X14config_gamepadEhhhhbb+0x1ea>
      if(PS2data[1] == 0x79)
    373e:	89 37       	cpi	r24, 0x79	; 121
    3740:	89 f0       	breq	.+34     	; 0x3764 <_ZN4PS2X14config_gamepadEhhhhbb+0x208>
        break;
      if(PS2data[1] == 0x73)
    3742:	83 37       	cpi	r24, 0x73	; 115
    3744:	69 f0       	breq	.+26     	; 0x3760 <_ZN4PS2X14config_gamepadEhhhhbb+0x204>
        return 3;
    }

    if(PS2data[1] == 0x73)
    3746:	83 37       	cpi	r24, 0x73	; 115
    3748:	69 f0       	breq	.+26     	; 0x3764 <_ZN4PS2X14config_gamepadEhhhhbb+0x208>
    374a:	b1 e0       	ldi	r27, 0x01	; 1
    374c:	8b 1a       	sub	r8, r27
    374e:	91 08       	sbc	r9, r1
      break;

    if(y == 10){
    3750:	59 f0       	breq	.+22     	; 0x3768 <_ZN4PS2X14config_gamepadEhhhhbb+0x20c>
      Serial.print("mode stil set at");
      Serial.println(PS2data[1], HEX);
#endif
      return 2; //exit function with error
    }
    read_delay += 1; //add 1ms to read_delay
    3752:	f5 01       	movw	r30, r10
    3754:	82 a5       	ldd	r24, Z+42	; 0x2a
    3756:	8f 5f       	subi	r24, 0xFF	; 255
    3758:	82 a7       	std	Z+42, r24	; 0x2a
    375a:	a4 cf       	rjmp	.-184    	; 0x36a4 <_ZN4PS2X14config_gamepadEhhhhbb+0x148>
#ifdef PS2X_DEBUG
    Serial.println("Controller mode not matched or no controller found");
    Serial.print("Expected 0x41, 0x73 or 0x79, but got ");
    Serial.println(PS2data[1], HEX);
#endif
    return 1; //return error code 1
    375c:	81 e0       	ldi	r24, 0x01	; 1
    375e:	05 c0       	rjmp	.+10     	; 0x376a <_ZN4PS2X14config_gamepadEhhhhbb+0x20e>

    if(pressures){
      if(PS2data[1] == 0x79)
        break;
      if(PS2data[1] == 0x73)
        return 3;
    3760:	83 e0       	ldi	r24, 0x03	; 3
    3762:	03 c0       	rjmp	.+6      	; 0x376a <_ZN4PS2X14config_gamepadEhhhhbb+0x20e>
#endif
      return 2; //exit function with error
    }
    read_delay += 1; //add 1ms to read_delay
  }
  return 0; //no error if here
    3764:	80 e0       	ldi	r24, 0x00	; 0
    3766:	01 c0       	rjmp	.+2      	; 0x376a <_ZN4PS2X14config_gamepadEhhhhbb+0x20e>
#ifdef PS2X_DEBUG
      Serial.println("Controller not accepting commands");
      Serial.print("mode stil set at");
      Serial.println(PS2data[1], HEX);
#endif
      return 2; //exit function with error
    3768:	82 e0       	ldi	r24, 0x02	; 2
    }
    read_delay += 1; //add 1ms to read_delay
  }
  return 0; //no error if here
}
    376a:	2b 96       	adiw	r28, 0x0b	; 11
    376c:	0f b6       	in	r0, 0x3f	; 63
    376e:	f8 94       	cli
    3770:	de bf       	out	0x3e, r29	; 62
    3772:	0f be       	out	0x3f, r0	; 63
    3774:	cd bf       	out	0x3d, r28	; 61
    3776:	df 91       	pop	r29
    3778:	cf 91       	pop	r28
    377a:	1f 91       	pop	r17
    377c:	0f 91       	pop	r16
    377e:	ff 90       	pop	r15
    3780:	ef 90       	pop	r14
    3782:	cf 90       	pop	r12
    3784:	bf 90       	pop	r11
    3786:	af 90       	pop	r10
    3788:	9f 90       	pop	r9
    378a:	8f 90       	pop	r8
    378c:	7f 90       	pop	r7
    378e:	6f 90       	pop	r6
    3790:	08 95       	ret

00003792 <_Z11POS_refreshv>:
	attachInterrupt(digitalPinToInterrupt(INT1A), blinkY, FALLING);
	attachInterrupt(digitalPinToInterrupt(INT2A), blinkP, FALLING);
}

void POS_refresh()
{
    3792:	4f 92       	push	r4
    3794:	5f 92       	push	r5
    3796:	6f 92       	push	r6
    3798:	7f 92       	push	r7
    379a:	8f 92       	push	r8
    379c:	9f 92       	push	r9
    379e:	af 92       	push	r10
    37a0:	bf 92       	push	r11
    37a2:	cf 92       	push	r12
    37a4:	df 92       	push	r13
    37a6:	ef 92       	push	r14
    37a8:	ff 92       	push	r15
    37aa:	cf 93       	push	r28
    37ac:	df 93       	push	r29
    37ae:	cd b7       	in	r28, 0x3d	; 61
    37b0:	de b7       	in	r29, 0x3e	; 62
    37b2:	a0 97       	sbiw	r28, 0x20	; 32
    37b4:	0f b6       	in	r0, 0x3f	; 63
    37b6:	f8 94       	cli
    37b8:	de bf       	out	0x3e, r29	; 62
    37ba:	0f be       	out	0x3f, r0	; 63
    37bc:	cd bf       	out	0x3d, r28	; 61
	double x1 = (double)x_step/x_line*PI*wheel_d;// mm
    37be:	60 91 b0 0d 	lds	r22, 0x0DB0	; 0x800db0 <x_step>
    37c2:	70 91 b1 0d 	lds	r23, 0x0DB1	; 0x800db1 <x_step+0x1>
    37c6:	80 91 b2 0d 	lds	r24, 0x0DB2	; 0x800db2 <x_step+0x2>
    37ca:	90 91 b3 0d 	lds	r25, 0x0DB3	; 0x800db3 <x_step+0x3>
    37ce:	0e 94 6d 26 	call	0x4cda	; 0x4cda <__floatsisf>
    37d2:	20 e0       	ldi	r18, 0x00	; 0
    37d4:	30 e0       	ldi	r19, 0x00	; 0
    37d6:	40 e8       	ldi	r20, 0x80	; 128
    37d8:	5b e3       	ldi	r21, 0x3B	; 59
    37da:	0e 94 b6 27 	call	0x4f6c	; 0x4f6c <__mulsf3>
    37de:	2b ed       	ldi	r18, 0xDB	; 219
    37e0:	3f e0       	ldi	r19, 0x0F	; 15
    37e2:	49 e4       	ldi	r20, 0x49	; 73
    37e4:	50 e4       	ldi	r21, 0x40	; 64
    37e6:	0e 94 b6 27 	call	0x4f6c	; 0x4f6c <__mulsf3>
    37ea:	20 e0       	ldi	r18, 0x00	; 0
    37ec:	30 e0       	ldi	r19, 0x00	; 0
    37ee:	48 e1       	ldi	r20, 0x18	; 24
    37f0:	52 e4       	ldi	r21, 0x42	; 66
    37f2:	0e 94 b6 27 	call	0x4f6c	; 0x4f6c <__mulsf3>
    37f6:	69 87       	std	Y+9, r22	; 0x09
    37f8:	7a 87       	std	Y+10, r23	; 0x0a
    37fa:	8b 87       	std	Y+11, r24	; 0x0b
    37fc:	9c 87       	std	Y+12, r25	; 0x0c
	double y1 = (double)y_step/y_line*PI*wheel_d;// mm
    37fe:	60 91 ac 0d 	lds	r22, 0x0DAC	; 0x800dac <y_step>
    3802:	70 91 ad 0d 	lds	r23, 0x0DAD	; 0x800dad <y_step+0x1>
    3806:	80 91 ae 0d 	lds	r24, 0x0DAE	; 0x800dae <y_step+0x2>
    380a:	90 91 af 0d 	lds	r25, 0x0DAF	; 0x800daf <y_step+0x3>
    380e:	0e 94 6d 26 	call	0x4cda	; 0x4cda <__floatsisf>
    3812:	20 e0       	ldi	r18, 0x00	; 0
    3814:	30 e0       	ldi	r19, 0x00	; 0
    3816:	40 e0       	ldi	r20, 0x00	; 0
    3818:	5b e3       	ldi	r21, 0x3B	; 59
    381a:	0e 94 b6 27 	call	0x4f6c	; 0x4f6c <__mulsf3>
    381e:	2b ed       	ldi	r18, 0xDB	; 219
    3820:	3f e0       	ldi	r19, 0x0F	; 15
    3822:	49 e4       	ldi	r20, 0x49	; 73
    3824:	50 e4       	ldi	r21, 0x40	; 64
    3826:	0e 94 b6 27 	call	0x4f6c	; 0x4f6c <__mulsf3>
    382a:	20 e0       	ldi	r18, 0x00	; 0
    382c:	30 e0       	ldi	r19, 0x00	; 0
    382e:	48 e1       	ldi	r20, 0x18	; 24
    3830:	52 e4       	ldi	r21, 0x42	; 66
    3832:	0e 94 b6 27 	call	0x4f6c	; 0x4f6c <__mulsf3>
    3836:	69 83       	std	Y+1, r22	; 0x01
    3838:	7a 83       	std	Y+2, r23	; 0x02
    383a:	8b 83       	std	Y+3, r24	; 0x03
    383c:	9c 83       	std	Y+4, r25	; 0x04
	double p1 = (double)p_step/p_line*PI*wheel_d;// mm
    383e:	60 91 a8 0d 	lds	r22, 0x0DA8	; 0x800da8 <p_step>
    3842:	70 91 a9 0d 	lds	r23, 0x0DA9	; 0x800da9 <p_step+0x1>
    3846:	80 91 aa 0d 	lds	r24, 0x0DAA	; 0x800daa <p_step+0x2>
    384a:	90 91 ab 0d 	lds	r25, 0x0DAB	; 0x800dab <p_step+0x3>
    384e:	0e 94 6d 26 	call	0x4cda	; 0x4cda <__floatsisf>
    3852:	20 e0       	ldi	r18, 0x00	; 0
    3854:	30 e0       	ldi	r19, 0x00	; 0
    3856:	40 e0       	ldi	r20, 0x00	; 0
    3858:	5b e3       	ldi	r21, 0x3B	; 59
    385a:	0e 94 b6 27 	call	0x4f6c	; 0x4f6c <__mulsf3>
    385e:	2b ed       	ldi	r18, 0xDB	; 219
    3860:	3f e0       	ldi	r19, 0x0F	; 15
    3862:	49 e4       	ldi	r20, 0x49	; 73
    3864:	50 e4       	ldi	r21, 0x40	; 64
    3866:	0e 94 b6 27 	call	0x4f6c	; 0x4f6c <__mulsf3>
    386a:	20 e0       	ldi	r18, 0x00	; 0
    386c:	30 e0       	ldi	r19, 0x00	; 0
    386e:	48 e1       	ldi	r20, 0x18	; 24
    3870:	52 e4       	ldi	r21, 0x42	; 66
    3872:	0e 94 b6 27 	call	0x4f6c	; 0x4f6c <__mulsf3>
    3876:	6d 83       	std	Y+5, r22	; 0x05
    3878:	7e 83       	std	Y+6, r23	; 0x06
    387a:	8f 83       	std	Y+7, r24	; 0x07
    387c:	98 87       	std	Y+8, r25	; 0x08
	
	double y2 = (y1-p1)/2;
    387e:	9b 01       	movw	r18, r22
    3880:	ac 01       	movw	r20, r24
    3882:	69 81       	ldd	r22, Y+1	; 0x01
    3884:	7a 81       	ldd	r23, Y+2	; 0x02
    3886:	8b 81       	ldd	r24, Y+3	; 0x03
    3888:	9c 81       	ldd	r25, Y+4	; 0x04
    388a:	0e 94 66 25 	call	0x4acc	; 0x4acc <__subsf3>
    388e:	20 e0       	ldi	r18, 0x00	; 0
    3890:	30 e0       	ldi	r19, 0x00	; 0
    3892:	40 e0       	ldi	r20, 0x00	; 0
    3894:	5f e3       	ldi	r21, 0x3F	; 63
    3896:	0e 94 b6 27 	call	0x4f6c	; 0x4f6c <__mulsf3>
    389a:	4b 01       	movw	r8, r22
    389c:	5c 01       	movw	r10, r24
	double p2 = (y1+p1)/d;//rad
    389e:	2d 81       	ldd	r18, Y+5	; 0x05
    38a0:	3e 81       	ldd	r19, Y+6	; 0x06
    38a2:	4f 81       	ldd	r20, Y+7	; 0x07
    38a4:	58 85       	ldd	r21, Y+8	; 0x08
    38a6:	69 81       	ldd	r22, Y+1	; 0x01
    38a8:	7a 81       	ldd	r23, Y+2	; 0x02
    38aa:	8b 81       	ldd	r24, Y+3	; 0x03
    38ac:	9c 81       	ldd	r25, Y+4	; 0x04
    38ae:	0e 94 67 25 	call	0x4ace	; 0x4ace <__addsf3>
    38b2:	20 e0       	ldi	r18, 0x00	; 0
    38b4:	30 e0       	ldi	r19, 0x00	; 0
    38b6:	46 ee       	ldi	r20, 0xE6	; 230
    38b8:	52 e4       	ldi	r21, 0x42	; 66
    38ba:	0e 94 d2 25 	call	0x4ba4	; 0x4ba4 <__divsf3>
    38be:	6b 01       	movw	r12, r22
    38c0:	7c 01       	movw	r14, r24
	double x2 = p2*d2+x1;//
    38c2:	20 e0       	ldi	r18, 0x00	; 0
    38c4:	30 e0       	ldi	r19, 0x00	; 0
    38c6:	40 e7       	ldi	r20, 0x70	; 112
    38c8:	52 e4       	ldi	r21, 0x42	; 66
    38ca:	0e 94 b6 27 	call	0x4f6c	; 0x4f6c <__mulsf3>
    38ce:	29 85       	ldd	r18, Y+9	; 0x09
    38d0:	3a 85       	ldd	r19, Y+10	; 0x0a
    38d2:	4b 85       	ldd	r20, Y+11	; 0x0b
    38d4:	5c 85       	ldd	r21, Y+12	; 0x0c
    38d6:	0e 94 67 25 	call	0x4ace	; 0x4ace <__addsf3>
    38da:	2b 01       	movw	r4, r22
    38dc:	3c 01       	movw	r6, r24

	if (p2>=PI)
    38de:	2b ed       	ldi	r18, 0xDB	; 219
    38e0:	3f e0       	ldi	r19, 0x0F	; 15
    38e2:	49 e4       	ldi	r20, 0x49	; 73
    38e4:	50 e4       	ldi	r21, 0x40	; 64
    38e6:	c7 01       	movw	r24, r14
    38e8:	b6 01       	movw	r22, r12
    38ea:	0e 94 b2 27 	call	0x4f64	; 0x4f64 <__gesf2>
    38ee:	87 fd       	sbrc	r24, 7
    38f0:	16 c0       	rjmp	.+44     	; 0x391e <_Z11POS_refreshv+0x18c>
	{
		p2 = fmod((p2+PI),(2*PI))-PI;
    38f2:	2b ed       	ldi	r18, 0xDB	; 219
    38f4:	3f e0       	ldi	r19, 0x0F	; 15
    38f6:	49 e4       	ldi	r20, 0x49	; 73
    38f8:	50 e4       	ldi	r21, 0x40	; 64
    38fa:	c7 01       	movw	r24, r14
    38fc:	b6 01       	movw	r22, r12
    38fe:	0e 94 67 25 	call	0x4ace	; 0x4ace <__addsf3>
    3902:	2b ed       	ldi	r18, 0xDB	; 219
    3904:	3f e0       	ldi	r19, 0x0F	; 15
    3906:	49 ec       	ldi	r20, 0xC9	; 201
    3908:	50 e4       	ldi	r21, 0x40	; 64
    390a:	0e 94 af 26 	call	0x4d5e	; 0x4d5e <fmod>
    390e:	2b ed       	ldi	r18, 0xDB	; 219
    3910:	3f e0       	ldi	r19, 0x0F	; 15
    3912:	49 e4       	ldi	r20, 0x49	; 73
    3914:	50 e4       	ldi	r21, 0x40	; 64
    3916:	0e 94 66 25 	call	0x4acc	; 0x4acc <__subsf3>
    391a:	6b 01       	movw	r12, r22
    391c:	7c 01       	movw	r14, r24
	}
	if (p2<=(-PI))
    391e:	2b ed       	ldi	r18, 0xDB	; 219
    3920:	3f e0       	ldi	r19, 0x0F	; 15
    3922:	49 e4       	ldi	r20, 0x49	; 73
    3924:	50 ec       	ldi	r21, 0xC0	; 192
    3926:	c7 01       	movw	r24, r14
    3928:	b6 01       	movw	r22, r12
    392a:	0e 94 cb 25 	call	0x4b96	; 0x4b96 <__cmpsf2>
    392e:	18 16       	cp	r1, r24
    3930:	b4 f0       	brlt	.+44     	; 0x395e <_Z11POS_refreshv+0x1cc>
	{
		p2 = fmod((p2-PI),(2*PI))+PI;
    3932:	2b ed       	ldi	r18, 0xDB	; 219
    3934:	3f e0       	ldi	r19, 0x0F	; 15
    3936:	49 e4       	ldi	r20, 0x49	; 73
    3938:	50 e4       	ldi	r21, 0x40	; 64
    393a:	c7 01       	movw	r24, r14
    393c:	b6 01       	movw	r22, r12
    393e:	0e 94 66 25 	call	0x4acc	; 0x4acc <__subsf3>
    3942:	2b ed       	ldi	r18, 0xDB	; 219
    3944:	3f e0       	ldi	r19, 0x0F	; 15
    3946:	49 ec       	ldi	r20, 0xC9	; 201
    3948:	50 e4       	ldi	r21, 0x40	; 64
    394a:	0e 94 af 26 	call	0x4d5e	; 0x4d5e <fmod>
    394e:	2b ed       	ldi	r18, 0xDB	; 219
    3950:	3f e0       	ldi	r19, 0x0F	; 15
    3952:	49 e4       	ldi	r20, 0x49	; 73
    3954:	50 e4       	ldi	r21, 0x40	; 64
    3956:	0e 94 67 25 	call	0x4ace	; 0x4ace <__addsf3>
    395a:	6b 01       	movw	r12, r22
    395c:	7c 01       	movw	r14, r24
	}
	
	double dx = x2 - x2_previous;x2_previous = x2;
    395e:	20 91 a4 0d 	lds	r18, 0x0DA4	; 0x800da4 <x2_previous>
    3962:	30 91 a5 0d 	lds	r19, 0x0DA5	; 0x800da5 <x2_previous+0x1>
    3966:	40 91 a6 0d 	lds	r20, 0x0DA6	; 0x800da6 <x2_previous+0x2>
    396a:	50 91 a7 0d 	lds	r21, 0x0DA7	; 0x800da7 <x2_previous+0x3>
    396e:	c3 01       	movw	r24, r6
    3970:	b2 01       	movw	r22, r4
    3972:	0e 94 66 25 	call	0x4acc	; 0x4acc <__subsf3>
    3976:	69 8f       	std	Y+25, r22	; 0x19
    3978:	7a 8f       	std	Y+26, r23	; 0x1a
    397a:	8b 8f       	std	Y+27, r24	; 0x1b
    397c:	9c 8f       	std	Y+28, r25	; 0x1c
    397e:	40 92 a4 0d 	sts	0x0DA4, r4	; 0x800da4 <x2_previous>
    3982:	50 92 a5 0d 	sts	0x0DA5, r5	; 0x800da5 <x2_previous+0x1>
    3986:	60 92 a6 0d 	sts	0x0DA6, r6	; 0x800da6 <x2_previous+0x2>
    398a:	70 92 a7 0d 	sts	0x0DA7, r7	; 0x800da7 <x2_previous+0x3>
	double dy = y2 - y2_previous;y2_previous = y2;
    398e:	20 91 a0 0d 	lds	r18, 0x0DA0	; 0x800da0 <y2_previous>
    3992:	30 91 a1 0d 	lds	r19, 0x0DA1	; 0x800da1 <y2_previous+0x1>
    3996:	40 91 a2 0d 	lds	r20, 0x0DA2	; 0x800da2 <y2_previous+0x2>
    399a:	50 91 a3 0d 	lds	r21, 0x0DA3	; 0x800da3 <y2_previous+0x3>
    399e:	c5 01       	movw	r24, r10
    39a0:	b4 01       	movw	r22, r8
    39a2:	0e 94 66 25 	call	0x4acc	; 0x4acc <__subsf3>
    39a6:	2b 01       	movw	r4, r22
    39a8:	3c 01       	movw	r6, r24
    39aa:	80 92 a0 0d 	sts	0x0DA0, r8	; 0x800da0 <y2_previous>
    39ae:	90 92 a1 0d 	sts	0x0DA1, r9	; 0x800da1 <y2_previous+0x1>
    39b2:	a0 92 a2 0d 	sts	0x0DA2, r10	; 0x800da2 <y2_previous+0x2>
    39b6:	b0 92 a3 0d 	sts	0x0DA3, r11	; 0x800da3 <y2_previous+0x3>
	double dp_rad =p2 - p2_previous;p2_previous = p2;
    39ba:	20 91 9c 0d 	lds	r18, 0x0D9C	; 0x800d9c <p2_previous>
    39be:	30 91 9d 0d 	lds	r19, 0x0D9D	; 0x800d9d <p2_previous+0x1>
    39c2:	40 91 9e 0d 	lds	r20, 0x0D9E	; 0x800d9e <p2_previous+0x2>
    39c6:	50 91 9f 0d 	lds	r21, 0x0D9F	; 0x800d9f <p2_previous+0x3>
    39ca:	c7 01       	movw	r24, r14
    39cc:	b6 01       	movw	r22, r12
    39ce:	0e 94 66 25 	call	0x4acc	; 0x4acc <__subsf3>
    39d2:	c0 92 9c 0d 	sts	0x0D9C, r12	; 0x800d9c <p2_previous>
    39d6:	d0 92 9d 0d 	sts	0x0D9D, r13	; 0x800d9d <p2_previous+0x1>
    39da:	e0 92 9e 0d 	sts	0x0D9E, r14	; 0x800d9e <p2_previous+0x2>
    39de:	f0 92 9f 0d 	sts	0x0D9F, r15	; 0x800d9f <p2_previous+0x3>
	double p_rad = p2;
	
	double dax = dy*(cos(PI/2-dp_rad/2));
    39e2:	20 e0       	ldi	r18, 0x00	; 0
    39e4:	30 e0       	ldi	r19, 0x00	; 0
    39e6:	40 e0       	ldi	r20, 0x00	; 0
    39e8:	5f e3       	ldi	r21, 0x3F	; 63
    39ea:	0e 94 b6 27 	call	0x4f6c	; 0x4f6c <__mulsf3>
    39ee:	9b 01       	movw	r18, r22
    39f0:	ac 01       	movw	r20, r24
    39f2:	6b ed       	ldi	r22, 0xDB	; 219
    39f4:	7f e0       	ldi	r23, 0x0F	; 15
    39f6:	89 ec       	ldi	r24, 0xC9	; 201
    39f8:	9f e3       	ldi	r25, 0x3F	; 63
    39fa:	0e 94 66 25 	call	0x4acc	; 0x4acc <__subsf3>
    39fe:	4b 01       	movw	r8, r22
    3a00:	5c 01       	movw	r10, r24
    3a02:	0e 94 cf 25 	call	0x4b9e	; 0x4b9e <cos>
    3a06:	9b 01       	movw	r18, r22
    3a08:	ac 01       	movw	r20, r24
    3a0a:	c3 01       	movw	r24, r6
    3a0c:	b2 01       	movw	r22, r4
    3a0e:	0e 94 b6 27 	call	0x4f6c	; 0x4f6c <__mulsf3>
    3a12:	6d 8b       	std	Y+21, r22	; 0x15
    3a14:	7e 8b       	std	Y+22, r23	; 0x16
    3a16:	8f 8b       	std	Y+23, r24	; 0x17
    3a18:	98 8f       	std	Y+24, r25	; 0x18
	double day = dy*(sin(PI/2-dp_rad/2));
    3a1a:	c5 01       	movw	r24, r10
    3a1c:	b4 01       	movw	r22, r8
    3a1e:	0e 94 65 28 	call	0x50ca	; 0x50ca <sin>
    3a22:	9b 01       	movw	r18, r22
    3a24:	ac 01       	movw	r20, r24
    3a26:	c3 01       	movw	r24, r6
    3a28:	b2 01       	movw	r22, r4
    3a2a:	0e 94 b6 27 	call	0x4f6c	; 0x4f6c <__mulsf3>
    3a2e:	4b 01       	movw	r8, r22
    3a30:	5c 01       	movw	r10, r24
	
	x-= dax*cos(p_rad)+day*sin(p_rad);
    3a32:	c7 01       	movw	r24, r14
    3a34:	b6 01       	movw	r22, r12
    3a36:	0e 94 cf 25 	call	0x4b9e	; 0x4b9e <cos>
    3a3a:	6d 87       	std	Y+13, r22	; 0x0d
    3a3c:	7e 87       	std	Y+14, r23	; 0x0e
    3a3e:	8f 87       	std	Y+15, r24	; 0x0f
    3a40:	98 8b       	std	Y+16, r25	; 0x10
    3a42:	c7 01       	movw	r24, r14
    3a44:	b6 01       	movw	r22, r12
    3a46:	0e 94 65 28 	call	0x50ca	; 0x50ca <sin>
    3a4a:	69 8b       	std	Y+17, r22	; 0x11
    3a4c:	7a 8b       	std	Y+18, r23	; 0x12
    3a4e:	8b 8b       	std	Y+19, r24	; 0x13
    3a50:	9c 8b       	std	Y+20, r25	; 0x14
    3a52:	2d 85       	ldd	r18, Y+13	; 0x0d
    3a54:	3e 85       	ldd	r19, Y+14	; 0x0e
    3a56:	4f 85       	ldd	r20, Y+15	; 0x0f
    3a58:	58 89       	ldd	r21, Y+16	; 0x10
    3a5a:	6d 89       	ldd	r22, Y+21	; 0x15
    3a5c:	7e 89       	ldd	r23, Y+22	; 0x16
    3a5e:	8f 89       	ldd	r24, Y+23	; 0x17
    3a60:	98 8d       	ldd	r25, Y+24	; 0x18
    3a62:	0e 94 b6 27 	call	0x4f6c	; 0x4f6c <__mulsf3>
    3a66:	6d 8f       	std	Y+29, r22	; 0x1d
    3a68:	7e 8f       	std	Y+30, r23	; 0x1e
    3a6a:	8f 8f       	std	Y+31, r24	; 0x1f
    3a6c:	98 a3       	std	Y+32, r25	; 0x20
    3a6e:	29 89       	ldd	r18, Y+17	; 0x11
    3a70:	3a 89       	ldd	r19, Y+18	; 0x12
    3a72:	4b 89       	ldd	r20, Y+19	; 0x13
    3a74:	5c 89       	ldd	r21, Y+20	; 0x14
    3a76:	c5 01       	movw	r24, r10
    3a78:	b4 01       	movw	r22, r8
    3a7a:	0e 94 b6 27 	call	0x4f6c	; 0x4f6c <__mulsf3>
    3a7e:	9b 01       	movw	r18, r22
    3a80:	ac 01       	movw	r20, r24
    3a82:	6d 8d       	ldd	r22, Y+29	; 0x1d
    3a84:	7e 8d       	ldd	r23, Y+30	; 0x1e
    3a86:	8f 8d       	ldd	r24, Y+31	; 0x1f
    3a88:	98 a1       	ldd	r25, Y+32	; 0x20
    3a8a:	0e 94 67 25 	call	0x4ace	; 0x4ace <__addsf3>
    3a8e:	9b 01       	movw	r18, r22
    3a90:	ac 01       	movw	r20, r24
    3a92:	60 91 bc 0d 	lds	r22, 0x0DBC	; 0x800dbc <x>
    3a96:	70 91 bd 0d 	lds	r23, 0x0DBD	; 0x800dbd <x+0x1>
    3a9a:	80 91 be 0d 	lds	r24, 0x0DBE	; 0x800dbe <x+0x2>
    3a9e:	90 91 bf 0d 	lds	r25, 0x0DBF	; 0x800dbf <x+0x3>
    3aa2:	0e 94 66 25 	call	0x4acc	; 0x4acc <__subsf3>
    3aa6:	60 93 bc 0d 	sts	0x0DBC, r22	; 0x800dbc <x>
    3aaa:	70 93 bd 0d 	sts	0x0DBD, r23	; 0x800dbd <x+0x1>
    3aae:	80 93 be 0d 	sts	0x0DBE, r24	; 0x800dbe <x+0x2>
    3ab2:	90 93 bf 0d 	sts	0x0DBF, r25	; 0x800dbf <x+0x3>
	y+= day*cos(p_rad)-dax*sin(p_rad);
    3ab6:	2d 85       	ldd	r18, Y+13	; 0x0d
    3ab8:	3e 85       	ldd	r19, Y+14	; 0x0e
    3aba:	4f 85       	ldd	r20, Y+15	; 0x0f
    3abc:	58 89       	ldd	r21, Y+16	; 0x10
    3abe:	c5 01       	movw	r24, r10
    3ac0:	b4 01       	movw	r22, r8
    3ac2:	0e 94 b6 27 	call	0x4f6c	; 0x4f6c <__mulsf3>
    3ac6:	4b 01       	movw	r8, r22
    3ac8:	5c 01       	movw	r10, r24
    3aca:	29 89       	ldd	r18, Y+17	; 0x11
    3acc:	3a 89       	ldd	r19, Y+18	; 0x12
    3ace:	4b 89       	ldd	r20, Y+19	; 0x13
    3ad0:	5c 89       	ldd	r21, Y+20	; 0x14
    3ad2:	6d 89       	ldd	r22, Y+21	; 0x15
    3ad4:	7e 89       	ldd	r23, Y+22	; 0x16
    3ad6:	8f 89       	ldd	r24, Y+23	; 0x17
    3ad8:	98 8d       	ldd	r25, Y+24	; 0x18
    3ada:	0e 94 b6 27 	call	0x4f6c	; 0x4f6c <__mulsf3>
    3ade:	9b 01       	movw	r18, r22
    3ae0:	ac 01       	movw	r20, r24
    3ae2:	c5 01       	movw	r24, r10
    3ae4:	b4 01       	movw	r22, r8
    3ae6:	f2 d7       	rcall	.+4068   	; 0x4acc <__subsf3>
    3ae8:	9b 01       	movw	r18, r22
    3aea:	ac 01       	movw	r20, r24
    3aec:	60 91 b8 0d 	lds	r22, 0x0DB8	; 0x800db8 <y>
    3af0:	70 91 b9 0d 	lds	r23, 0x0DB9	; 0x800db9 <y+0x1>
    3af4:	80 91 ba 0d 	lds	r24, 0x0DBA	; 0x800dba <y+0x2>
    3af8:	90 91 bb 0d 	lds	r25, 0x0DBB	; 0x800dbb <y+0x3>
    3afc:	e8 d7       	rcall	.+4048   	; 0x4ace <__addsf3>
    3afe:	60 93 b8 0d 	sts	0x0DB8, r22	; 0x800db8 <y>
    3b02:	70 93 b9 0d 	sts	0x0DB9, r23	; 0x800db9 <y+0x1>
    3b06:	80 93 ba 0d 	sts	0x0DBA, r24	; 0x800dba <y+0x2>
    3b0a:	90 93 bb 0d 	sts	0x0DBB, r25	; 0x800dbb <y+0x3>
	
	p = p_rad/PI*180;
    3b0e:	2b ed       	ldi	r18, 0xDB	; 219
    3b10:	3f e0       	ldi	r19, 0x0F	; 15
    3b12:	49 e4       	ldi	r20, 0x49	; 73
    3b14:	50 e4       	ldi	r21, 0x40	; 64
    3b16:	c7 01       	movw	r24, r14
    3b18:	b6 01       	movw	r22, r12
    3b1a:	0e 94 d2 25 	call	0x4ba4	; 0x4ba4 <__divsf3>
    3b1e:	20 e0       	ldi	r18, 0x00	; 0
    3b20:	30 e0       	ldi	r19, 0x00	; 0
    3b22:	44 e3       	ldi	r20, 0x34	; 52
    3b24:	53 e4       	ldi	r21, 0x43	; 67
    3b26:	0e 94 b6 27 	call	0x4f6c	; 0x4f6c <__mulsf3>
    3b2a:	60 93 b4 0d 	sts	0x0DB4, r22	; 0x800db4 <p>
    3b2e:	70 93 b5 0d 	sts	0x0DB5, r23	; 0x800db5 <p+0x1>
    3b32:	80 93 b6 0d 	sts	0x0DB6, r24	; 0x800db6 <p+0x2>
    3b36:	90 93 b7 0d 	sts	0x0DB7, r25	; 0x800db7 <p+0x3>
	
	#ifdef POS_DEBUG
	 	Serial.print("X_step:");
    3b3a:	6f ee       	ldi	r22, 0xEF	; 239
    3b3c:	7b e0       	ldi	r23, 0x0B	; 11
    3b3e:	84 e8       	ldi	r24, 0x84	; 132
    3b40:	9e e0       	ldi	r25, 0x0E	; 14
    3b42:	0e 94 73 2c 	call	0x58e6	; 0x58e6 <_ZN5Print5printEPKc>
	 	Serial.print(x_step);
    3b46:	40 91 b0 0d 	lds	r20, 0x0DB0	; 0x800db0 <x_step>
    3b4a:	50 91 b1 0d 	lds	r21, 0x0DB1	; 0x800db1 <x_step+0x1>
    3b4e:	60 91 b2 0d 	lds	r22, 0x0DB2	; 0x800db2 <x_step+0x2>
    3b52:	70 91 b3 0d 	lds	r23, 0x0DB3	; 0x800db3 <x_step+0x3>
    3b56:	2a e0       	ldi	r18, 0x0A	; 10
    3b58:	30 e0       	ldi	r19, 0x00	; 0
    3b5a:	84 e8       	ldi	r24, 0x84	; 132
    3b5c:	9e e0       	ldi	r25, 0x0E	; 14
    3b5e:	0e 94 e0 2c 	call	0x59c0	; 0x59c0 <_ZN5Print5printEli>
	 	Serial.print(" Y_step:");
    3b62:	67 ef       	ldi	r22, 0xF7	; 247
    3b64:	7b e0       	ldi	r23, 0x0B	; 11
    3b66:	84 e8       	ldi	r24, 0x84	; 132
    3b68:	9e e0       	ldi	r25, 0x0E	; 14
    3b6a:	0e 94 73 2c 	call	0x58e6	; 0x58e6 <_ZN5Print5printEPKc>
	 	Serial.print(y_step);
    3b6e:	40 91 ac 0d 	lds	r20, 0x0DAC	; 0x800dac <y_step>
    3b72:	50 91 ad 0d 	lds	r21, 0x0DAD	; 0x800dad <y_step+0x1>
    3b76:	60 91 ae 0d 	lds	r22, 0x0DAE	; 0x800dae <y_step+0x2>
    3b7a:	70 91 af 0d 	lds	r23, 0x0DAF	; 0x800daf <y_step+0x3>
    3b7e:	2a e0       	ldi	r18, 0x0A	; 10
    3b80:	30 e0       	ldi	r19, 0x00	; 0
    3b82:	84 e8       	ldi	r24, 0x84	; 132
    3b84:	9e e0       	ldi	r25, 0x0E	; 14
    3b86:	0e 94 e0 2c 	call	0x59c0	; 0x59c0 <_ZN5Print5printEli>
	 	Serial.print(" P_step:");
    3b8a:	60 e0       	ldi	r22, 0x00	; 0
    3b8c:	7c e0       	ldi	r23, 0x0C	; 12
    3b8e:	84 e8       	ldi	r24, 0x84	; 132
    3b90:	9e e0       	ldi	r25, 0x0E	; 14
    3b92:	0e 94 73 2c 	call	0x58e6	; 0x58e6 <_ZN5Print5printEPKc>
	 	Serial.print(p_step);
    3b96:	40 91 a8 0d 	lds	r20, 0x0DA8	; 0x800da8 <p_step>
    3b9a:	50 91 a9 0d 	lds	r21, 0x0DA9	; 0x800da9 <p_step+0x1>
    3b9e:	60 91 aa 0d 	lds	r22, 0x0DAA	; 0x800daa <p_step+0x2>
    3ba2:	70 91 ab 0d 	lds	r23, 0x0DAB	; 0x800dab <p_step+0x3>
    3ba6:	2a e0       	ldi	r18, 0x0A	; 10
    3ba8:	30 e0       	ldi	r19, 0x00	; 0
    3baa:	84 e8       	ldi	r24, 0x84	; 132
    3bac:	9e e0       	ldi	r25, 0x0E	; 14
    3bae:	0e 94 e0 2c 	call	0x59c0	; 0x59c0 <_ZN5Print5printEli>
	
	//>
	 	Serial.print("X_mm:");
    3bb2:	69 e4       	ldi	r22, 0x49	; 73
    3bb4:	77 e0       	ldi	r23, 0x07	; 7
    3bb6:	84 e8       	ldi	r24, 0x84	; 132
    3bb8:	9e e0       	ldi	r25, 0x0E	; 14
    3bba:	0e 94 73 2c 	call	0x58e6	; 0x58e6 <_ZN5Print5printEPKc>
	 	Serial.print(x1);
    3bbe:	22 e0       	ldi	r18, 0x02	; 2
    3bc0:	30 e0       	ldi	r19, 0x00	; 0
    3bc2:	49 85       	ldd	r20, Y+9	; 0x09
    3bc4:	5a 85       	ldd	r21, Y+10	; 0x0a
    3bc6:	6b 85       	ldd	r22, Y+11	; 0x0b
    3bc8:	7c 85       	ldd	r23, Y+12	; 0x0c
    3bca:	84 e8       	ldi	r24, 0x84	; 132
    3bcc:	9e e0       	ldi	r25, 0x0E	; 14
    3bce:	0e 94 35 2e 	call	0x5c6a	; 0x5c6a <_ZN5Print5printEdi>
	 	Serial.print("Y_mm:");
    3bd2:	6f e4       	ldi	r22, 0x4F	; 79
    3bd4:	77 e0       	ldi	r23, 0x07	; 7
    3bd6:	84 e8       	ldi	r24, 0x84	; 132
    3bd8:	9e e0       	ldi	r25, 0x0E	; 14
    3bda:	0e 94 73 2c 	call	0x58e6	; 0x58e6 <_ZN5Print5printEPKc>
	 	Serial.print(y1);
    3bde:	22 e0       	ldi	r18, 0x02	; 2
    3be0:	30 e0       	ldi	r19, 0x00	; 0
    3be2:	49 81       	ldd	r20, Y+1	; 0x01
    3be4:	5a 81       	ldd	r21, Y+2	; 0x02
    3be6:	6b 81       	ldd	r22, Y+3	; 0x03
    3be8:	7c 81       	ldd	r23, Y+4	; 0x04
    3bea:	84 e8       	ldi	r24, 0x84	; 132
    3bec:	9e e0       	ldi	r25, 0x0E	; 14
    3bee:	0e 94 35 2e 	call	0x5c6a	; 0x5c6a <_ZN5Print5printEdi>
	 	Serial.print("P_mm:");
    3bf2:	65 e5       	ldi	r22, 0x55	; 85
    3bf4:	77 e0       	ldi	r23, 0x07	; 7
    3bf6:	84 e8       	ldi	r24, 0x84	; 132
    3bf8:	9e e0       	ldi	r25, 0x0E	; 14
    3bfa:	0e 94 73 2c 	call	0x58e6	; 0x58e6 <_ZN5Print5printEPKc>
	 	Serial.print(p1);  //
    3bfe:	22 e0       	ldi	r18, 0x02	; 2
    3c00:	30 e0       	ldi	r19, 0x00	; 0
    3c02:	4d 81       	ldd	r20, Y+5	; 0x05
    3c04:	5e 81       	ldd	r21, Y+6	; 0x06
    3c06:	6f 81       	ldd	r22, Y+7	; 0x07
    3c08:	78 85       	ldd	r23, Y+8	; 0x08
    3c0a:	84 e8       	ldi	r24, 0x84	; 132
    3c0c:	9e e0       	ldi	r25, 0x0E	; 14
    3c0e:	0e 94 35 2e 	call	0x5c6a	; 0x5c6a <_ZN5Print5printEdi>
	
	//>
	Serial.print("X2_mm:");
    3c12:	69 e0       	ldi	r22, 0x09	; 9
    3c14:	7c e0       	ldi	r23, 0x0C	; 12
    3c16:	84 e8       	ldi	r24, 0x84	; 132
    3c18:	9e e0       	ldi	r25, 0x0E	; 14
    3c1a:	0e 94 73 2c 	call	0x58e6	; 0x58e6 <_ZN5Print5printEPKc>
	Serial.print(dx);
    3c1e:	22 e0       	ldi	r18, 0x02	; 2
    3c20:	30 e0       	ldi	r19, 0x00	; 0
    3c22:	49 8d       	ldd	r20, Y+25	; 0x19
    3c24:	5a 8d       	ldd	r21, Y+26	; 0x1a
    3c26:	6b 8d       	ldd	r22, Y+27	; 0x1b
    3c28:	7c 8d       	ldd	r23, Y+28	; 0x1c
    3c2a:	84 e8       	ldi	r24, 0x84	; 132
    3c2c:	9e e0       	ldi	r25, 0x0E	; 14
    3c2e:	0e 94 35 2e 	call	0x5c6a	; 0x5c6a <_ZN5Print5printEdi>
	Serial.print("Y2_mm:");
    3c32:	60 e1       	ldi	r22, 0x10	; 16
    3c34:	7c e0       	ldi	r23, 0x0C	; 12
    3c36:	84 e8       	ldi	r24, 0x84	; 132
    3c38:	9e e0       	ldi	r25, 0x0E	; 14
    3c3a:	0e 94 73 2c 	call	0x58e6	; 0x58e6 <_ZN5Print5printEPKc>
	Serial.print(dy);
    3c3e:	22 e0       	ldi	r18, 0x02	; 2
    3c40:	30 e0       	ldi	r19, 0x00	; 0
    3c42:	b3 01       	movw	r22, r6
    3c44:	a2 01       	movw	r20, r4
    3c46:	84 e8       	ldi	r24, 0x84	; 132
    3c48:	9e e0       	ldi	r25, 0x0E	; 14
    3c4a:	0e 94 35 2e 	call	0x5c6a	; 0x5c6a <_ZN5Print5printEdi>
	Serial.print("P2_mm:");
    3c4e:	67 e1       	ldi	r22, 0x17	; 23
    3c50:	7c e0       	ldi	r23, 0x0C	; 12
    3c52:	84 e8       	ldi	r24, 0x84	; 132
    3c54:	9e e0       	ldi	r25, 0x0E	; 14
    3c56:	0e 94 73 2c 	call	0x58e6	; 0x58e6 <_ZN5Print5printEPKc>
	Serial.print(p2 );  //
    3c5a:	22 e0       	ldi	r18, 0x02	; 2
    3c5c:	30 e0       	ldi	r19, 0x00	; 0
    3c5e:	b7 01       	movw	r22, r14
    3c60:	a6 01       	movw	r20, r12
    3c62:	84 e8       	ldi	r24, 0x84	; 132
    3c64:	9e e0       	ldi	r25, 0x0E	; 14
    3c66:	0e 94 35 2e 	call	0x5c6a	; 0x5c6a <_ZN5Print5printEdi>
	
	//
	Serial.print("X_fina:");
    3c6a:	6e e1       	ldi	r22, 0x1E	; 30
    3c6c:	7c e0       	ldi	r23, 0x0C	; 12
    3c6e:	84 e8       	ldi	r24, 0x84	; 132
    3c70:	9e e0       	ldi	r25, 0x0E	; 14
    3c72:	0e 94 73 2c 	call	0x58e6	; 0x58e6 <_ZN5Print5printEPKc>
	Serial.print(x);
    3c76:	40 91 bc 0d 	lds	r20, 0x0DBC	; 0x800dbc <x>
    3c7a:	50 91 bd 0d 	lds	r21, 0x0DBD	; 0x800dbd <x+0x1>
    3c7e:	60 91 be 0d 	lds	r22, 0x0DBE	; 0x800dbe <x+0x2>
    3c82:	70 91 bf 0d 	lds	r23, 0x0DBF	; 0x800dbf <x+0x3>
    3c86:	22 e0       	ldi	r18, 0x02	; 2
    3c88:	30 e0       	ldi	r19, 0x00	; 0
    3c8a:	84 e8       	ldi	r24, 0x84	; 132
    3c8c:	9e e0       	ldi	r25, 0x0E	; 14
    3c8e:	0e 94 35 2e 	call	0x5c6a	; 0x5c6a <_ZN5Print5printEdi>
	Serial.print("Y_fina:");
    3c92:	66 e2       	ldi	r22, 0x26	; 38
    3c94:	7c e0       	ldi	r23, 0x0C	; 12
    3c96:	84 e8       	ldi	r24, 0x84	; 132
    3c98:	9e e0       	ldi	r25, 0x0E	; 14
    3c9a:	0e 94 73 2c 	call	0x58e6	; 0x58e6 <_ZN5Print5printEPKc>
	Serial.print(y);
    3c9e:	40 91 b8 0d 	lds	r20, 0x0DB8	; 0x800db8 <y>
    3ca2:	50 91 b9 0d 	lds	r21, 0x0DB9	; 0x800db9 <y+0x1>
    3ca6:	60 91 ba 0d 	lds	r22, 0x0DBA	; 0x800dba <y+0x2>
    3caa:	70 91 bb 0d 	lds	r23, 0x0DBB	; 0x800dbb <y+0x3>
    3cae:	22 e0       	ldi	r18, 0x02	; 2
    3cb0:	30 e0       	ldi	r19, 0x00	; 0
    3cb2:	84 e8       	ldi	r24, 0x84	; 132
    3cb4:	9e e0       	ldi	r25, 0x0E	; 14
    3cb6:	0e 94 35 2e 	call	0x5c6a	; 0x5c6a <_ZN5Print5printEdi>
	Serial.print("P_fina:");
    3cba:	6e e2       	ldi	r22, 0x2E	; 46
    3cbc:	7c e0       	ldi	r23, 0x0C	; 12
    3cbe:	84 e8       	ldi	r24, 0x84	; 132
    3cc0:	9e e0       	ldi	r25, 0x0E	; 14
    3cc2:	0e 94 73 2c 	call	0x58e6	; 0x58e6 <_ZN5Print5printEPKc>
	Serial.println(p);  //
    3cc6:	40 91 b4 0d 	lds	r20, 0x0DB4	; 0x800db4 <p>
    3cca:	50 91 b5 0d 	lds	r21, 0x0DB5	; 0x800db5 <p+0x1>
    3cce:	60 91 b6 0d 	lds	r22, 0x0DB6	; 0x800db6 <p+0x2>
    3cd2:	70 91 b7 0d 	lds	r23, 0x0DB7	; 0x800db7 <p+0x3>
    3cd6:	22 e0       	ldi	r18, 0x02	; 2
    3cd8:	30 e0       	ldi	r19, 0x00	; 0
    3cda:	84 e8       	ldi	r24, 0x84	; 132
    3cdc:	9e e0       	ldi	r25, 0x0E	; 14
	#endif // SERIAL_DEBUG
}
    3cde:	a0 96       	adiw	r28, 0x20	; 32
    3ce0:	0f b6       	in	r0, 0x3f	; 63
    3ce2:	f8 94       	cli
    3ce4:	de bf       	out	0x3e, r29	; 62
    3ce6:	0f be       	out	0x3f, r0	; 63
    3ce8:	cd bf       	out	0x3d, r28	; 61
    3cea:	df 91       	pop	r29
    3cec:	cf 91       	pop	r28
    3cee:	ff 90       	pop	r15
    3cf0:	ef 90       	pop	r14
    3cf2:	df 90       	pop	r13
    3cf4:	cf 90       	pop	r12
    3cf6:	bf 90       	pop	r11
    3cf8:	af 90       	pop	r10
    3cfa:	9f 90       	pop	r9
    3cfc:	8f 90       	pop	r8
    3cfe:	7f 90       	pop	r7
    3d00:	6f 90       	pop	r6
    3d02:	5f 90       	pop	r5
    3d04:	4f 90       	pop	r4
	Serial.print("X_fina:");
	Serial.print(x);
	Serial.print("Y_fina:");
	Serial.print(y);
	Serial.print("P_fina:");
	Serial.println(p);  //
    3d06:	0c 94 36 2e 	jmp	0x5c6c	; 0x5c6c <_ZN5Print7printlnEdi>

00003d0a <_Z6blinkXv>:
const int y_line = 512;
const int p_line = 512;

void blinkX()
{
	int xstate = digitalRead(INT0B);
    3d0a:	84 e0       	ldi	r24, 0x04	; 4
    3d0c:	0e 94 f3 31 	call	0x63e6	; 0x63e6 <digitalRead>
    3d10:	40 91 b0 0d 	lds	r20, 0x0DB0	; 0x800db0 <x_step>
    3d14:	50 91 b1 0d 	lds	r21, 0x0DB1	; 0x800db1 <x_step+0x1>
    3d18:	60 91 b2 0d 	lds	r22, 0x0DB2	; 0x800db2 <x_step+0x2>
    3d1c:	70 91 b3 0d 	lds	r23, 0x0DB3	; 0x800db3 <x_step+0x3>
	if (xstate == HIGH)
    3d20:	01 97       	sbiw	r24, 0x01	; 1
    3d22:	29 f4       	brne	.+10     	; 0x3d2e <_Z6blinkXv+0x24>
	x_step++;
    3d24:	4f 5f       	subi	r20, 0xFF	; 255
    3d26:	5f 4f       	sbci	r21, 0xFF	; 255
    3d28:	6f 4f       	sbci	r22, 0xFF	; 255
    3d2a:	7f 4f       	sbci	r23, 0xFF	; 255
    3d2c:	04 c0       	rjmp	.+8      	; 0x3d36 <_Z6blinkXv+0x2c>
	else
	x_step--;
    3d2e:	41 50       	subi	r20, 0x01	; 1
    3d30:	51 09       	sbc	r21, r1
    3d32:	61 09       	sbc	r22, r1
    3d34:	71 09       	sbc	r23, r1
    3d36:	40 93 b0 0d 	sts	0x0DB0, r20	; 0x800db0 <x_step>
    3d3a:	50 93 b1 0d 	sts	0x0DB1, r21	; 0x800db1 <x_step+0x1>
    3d3e:	60 93 b2 0d 	sts	0x0DB2, r22	; 0x800db2 <x_step+0x2>
    3d42:	70 93 b3 0d 	sts	0x0DB3, r23	; 0x800db3 <x_step+0x3>
    3d46:	08 95       	ret

00003d48 <_Z6blinkYv>:
}

void blinkY()
{
	int ystate = digitalRead(INT1B);
    3d48:	85 e0       	ldi	r24, 0x05	; 5
    3d4a:	0e 94 f3 31 	call	0x63e6	; 0x63e6 <digitalRead>
    3d4e:	40 91 ac 0d 	lds	r20, 0x0DAC	; 0x800dac <y_step>
    3d52:	50 91 ad 0d 	lds	r21, 0x0DAD	; 0x800dad <y_step+0x1>
    3d56:	60 91 ae 0d 	lds	r22, 0x0DAE	; 0x800dae <y_step+0x2>
    3d5a:	70 91 af 0d 	lds	r23, 0x0DAF	; 0x800daf <y_step+0x3>
	if (ystate == HIGH)
    3d5e:	01 97       	sbiw	r24, 0x01	; 1
    3d60:	29 f4       	brne	.+10     	; 0x3d6c <_Z6blinkYv+0x24>
	y_step--;
    3d62:	41 50       	subi	r20, 0x01	; 1
    3d64:	51 09       	sbc	r21, r1
    3d66:	61 09       	sbc	r22, r1
    3d68:	71 09       	sbc	r23, r1
    3d6a:	04 c0       	rjmp	.+8      	; 0x3d74 <_Z6blinkYv+0x2c>
	else
	y_step++;
    3d6c:	4f 5f       	subi	r20, 0xFF	; 255
    3d6e:	5f 4f       	sbci	r21, 0xFF	; 255
    3d70:	6f 4f       	sbci	r22, 0xFF	; 255
    3d72:	7f 4f       	sbci	r23, 0xFF	; 255
    3d74:	40 93 ac 0d 	sts	0x0DAC, r20	; 0x800dac <y_step>
    3d78:	50 93 ad 0d 	sts	0x0DAD, r21	; 0x800dad <y_step+0x1>
    3d7c:	60 93 ae 0d 	sts	0x0DAE, r22	; 0x800dae <y_step+0x2>
    3d80:	70 93 af 0d 	sts	0x0DAF, r23	; 0x800daf <y_step+0x3>
    3d84:	08 95       	ret

00003d86 <_Z6blinkPv>:
}

void blinkP()
{
	int pstate = digitalRead(INT2B);
    3d86:	86 e0       	ldi	r24, 0x06	; 6
    3d88:	0e 94 f3 31 	call	0x63e6	; 0x63e6 <digitalRead>
    3d8c:	40 91 a8 0d 	lds	r20, 0x0DA8	; 0x800da8 <p_step>
    3d90:	50 91 a9 0d 	lds	r21, 0x0DA9	; 0x800da9 <p_step+0x1>
    3d94:	60 91 aa 0d 	lds	r22, 0x0DAA	; 0x800daa <p_step+0x2>
    3d98:	70 91 ab 0d 	lds	r23, 0x0DAB	; 0x800dab <p_step+0x3>
	if (pstate == HIGH)
    3d9c:	01 97       	sbiw	r24, 0x01	; 1
    3d9e:	29 f4       	brne	.+10     	; 0x3daa <_Z6blinkPv+0x24>
	p_step--;
    3da0:	41 50       	subi	r20, 0x01	; 1
    3da2:	51 09       	sbc	r21, r1
    3da4:	61 09       	sbc	r22, r1
    3da6:	71 09       	sbc	r23, r1
    3da8:	04 c0       	rjmp	.+8      	; 0x3db2 <_Z6blinkPv+0x2c>
	else
	p_step++;
    3daa:	4f 5f       	subi	r20, 0xFF	; 255
    3dac:	5f 4f       	sbci	r21, 0xFF	; 255
    3dae:	6f 4f       	sbci	r22, 0xFF	; 255
    3db0:	7f 4f       	sbci	r23, 0xFF	; 255
    3db2:	40 93 a8 0d 	sts	0x0DA8, r20	; 0x800da8 <p_step>
    3db6:	50 93 a9 0d 	sts	0x0DA9, r21	; 0x800da9 <p_step+0x1>
    3dba:	60 93 aa 0d 	sts	0x0DAA, r22	; 0x800daa <p_step+0x2>
    3dbe:	70 93 ab 0d 	sts	0x0DAB, r23	; 0x800dab <p_step+0x3>
    3dc2:	08 95       	ret

00003dc4 <_Z9POS_beginv>:
}

void POS_begin()
{
	pinMode(INT0A, INPUT_PULLUP);
    3dc4:	62 e0       	ldi	r22, 0x02	; 2
    3dc6:	83 e1       	ldi	r24, 0x13	; 19
    3dc8:	0e 94 88 31 	call	0x6310	; 0x6310 <pinMode>
	pinMode(INT1A, INPUT_PULLUP);
    3dcc:	62 e0       	ldi	r22, 0x02	; 2
    3dce:	82 e0       	ldi	r24, 0x02	; 2
    3dd0:	0e 94 88 31 	call	0x6310	; 0x6310 <pinMode>
	pinMode(INT2A, INPUT_PULLUP);
    3dd4:	62 e0       	ldi	r22, 0x02	; 2
    3dd6:	83 e0       	ldi	r24, 0x03	; 3
    3dd8:	0e 94 88 31 	call	0x6310	; 0x6310 <pinMode>
	
	pinMode(INT0B, INPUT_PULLUP);
    3ddc:	62 e0       	ldi	r22, 0x02	; 2
    3dde:	84 e0       	ldi	r24, 0x04	; 4
    3de0:	0e 94 88 31 	call	0x6310	; 0x6310 <pinMode>
	pinMode(INT1B, INPUT_PULLUP);
    3de4:	62 e0       	ldi	r22, 0x02	; 2
    3de6:	85 e0       	ldi	r24, 0x05	; 5
    3de8:	0e 94 88 31 	call	0x6310	; 0x6310 <pinMode>
	pinMode(INT2B, INPUT_PULLUP);
    3dec:	62 e0       	ldi	r22, 0x02	; 2
    3dee:	86 e0       	ldi	r24, 0x06	; 6
    3df0:	0e 94 88 31 	call	0x6310	; 0x6310 <pinMode>
	
	attachInterrupt(digitalPinToInterrupt(INT0A), blinkX, FALLING);
    3df4:	42 e0       	ldi	r20, 0x02	; 2
    3df6:	50 e0       	ldi	r21, 0x00	; 0
    3df8:	65 e8       	ldi	r22, 0x85	; 133
    3dfa:	7e e1       	ldi	r23, 0x1E	; 30
    3dfc:	84 e0       	ldi	r24, 0x04	; 4
    3dfe:	0e 94 47 2e 	call	0x5c8e	; 0x5c8e <attachInterrupt>
	attachInterrupt(digitalPinToInterrupt(INT1A), blinkY, FALLING);
    3e02:	42 e0       	ldi	r20, 0x02	; 2
    3e04:	50 e0       	ldi	r21, 0x00	; 0
    3e06:	64 ea       	ldi	r22, 0xA4	; 164
    3e08:	7e e1       	ldi	r23, 0x1E	; 30
    3e0a:	80 e0       	ldi	r24, 0x00	; 0
    3e0c:	0e 94 47 2e 	call	0x5c8e	; 0x5c8e <attachInterrupt>
	attachInterrupt(digitalPinToInterrupt(INT2A), blinkP, FALLING);
    3e10:	42 e0       	ldi	r20, 0x02	; 2
    3e12:	50 e0       	ldi	r21, 0x00	; 0
    3e14:	63 ec       	ldi	r22, 0xC3	; 195
    3e16:	7e e1       	ldi	r23, 0x1E	; 30
    3e18:	81 e0       	ldi	r24, 0x01	; 1
    3e1a:	0c 94 47 2e 	jmp	0x5c8e	; 0x5c8e <attachInterrupt>

00003e1e <setup>:
ComwithShot CS;
Kinematics kinematics(300,0.068, 0.5,8);
ComwithMotor cm;
String state = "begin";

void setup() {
    3e1e:	cf 93       	push	r28
    3e20:	df 93       	push	r29
    3e22:	00 d0       	rcall	.+0      	; 0x3e24 <setup+0x6>
    3e24:	00 d0       	rcall	.+0      	; 0x3e26 <setup+0x8>
    3e26:	cd b7       	in	r28, 0x3d	; 61
    3e28:	de b7       	in	r29, 0x3e	; 62
    3e2a:	26 e0       	ldi	r18, 0x06	; 6
    3e2c:	40 e0       	ldi	r20, 0x00	; 0
    3e2e:	52 ec       	ldi	r21, 0xC2	; 194
    3e30:	61 e0       	ldi	r22, 0x01	; 1
    3e32:	70 e0       	ldi	r23, 0x00	; 0
    3e34:	84 e8       	ldi	r24, 0x84	; 132
    3e36:	9e e0       	ldi	r25, 0x0E	; 14
    3e38:	0e 94 89 2a 	call	0x5512	; 0x5512 <_ZN14HardwareSerial5beginEmh>
	// put your setup code here, to run once:
	Serial.begin(115200);
	toPC.begin(115200);
    3e3c:	40 e0       	ldi	r20, 0x00	; 0
    3e3e:	52 ec       	ldi	r21, 0xC2	; 194
    3e40:	61 e0       	ldi	r22, 0x01	; 1
    3e42:	70 e0       	ldi	r23, 0x00	; 0
    3e44:	8f e6       	ldi	r24, 0x6F	; 111
    3e46:	9d e0       	ldi	r25, 0x0D	; 13
    3e48:	0e 94 4e 11 	call	0x229c	; 0x229c <_ZN9ComwithPC5beginEm>
	
	dp.begin();
    3e4c:	80 e7       	ldi	r24, 0x70	; 112
    3e4e:	9d e0       	ldi	r25, 0x0D	; 13
    3e50:	0e 94 9d 12 	call	0x253a	; 0x253a <_ZN7Display5beginEv>
	cm.begin();
    3e54:	8c ee       	ldi	r24, 0xEC	; 236
    3e56:	9c e0       	ldi	r25, 0x0C	; 12
    3e58:	0e 94 d5 10 	call	0x21aa	; 0x21aa <_ZN12ComwithMotor5beginEv>
	POS_begin();
    3e5c:	b3 df       	rcall	.-154    	; 0x3dc4 <_Z9POS_beginv>
	
	tc1.setMode("CTC",50);
    3e5e:	66 e3       	ldi	r22, 0x36	; 54
    3e60:	7c e0       	ldi	r23, 0x0C	; 12
    3e62:	ce 01       	movw	r24, r28
    3e64:	01 96       	adiw	r24, 0x01	; 1
    3e66:	0e 94 c1 32 	call	0x6582	; 0x6582 <_ZN6StringC1EPKc>
    3e6a:	42 e3       	ldi	r20, 0x32	; 50
    3e6c:	50 e0       	ldi	r21, 0x00	; 0
    3e6e:	be 01       	movw	r22, r28
    3e70:	6f 5f       	subi	r22, 0xFF	; 255
    3e72:	7f 4f       	sbci	r23, 0xFF	; 255
    3e74:	8e e3       	ldi	r24, 0x3E	; 62
    3e76:	9d e0       	ldi	r25, 0x0D	; 13
    3e78:	88 d5       	rcall	.+2832   	; 0x498a <_ZN6Timer17setModeE6Stringi>
    3e7a:	ce 01       	movw	r24, r28
    3e7c:	01 96       	adiw	r24, 0x01	; 1
    3e7e:	0e 94 5a 32 	call	0x64b4	; 0x64b4 <_ZN6StringD1Ev>
	tc1.attachInterrupt(POS_refresh);
    3e82:	69 ec       	ldi	r22, 0xC9	; 201
    3e84:	7b e1       	ldi	r23, 0x1B	; 27
    3e86:	8e e3       	ldi	r24, 0x3E	; 62
    3e88:	9d e0       	ldi	r25, 0x0D	; 13
    3e8a:	ee d5       	rcall	.+3036   	; 0x4a68 <_ZN6Timer115attachInterruptEPFvvE>
	PS2.begin();
    3e8c:	8a e4       	ldi	r24, 0x4A	; 74
    3e8e:	9d e0       	ldi	r25, 0x0D	; 13
    3e90:	0e 94 47 16 	call	0x2c8e	; 0x2c8e <_ZN4mPS25beginEv>

}
    3e94:	26 96       	adiw	r28, 0x06	; 6
    3e96:	0f b6       	in	r0, 0x3f	; 63
    3e98:	f8 94       	cli
    3e9a:	de bf       	out	0x3e, r29	; 62
    3e9c:	0f be       	out	0x3f, r0	; 63
    3e9e:	cd bf       	out	0x3d, r28	; 61
    3ea0:	df 91       	pop	r29
    3ea2:	cf 91       	pop	r28
    3ea4:	08 95       	ret

00003ea6 <loop>:

void loop() {
    3ea6:	2f 92       	push	r2
    3ea8:	3f 92       	push	r3
    3eaa:	4f 92       	push	r4
    3eac:	5f 92       	push	r5
    3eae:	6f 92       	push	r6
    3eb0:	7f 92       	push	r7
    3eb2:	8f 92       	push	r8
    3eb4:	9f 92       	push	r9
    3eb6:	af 92       	push	r10
    3eb8:	bf 92       	push	r11
    3eba:	cf 92       	push	r12
    3ebc:	df 92       	push	r13
    3ebe:	ef 92       	push	r14
    3ec0:	ff 92       	push	r15
    3ec2:	0f 93       	push	r16
    3ec4:	1f 93       	push	r17
    3ec6:	cf 93       	push	r28
    3ec8:	df 93       	push	r29
    3eca:	cd b7       	in	r28, 0x3d	; 61
    3ecc:	de b7       	in	r29, 0x3e	; 62
    3ece:	62 97       	sbiw	r28, 0x12	; 18
    3ed0:	0f b6       	in	r0, 0x3f	; 63
    3ed2:	f8 94       	cli
    3ed4:	de bf       	out	0x3e, r29	; 62
    3ed6:	0f be       	out	0x3f, r0	; 63
    3ed8:	cd bf       	out	0x3d, r28	; 61
	// put your main code here, to run repeatedly:
	//PS2
	PS2.refresh();
    3eda:	8a e4       	ldi	r24, 0x4A	; 74
    3edc:	9d e0       	ldi	r25, 0x0D	; 13
    3ede:	0e 94 d3 16 	call	0x2da6	; 0x2da6 <_ZN4mPS27refreshEv>
	if (PS2.shot)
    3ee2:	80 91 54 0d 	lds	r24, 0x0D54	; 0x800d54 <PS2+0xa>
    3ee6:	88 23       	and	r24, r24
    3ee8:	29 f1       	breq	.+74     	; 0x3f34 <loop+0x8e>
	{
		CS.SendXYPandSHOT(x,y,p);
    3eea:	c0 90 b4 0d 	lds	r12, 0x0DB4	; 0x800db4 <p>
    3eee:	d0 90 b5 0d 	lds	r13, 0x0DB5	; 0x800db5 <p+0x1>
    3ef2:	e0 90 b6 0d 	lds	r14, 0x0DB6	; 0x800db6 <p+0x2>
    3ef6:	f0 90 b7 0d 	lds	r15, 0x0DB7	; 0x800db7 <p+0x3>
    3efa:	00 91 b8 0d 	lds	r16, 0x0DB8	; 0x800db8 <y>
    3efe:	10 91 b9 0d 	lds	r17, 0x0DB9	; 0x800db9 <y+0x1>
    3f02:	20 91 ba 0d 	lds	r18, 0x0DBA	; 0x800dba <y+0x2>
    3f06:	30 91 bb 0d 	lds	r19, 0x0DBB	; 0x800dbb <y+0x3>
    3f0a:	40 91 bc 0d 	lds	r20, 0x0DBC	; 0x800dbc <x>
    3f0e:	50 91 bd 0d 	lds	r21, 0x0DBD	; 0x800dbd <x+0x1>
    3f12:	60 91 be 0d 	lds	r22, 0x0DBE	; 0x800dbe <x+0x2>
    3f16:	70 91 bf 0d 	lds	r23, 0x0DBF	; 0x800dbf <x+0x3>
    3f1a:	8b e3       	ldi	r24, 0x3B	; 59
    3f1c:	9d e0       	ldi	r25, 0x0D	; 13
    3f1e:	0e 94 c6 11 	call	0x238c	; 0x238c <_ZN11ComwithShot14SendXYPandSHOTEddd>
		state = "Shot!!!!!";
    3f22:	6a e3       	ldi	r22, 0x3A	; 58
    3f24:	7c e0       	ldi	r23, 0x0C	; 12
    3f26:	86 ee       	ldi	r24, 0xE6	; 230
    3f28:	9c e0       	ldi	r25, 0x0C	; 12
    3f2a:	0e 94 f2 32 	call	0x65e4	; 0x65e4 <_ZN6StringaSEPKc>
		PS2.shot = false;
    3f2e:	10 92 54 0d 	sts	0x0D54, r1	; 0x800d54 <PS2+0xa>
    3f32:	06 c0       	rjmp	.+12     	; 0x3f40 <loop+0x9a>
	}
	else
	{
		state = "Running!!!!";
    3f34:	64 e4       	ldi	r22, 0x44	; 68
    3f36:	7c e0       	ldi	r23, 0x0C	; 12
    3f38:	86 ee       	ldi	r24, 0xE6	; 230
    3f3a:	9c e0       	ldi	r25, 0x0C	; 12
    3f3c:	0e 94 f2 32 	call	0x65e4	; 0x65e4 <_ZN6StringaSEPKc>
	}
	//
	Kinematics::output pwm;
	float linear_vel_x =   float(map(PS2.analog_RY,0,255,1000,-1000))/1000;
    3f40:	60 91 59 0d 	lds	r22, 0x0D59	; 0x800d59 <PS2+0xf>
    3f44:	70 91 5a 0d 	lds	r23, 0x0D5A	; 0x800d5a <PS2+0x10>
    3f48:	07 2e       	mov	r0, r23
    3f4a:	00 0c       	add	r0, r0
    3f4c:	88 0b       	sbc	r24, r24
    3f4e:	99 0b       	sbc	r25, r25
    3f50:	77 24       	eor	r7, r7
    3f52:	7a 94       	dec	r7
    3f54:	7f 92       	push	r7
    3f56:	7f 92       	push	r7
    3f58:	2c ef       	ldi	r18, 0xFC	; 252
    3f5a:	2f 93       	push	r18
    3f5c:	28 e1       	ldi	r18, 0x18	; 24
    3f5e:	2f 93       	push	r18
    3f60:	28 ee       	ldi	r18, 0xE8	; 232
    3f62:	a2 2e       	mov	r10, r18
    3f64:	23 e0       	ldi	r18, 0x03	; 3
    3f66:	b2 2e       	mov	r11, r18
    3f68:	c1 2c       	mov	r12, r1
    3f6a:	d1 2c       	mov	r13, r1
    3f6c:	e1 2c       	mov	r14, r1
    3f6e:	f1 2c       	mov	r15, r1
    3f70:	87 01       	movw	r16, r14
    3f72:	ea 94       	dec	r14
    3f74:	20 e0       	ldi	r18, 0x00	; 0
    3f76:	30 e0       	ldi	r19, 0x00	; 0
    3f78:	a9 01       	movw	r20, r18
    3f7a:	0e 94 1b 32 	call	0x6436	; 0x6436 <_Z3maplllll>
    3f7e:	1b 01       	movw	r2, r22
    3f80:	2c 01       	movw	r4, r24
	float linear_vel_y = 0;
	float angular_vel_z =float(map(PS2.analog_LX,0,255,3140,-3140))/1500;
    3f82:	60 91 57 0d 	lds	r22, 0x0D57	; 0x800d57 <PS2+0xd>
    3f86:	70 91 58 0d 	lds	r23, 0x0D58	; 0x800d58 <PS2+0xe>
    3f8a:	07 2e       	mov	r0, r23
    3f8c:	00 0c       	add	r0, r0
    3f8e:	88 0b       	sbc	r24, r24
    3f90:	99 0b       	sbc	r25, r25
    3f92:	7f 92       	push	r7
    3f94:	7f 92       	push	r7
    3f96:	23 ef       	ldi	r18, 0xF3	; 243
    3f98:	2f 93       	push	r18
    3f9a:	2c eb       	ldi	r18, 0xBC	; 188
    3f9c:	2f 93       	push	r18
    3f9e:	44 e4       	ldi	r20, 0x44	; 68
    3fa0:	a4 2e       	mov	r10, r20
    3fa2:	4c e0       	ldi	r20, 0x0C	; 12
    3fa4:	b4 2e       	mov	r11, r20
    3fa6:	c1 2c       	mov	r12, r1
    3fa8:	d1 2c       	mov	r13, r1
    3faa:	20 e0       	ldi	r18, 0x00	; 0
    3fac:	30 e0       	ldi	r19, 0x00	; 0
    3fae:	a9 01       	movw	r20, r18
    3fb0:	0e 94 1b 32 	call	0x6436	; 0x6436 <_Z3maplllll>
    3fb4:	92 d6       	rcall	.+3364   	; 0x4cda <__floatsisf>
    3fb6:	20 e0       	ldi	r18, 0x00	; 0
    3fb8:	30 e8       	ldi	r19, 0x80	; 128
    3fba:	4b eb       	ldi	r20, 0xBB	; 187
    3fbc:	54 e4       	ldi	r21, 0x44	; 68
    3fbe:	f2 d5       	rcall	.+3044   	; 0x4ba4 <__divsf3>
    3fc0:	6b 01       	movw	r12, r22
    3fc2:	7c 01       	movw	r14, r24
	{
		state = "Running!!!!";
	}
	//
	Kinematics::output pwm;
	float linear_vel_x =   float(map(PS2.analog_RY,0,255,1000,-1000))/1000;
    3fc4:	c2 01       	movw	r24, r4
    3fc6:	b1 01       	movw	r22, r2
    3fc8:	88 d6       	rcall	.+3344   	; 0x4cda <__floatsisf>
    3fca:	20 e0       	ldi	r18, 0x00	; 0
    3fcc:	30 e0       	ldi	r19, 0x00	; 0
    3fce:	4a e7       	ldi	r20, 0x7A	; 122
    3fd0:	54 e4       	ldi	r21, 0x44	; 68
    3fd2:	e8 d5       	rcall	.+3024   	; 0x4ba4 <__divsf3>
    3fd4:	ab 01       	movw	r20, r22
    3fd6:	bc 01       	movw	r22, r24
	float linear_vel_y = 0;
	float angular_vel_z =float(map(PS2.analog_LX,0,255,3140,-3140))/1500;
	pwm = kinematics.getPWM(linear_vel_x, linear_vel_y, angular_vel_z);
    3fd8:	00 e0       	ldi	r16, 0x00	; 0
    3fda:	10 e0       	ldi	r17, 0x00	; 0
    3fdc:	98 01       	movw	r18, r16
    3fde:	8d e0       	ldi	r24, 0x0D	; 13
    3fe0:	9d e0       	ldi	r25, 0x0D	; 13
    3fe2:	0e 94 53 15 	call	0x2aa6	; 0x2aa6 <_ZN10Kinematics6getPWMEfff>
    3fe6:	29 83       	std	Y+1, r18	; 0x01
    3fe8:	3a 83       	std	Y+2, r19	; 0x02
    3fea:	4b 83       	std	Y+3, r20	; 0x03
    3fec:	5c 83       	std	Y+4, r21	; 0x04
    3fee:	6d 83       	std	Y+5, r22	; 0x05
    3ff0:	7e 83       	std	Y+6, r23	; 0x06
    3ff2:	8f 83       	std	Y+7, r24	; 0x07
    3ff4:	98 87       	std	Y+8, r25	; 0x08
    3ff6:	89 81       	ldd	r24, Y+1	; 0x01
    3ff8:	9a 81       	ldd	r25, Y+2	; 0x02
    3ffa:	9a 8b       	std	Y+18, r25	; 0x12
    3ffc:	89 8b       	std	Y+17, r24	; 0x11
    3ffe:	8b 81       	ldd	r24, Y+3	; 0x03
    4000:	9c 81       	ldd	r25, Y+4	; 0x04
    4002:	98 8b       	std	Y+16, r25	; 0x10
    4004:	8f 87       	std	Y+15, r24	; 0x0f
    4006:	2d 80       	ldd	r2, Y+5	; 0x05
    4008:	3e 80       	ldd	r3, Y+6	; 0x06
    400a:	4f 80       	ldd	r4, Y+7	; 0x07
    400c:	58 84       	ldd	r5, Y+8	; 0x08
		Serial.print(pwm.motor3);
		Serial.print("pwm_motor4:");
		Serial.println(pwm.motor4);
	#endif
	
	cm.SendAtoALL(pwm.motor1,pwm.motor2,pwm.motor3,pwm.motor4);
    400e:	82 01       	movw	r16, r4
    4010:	91 01       	movw	r18, r2
    4012:	ac 01       	movw	r20, r24
    4014:	69 89       	ldd	r22, Y+17	; 0x11
    4016:	7a 89       	ldd	r23, Y+18	; 0x12
    4018:	8c ee       	ldi	r24, 0xEC	; 236
    401a:	9c e0       	ldi	r25, 0x0C	; 12
    401c:	0e 94 dc 0f 	call	0x1fb8	; 0x1fb8 <_ZN12ComwithMotor10SendAtoALLEiiii>
	
	//
	// 	toPC.tellMotors(pwm.motor1,pwm.motor2,pwm.motor3,pwm.motor4);
	toPC.tellXYP(x,y,p);
    4020:	c0 90 b4 0d 	lds	r12, 0x0DB4	; 0x800db4 <p>
    4024:	d0 90 b5 0d 	lds	r13, 0x0DB5	; 0x800db5 <p+0x1>
    4028:	e0 90 b6 0d 	lds	r14, 0x0DB6	; 0x800db6 <p+0x2>
    402c:	f0 90 b7 0d 	lds	r15, 0x0DB7	; 0x800db7 <p+0x3>
    4030:	00 91 b8 0d 	lds	r16, 0x0DB8	; 0x800db8 <y>
    4034:	10 91 b9 0d 	lds	r17, 0x0DB9	; 0x800db9 <y+0x1>
    4038:	20 91 ba 0d 	lds	r18, 0x0DBA	; 0x800dba <y+0x2>
    403c:	30 91 bb 0d 	lds	r19, 0x0DBB	; 0x800dbb <y+0x3>
    4040:	40 91 bc 0d 	lds	r20, 0x0DBC	; 0x800dbc <x>
    4044:	50 91 bd 0d 	lds	r21, 0x0DBD	; 0x800dbd <x+0x1>
    4048:	60 91 be 0d 	lds	r22, 0x0DBE	; 0x800dbe <x+0x2>
    404c:	70 91 bf 0d 	lds	r23, 0x0DBF	; 0x800dbf <x+0x3>
    4050:	8f e6       	ldi	r24, 0x6F	; 111
    4052:	9d e0       	ldi	r25, 0x0D	; 13
    4054:	0e 94 59 11 	call	0x22b2	; 0x22b2 <_ZN9ComwithPC7tellXYPEddd>
	// 	toPC.tellState(state);
	
	//OLEDXYP
	dp.refresh(pwm.motor1,pwm.motor2,pwm.motor3,pwm.motor4,x,y,p,PS2.state);
    4058:	3e 01       	movw	r6, r28
    405a:	99 e0       	ldi	r25, 0x09	; 9
    405c:	69 0e       	add	r6, r25
    405e:	71 1c       	adc	r7, r1
    4060:	6d e5       	ldi	r22, 0x5D	; 93
    4062:	7d e0       	ldi	r23, 0x0D	; 13
    4064:	c3 01       	movw	r24, r6
    4066:	0e 94 ea 32 	call	0x65d4	; 0x65d4 <_ZN6StringC1ERKS_>
    406a:	80 90 b8 0d 	lds	r8, 0x0DB8	; 0x800db8 <y>
    406e:	90 90 b9 0d 	lds	r9, 0x0DB9	; 0x800db9 <y+0x1>
    4072:	a0 90 ba 0d 	lds	r10, 0x0DBA	; 0x800dba <y+0x2>
    4076:	b0 90 bb 0d 	lds	r11, 0x0DBB	; 0x800dbb <y+0x3>
    407a:	c0 90 bc 0d 	lds	r12, 0x0DBC	; 0x800dbc <x>
    407e:	d0 90 bd 0d 	lds	r13, 0x0DBD	; 0x800dbd <x+0x1>
    4082:	e0 90 be 0d 	lds	r14, 0x0DBE	; 0x800dbe <x+0x2>
    4086:	f0 90 bf 0d 	lds	r15, 0x0DBF	; 0x800dbf <x+0x3>
    408a:	7f 92       	push	r7
    408c:	6f 92       	push	r6
    408e:	80 91 b7 0d 	lds	r24, 0x0DB7	; 0x800db7 <p+0x3>
    4092:	8f 93       	push	r24
    4094:	80 91 b6 0d 	lds	r24, 0x0DB6	; 0x800db6 <p+0x2>
    4098:	8f 93       	push	r24
    409a:	80 91 b5 0d 	lds	r24, 0x0DB5	; 0x800db5 <p+0x1>
    409e:	8f 93       	push	r24
    40a0:	80 91 b4 0d 	lds	r24, 0x0DB4	; 0x800db4 <p>
    40a4:	8f 93       	push	r24
    40a6:	82 01       	movw	r16, r4
    40a8:	91 01       	movw	r18, r2
    40aa:	4f 85       	ldd	r20, Y+15	; 0x0f
    40ac:	58 89       	ldd	r21, Y+16	; 0x10
    40ae:	69 89       	ldd	r22, Y+17	; 0x11
    40b0:	7a 89       	ldd	r23, Y+18	; 0x12
    40b2:	80 e7       	ldi	r24, 0x70	; 112
    40b4:	9d e0       	ldi	r25, 0x0D	; 13
    40b6:	0e 94 af 12 	call	0x255e	; 0x255e <_ZN7Display7refreshEiiiiddd6String>
    40ba:	c3 01       	movw	r24, r6
    40bc:	0e 94 5a 32 	call	0x64b4	; 0x64b4 <_ZN6StringD1Ev>
	PS2.state = "";
    40c0:	6c e7       	ldi	r22, 0x7C	; 124
    40c2:	7c e0       	ldi	r23, 0x0C	; 12
    40c4:	8d e5       	ldi	r24, 0x5D	; 93
    40c6:	9d e0       	ldi	r25, 0x0D	; 13
    40c8:	0e 94 f2 32 	call	0x65e4	; 0x65e4 <_ZN6StringaSEPKc>
    40cc:	0f b6       	in	r0, 0x3f	; 63
    40ce:	f8 94       	cli
    40d0:	de bf       	out	0x3e, r29	; 62
    40d2:	0f be       	out	0x3f, r0	; 63
    40d4:	cd bf       	out	0x3d, r28	; 61
    40d6:	62 96       	adiw	r28, 0x12	; 18
    40d8:	0f b6       	in	r0, 0x3f	; 63
    40da:	f8 94       	cli
    40dc:	de bf       	out	0x3e, r29	; 62
    40de:	0f be       	out	0x3f, r0	; 63
    40e0:	cd bf       	out	0x3d, r28	; 61
    40e2:	df 91       	pop	r29
    40e4:	cf 91       	pop	r28
    40e6:	1f 91       	pop	r17
    40e8:	0f 91       	pop	r16
    40ea:	ff 90       	pop	r15
    40ec:	ef 90       	pop	r14
    40ee:	df 90       	pop	r13
    40f0:	cf 90       	pop	r12
    40f2:	bf 90       	pop	r11
    40f4:	af 90       	pop	r10
    40f6:	9f 90       	pop	r9
    40f8:	8f 90       	pop	r8
    40fa:	7f 90       	pop	r7
    40fc:	6f 90       	pop	r6
    40fe:	5f 90       	pop	r5
    4100:	4f 90       	pop	r4
    4102:	3f 90       	pop	r3
    4104:	2f 90       	pop	r2
    4106:	08 95       	ret

00004108 <_GLOBAL__sub_I_x>:
    4108:	cf 92       	push	r12
    410a:	df 92       	push	r13
    410c:	ef 92       	push	r14
    410e:	ff 92       	push	r15
    4110:	0f 93       	push	r16
    4112:	1f 93       	push	r17
#include "Kinematics.h"
//#define Kinematics_DEBUG
#include "ComwithMotor.h"
//Beginning of Auto generated function prototypes by Atmel Studio
//End of Auto generated function prototypes by Atmel Studio
Display dp;
    4114:	80 e7       	ldi	r24, 0x70	; 112
    4116:	9d e0       	ldi	r25, 0x0D	; 13
    4118:	0e 94 61 12 	call	0x24c2	; 0x24c2 <_ZN7DisplayC1Ev>
ComwithPC toPC;
    411c:	8f e6       	ldi	r24, 0x6F	; 111
    411e:	9d e0       	ldi	r25, 0x0D	; 13
    4120:	0e 94 4d 11 	call	0x229a	; 0x229a <_ZN9ComwithPCC1Ev>
mMotor motor;
    4124:	83 e6       	ldi	r24, 0x63	; 99
    4126:	9d e0       	ldi	r25, 0x0D	; 13
    4128:	0e 94 17 16 	call	0x2c2e	; 0x2c2e <_ZN6mMotorC1Ev>
mPS2 PS2;
    412c:	8a e4       	ldi	r24, 0x4A	; 74
    412e:	9d e0       	ldi	r25, 0x0D	; 13
    4130:	0e 94 2b 16 	call	0x2c56	; 0x2c56 <_ZN4mPS2C1Ev>
Timer1 tc1;
    4134:	8e e3       	ldi	r24, 0x3E	; 62
    4136:	9d e0       	ldi	r25, 0x0D	; 13
    4138:	13 d4       	rcall	.+2086   	; 0x4960 <_ZN6Timer1C1Ev>
ComwithShot CS;
    413a:	8b e3       	ldi	r24, 0x3B	; 59
    413c:	9d e0       	ldi	r25, 0x0D	; 13
    413e:	0e 94 bf 11 	call	0x237e	; 0x237e <_ZN11ComwithShotC1Ev>
Kinematics kinematics(300,0.068, 0.5,8);
    4142:	88 e0       	ldi	r24, 0x08	; 8
    4144:	c8 2e       	mov	r12, r24
    4146:	d1 2c       	mov	r13, r1
    4148:	e1 2c       	mov	r14, r1
    414a:	f1 2c       	mov	r15, r1
    414c:	00 e0       	ldi	r16, 0x00	; 0
    414e:	1f e3       	ldi	r17, 0x3F	; 63
    4150:	26 e9       	ldi	r18, 0x96	; 150
    4152:	33 e4       	ldi	r19, 0x43	; 67
    4154:	4b e8       	ldi	r20, 0x8B	; 139
    4156:	5d e3       	ldi	r21, 0x3D	; 61
    4158:	6c e2       	ldi	r22, 0x2C	; 44
    415a:	71 e0       	ldi	r23, 0x01	; 1
    415c:	8d e0       	ldi	r24, 0x0D	; 13
    415e:	9d e0       	ldi	r25, 0x0D	; 13
    4160:	0e 94 e4 13 	call	0x27c8	; 0x27c8 <_ZN10KinematicsC1Eiffi>
ComwithMotor cm;
    4164:	8c ee       	ldi	r24, 0xEC	; 236
    4166:	9c e0       	ldi	r25, 0x0C	; 12
    4168:	0e 94 9a 0f 	call	0x1f34	; 0x1f34 <_ZN12ComwithMotorC1Ev>
String state = "begin";
    416c:	60 e5       	ldi	r22, 0x50	; 80
    416e:	7c e0       	ldi	r23, 0x0C	; 12
    4170:	86 ee       	ldi	r24, 0xE6	; 230
    4172:	9c e0       	ldi	r25, 0x0C	; 12
	// 	toPC.tellState(state);
	
	//OLEDXYP
	dp.refresh(pwm.motor1,pwm.motor2,pwm.motor3,pwm.motor4,x,y,p,PS2.state);
	PS2.state = "";
    4174:	1f 91       	pop	r17
    4176:	0f 91       	pop	r16
    4178:	ff 90       	pop	r15
    417a:	ef 90       	pop	r14
    417c:	df 90       	pop	r13
    417e:	cf 90       	pop	r12
mPS2 PS2;
Timer1 tc1;
ComwithShot CS;
Kinematics kinematics(300,0.068, 0.5,8);
ComwithMotor cm;
String state = "begin";
    4180:	0c 94 c1 32 	jmp	0x6582	; 0x6582 <_ZN6StringC1EPKc>

00004184 <_GLOBAL__sub_D_x>:
    4184:	86 ee       	ldi	r24, 0xE6	; 230
    4186:	9c e0       	ldi	r25, 0x0C	; 12
    4188:	0e 94 5a 32 	call	0x64b4	; 0x64b4 <_ZN6StringD1Ev>
//End of Auto generated function prototypes by Atmel Studio
Display dp;
ComwithPC toPC;
mMotor motor;
mPS2 PS2;
Timer1 tc1;
    418c:	8e e3       	ldi	r24, 0x3E	; 62
    418e:	9d e0       	ldi	r25, 0x0D	; 13
    4190:	70 d4       	rcall	.+2272   	; 0x4a72 <_ZN6Timer1D1Ev>
#ifndef __MPS2_H__
#define __MPS2_H__

#include "Arduino.h"

class mPS2
    4192:	8d e5       	ldi	r24, 0x5D	; 93
    4194:	9d e0       	ldi	r25, 0x0D	; 13
    4196:	0c 94 5a 32 	jmp	0x64b4	; 0x64b4 <_ZN6StringD1Ev>

0000419a <_ZN8SPIClass5beginEv>:
#ifdef SPI_TRANSACTION_MISMATCH_LED
uint8_t SPIClass::inTransactionFlag = 0;
#endif

void SPIClass::begin()
{
    419a:	cf 93       	push	r28
  uint8_t sreg = SREG;
    419c:	cf b7       	in	r28, 0x3f	; 63
  noInterrupts(); // Protect from a scheduler and prevent transactionBegin
    419e:	f8 94       	cli
  if (!initialized) {
    41a0:	80 91 c3 0d 	lds	r24, 0x0DC3	; 0x800dc3 <_ZN8SPIClass11initializedE>
    41a4:	81 11       	cpse	r24, r1
    41a6:	27 c0       	rjmp	.+78     	; 0x41f6 <_ZN8SPIClass5beginEv+0x5c>
    // Set SS to high so a connected chip will be "deselected" by default
    uint8_t port = digitalPinToPort(SS);
    41a8:	e7 e7       	ldi	r30, 0x77	; 119
    41aa:	f7 e0       	ldi	r31, 0x07	; 7
    41ac:	84 91       	lpm	r24, Z
    uint8_t bit = digitalPinToBitMask(SS);
    41ae:	e1 e3       	ldi	r30, 0x31	; 49
    41b0:	f7 e0       	ldi	r31, 0x07	; 7
    41b2:	94 91       	lpm	r25, Z
    volatile uint8_t *reg = portModeRegister(port);
    41b4:	e8 2f       	mov	r30, r24
    41b6:	f0 e0       	ldi	r31, 0x00	; 0
    41b8:	ee 0f       	add	r30, r30
    41ba:	ff 1f       	adc	r31, r31
    41bc:	e4 54       	subi	r30, 0x44	; 68
    41be:	f8 4f       	sbci	r31, 0xF8	; 248
    41c0:	a5 91       	lpm	r26, Z+
    41c2:	b4 91       	lpm	r27, Z

    // if the SS pin is not already configured as an output
    // then set it high (to enable the internal pull-up resistor)
    if(!(*reg & bit)){
    41c4:	ec 91       	ld	r30, X
    41c6:	e9 23       	and	r30, r25
    41c8:	21 f4       	brne	.+8      	; 0x41d2 <_ZN8SPIClass5beginEv+0x38>
      digitalWrite(SS, HIGH);
    41ca:	61 e0       	ldi	r22, 0x01	; 1
    41cc:	85 e3       	ldi	r24, 0x35	; 53
    41ce:	0e 94 c4 31 	call	0x6388	; 0x6388 <digitalWrite>
    }

    // When the SS pin is set as OUTPUT, it can be used as
    // a general purpose output port (it doesn't influence
    // SPI operations).
    pinMode(SS, OUTPUT);
    41d2:	61 e0       	ldi	r22, 0x01	; 1
    41d4:	85 e3       	ldi	r24, 0x35	; 53
    41d6:	0e 94 88 31 	call	0x6310	; 0x6310 <pinMode>

    // Warning: if the SS pin ever becomes a LOW INPUT then SPI
    // automatically switches to Slave, so the data direction of
    // the SS pin MUST be kept as OUTPUT.
    SPCR |= _BV(MSTR);
    41da:	8c b5       	in	r24, 0x2c	; 44
    41dc:	80 61       	ori	r24, 0x10	; 16
    41de:	8c bd       	out	0x2c, r24	; 44
    SPCR |= _BV(SPE);
    41e0:	8c b5       	in	r24, 0x2c	; 44
    41e2:	80 64       	ori	r24, 0x40	; 64
    41e4:	8c bd       	out	0x2c, r24	; 44
    // MISO pin automatically overrides to INPUT.
    // By doing this AFTER enabling SPI, we avoid accidentally
    // clocking in a single bit since the lines go directly
    // from "input" to SPI control.
    // http://code.google.com/p/arduino/issues/detail?id=888
    pinMode(SCK, OUTPUT);
    41e6:	61 e0       	ldi	r22, 0x01	; 1
    41e8:	84 e3       	ldi	r24, 0x34	; 52
    41ea:	0e 94 88 31 	call	0x6310	; 0x6310 <pinMode>
    pinMode(MOSI, OUTPUT);
    41ee:	61 e0       	ldi	r22, 0x01	; 1
    41f0:	83 e3       	ldi	r24, 0x33	; 51
    41f2:	0e 94 88 31 	call	0x6310	; 0x6310 <pinMode>
  }
  initialized++; // reference count
    41f6:	80 91 c3 0d 	lds	r24, 0x0DC3	; 0x800dc3 <_ZN8SPIClass11initializedE>
    41fa:	8f 5f       	subi	r24, 0xFF	; 255
    41fc:	80 93 c3 0d 	sts	0x0DC3, r24	; 0x800dc3 <_ZN8SPIClass11initializedE>
  SREG = sreg;
    4200:	cf bf       	out	0x3f, r28	; 63
}
    4202:	cf 91       	pop	r28
    4204:	08 95       	ret

00004206 <twi_init>:
{
  // transmit master read ready signal, with or without ack
  if(ack){
    TWCR = _BV(TWEN) | _BV(TWIE) | _BV(TWINT) | _BV(TWEA);
  }else{
	  TWCR = _BV(TWEN) | _BV(TWIE) | _BV(TWINT);
    4206:	10 92 31 0e 	sts	0x0E31, r1	; 0x800e31 <twi_state>
    420a:	81 e0       	ldi	r24, 0x01	; 1
    420c:	80 93 2f 0e 	sts	0x0E2F, r24	; 0x800e2f <twi_sendStop>
    4210:	10 92 2e 0e 	sts	0x0E2E, r1	; 0x800e2e <twi_inRepStart>
    4214:	61 e0       	ldi	r22, 0x01	; 1
    4216:	84 e1       	ldi	r24, 0x14	; 20
    4218:	0e 94 c4 31 	call	0x6388	; 0x6388 <digitalWrite>
    421c:	61 e0       	ldi	r22, 0x01	; 1
    421e:	85 e1       	ldi	r24, 0x15	; 21
    4220:	0e 94 c4 31 	call	0x6388	; 0x6388 <digitalWrite>
    4224:	e9 eb       	ldi	r30, 0xB9	; 185
    4226:	f0 e0       	ldi	r31, 0x00	; 0
    4228:	80 81       	ld	r24, Z
    422a:	8e 7f       	andi	r24, 0xFE	; 254
    422c:	80 83       	st	Z, r24
    422e:	80 81       	ld	r24, Z
    4230:	8d 7f       	andi	r24, 0xFD	; 253
    4232:	80 83       	st	Z, r24
    4234:	88 e4       	ldi	r24, 0x48	; 72
    4236:	80 93 b8 00 	sts	0x00B8, r24	; 0x8000b8 <__TEXT_REGION_LENGTH__+0x7000b8>
    423a:	85 e4       	ldi	r24, 0x45	; 69
    423c:	80 93 bc 00 	sts	0x00BC, r24	; 0x8000bc <__TEXT_REGION_LENGTH__+0x7000bc>
    4240:	08 95       	ret

00004242 <twi_readFrom>:
    4242:	41 32       	cpi	r20, 0x21	; 33
    4244:	08 f0       	brcs	.+2      	; 0x4248 <twi_readFrom+0x6>
    4246:	43 c0       	rjmp	.+134    	; 0x42ce <twi_readFrom+0x8c>
    4248:	90 91 31 0e 	lds	r25, 0x0E31	; 0x800e31 <twi_state>
    424c:	91 11       	cpse	r25, r1
    424e:	fc cf       	rjmp	.-8      	; 0x4248 <twi_readFrom+0x6>
    4250:	91 e0       	ldi	r25, 0x01	; 1
    4252:	90 93 31 0e 	sts	0x0E31, r25	; 0x800e31 <twi_state>
    4256:	20 93 2f 0e 	sts	0x0E2F, r18	; 0x800e2f <twi_sendStop>
    425a:	2f ef       	ldi	r18, 0xFF	; 255
    425c:	20 93 c4 0d 	sts	0x0DC4, r18	; 0x800dc4 <twi_error>
    4260:	10 92 09 0e 	sts	0x0E09, r1	; 0x800e09 <twi_masterBufferIndex>
    4264:	24 0f       	add	r18, r20
    4266:	20 93 08 0e 	sts	0x0E08, r18	; 0x800e08 <twi_masterBufferLength>
    426a:	90 93 30 0e 	sts	0x0E30, r25	; 0x800e30 <twi_slarw>
    426e:	90 91 30 0e 	lds	r25, 0x0E30	; 0x800e30 <twi_slarw>
    4272:	88 0f       	add	r24, r24
    4274:	89 2b       	or	r24, r25
    4276:	80 93 30 0e 	sts	0x0E30, r24	; 0x800e30 <twi_slarw>
    427a:	80 91 2e 0e 	lds	r24, 0x0E2E	; 0x800e2e <twi_inRepStart>
    427e:	81 30       	cpi	r24, 0x01	; 1
    4280:	61 f4       	brne	.+24     	; 0x429a <twi_readFrom+0x58>
    4282:	10 92 2e 0e 	sts	0x0E2E, r1	; 0x800e2e <twi_inRepStart>
    4286:	80 91 30 0e 	lds	r24, 0x0E30	; 0x800e30 <twi_slarw>
    428a:	80 93 bb 00 	sts	0x00BB, r24	; 0x8000bb <__TEXT_REGION_LENGTH__+0x7000bb>
    428e:	80 91 bc 00 	lds	r24, 0x00BC	; 0x8000bc <__TEXT_REGION_LENGTH__+0x7000bc>
    4292:	83 fd       	sbrc	r24, 3
    4294:	f8 cf       	rjmp	.-16     	; 0x4286 <twi_readFrom+0x44>
    4296:	85 ec       	ldi	r24, 0xC5	; 197
    4298:	01 c0       	rjmp	.+2      	; 0x429c <twi_readFrom+0x5a>
    429a:	85 ee       	ldi	r24, 0xE5	; 229
    429c:	80 93 bc 00 	sts	0x00BC, r24	; 0x8000bc <__TEXT_REGION_LENGTH__+0x7000bc>
    42a0:	80 91 31 0e 	lds	r24, 0x0E31	; 0x800e31 <twi_state>
    42a4:	81 30       	cpi	r24, 0x01	; 1
    42a6:	e1 f3       	breq	.-8      	; 0x42a0 <twi_readFrom+0x5e>
    42a8:	80 91 09 0e 	lds	r24, 0x0E09	; 0x800e09 <twi_masterBufferIndex>
    42ac:	84 17       	cp	r24, r20
    42ae:	10 f4       	brcc	.+4      	; 0x42b4 <twi_readFrom+0x72>
    42b0:	40 91 09 0e 	lds	r20, 0x0E09	; 0x800e09 <twi_masterBufferIndex>
    42b4:	2a e0       	ldi	r18, 0x0A	; 10
    42b6:	3e e0       	ldi	r19, 0x0E	; 14
    42b8:	fb 01       	movw	r30, r22
    42ba:	d9 01       	movw	r26, r18
    42bc:	8a 2f       	mov	r24, r26
    42be:	82 1b       	sub	r24, r18
    42c0:	84 17       	cp	r24, r20
    42c2:	18 f4       	brcc	.+6      	; 0x42ca <twi_readFrom+0x88>
    42c4:	8d 91       	ld	r24, X+
    42c6:	81 93       	st	Z+, r24
    42c8:	f9 cf       	rjmp	.-14     	; 0x42bc <twi_readFrom+0x7a>
    42ca:	84 2f       	mov	r24, r20
    42cc:	08 95       	ret
    42ce:	80 e0       	ldi	r24, 0x00	; 0
    42d0:	08 95       	ret

000042d2 <twi_writeTo>:
    42d2:	0f 93       	push	r16
    42d4:	41 32       	cpi	r20, 0x21	; 33
    42d6:	08 f0       	brcs	.+2      	; 0x42da <twi_writeTo+0x8>
    42d8:	4a c0       	rjmp	.+148    	; 0x436e <twi_writeTo+0x9c>
    42da:	90 91 31 0e 	lds	r25, 0x0E31	; 0x800e31 <twi_state>
    42de:	91 11       	cpse	r25, r1
    42e0:	fc cf       	rjmp	.-8      	; 0x42da <twi_writeTo+0x8>
    42e2:	32 e0       	ldi	r19, 0x02	; 2
    42e4:	30 93 31 0e 	sts	0x0E31, r19	; 0x800e31 <twi_state>
    42e8:	00 93 2f 0e 	sts	0x0E2F, r16	; 0x800e2f <twi_sendStop>
    42ec:	3f ef       	ldi	r19, 0xFF	; 255
    42ee:	30 93 c4 0d 	sts	0x0DC4, r19	; 0x800dc4 <twi_error>
    42f2:	10 92 09 0e 	sts	0x0E09, r1	; 0x800e09 <twi_masterBufferIndex>
    42f6:	40 93 08 0e 	sts	0x0E08, r20	; 0x800e08 <twi_masterBufferLength>
    42fa:	fb 01       	movw	r30, r22
    42fc:	6a e0       	ldi	r22, 0x0A	; 10
    42fe:	7e e0       	ldi	r23, 0x0E	; 14
    4300:	db 01       	movw	r26, r22
    4302:	3a 2f       	mov	r19, r26
    4304:	36 1b       	sub	r19, r22
    4306:	34 17       	cp	r19, r20
    4308:	18 f4       	brcc	.+6      	; 0x4310 <twi_writeTo+0x3e>
    430a:	31 91       	ld	r19, Z+
    430c:	3d 93       	st	X+, r19
    430e:	f9 cf       	rjmp	.-14     	; 0x4302 <twi_writeTo+0x30>
    4310:	10 92 30 0e 	sts	0x0E30, r1	; 0x800e30 <twi_slarw>
    4314:	30 91 30 0e 	lds	r19, 0x0E30	; 0x800e30 <twi_slarw>
    4318:	88 0f       	add	r24, r24
    431a:	83 2b       	or	r24, r19
    431c:	80 93 30 0e 	sts	0x0E30, r24	; 0x800e30 <twi_slarw>
    4320:	80 91 2e 0e 	lds	r24, 0x0E2E	; 0x800e2e <twi_inRepStart>
    4324:	81 30       	cpi	r24, 0x01	; 1
    4326:	61 f4       	brne	.+24     	; 0x4340 <twi_writeTo+0x6e>
    4328:	10 92 2e 0e 	sts	0x0E2E, r1	; 0x800e2e <twi_inRepStart>
    432c:	80 91 30 0e 	lds	r24, 0x0E30	; 0x800e30 <twi_slarw>
    4330:	80 93 bb 00 	sts	0x00BB, r24	; 0x8000bb <__TEXT_REGION_LENGTH__+0x7000bb>
    4334:	80 91 bc 00 	lds	r24, 0x00BC	; 0x8000bc <__TEXT_REGION_LENGTH__+0x7000bc>
    4338:	83 fd       	sbrc	r24, 3
    433a:	f8 cf       	rjmp	.-16     	; 0x432c <twi_writeTo+0x5a>
    433c:	85 ec       	ldi	r24, 0xC5	; 197
    433e:	01 c0       	rjmp	.+2      	; 0x4342 <twi_writeTo+0x70>
    4340:	85 ee       	ldi	r24, 0xE5	; 229
    4342:	80 93 bc 00 	sts	0x00BC, r24	; 0x8000bc <__TEXT_REGION_LENGTH__+0x7000bc>
    4346:	22 23       	and	r18, r18
    4348:	21 f0       	breq	.+8      	; 0x4352 <twi_writeTo+0x80>
    434a:	80 91 31 0e 	lds	r24, 0x0E31	; 0x800e31 <twi_state>
    434e:	82 30       	cpi	r24, 0x02	; 2
    4350:	d1 f3       	breq	.-12     	; 0x4346 <twi_writeTo+0x74>
    4352:	80 91 c4 0d 	lds	r24, 0x0DC4	; 0x800dc4 <twi_error>
    4356:	8f 3f       	cpi	r24, 0xFF	; 255
    4358:	79 f0       	breq	.+30     	; 0x4378 <twi_writeTo+0xa6>
    435a:	80 91 c4 0d 	lds	r24, 0x0DC4	; 0x800dc4 <twi_error>
    435e:	80 32       	cpi	r24, 0x20	; 32
    4360:	41 f0       	breq	.+16     	; 0x4372 <twi_writeTo+0xa0>
    4362:	80 91 c4 0d 	lds	r24, 0x0DC4	; 0x800dc4 <twi_error>
    4366:	80 33       	cpi	r24, 0x30	; 48
    4368:	31 f0       	breq	.+12     	; 0x4376 <twi_writeTo+0xa4>
    436a:	94 e0       	ldi	r25, 0x04	; 4
    436c:	05 c0       	rjmp	.+10     	; 0x4378 <twi_writeTo+0xa6>
    436e:	91 e0       	ldi	r25, 0x01	; 1
    4370:	03 c0       	rjmp	.+6      	; 0x4378 <twi_writeTo+0xa6>
    4372:	92 e0       	ldi	r25, 0x02	; 2
    4374:	01 c0       	rjmp	.+2      	; 0x4378 <twi_writeTo+0xa6>
    4376:	93 e0       	ldi	r25, 0x03	; 3
    4378:	89 2f       	mov	r24, r25
    437a:	0f 91       	pop	r16
    437c:	08 95       	ret

0000437e <twi_transmit>:
    437e:	40 91 e6 0d 	lds	r20, 0x0DE6	; 0x800de6 <twi_txBufferLength>
    4382:	26 2f       	mov	r18, r22
    4384:	30 e0       	ldi	r19, 0x00	; 0
    4386:	24 0f       	add	r18, r20
    4388:	31 1d       	adc	r19, r1
    438a:	21 32       	cpi	r18, 0x21	; 33
    438c:	31 05       	cpc	r19, r1
    438e:	dc f4       	brge	.+54     	; 0x43c6 <twi_transmit+0x48>
    4390:	20 91 31 0e 	lds	r18, 0x0E31	; 0x800e31 <twi_state>
    4394:	24 30       	cpi	r18, 0x04	; 4
    4396:	c9 f4       	brne	.+50     	; 0x43ca <twi_transmit+0x4c>
    4398:	fc 01       	movw	r30, r24
    439a:	80 e0       	ldi	r24, 0x00	; 0
    439c:	90 e0       	ldi	r25, 0x00	; 0
    439e:	86 17       	cp	r24, r22
    43a0:	58 f4       	brcc	.+22     	; 0x43b8 <twi_transmit+0x3a>
    43a2:	30 91 e6 0d 	lds	r19, 0x0DE6	; 0x800de6 <twi_txBufferLength>
    43a6:	21 91       	ld	r18, Z+
    43a8:	dc 01       	movw	r26, r24
    43aa:	a8 51       	subi	r26, 0x18	; 24
    43ac:	b2 4f       	sbci	r27, 0xF2	; 242
    43ae:	a3 0f       	add	r26, r19
    43b0:	b1 1d       	adc	r27, r1
    43b2:	2c 93       	st	X, r18
    43b4:	01 96       	adiw	r24, 0x01	; 1
    43b6:	f3 cf       	rjmp	.-26     	; 0x439e <twi_transmit+0x20>
    43b8:	80 91 e6 0d 	lds	r24, 0x0DE6	; 0x800de6 <twi_txBufferLength>
    43bc:	68 0f       	add	r22, r24
    43be:	60 93 e6 0d 	sts	0x0DE6, r22	; 0x800de6 <twi_txBufferLength>
    43c2:	80 e0       	ldi	r24, 0x00	; 0
    43c4:	08 95       	ret
    43c6:	81 e0       	ldi	r24, 0x01	; 1
    43c8:	08 95       	ret
    43ca:	82 e0       	ldi	r24, 0x02	; 2
    43cc:	08 95       	ret

000043ce <twi_stop>:
 * Output   none
 */
void twi_stop(void)
{
  // send stop condition
  TWCR = _BV(TWEN) | _BV(TWIE) | _BV(TWEA) | _BV(TWINT) | _BV(TWSTO);
    43ce:	85 ed       	ldi	r24, 0xD5	; 213
    43d0:	80 93 bc 00 	sts	0x00BC, r24	; 0x8000bc <__TEXT_REGION_LENGTH__+0x7000bc>

  // wait for stop condition to be exectued on bus
  // TWINT is not set after a stop condition!
  while(TWCR & _BV(TWSTO)){
    43d4:	80 91 bc 00 	lds	r24, 0x00BC	; 0x8000bc <__TEXT_REGION_LENGTH__+0x7000bc>
    43d8:	84 fd       	sbrc	r24, 4
    43da:	fc cf       	rjmp	.-8      	; 0x43d4 <twi_stop+0x6>
    continue;
  }

  // update twi state
  twi_state = TWI_READY;
    43dc:	10 92 31 0e 	sts	0x0E31, r1	; 0x800e31 <twi_state>
    43e0:	08 95       	ret

000043e2 <twi_releaseBus>:
 * Output   none
 */
void twi_releaseBus(void)
{
  // release bus
  TWCR = _BV(TWEN) | _BV(TWIE) | _BV(TWEA) | _BV(TWINT);
    43e2:	85 ec       	ldi	r24, 0xC5	; 197
    43e4:	80 93 bc 00 	sts	0x00BC, r24	; 0x8000bc <__TEXT_REGION_LENGTH__+0x7000bc>

  // update twi state
  twi_state = TWI_READY;
    43e8:	10 92 31 0e 	sts	0x0E31, r1	; 0x800e31 <twi_state>
    43ec:	08 95       	ret

000043ee <__vector_39>:
}

ISR(TWI_vect)
{
    43ee:	1f 92       	push	r1
    43f0:	0f 92       	push	r0
    43f2:	0f b6       	in	r0, 0x3f	; 63
    43f4:	0f 92       	push	r0
    43f6:	11 24       	eor	r1, r1
    43f8:	0b b6       	in	r0, 0x3b	; 59
    43fa:	0f 92       	push	r0
    43fc:	2f 93       	push	r18
    43fe:	3f 93       	push	r19
    4400:	4f 93       	push	r20
    4402:	5f 93       	push	r21
    4404:	6f 93       	push	r22
    4406:	7f 93       	push	r23
    4408:	8f 93       	push	r24
    440a:	9f 93       	push	r25
    440c:	af 93       	push	r26
    440e:	bf 93       	push	r27
    4410:	ef 93       	push	r30
    4412:	ff 93       	push	r31
  switch(TW_STATUS){
    4414:	80 91 b9 00 	lds	r24, 0x00B9	; 0x8000b9 <__TEXT_REGION_LENGTH__+0x7000b9>
    4418:	88 7f       	andi	r24, 0xF8	; 248
    441a:	80 36       	cpi	r24, 0x60	; 96
    441c:	09 f4       	brne	.+2      	; 0x4420 <__vector_39+0x32>
    441e:	9d c0       	rjmp	.+314    	; 0x455a <__vector_39+0x16c>
    4420:	70 f5       	brcc	.+92     	; 0x447e <__vector_39+0x90>
    4422:	88 32       	cpi	r24, 0x28	; 40
    4424:	09 f4       	brne	.+2      	; 0x4428 <__vector_39+0x3a>
    4426:	5c c0       	rjmp	.+184    	; 0x44e0 <__vector_39+0xf2>
    4428:	90 f4       	brcc	.+36     	; 0x444e <__vector_39+0x60>
    442a:	80 31       	cpi	r24, 0x10	; 16
    442c:	09 f4       	brne	.+2      	; 0x4430 <__vector_39+0x42>
    442e:	55 c0       	rjmp	.+170    	; 0x44da <__vector_39+0xec>
    4430:	38 f4       	brcc	.+14     	; 0x4440 <__vector_39+0x52>
    4432:	88 23       	and	r24, r24
    4434:	09 f4       	brne	.+2      	; 0x4438 <__vector_39+0x4a>
    4436:	f3 c0       	rjmp	.+486    	; 0x461e <__vector_39+0x230>
    4438:	88 30       	cpi	r24, 0x08	; 8
    443a:	09 f4       	brne	.+2      	; 0x443e <__vector_39+0x50>
    443c:	4e c0       	rjmp	.+156    	; 0x44da <__vector_39+0xec>
    443e:	f2 c0       	rjmp	.+484    	; 0x4624 <__vector_39+0x236>
    4440:	88 31       	cpi	r24, 0x18	; 24
    4442:	09 f4       	brne	.+2      	; 0x4446 <__vector_39+0x58>
    4444:	4d c0       	rjmp	.+154    	; 0x44e0 <__vector_39+0xf2>
    4446:	80 32       	cpi	r24, 0x20	; 32
    4448:	09 f4       	brne	.+2      	; 0x444c <__vector_39+0x5e>
    444a:	5e c0       	rjmp	.+188    	; 0x4508 <__vector_39+0x11a>
    444c:	eb c0       	rjmp	.+470    	; 0x4624 <__vector_39+0x236>
    444e:	80 34       	cpi	r24, 0x40	; 64
    4450:	09 f4       	brne	.+2      	; 0x4454 <__vector_39+0x66>
    4452:	69 c0       	rjmp	.+210    	; 0x4526 <__vector_39+0x138>
    4454:	50 f4       	brcc	.+20     	; 0x446a <__vector_39+0x7c>
    4456:	80 33       	cpi	r24, 0x30	; 48
    4458:	09 f4       	brne	.+2      	; 0x445c <__vector_39+0x6e>
    445a:	56 c0       	rjmp	.+172    	; 0x4508 <__vector_39+0x11a>
    445c:	88 33       	cpi	r24, 0x38	; 56
    445e:	09 f0       	breq	.+2      	; 0x4462 <__vector_39+0x74>
    4460:	e1 c0       	rjmp	.+450    	; 0x4624 <__vector_39+0x236>
    case TW_MT_DATA_NACK: // data sent, nack received
      twi_error = TW_MT_DATA_NACK;
      twi_stop();
      break;
    case TW_MT_ARB_LOST: // lost bus arbitration
      twi_error = TW_MT_ARB_LOST;
    4462:	80 93 c4 0d 	sts	0x0DC4, r24	; 0x800dc4 <twi_error>
      twi_releaseBus();
    4466:	bd df       	rcall	.-134    	; 0x43e2 <twi_releaseBus>
      break;
    4468:	dd c0       	rjmp	.+442    	; 0x4624 <__vector_39+0x236>
  twi_state = TWI_READY;
}

ISR(TWI_vect)
{
  switch(TW_STATUS){
    446a:	80 35       	cpi	r24, 0x50	; 80
    446c:	09 f4       	brne	.+2      	; 0x4470 <__vector_39+0x82>
    446e:	4f c0       	rjmp	.+158    	; 0x450e <__vector_39+0x120>
    4470:	88 35       	cpi	r24, 0x58	; 88
    4472:	09 f4       	brne	.+2      	; 0x4476 <__vector_39+0x88>
    4474:	5d c0       	rjmp	.+186    	; 0x4530 <__vector_39+0x142>
    4476:	88 34       	cpi	r24, 0x48	; 72
    4478:	09 f0       	breq	.+2      	; 0x447c <__vector_39+0x8e>
    447a:	d4 c0       	rjmp	.+424    	; 0x4624 <__vector_39+0x236>
    447c:	d2 c0       	rjmp	.+420    	; 0x4622 <__vector_39+0x234>
    447e:	88 39       	cpi	r24, 0x98	; 152
    4480:	09 f4       	brne	.+2      	; 0x4484 <__vector_39+0x96>
    4482:	c3 c0       	rjmp	.+390    	; 0x460a <__vector_39+0x21c>
    4484:	a8 f4       	brcc	.+42     	; 0x44b0 <__vector_39+0xc2>
    4486:	88 37       	cpi	r24, 0x78	; 120
    4488:	09 f4       	brne	.+2      	; 0x448c <__vector_39+0x9e>
    448a:	67 c0       	rjmp	.+206    	; 0x455a <__vector_39+0x16c>
    448c:	38 f4       	brcc	.+14     	; 0x449c <__vector_39+0xae>
    448e:	88 36       	cpi	r24, 0x68	; 104
    4490:	09 f4       	brne	.+2      	; 0x4494 <__vector_39+0xa6>
    4492:	63 c0       	rjmp	.+198    	; 0x455a <__vector_39+0x16c>
    4494:	80 37       	cpi	r24, 0x70	; 112
    4496:	09 f4       	brne	.+2      	; 0x449a <__vector_39+0xac>
    4498:	60 c0       	rjmp	.+192    	; 0x455a <__vector_39+0x16c>
    449a:	c4 c0       	rjmp	.+392    	; 0x4624 <__vector_39+0x236>
    449c:	88 38       	cpi	r24, 0x88	; 136
    449e:	09 f4       	brne	.+2      	; 0x44a2 <__vector_39+0xb4>
    44a0:	b4 c0       	rjmp	.+360    	; 0x460a <__vector_39+0x21c>
    44a2:	80 39       	cpi	r24, 0x90	; 144
    44a4:	09 f4       	brne	.+2      	; 0x44a8 <__vector_39+0xba>
    44a6:	5f c0       	rjmp	.+190    	; 0x4566 <__vector_39+0x178>
    44a8:	80 38       	cpi	r24, 0x80	; 128
    44aa:	09 f0       	breq	.+2      	; 0x44ae <__vector_39+0xc0>
    44ac:	bb c0       	rjmp	.+374    	; 0x4624 <__vector_39+0x236>
    44ae:	5b c0       	rjmp	.+182    	; 0x4566 <__vector_39+0x178>
    44b0:	80 3b       	cpi	r24, 0xB0	; 176
    44b2:	09 f4       	brne	.+2      	; 0x44b6 <__vector_39+0xc8>
    44b4:	82 c0       	rjmp	.+260    	; 0x45ba <__vector_39+0x1cc>
    44b6:	38 f4       	brcc	.+14     	; 0x44c6 <__vector_39+0xd8>
    44b8:	80 3a       	cpi	r24, 0xA0	; 160
    44ba:	09 f4       	brne	.+2      	; 0x44be <__vector_39+0xd0>
    44bc:	66 c0       	rjmp	.+204    	; 0x458a <__vector_39+0x19c>
    44be:	88 3a       	cpi	r24, 0xA8	; 168
    44c0:	09 f4       	brne	.+2      	; 0x44c4 <__vector_39+0xd6>
    44c2:	7b c0       	rjmp	.+246    	; 0x45ba <__vector_39+0x1cc>
    44c4:	af c0       	rjmp	.+350    	; 0x4624 <__vector_39+0x236>
    44c6:	80 3c       	cpi	r24, 0xC0	; 192
    44c8:	09 f4       	brne	.+2      	; 0x44cc <__vector_39+0xde>
    44ca:	a3 c0       	rjmp	.+326    	; 0x4612 <__vector_39+0x224>
    44cc:	88 3c       	cpi	r24, 0xC8	; 200
    44ce:	09 f4       	brne	.+2      	; 0x44d2 <__vector_39+0xe4>
    44d0:	a0 c0       	rjmp	.+320    	; 0x4612 <__vector_39+0x224>
    44d2:	88 3b       	cpi	r24, 0xB8	; 184
    44d4:	09 f4       	brne	.+2      	; 0x44d8 <__vector_39+0xea>
    44d6:	86 c0       	rjmp	.+268    	; 0x45e4 <__vector_39+0x1f6>
    44d8:	a5 c0       	rjmp	.+330    	; 0x4624 <__vector_39+0x236>
    // All Master
    case TW_START:     // sent start condition
    case TW_REP_START: // sent repeated start condition
      // copy device address and r/w bit to output register and ack
      TWDR = twi_slarw;
    44da:	80 91 30 0e 	lds	r24, 0x0E30	; 0x800e30 <twi_slarw>
    44de:	10 c0       	rjmp	.+32     	; 0x4500 <__vector_39+0x112>

    // Master Transmitter
    case TW_MT_SLA_ACK:  // slave receiver acked address
    case TW_MT_DATA_ACK: // slave receiver acked data
      // if there is data to send, send it, otherwise stop 
      if(twi_masterBufferIndex < twi_masterBufferLength){
    44e0:	90 91 09 0e 	lds	r25, 0x0E09	; 0x800e09 <twi_masterBufferIndex>
    44e4:	80 91 08 0e 	lds	r24, 0x0E08	; 0x800e08 <twi_masterBufferLength>
    44e8:	98 17       	cp	r25, r24
    44ea:	70 f5       	brcc	.+92     	; 0x4548 <__vector_39+0x15a>
        // copy data to output register and ack
        TWDR = twi_masterBuffer[twi_masterBufferIndex++];
    44ec:	e0 91 09 0e 	lds	r30, 0x0E09	; 0x800e09 <twi_masterBufferIndex>
    44f0:	81 e0       	ldi	r24, 0x01	; 1
    44f2:	8e 0f       	add	r24, r30
    44f4:	80 93 09 0e 	sts	0x0E09, r24	; 0x800e09 <twi_masterBufferIndex>
    44f8:	f0 e0       	ldi	r31, 0x00	; 0
    44fa:	e6 5f       	subi	r30, 0xF6	; 246
    44fc:	f1 4f       	sbci	r31, 0xF1	; 241
    44fe:	80 81       	ld	r24, Z
    4500:	80 93 bb 00 	sts	0x00BB, r24	; 0x8000bb <__TEXT_REGION_LENGTH__+0x7000bb>
 */
void twi_reply(uint8_t ack)
{
  // transmit master read ready signal, with or without ack
  if(ack){
    TWCR = _BV(TWEN) | _BV(TWIE) | _BV(TWINT) | _BV(TWEA);
    4504:	85 ec       	ldi	r24, 0xC5	; 197
    4506:	82 c0       	rjmp	.+260    	; 0x460c <__vector_39+0x21e>
    case TW_MT_SLA_NACK:  // address sent, nack received
      twi_error = TW_MT_SLA_NACK;
      twi_stop();
      break;
    case TW_MT_DATA_NACK: // data sent, nack received
      twi_error = TW_MT_DATA_NACK;
    4508:	80 93 c4 0d 	sts	0x0DC4, r24	; 0x800dc4 <twi_error>
    450c:	8a c0       	rjmp	.+276    	; 0x4622 <__vector_39+0x234>
      break;

    // Master Receiver
    case TW_MR_DATA_ACK: // data received, ack sent
      // put byte into buffer
      twi_masterBuffer[twi_masterBufferIndex++] = TWDR;
    450e:	e0 91 09 0e 	lds	r30, 0x0E09	; 0x800e09 <twi_masterBufferIndex>
    4512:	81 e0       	ldi	r24, 0x01	; 1
    4514:	8e 0f       	add	r24, r30
    4516:	80 93 09 0e 	sts	0x0E09, r24	; 0x800e09 <twi_masterBufferIndex>
    451a:	80 91 bb 00 	lds	r24, 0x00BB	; 0x8000bb <__TEXT_REGION_LENGTH__+0x7000bb>
    451e:	f0 e0       	ldi	r31, 0x00	; 0
    4520:	e6 5f       	subi	r30, 0xF6	; 246
    4522:	f1 4f       	sbci	r31, 0xF1	; 241
    4524:	80 83       	st	Z, r24
    case TW_MR_SLA_ACK:  // address sent, ack received
      // ack if more bytes are expected, otherwise nack
      if(twi_masterBufferIndex < twi_masterBufferLength){
    4526:	90 91 09 0e 	lds	r25, 0x0E09	; 0x800e09 <twi_masterBufferIndex>
    452a:	80 91 08 0e 	lds	r24, 0x0E08	; 0x800e08 <twi_masterBufferLength>
    452e:	6a c0       	rjmp	.+212    	; 0x4604 <__vector_39+0x216>
        twi_reply(0);
      }
      break;
    case TW_MR_DATA_NACK: // data received, nack sent
      // put final byte into buffer
      twi_masterBuffer[twi_masterBufferIndex++] = TWDR;
    4530:	e0 91 09 0e 	lds	r30, 0x0E09	; 0x800e09 <twi_masterBufferIndex>
    4534:	81 e0       	ldi	r24, 0x01	; 1
    4536:	8e 0f       	add	r24, r30
    4538:	80 93 09 0e 	sts	0x0E09, r24	; 0x800e09 <twi_masterBufferIndex>
    453c:	80 91 bb 00 	lds	r24, 0x00BB	; 0x8000bb <__TEXT_REGION_LENGTH__+0x7000bb>
    4540:	f0 e0       	ldi	r31, 0x00	; 0
    4542:	e6 5f       	subi	r30, 0xF6	; 246
    4544:	f1 4f       	sbci	r31, 0xF1	; 241
    4546:	80 83       	st	Z, r24
	if (twi_sendStop)
    4548:	80 91 2f 0e 	lds	r24, 0x0E2F	; 0x800e2f <twi_sendStop>
    454c:	81 11       	cpse	r24, r1
    454e:	69 c0       	rjmp	.+210    	; 0x4622 <__vector_39+0x234>
          twi_stop();
	else {
	  twi_inRepStart = true;	// we're gonna send the START
    4550:	81 e0       	ldi	r24, 0x01	; 1
    4552:	80 93 2e 0e 	sts	0x0E2E, r24	; 0x800e2e <twi_inRepStart>
	  // don't enable the interrupt. We'll generate the start, but we 
	  // avoid handling the interrupt until we're in the next transaction,
	  // at the point where we would normally issue the start.
	  TWCR = _BV(TWINT) | _BV(TWSTA)| _BV(TWEN) ;
    4556:	84 ea       	ldi	r24, 0xA4	; 164
    4558:	5d c0       	rjmp	.+186    	; 0x4614 <__vector_39+0x226>
    case TW_SR_SLA_ACK:   // addressed, returned ack
    case TW_SR_GCALL_ACK: // addressed generally, returned ack
    case TW_SR_ARB_LOST_SLA_ACK:   // lost arbitration, returned ack
    case TW_SR_ARB_LOST_GCALL_ACK: // lost arbitration, returned ack
      // enter slave receiver mode
      twi_state = TWI_SRX;
    455a:	83 e0       	ldi	r24, 0x03	; 3
    455c:	80 93 31 0e 	sts	0x0E31, r24	; 0x800e31 <twi_state>
      // indicate that rx buffer can be overwritten and ack
      twi_rxBufferIndex = 0;
    4560:	10 92 c5 0d 	sts	0x0DC5, r1	; 0x800dc5 <twi_rxBufferIndex>
    4564:	cf cf       	rjmp	.-98     	; 0x4504 <__vector_39+0x116>
      twi_reply(1);
      break;
    case TW_SR_DATA_ACK:       // data received, returned ack
    case TW_SR_GCALL_DATA_ACK: // data received generally, returned ack
      // if there is still room in the rx buffer
      if(twi_rxBufferIndex < TWI_BUFFER_LENGTH){
    4566:	80 91 c5 0d 	lds	r24, 0x0DC5	; 0x800dc5 <twi_rxBufferIndex>
    456a:	80 32       	cpi	r24, 0x20	; 32
    456c:	08 f0       	brcs	.+2      	; 0x4570 <__vector_39+0x182>
    456e:	4d c0       	rjmp	.+154    	; 0x460a <__vector_39+0x21c>
        // put byte in buffer and ack
        twi_rxBuffer[twi_rxBufferIndex++] = TWDR;
    4570:	e0 91 c5 0d 	lds	r30, 0x0DC5	; 0x800dc5 <twi_rxBufferIndex>
    4574:	81 e0       	ldi	r24, 0x01	; 1
    4576:	8e 0f       	add	r24, r30
    4578:	80 93 c5 0d 	sts	0x0DC5, r24	; 0x800dc5 <twi_rxBufferIndex>
    457c:	80 91 bb 00 	lds	r24, 0x00BB	; 0x8000bb <__TEXT_REGION_LENGTH__+0x7000bb>
    4580:	f0 e0       	ldi	r31, 0x00	; 0
    4582:	ea 53       	subi	r30, 0x3A	; 58
    4584:	f2 4f       	sbci	r31, 0xF2	; 242
    4586:	80 83       	st	Z, r24
    4588:	bd cf       	rjmp	.-134    	; 0x4504 <__vector_39+0x116>
        twi_reply(0);
      }
      break;
    case TW_SR_STOP: // stop or repeated start condition received
      // ack future responses and leave slave receiver state
      twi_releaseBus();
    458a:	2b df       	rcall	.-426    	; 0x43e2 <twi_releaseBus>
      // put a null char after data if there's room
      if(twi_rxBufferIndex < TWI_BUFFER_LENGTH){
    458c:	80 91 c5 0d 	lds	r24, 0x0DC5	; 0x800dc5 <twi_rxBufferIndex>
    4590:	80 32       	cpi	r24, 0x20	; 32
    4592:	30 f4       	brcc	.+12     	; 0x45a0 <__vector_39+0x1b2>
        twi_rxBuffer[twi_rxBufferIndex] = '\0';
    4594:	e0 91 c5 0d 	lds	r30, 0x0DC5	; 0x800dc5 <twi_rxBufferIndex>
    4598:	f0 e0       	ldi	r31, 0x00	; 0
    459a:	ea 53       	subi	r30, 0x3A	; 58
    459c:	f2 4f       	sbci	r31, 0xF2	; 242
    459e:	10 82       	st	Z, r1
      }
      // callback to user defined callback
      twi_onSlaveReceive(twi_rxBuffer, twi_rxBufferIndex);
    45a0:	60 91 c5 0d 	lds	r22, 0x0DC5	; 0x800dc5 <twi_rxBufferIndex>
    45a4:	70 e0       	ldi	r23, 0x00	; 0
    45a6:	e0 91 2a 0e 	lds	r30, 0x0E2A	; 0x800e2a <twi_onSlaveReceive>
    45aa:	f0 91 2b 0e 	lds	r31, 0x0E2B	; 0x800e2b <twi_onSlaveReceive+0x1>
    45ae:	86 ec       	ldi	r24, 0xC6	; 198
    45b0:	9d e0       	ldi	r25, 0x0D	; 13
    45b2:	19 95       	eicall
      // since we submit rx buffer to "wire" library, we can reset it
      twi_rxBufferIndex = 0;
    45b4:	10 92 c5 0d 	sts	0x0DC5, r1	; 0x800dc5 <twi_rxBufferIndex>
      break;
    45b8:	35 c0       	rjmp	.+106    	; 0x4624 <__vector_39+0x236>
    
    // Slave Transmitter
    case TW_ST_SLA_ACK:          // addressed, returned ack
    case TW_ST_ARB_LOST_SLA_ACK: // arbitration lost, returned ack
      // enter slave transmitter mode
      twi_state = TWI_STX;
    45ba:	84 e0       	ldi	r24, 0x04	; 4
    45bc:	80 93 31 0e 	sts	0x0E31, r24	; 0x800e31 <twi_state>
      // ready the tx buffer index for iteration
      twi_txBufferIndex = 0;
    45c0:	10 92 e7 0d 	sts	0x0DE7, r1	; 0x800de7 <twi_txBufferIndex>
      // set tx buffer length to be zero, to verify if user changes it
      twi_txBufferLength = 0;
    45c4:	10 92 e6 0d 	sts	0x0DE6, r1	; 0x800de6 <twi_txBufferLength>
      // request for txBuffer to be filled and length to be set
      // note: user must call twi_transmit(bytes, length) to do this
      twi_onSlaveTransmit();
    45c8:	e0 91 2c 0e 	lds	r30, 0x0E2C	; 0x800e2c <twi_onSlaveTransmit>
    45cc:	f0 91 2d 0e 	lds	r31, 0x0E2D	; 0x800e2d <twi_onSlaveTransmit+0x1>
    45d0:	19 95       	eicall
      // if they didn't change buffer & length, initialize it
      if(0 == twi_txBufferLength){
    45d2:	80 91 e6 0d 	lds	r24, 0x0DE6	; 0x800de6 <twi_txBufferLength>
    45d6:	81 11       	cpse	r24, r1
    45d8:	05 c0       	rjmp	.+10     	; 0x45e4 <__vector_39+0x1f6>
        twi_txBufferLength = 1;
    45da:	81 e0       	ldi	r24, 0x01	; 1
    45dc:	80 93 e6 0d 	sts	0x0DE6, r24	; 0x800de6 <twi_txBufferLength>
        twi_txBuffer[0] = 0x00;
    45e0:	10 92 e8 0d 	sts	0x0DE8, r1	; 0x800de8 <twi_txBuffer>
      }
      // transmit first byte from buffer, fall
    case TW_ST_DATA_ACK: // byte sent, ack returned
      // copy data to output register
      TWDR = twi_txBuffer[twi_txBufferIndex++];
    45e4:	e0 91 e7 0d 	lds	r30, 0x0DE7	; 0x800de7 <twi_txBufferIndex>
    45e8:	81 e0       	ldi	r24, 0x01	; 1
    45ea:	8e 0f       	add	r24, r30
    45ec:	80 93 e7 0d 	sts	0x0DE7, r24	; 0x800de7 <twi_txBufferIndex>
    45f0:	f0 e0       	ldi	r31, 0x00	; 0
    45f2:	e8 51       	subi	r30, 0x18	; 24
    45f4:	f2 4f       	sbci	r31, 0xF2	; 242
    45f6:	80 81       	ld	r24, Z
    45f8:	80 93 bb 00 	sts	0x00BB, r24	; 0x8000bb <__TEXT_REGION_LENGTH__+0x7000bb>
      // if there is more to send, ack, otherwise nack
      if(twi_txBufferIndex < twi_txBufferLength){
    45fc:	90 91 e7 0d 	lds	r25, 0x0DE7	; 0x800de7 <twi_txBufferIndex>
    4600:	80 91 e6 0d 	lds	r24, 0x0DE6	; 0x800de6 <twi_txBufferLength>
    4604:	98 17       	cp	r25, r24
    4606:	08 f4       	brcc	.+2      	; 0x460a <__vector_39+0x21c>
    4608:	7d cf       	rjmp	.-262    	; 0x4504 <__vector_39+0x116>
{
  // transmit master read ready signal, with or without ack
  if(ack){
    TWCR = _BV(TWEN) | _BV(TWIE) | _BV(TWINT) | _BV(TWEA);
  }else{
	  TWCR = _BV(TWEN) | _BV(TWIE) | _BV(TWINT);
    460a:	85 e8       	ldi	r24, 0x85	; 133
    460c:	80 93 bc 00 	sts	0x00BC, r24	; 0x8000bc <__TEXT_REGION_LENGTH__+0x7000bc>
    4610:	09 c0       	rjmp	.+18     	; 0x4624 <__vector_39+0x236>
 */
void twi_reply(uint8_t ack)
{
  // transmit master read ready signal, with or without ack
  if(ack){
    TWCR = _BV(TWEN) | _BV(TWIE) | _BV(TWINT) | _BV(TWEA);
    4612:	85 ec       	ldi	r24, 0xC5	; 197
    4614:	80 93 bc 00 	sts	0x00BC, r24	; 0x8000bc <__TEXT_REGION_LENGTH__+0x7000bc>
    case TW_ST_DATA_NACK: // received nack, we are done 
    case TW_ST_LAST_DATA: // received ack, but we are done already!
      // ack future responses
      twi_reply(1);
      // leave slave receiver state
      twi_state = TWI_READY;
    4618:	10 92 31 0e 	sts	0x0E31, r1	; 0x800e31 <twi_state>
      break;
    461c:	03 c0       	rjmp	.+6      	; 0x4624 <__vector_39+0x236>

    // All
    case TW_NO_INFO:   // no state information
      break;
    case TW_BUS_ERROR: // bus error, illegal stop/start
      twi_error = TW_BUS_ERROR;
    461e:	10 92 c4 0d 	sts	0x0DC4, r1	; 0x800dc4 <twi_error>
      twi_stop();
    4622:	d5 de       	rcall	.-598    	; 0x43ce <twi_stop>
      break;
  }
}
    4624:	ff 91       	pop	r31
    4626:	ef 91       	pop	r30
    4628:	bf 91       	pop	r27
    462a:	af 91       	pop	r26
    462c:	9f 91       	pop	r25
    462e:	8f 91       	pop	r24
    4630:	7f 91       	pop	r23
    4632:	6f 91       	pop	r22
    4634:	5f 91       	pop	r21
    4636:	4f 91       	pop	r20
    4638:	3f 91       	pop	r19
    463a:	2f 91       	pop	r18
    463c:	0f 90       	pop	r0
    463e:	0b be       	out	0x3b, r0	; 59
    4640:	0f 90       	pop	r0
    4642:	0f be       	out	0x3f, r0	; 63
    4644:	0f 90       	pop	r0
    4646:	1f 90       	pop	r1
    4648:	18 95       	reti

0000464a <_ZN7TwoWire9availableEv>:
}

// sets function called on slave read
void TwoWire::onRequest( void (*function)(void) )
{
  user_onRequest = function;
    464a:	80 91 62 0e 	lds	r24, 0x0E62	; 0x800e62 <_ZN7TwoWire14rxBufferLengthE>
    464e:	90 e0       	ldi	r25, 0x00	; 0
    4650:	20 91 63 0e 	lds	r18, 0x0E63	; 0x800e63 <_ZN7TwoWire13rxBufferIndexE>
    4654:	82 1b       	sub	r24, r18
    4656:	91 09       	sbc	r25, r1
    4658:	08 95       	ret

0000465a <_ZN7TwoWire4readEv>:
    465a:	90 91 63 0e 	lds	r25, 0x0E63	; 0x800e63 <_ZN7TwoWire13rxBufferIndexE>
    465e:	80 91 62 0e 	lds	r24, 0x0E62	; 0x800e62 <_ZN7TwoWire14rxBufferLengthE>
    4662:	98 17       	cp	r25, r24
    4664:	50 f4       	brcc	.+20     	; 0x467a <_ZN7TwoWire4readEv+0x20>
    4666:	e9 2f       	mov	r30, r25
    4668:	f0 e0       	ldi	r31, 0x00	; 0
    466a:	ec 59       	subi	r30, 0x9C	; 156
    466c:	f1 4f       	sbci	r31, 0xF1	; 241
    466e:	20 81       	ld	r18, Z
    4670:	30 e0       	ldi	r19, 0x00	; 0
    4672:	9f 5f       	subi	r25, 0xFF	; 255
    4674:	90 93 63 0e 	sts	0x0E63, r25	; 0x800e63 <_ZN7TwoWire13rxBufferIndexE>
    4678:	02 c0       	rjmp	.+4      	; 0x467e <_ZN7TwoWire4readEv+0x24>
    467a:	2f ef       	ldi	r18, 0xFF	; 255
    467c:	3f ef       	ldi	r19, 0xFF	; 255
    467e:	c9 01       	movw	r24, r18
    4680:	08 95       	ret

00004682 <_ZN7TwoWire4peekEv>:
    4682:	e0 91 63 0e 	lds	r30, 0x0E63	; 0x800e63 <_ZN7TwoWire13rxBufferIndexE>
    4686:	80 91 62 0e 	lds	r24, 0x0E62	; 0x800e62 <_ZN7TwoWire14rxBufferLengthE>
    468a:	e8 17       	cp	r30, r24
    468c:	30 f4       	brcc	.+12     	; 0x469a <_ZN7TwoWire4peekEv+0x18>
    468e:	f0 e0       	ldi	r31, 0x00	; 0
    4690:	ec 59       	subi	r30, 0x9C	; 156
    4692:	f1 4f       	sbci	r31, 0xF1	; 241
    4694:	80 81       	ld	r24, Z
    4696:	90 e0       	ldi	r25, 0x00	; 0
    4698:	08 95       	ret
    469a:	8f ef       	ldi	r24, 0xFF	; 255
    469c:	9f ef       	ldi	r25, 0xFF	; 255
    469e:	08 95       	ret

000046a0 <_ZN7TwoWire5flushEv>:
    46a0:	08 95       	ret

000046a2 <_ZN7TwoWire5writeEPKhj>:
    46a2:	cf 92       	push	r12
    46a4:	df 92       	push	r13
    46a6:	ef 92       	push	r14
    46a8:	ff 92       	push	r15
    46aa:	0f 93       	push	r16
    46ac:	1f 93       	push	r17
    46ae:	cf 93       	push	r28
    46b0:	df 93       	push	r29
    46b2:	7c 01       	movw	r14, r24
    46b4:	26 2f       	mov	r18, r22
    46b6:	97 2f       	mov	r25, r23
    46b8:	8a 01       	movw	r16, r20
    46ba:	80 91 3e 0e 	lds	r24, 0x0E3E	; 0x800e3e <_ZN7TwoWire12transmittingE>
    46be:	88 23       	and	r24, r24
    46c0:	91 f0       	breq	.+36     	; 0x46e6 <_ZN7TwoWire5writeEPKhj+0x44>
    46c2:	c6 2f       	mov	r28, r22
    46c4:	d7 2f       	mov	r29, r23
    46c6:	6e 01       	movw	r12, r28
    46c8:	c4 0e       	add	r12, r20
    46ca:	d5 1e       	adc	r13, r21
    46cc:	cc 15       	cp	r28, r12
    46ce:	dd 05       	cpc	r29, r13
    46d0:	69 f0       	breq	.+26     	; 0x46ec <_ZN7TwoWire5writeEPKhj+0x4a>
    46d2:	69 91       	ld	r22, Y+
    46d4:	d7 01       	movw	r26, r14
    46d6:	ed 91       	ld	r30, X+
    46d8:	fc 91       	ld	r31, X
    46da:	01 90       	ld	r0, Z+
    46dc:	f0 81       	ld	r31, Z
    46de:	e0 2d       	mov	r30, r0
    46e0:	c7 01       	movw	r24, r14
    46e2:	19 95       	eicall
    46e4:	f3 cf       	rjmp	.-26     	; 0x46cc <_ZN7TwoWire5writeEPKhj+0x2a>
    46e6:	64 2f       	mov	r22, r20
    46e8:	82 2f       	mov	r24, r18
    46ea:	49 de       	rcall	.-878    	; 0x437e <twi_transmit>
    46ec:	c8 01       	movw	r24, r16
    46ee:	df 91       	pop	r29
    46f0:	cf 91       	pop	r28
    46f2:	1f 91       	pop	r17
    46f4:	0f 91       	pop	r16
    46f6:	ff 90       	pop	r15
    46f8:	ef 90       	pop	r14
    46fa:	df 90       	pop	r13
    46fc:	cf 90       	pop	r12
    46fe:	08 95       	ret

00004700 <_ZN7TwoWire5writeEh>:
    4700:	cf 93       	push	r28
    4702:	df 93       	push	r29
    4704:	1f 92       	push	r1
    4706:	cd b7       	in	r28, 0x3d	; 61
    4708:	de b7       	in	r29, 0x3e	; 62
    470a:	69 83       	std	Y+1, r22	; 0x01
    470c:	20 91 3e 0e 	lds	r18, 0x0E3E	; 0x800e3e <_ZN7TwoWire12transmittingE>
    4710:	22 23       	and	r18, r18
    4712:	d1 f0       	breq	.+52     	; 0x4748 <_ZN7TwoWire5writeEh+0x48>
    4714:	20 91 3f 0e 	lds	r18, 0x0E3F	; 0x800e3f <_ZN7TwoWire14txBufferLengthE>
    4718:	20 32       	cpi	r18, 0x20	; 32
    471a:	40 f0       	brcs	.+16     	; 0x472c <_ZN7TwoWire5writeEh+0x2c>
    471c:	21 e0       	ldi	r18, 0x01	; 1
    471e:	30 e0       	ldi	r19, 0x00	; 0
    4720:	fc 01       	movw	r30, r24
    4722:	33 83       	std	Z+3, r19	; 0x03
    4724:	22 83       	std	Z+2, r18	; 0x02
    4726:	80 e0       	ldi	r24, 0x00	; 0
    4728:	90 e0       	ldi	r25, 0x00	; 0
    472a:	14 c0       	rjmp	.+40     	; 0x4754 <_ZN7TwoWire5writeEh+0x54>
    472c:	80 91 40 0e 	lds	r24, 0x0E40	; 0x800e40 <_ZN7TwoWire13txBufferIndexE>
    4730:	e8 2f       	mov	r30, r24
    4732:	f0 e0       	ldi	r31, 0x00	; 0
    4734:	ef 5b       	subi	r30, 0xBF	; 191
    4736:	f1 4f       	sbci	r31, 0xF1	; 241
    4738:	99 81       	ldd	r25, Y+1	; 0x01
    473a:	90 83       	st	Z, r25
    473c:	8f 5f       	subi	r24, 0xFF	; 255
    473e:	80 93 40 0e 	sts	0x0E40, r24	; 0x800e40 <_ZN7TwoWire13txBufferIndexE>
    4742:	80 93 3f 0e 	sts	0x0E3F, r24	; 0x800e3f <_ZN7TwoWire14txBufferLengthE>
    4746:	04 c0       	rjmp	.+8      	; 0x4750 <_ZN7TwoWire5writeEh+0x50>
    4748:	61 e0       	ldi	r22, 0x01	; 1
    474a:	ce 01       	movw	r24, r28
    474c:	01 96       	adiw	r24, 0x01	; 1
    474e:	17 de       	rcall	.-978    	; 0x437e <twi_transmit>
    4750:	81 e0       	ldi	r24, 0x01	; 1
    4752:	90 e0       	ldi	r25, 0x00	; 0
    4754:	0f 90       	pop	r0
    4756:	df 91       	pop	r29
    4758:	cf 91       	pop	r28
    475a:	08 95       	ret

0000475c <_ZN7TwoWireC1Ev>:
    475c:	fc 01       	movw	r30, r24
    475e:	13 82       	std	Z+3, r1	; 0x03
    4760:	12 82       	std	Z+2, r1	; 0x02
    4762:	88 ee       	ldi	r24, 0xE8	; 232
    4764:	93 e0       	ldi	r25, 0x03	; 3
    4766:	a0 e0       	ldi	r26, 0x00	; 0
    4768:	b0 e0       	ldi	r27, 0x00	; 0
    476a:	84 83       	std	Z+4, r24	; 0x04
    476c:	95 83       	std	Z+5, r25	; 0x05
    476e:	a6 83       	std	Z+6, r26	; 0x06
    4770:	b7 83       	std	Z+7, r27	; 0x07
    4772:	8a e5       	ldi	r24, 0x5A	; 90
    4774:	9c e0       	ldi	r25, 0x0C	; 12
    4776:	91 83       	std	Z+1, r25	; 0x01
    4778:	80 83       	st	Z, r24
    477a:	08 95       	ret

0000477c <_ZN7TwoWire5beginEv>:
    477c:	10 92 63 0e 	sts	0x0E63, r1	; 0x800e63 <_ZN7TwoWire13rxBufferIndexE>
    4780:	10 92 62 0e 	sts	0x0E62, r1	; 0x800e62 <_ZN7TwoWire14rxBufferLengthE>
    4784:	10 92 40 0e 	sts	0x0E40, r1	; 0x800e40 <_ZN7TwoWire13txBufferIndexE>
    4788:	10 92 3f 0e 	sts	0x0E3F, r1	; 0x800e3f <_ZN7TwoWire14txBufferLengthE>
    478c:	3c cd       	rjmp	.-1416   	; 0x4206 <twi_init>

0000478e <_ZN7TwoWire17beginTransmissionEh>:
    478e:	81 e0       	ldi	r24, 0x01	; 1
    4790:	80 93 3e 0e 	sts	0x0E3E, r24	; 0x800e3e <_ZN7TwoWire12transmittingE>
    4794:	60 93 61 0e 	sts	0x0E61, r22	; 0x800e61 <_ZN7TwoWire9txAddressE>
    4798:	10 92 40 0e 	sts	0x0E40, r1	; 0x800e40 <_ZN7TwoWire13txBufferIndexE>
    479c:	10 92 3f 0e 	sts	0x0E3F, r1	; 0x800e3f <_ZN7TwoWire14txBufferLengthE>
    47a0:	08 95       	ret

000047a2 <_ZN7TwoWire17beginTransmissionEi>:
    47a2:	f5 cf       	rjmp	.-22     	; 0x478e <_ZN7TwoWire17beginTransmissionEh>

000047a4 <_ZN7TwoWire15endTransmissionEh>:
    47a4:	0f 93       	push	r16
    47a6:	06 2f       	mov	r16, r22
    47a8:	21 e0       	ldi	r18, 0x01	; 1
    47aa:	40 91 3f 0e 	lds	r20, 0x0E3F	; 0x800e3f <_ZN7TwoWire14txBufferLengthE>
    47ae:	61 e4       	ldi	r22, 0x41	; 65
    47b0:	7e e0       	ldi	r23, 0x0E	; 14
    47b2:	80 91 61 0e 	lds	r24, 0x0E61	; 0x800e61 <_ZN7TwoWire9txAddressE>
    47b6:	8d dd       	rcall	.-1254   	; 0x42d2 <twi_writeTo>
    47b8:	10 92 40 0e 	sts	0x0E40, r1	; 0x800e40 <_ZN7TwoWire13txBufferIndexE>
    47bc:	10 92 3f 0e 	sts	0x0E3F, r1	; 0x800e3f <_ZN7TwoWire14txBufferLengthE>
    47c0:	10 92 3e 0e 	sts	0x0E3E, r1	; 0x800e3e <_ZN7TwoWire12transmittingE>
    47c4:	0f 91       	pop	r16
    47c6:	08 95       	ret

000047c8 <_ZN7TwoWire11requestFromEhhmhh>:
    47c8:	4f 92       	push	r4
    47ca:	5f 92       	push	r5
    47cc:	6f 92       	push	r6
    47ce:	7f 92       	push	r7
    47d0:	af 92       	push	r10
    47d2:	bf 92       	push	r11
    47d4:	cf 92       	push	r12
    47d6:	ef 92       	push	r14
    47d8:	ff 92       	push	r15
    47da:	0f 93       	push	r16
    47dc:	1f 93       	push	r17
    47de:	cf 93       	push	r28
    47e0:	df 93       	push	r29
    47e2:	5c 01       	movw	r10, r24
    47e4:	f6 2e       	mov	r15, r22
    47e6:	d4 2f       	mov	r29, r20
    47e8:	28 01       	movw	r4, r16
    47ea:	39 01       	movw	r6, r18
    47ec:	ee 20       	and	r14, r14
    47ee:	11 f1       	breq	.+68     	; 0x4834 <_ZN7TwoWire11requestFromEhhmhh+0x6c>
    47f0:	ce df       	rcall	.-100    	; 0x478e <_ZN7TwoWire17beginTransmissionEh>
    47f2:	ce 2d       	mov	r28, r14
    47f4:	c4 30       	cpi	r28, 0x04	; 4
    47f6:	08 f0       	brcs	.+2      	; 0x47fa <_ZN7TwoWire11requestFromEhhmhh+0x32>
    47f8:	c3 e0       	ldi	r28, 0x03	; 3
    47fa:	c1 50       	subi	r28, 0x01	; 1
    47fc:	c0 f0       	brcs	.+48     	; 0x482e <_ZN7TwoWire11requestFromEhhmhh+0x66>
    47fe:	d5 01       	movw	r26, r10
    4800:	ed 91       	ld	r30, X+
    4802:	fc 91       	ld	r31, X
    4804:	b8 e0       	ldi	r27, 0x08	; 8
    4806:	cb 9f       	mul	r28, r27
    4808:	c0 01       	movw	r24, r0
    480a:	11 24       	eor	r1, r1
    480c:	a3 01       	movw	r20, r6
    480e:	92 01       	movw	r18, r4
    4810:	04 c0       	rjmp	.+8      	; 0x481a <_ZN7TwoWire11requestFromEhhmhh+0x52>
    4812:	56 95       	lsr	r21
    4814:	47 95       	ror	r20
    4816:	37 95       	ror	r19
    4818:	27 95       	ror	r18
    481a:	8a 95       	dec	r24
    481c:	d2 f7       	brpl	.-12     	; 0x4812 <_ZN7TwoWire11requestFromEhhmhh+0x4a>
    481e:	ca 01       	movw	r24, r20
    4820:	b9 01       	movw	r22, r18
    4822:	01 90       	ld	r0, Z+
    4824:	f0 81       	ld	r31, Z
    4826:	e0 2d       	mov	r30, r0
    4828:	c5 01       	movw	r24, r10
    482a:	19 95       	eicall
    482c:	e6 cf       	rjmp	.-52     	; 0x47fa <_ZN7TwoWire11requestFromEhhmhh+0x32>
    482e:	60 e0       	ldi	r22, 0x00	; 0
    4830:	c5 01       	movw	r24, r10
    4832:	b8 df       	rcall	.-144    	; 0x47a4 <_ZN7TwoWire15endTransmissionEh>
    4834:	4d 2f       	mov	r20, r29
    4836:	d1 32       	cpi	r29, 0x21	; 33
    4838:	08 f0       	brcs	.+2      	; 0x483c <_ZN7TwoWire11requestFromEhhmhh+0x74>
    483a:	40 e2       	ldi	r20, 0x20	; 32
    483c:	2c 2d       	mov	r18, r12
    483e:	64 e6       	ldi	r22, 0x64	; 100
    4840:	7e e0       	ldi	r23, 0x0E	; 14
    4842:	8f 2d       	mov	r24, r15
    4844:	fe dc       	rcall	.-1540   	; 0x4242 <twi_readFrom>
    4846:	10 92 63 0e 	sts	0x0E63, r1	; 0x800e63 <_ZN7TwoWire13rxBufferIndexE>
    484a:	80 93 62 0e 	sts	0x0E62, r24	; 0x800e62 <_ZN7TwoWire14rxBufferLengthE>
    484e:	df 91       	pop	r29
    4850:	cf 91       	pop	r28
    4852:	1f 91       	pop	r17
    4854:	0f 91       	pop	r16
    4856:	ff 90       	pop	r15
    4858:	ef 90       	pop	r14
    485a:	cf 90       	pop	r12
    485c:	bf 90       	pop	r11
    485e:	af 90       	pop	r10
    4860:	7f 90       	pop	r7
    4862:	6f 90       	pop	r6
    4864:	5f 90       	pop	r5
    4866:	4f 90       	pop	r4
    4868:	08 95       	ret

0000486a <_ZN7TwoWire11requestFromEhhh>:
    486a:	cf 92       	push	r12
    486c:	ef 92       	push	r14
    486e:	0f 93       	push	r16
    4870:	1f 93       	push	r17
    4872:	c2 2e       	mov	r12, r18
    4874:	e1 2c       	mov	r14, r1
    4876:	00 e0       	ldi	r16, 0x00	; 0
    4878:	10 e0       	ldi	r17, 0x00	; 0
    487a:	98 01       	movw	r18, r16
    487c:	a5 df       	rcall	.-182    	; 0x47c8 <_ZN7TwoWire11requestFromEhhmhh>
    487e:	1f 91       	pop	r17
    4880:	0f 91       	pop	r16
    4882:	ef 90       	pop	r14
    4884:	cf 90       	pop	r12
    4886:	08 95       	ret

00004888 <_ZN7TwoWire11requestFromEii>:
    4888:	21 e0       	ldi	r18, 0x01	; 1
    488a:	ef cf       	rjmp	.-34     	; 0x486a <_ZN7TwoWire11requestFromEhhh>

0000488c <_ZN7TwoWire15endTransmissionEv>:
    488c:	61 e0       	ldi	r22, 0x01	; 1
    488e:	8a cf       	rjmp	.-236    	; 0x47a4 <_ZN7TwoWire15endTransmissionEh>

00004890 <_GLOBAL__sub_I__ZN7TwoWire8rxBufferE>:
}

// Preinstantiate Objects //////////////////////////////////////////////////////

TwoWire Wire = TwoWire();
    4890:	82 e3       	ldi	r24, 0x32	; 50
    4892:	9e e0       	ldi	r25, 0x0E	; 14
    4894:	63 cf       	rjmp	.-314    	; 0x475c <_ZN7TwoWireC1Ev>

00004896 <_ZL7nothingv>:
{
	
	setMode(_mode,_time);
	Timer1();
	# warning "Mode set completely!"
} //Timer1
    4896:	08 95       	ret

00004898 <_ZN6Timer116select_prescalerEi>:
    4898:	4f 92       	push	r4
    489a:	5f 92       	push	r5
    489c:	6f 92       	push	r6
    489e:	7f 92       	push	r7
    48a0:	af 92       	push	r10
    48a2:	bf 92       	push	r11
    48a4:	cf 92       	push	r12
    48a6:	df 92       	push	r13
    48a8:	ef 92       	push	r14
    48aa:	ff 92       	push	r15
    48ac:	0f 93       	push	r16
    48ae:	1f 93       	push	r17
    48b0:	cf 93       	push	r28
    48b2:	df 93       	push	r29
    48b4:	cd b7       	in	r28, 0x3d	; 61
    48b6:	de b7       	in	r29, 0x3e	; 62
    48b8:	2a 97       	sbiw	r28, 0x0a	; 10
    48ba:	0f b6       	in	r0, 0x3f	; 63
    48bc:	f8 94       	cli
    48be:	de bf       	out	0x3e, r29	; 62
    48c0:	0f be       	out	0x3f, r0	; 63
    48c2:	cd bf       	out	0x3d, r28	; 61
    48c4:	7c 01       	movw	r14, r24
    48c6:	5b 01       	movw	r10, r22
    48c8:	8a e0       	ldi	r24, 0x0A	; 10
    48ca:	ed e4       	ldi	r30, 0x4D	; 77
    48cc:	f6 e0       	ldi	r31, 0x06	; 6
    48ce:	de 01       	movw	r26, r28
    48d0:	11 96       	adiw	r26, 0x01	; 1
    48d2:	01 90       	ld	r0, Z+
    48d4:	0d 92       	st	X+, r0
    48d6:	8a 95       	dec	r24
    48d8:	e1 f7       	brne	.-8      	; 0x48d2 <_ZN6Timer116select_prescalerEi+0x3a>
    48da:	ce 01       	movw	r24, r28
    48dc:	01 96       	adiw	r24, 0x01	; 1
    48de:	6c 01       	movw	r12, r24
    48e0:	00 e0       	ldi	r16, 0x00	; 0
    48e2:	10 e0       	ldi	r17, 0x00	; 0
    48e4:	30 e8       	ldi	r19, 0x80	; 128
    48e6:	43 2e       	mov	r4, r19
    48e8:	3e e3       	ldi	r19, 0x3E	; 62
    48ea:	53 2e       	mov	r5, r19
    48ec:	61 2c       	mov	r6, r1
    48ee:	71 2c       	mov	r7, r1
    48f0:	f6 01       	movw	r30, r12
    48f2:	61 91       	ld	r22, Z+
    48f4:	71 91       	ld	r23, Z+
    48f6:	6f 01       	movw	r12, r30
    48f8:	cb 01       	movw	r24, r22
    48fa:	77 0f       	add	r23, r23
    48fc:	aa 0b       	sbc	r26, r26
    48fe:	bb 0b       	sbc	r27, r27
    4900:	77 27       	eor	r23, r23
    4902:	66 27       	eor	r22, r22
    4904:	a3 01       	movw	r20, r6
    4906:	92 01       	movw	r18, r4
    4908:	0e 94 6d 33 	call	0x66da	; 0x66da <__divmodsi4>
    490c:	a2 16       	cp	r10, r18
    490e:	b3 06       	cpc	r11, r19
    4910:	2c f0       	brlt	.+10     	; 0x491c <_ZN6Timer116select_prescalerEi+0x84>
    4912:	0f 5f       	subi	r16, 0xFF	; 255
    4914:	1f 4f       	sbci	r17, 0xFF	; 255
    4916:	05 30       	cpi	r16, 0x05	; 5
    4918:	11 05       	cpc	r17, r1
    491a:	51 f7       	brne	.-44     	; 0x48f0 <_ZN6Timer116select_prescalerEi+0x58>
    491c:	f7 01       	movw	r30, r14
    491e:	31 87       	std	Z+9, r19	; 0x09
    4920:	20 87       	std	Z+8, r18	; 0x08
    4922:	00 0f       	add	r16, r16
    4924:	11 1f       	adc	r17, r17
    4926:	e1 e0       	ldi	r30, 0x01	; 1
    4928:	f0 e0       	ldi	r31, 0x00	; 0
    492a:	ec 0f       	add	r30, r28
    492c:	fd 1f       	adc	r31, r29
    492e:	e0 0f       	add	r30, r16
    4930:	f1 1f       	adc	r31, r17
    4932:	80 81       	ld	r24, Z
    4934:	91 81       	ldd	r25, Z+1	; 0x01
    4936:	2a 96       	adiw	r28, 0x0a	; 10
    4938:	0f b6       	in	r0, 0x3f	; 63
    493a:	f8 94       	cli
    493c:	de bf       	out	0x3e, r29	; 62
    493e:	0f be       	out	0x3f, r0	; 63
    4940:	cd bf       	out	0x3d, r28	; 61
    4942:	df 91       	pop	r29
    4944:	cf 91       	pop	r28
    4946:	1f 91       	pop	r17
    4948:	0f 91       	pop	r16
    494a:	ff 90       	pop	r15
    494c:	ef 90       	pop	r14
    494e:	df 90       	pop	r13
    4950:	cf 90       	pop	r12
    4952:	bf 90       	pop	r11
    4954:	af 90       	pop	r10
    4956:	7f 90       	pop	r7
    4958:	6f 90       	pop	r6
    495a:	5f 90       	pop	r5
    495c:	4f 90       	pop	r4
    495e:	08 95       	ret

00004960 <_ZN6Timer1C1Ev>:
    4960:	cf 93       	push	r28
    4962:	df 93       	push	r29
    4964:	ec 01       	movw	r28, r24
    4966:	6c e7       	ldi	r22, 0x7C	; 124
    4968:	7c e0       	ldi	r23, 0x0C	; 12
    496a:	0e 94 c1 32 	call	0x6582	; 0x6582 <_ZN6StringC1EPKc>
    496e:	81 e0       	ldi	r24, 0x01	; 1
    4970:	90 e0       	ldi	r25, 0x00	; 0
    4972:	9f 83       	std	Y+7, r25	; 0x07
    4974:	8e 83       	std	Y+6, r24	; 0x06
    4976:	19 86       	std	Y+9, r1	; 0x09
    4978:	18 86       	std	Y+8, r1	; 0x08
    497a:	1b 86       	std	Y+11, r1	; 0x0b
    497c:	1a 86       	std	Y+10, r1	; 0x0a
    497e:	8f b7       	in	r24, 0x3f	; 63
    4980:	80 68       	ori	r24, 0x80	; 128
    4982:	8f bf       	out	0x3f, r24	; 63
    4984:	df 91       	pop	r29
    4986:	cf 91       	pop	r28
    4988:	08 95       	ret

0000498a <_ZN6Timer17setModeE6Stringi>:
    498a:	ef 92       	push	r14
    498c:	ff 92       	push	r15
    498e:	0f 93       	push	r16
    4990:	1f 93       	push	r17
    4992:	cf 93       	push	r28
    4994:	df 93       	push	r29
    4996:	ec 01       	movw	r28, r24
    4998:	7b 01       	movw	r14, r22
    499a:	8a 01       	movw	r16, r20
    499c:	0e 94 d5 32 	call	0x65aa	; 0x65aa <_ZN6StringaSERKS_>
    49a0:	b8 01       	movw	r22, r16
    49a2:	ce 01       	movw	r24, r28
    49a4:	79 df       	rcall	.-270    	; 0x4898 <_ZN6Timer116select_prescalerEi>
    49a6:	9f 83       	std	Y+7, r25	; 0x07
    49a8:	8e 83       	std	Y+6, r24	; 0x06
    49aa:	c7 01       	movw	r24, r14
    49ac:	0e 94 25 33 	call	0x664a	; 0x664a <_ZN6String11toUpperCaseEv>
    49b0:	66 e3       	ldi	r22, 0x36	; 54
    49b2:	7c e0       	ldi	r23, 0x0C	; 12
    49b4:	c7 01       	movw	r24, r14
    49b6:	0e 94 07 33 	call	0x660e	; 0x660e <_ZNK6String6equalsEPKc>
    49ba:	88 23       	and	r24, r24
    49bc:	09 f4       	brne	.+2      	; 0x49c0 <_ZN6Timer17setModeE6Stringi+0x36>
    49be:	4d c0       	rjmp	.+154    	; 0x4a5a <_ZN6Timer17setModeE6Stringi+0xd0>
    49c0:	10 92 80 00 	sts	0x0080, r1	; 0x800080 <__TEXT_REGION_LENGTH__+0x700080>
    49c4:	10 92 81 00 	sts	0x0081, r1	; 0x800081 <__TEXT_REGION_LENGTH__+0x700081>
    49c8:	88 e0       	ldi	r24, 0x08	; 8
    49ca:	80 93 81 00 	sts	0x0081, r24	; 0x800081 <__TEXT_REGION_LENGTH__+0x700081>
    49ce:	8e 81       	ldd	r24, Y+6	; 0x06
    49d0:	9f 81       	ldd	r25, Y+7	; 0x07
    49d2:	01 97       	sbiw	r24, 0x01	; 1
    49d4:	29 f4       	brne	.+10     	; 0x49e0 <_ZN6Timer17setModeE6Stringi+0x56>
    49d6:	80 91 81 00 	lds	r24, 0x0081	; 0x800081 <__TEXT_REGION_LENGTH__+0x700081>
    49da:	81 60       	ori	r24, 0x01	; 1
    49dc:	80 93 81 00 	sts	0x0081, r24	; 0x800081 <__TEXT_REGION_LENGTH__+0x700081>
    49e0:	8e 81       	ldd	r24, Y+6	; 0x06
    49e2:	9f 81       	ldd	r25, Y+7	; 0x07
    49e4:	08 97       	sbiw	r24, 0x08	; 8
    49e6:	29 f4       	brne	.+10     	; 0x49f2 <_ZN6Timer17setModeE6Stringi+0x68>
    49e8:	80 91 81 00 	lds	r24, 0x0081	; 0x800081 <__TEXT_REGION_LENGTH__+0x700081>
    49ec:	82 60       	ori	r24, 0x02	; 2
    49ee:	80 93 81 00 	sts	0x0081, r24	; 0x800081 <__TEXT_REGION_LENGTH__+0x700081>
    49f2:	8e 81       	ldd	r24, Y+6	; 0x06
    49f4:	9f 81       	ldd	r25, Y+7	; 0x07
    49f6:	80 34       	cpi	r24, 0x40	; 64
    49f8:	91 05       	cpc	r25, r1
    49fa:	29 f4       	brne	.+10     	; 0x4a06 <_ZN6Timer17setModeE6Stringi+0x7c>
    49fc:	80 91 81 00 	lds	r24, 0x0081	; 0x800081 <__TEXT_REGION_LENGTH__+0x700081>
    4a00:	83 60       	ori	r24, 0x03	; 3
    4a02:	80 93 81 00 	sts	0x0081, r24	; 0x800081 <__TEXT_REGION_LENGTH__+0x700081>
    4a06:	8e 81       	ldd	r24, Y+6	; 0x06
    4a08:	9f 81       	ldd	r25, Y+7	; 0x07
    4a0a:	81 15       	cp	r24, r1
    4a0c:	91 40       	sbci	r25, 0x01	; 1
    4a0e:	29 f4       	brne	.+10     	; 0x4a1a <_ZN6Timer17setModeE6Stringi+0x90>
    4a10:	80 91 81 00 	lds	r24, 0x0081	; 0x800081 <__TEXT_REGION_LENGTH__+0x700081>
    4a14:	84 60       	ori	r24, 0x04	; 4
    4a16:	80 93 81 00 	sts	0x0081, r24	; 0x800081 <__TEXT_REGION_LENGTH__+0x700081>
    4a1a:	8e 81       	ldd	r24, Y+6	; 0x06
    4a1c:	9f 81       	ldd	r25, Y+7	; 0x07
    4a1e:	81 15       	cp	r24, r1
    4a20:	94 40       	sbci	r25, 0x04	; 4
    4a22:	29 f4       	brne	.+10     	; 0x4a2e <_ZN6Timer17setModeE6Stringi+0xa4>
    4a24:	80 91 81 00 	lds	r24, 0x0081	; 0x800081 <__TEXT_REGION_LENGTH__+0x700081>
    4a28:	85 60       	ori	r24, 0x05	; 5
    4a2a:	80 93 81 00 	sts	0x0081, r24	; 0x800081 <__TEXT_REGION_LENGTH__+0x700081>
    4a2e:	20 e8       	ldi	r18, 0x80	; 128
    4a30:	3e e3       	ldi	r19, 0x3E	; 62
    4a32:	d8 01       	movw	r26, r16
    4a34:	0e 94 a0 33 	call	0x6740	; 0x6740 <__usmulhisi3>
    4a38:	2e 81       	ldd	r18, Y+6	; 0x06
    4a3a:	3f 81       	ldd	r19, Y+7	; 0x07
    4a3c:	03 2e       	mov	r0, r19
    4a3e:	00 0c       	add	r0, r0
    4a40:	44 0b       	sbc	r20, r20
    4a42:	55 0b       	sbc	r21, r21
    4a44:	0e 94 6d 33 	call	0x66da	; 0x66da <__divmodsi4>
    4a48:	3b 87       	std	Y+11, r19	; 0x0b
    4a4a:	2a 87       	std	Y+10, r18	; 0x0a
    4a4c:	30 93 89 00 	sts	0x0089, r19	; 0x800089 <__TEXT_REGION_LENGTH__+0x700089>
    4a50:	20 93 88 00 	sts	0x0088, r18	; 0x800088 <__TEXT_REGION_LENGTH__+0x700088>
    4a54:	82 e0       	ldi	r24, 0x02	; 2
    4a56:	80 93 6f 00 	sts	0x006F, r24	; 0x80006f <__TEXT_REGION_LENGTH__+0x70006f>
    4a5a:	df 91       	pop	r29
    4a5c:	cf 91       	pop	r28
    4a5e:	1f 91       	pop	r17
    4a60:	0f 91       	pop	r16
    4a62:	ff 90       	pop	r15
    4a64:	ef 90       	pop	r14
    4a66:	08 95       	ret

00004a68 <_ZN6Timer115attachInterruptEPFvvE>:
	}
}

void Timer1::attachInterrupt(void (*userFunc)(void))
{
	_intFunc = userFunc;
    4a68:	70 93 3c 06 	sts	0x063C, r23	; 0x80063c <_ZL8_intFunc+0x1>
    4a6c:	60 93 3b 06 	sts	0x063B, r22	; 0x80063b <_ZL8_intFunc>
    4a70:	08 95       	ret

00004a72 <_ZN6Timer1D1Ev>:
}

// default destructor
Timer1::~Timer1()
    4a72:	0c 94 5a 32 	jmp	0x64b4	; 0x64b4 <_ZN6StringD1Ev>

00004a76 <__vector_17>:
{
} //~Timer1

ISR (TIMER1_COMPA_vect)
{
    4a76:	1f 92       	push	r1
    4a78:	0f 92       	push	r0
    4a7a:	0f b6       	in	r0, 0x3f	; 63
    4a7c:	0f 92       	push	r0
    4a7e:	11 24       	eor	r1, r1
    4a80:	0b b6       	in	r0, 0x3b	; 59
    4a82:	0f 92       	push	r0
    4a84:	2f 93       	push	r18
    4a86:	3f 93       	push	r19
    4a88:	4f 93       	push	r20
    4a8a:	5f 93       	push	r21
    4a8c:	6f 93       	push	r22
    4a8e:	7f 93       	push	r23
    4a90:	8f 93       	push	r24
    4a92:	9f 93       	push	r25
    4a94:	af 93       	push	r26
    4a96:	bf 93       	push	r27
    4a98:	ef 93       	push	r30
    4a9a:	ff 93       	push	r31
	_intFunc();
    4a9c:	e0 91 3b 06 	lds	r30, 0x063B	; 0x80063b <_ZL8_intFunc>
    4aa0:	f0 91 3c 06 	lds	r31, 0x063C	; 0x80063c <_ZL8_intFunc+0x1>
    4aa4:	19 95       	eicall
    4aa6:	ff 91       	pop	r31
    4aa8:	ef 91       	pop	r30
    4aaa:	bf 91       	pop	r27
    4aac:	af 91       	pop	r26
    4aae:	9f 91       	pop	r25
    4ab0:	8f 91       	pop	r24
    4ab2:	7f 91       	pop	r23
    4ab4:	6f 91       	pop	r22
    4ab6:	5f 91       	pop	r21
    4ab8:	4f 91       	pop	r20
    4aba:	3f 91       	pop	r19
    4abc:	2f 91       	pop	r18
    4abe:	0f 90       	pop	r0
    4ac0:	0b be       	out	0x3b, r0	; 59
    4ac2:	0f 90       	pop	r0
    4ac4:	0f be       	out	0x3f, r0	; 63
    4ac6:	0f 90       	pop	r0
    4ac8:	1f 90       	pop	r1
    4aca:	18 95       	reti

00004acc <__subsf3>:
    4acc:	50 58       	subi	r21, 0x80	; 128

00004ace <__addsf3>:
    4ace:	bb 27       	eor	r27, r27
    4ad0:	aa 27       	eor	r26, r26
    4ad2:	0e d0       	rcall	.+28     	; 0x4af0 <__addsf3x>
    4ad4:	fc c1       	rjmp	.+1016   	; 0x4ece <__fp_round>
    4ad6:	c5 d1       	rcall	.+906    	; 0x4e62 <__fp_pscA>
    4ad8:	30 f0       	brcs	.+12     	; 0x4ae6 <__addsf3+0x18>
    4ada:	ca d1       	rcall	.+916    	; 0x4e70 <__fp_pscB>
    4adc:	20 f0       	brcs	.+8      	; 0x4ae6 <__addsf3+0x18>
    4ade:	31 f4       	brne	.+12     	; 0x4aec <__addsf3+0x1e>
    4ae0:	9f 3f       	cpi	r25, 0xFF	; 255
    4ae2:	11 f4       	brne	.+4      	; 0x4ae8 <__addsf3+0x1a>
    4ae4:	1e f4       	brtc	.+6      	; 0x4aec <__addsf3+0x1e>
    4ae6:	ba c1       	rjmp	.+884    	; 0x4e5c <__fp_nan>
    4ae8:	0e f4       	brtc	.+2      	; 0x4aec <__addsf3+0x1e>
    4aea:	e0 95       	com	r30
    4aec:	e7 fb       	bst	r30, 7
    4aee:	a2 c1       	rjmp	.+836    	; 0x4e34 <__fp_inf>

00004af0 <__addsf3x>:
    4af0:	e9 2f       	mov	r30, r25
    4af2:	0f d2       	rcall	.+1054   	; 0x4f12 <__fp_split3>
    4af4:	80 f3       	brcs	.-32     	; 0x4ad6 <__addsf3+0x8>
    4af6:	ba 17       	cp	r27, r26
    4af8:	62 07       	cpc	r22, r18
    4afa:	73 07       	cpc	r23, r19
    4afc:	84 07       	cpc	r24, r20
    4afe:	95 07       	cpc	r25, r21
    4b00:	18 f0       	brcs	.+6      	; 0x4b08 <__addsf3x+0x18>
    4b02:	71 f4       	brne	.+28     	; 0x4b20 <__addsf3x+0x30>
    4b04:	9e f5       	brtc	.+102    	; 0x4b6c <__addsf3x+0x7c>
    4b06:	27 c2       	rjmp	.+1102   	; 0x4f56 <__fp_zero>
    4b08:	0e f4       	brtc	.+2      	; 0x4b0c <__addsf3x+0x1c>
    4b0a:	e0 95       	com	r30
    4b0c:	0b 2e       	mov	r0, r27
    4b0e:	ba 2f       	mov	r27, r26
    4b10:	a0 2d       	mov	r26, r0
    4b12:	0b 01       	movw	r0, r22
    4b14:	b9 01       	movw	r22, r18
    4b16:	90 01       	movw	r18, r0
    4b18:	0c 01       	movw	r0, r24
    4b1a:	ca 01       	movw	r24, r20
    4b1c:	a0 01       	movw	r20, r0
    4b1e:	11 24       	eor	r1, r1
    4b20:	ff 27       	eor	r31, r31
    4b22:	59 1b       	sub	r21, r25
    4b24:	99 f0       	breq	.+38     	; 0x4b4c <__addsf3x+0x5c>
    4b26:	59 3f       	cpi	r21, 0xF9	; 249
    4b28:	50 f4       	brcc	.+20     	; 0x4b3e <__addsf3x+0x4e>
    4b2a:	50 3e       	cpi	r21, 0xE0	; 224
    4b2c:	68 f1       	brcs	.+90     	; 0x4b88 <__addsf3x+0x98>
    4b2e:	1a 16       	cp	r1, r26
    4b30:	f0 40       	sbci	r31, 0x00	; 0
    4b32:	a2 2f       	mov	r26, r18
    4b34:	23 2f       	mov	r18, r19
    4b36:	34 2f       	mov	r19, r20
    4b38:	44 27       	eor	r20, r20
    4b3a:	58 5f       	subi	r21, 0xF8	; 248
    4b3c:	f3 cf       	rjmp	.-26     	; 0x4b24 <__addsf3x+0x34>
    4b3e:	46 95       	lsr	r20
    4b40:	37 95       	ror	r19
    4b42:	27 95       	ror	r18
    4b44:	a7 95       	ror	r26
    4b46:	f0 40       	sbci	r31, 0x00	; 0
    4b48:	53 95       	inc	r21
    4b4a:	c9 f7       	brne	.-14     	; 0x4b3e <__addsf3x+0x4e>
    4b4c:	7e f4       	brtc	.+30     	; 0x4b6c <__addsf3x+0x7c>
    4b4e:	1f 16       	cp	r1, r31
    4b50:	ba 0b       	sbc	r27, r26
    4b52:	62 0b       	sbc	r22, r18
    4b54:	73 0b       	sbc	r23, r19
    4b56:	84 0b       	sbc	r24, r20
    4b58:	ba f0       	brmi	.+46     	; 0x4b88 <__addsf3x+0x98>
    4b5a:	91 50       	subi	r25, 0x01	; 1
    4b5c:	a1 f0       	breq	.+40     	; 0x4b86 <__addsf3x+0x96>
    4b5e:	ff 0f       	add	r31, r31
    4b60:	bb 1f       	adc	r27, r27
    4b62:	66 1f       	adc	r22, r22
    4b64:	77 1f       	adc	r23, r23
    4b66:	88 1f       	adc	r24, r24
    4b68:	c2 f7       	brpl	.-16     	; 0x4b5a <__addsf3x+0x6a>
    4b6a:	0e c0       	rjmp	.+28     	; 0x4b88 <__addsf3x+0x98>
    4b6c:	ba 0f       	add	r27, r26
    4b6e:	62 1f       	adc	r22, r18
    4b70:	73 1f       	adc	r23, r19
    4b72:	84 1f       	adc	r24, r20
    4b74:	48 f4       	brcc	.+18     	; 0x4b88 <__addsf3x+0x98>
    4b76:	87 95       	ror	r24
    4b78:	77 95       	ror	r23
    4b7a:	67 95       	ror	r22
    4b7c:	b7 95       	ror	r27
    4b7e:	f7 95       	ror	r31
    4b80:	9e 3f       	cpi	r25, 0xFE	; 254
    4b82:	08 f0       	brcs	.+2      	; 0x4b86 <__addsf3x+0x96>
    4b84:	b3 cf       	rjmp	.-154    	; 0x4aec <__addsf3+0x1e>
    4b86:	93 95       	inc	r25
    4b88:	88 0f       	add	r24, r24
    4b8a:	08 f0       	brcs	.+2      	; 0x4b8e <__addsf3x+0x9e>
    4b8c:	99 27       	eor	r25, r25
    4b8e:	ee 0f       	add	r30, r30
    4b90:	97 95       	ror	r25
    4b92:	87 95       	ror	r24
    4b94:	08 95       	ret

00004b96 <__cmpsf2>:
    4b96:	2a d1       	rcall	.+596    	; 0x4dec <__fp_cmp>
    4b98:	08 f4       	brcc	.+2      	; 0x4b9c <__cmpsf2+0x6>
    4b9a:	81 e0       	ldi	r24, 0x01	; 1
    4b9c:	08 95       	ret

00004b9e <cos>:
    4b9e:	70 d1       	rcall	.+736    	; 0x4e80 <__fp_rempio2>
    4ba0:	e3 95       	inc	r30
    4ba2:	a6 c1       	rjmp	.+844    	; 0x4ef0 <__fp_sinus>

00004ba4 <__divsf3>:
    4ba4:	0c d0       	rcall	.+24     	; 0x4bbe <__divsf3x>
    4ba6:	93 c1       	rjmp	.+806    	; 0x4ece <__fp_round>
    4ba8:	63 d1       	rcall	.+710    	; 0x4e70 <__fp_pscB>
    4baa:	40 f0       	brcs	.+16     	; 0x4bbc <__divsf3+0x18>
    4bac:	5a d1       	rcall	.+692    	; 0x4e62 <__fp_pscA>
    4bae:	30 f0       	brcs	.+12     	; 0x4bbc <__divsf3+0x18>
    4bb0:	21 f4       	brne	.+8      	; 0x4bba <__divsf3+0x16>
    4bb2:	5f 3f       	cpi	r21, 0xFF	; 255
    4bb4:	19 f0       	breq	.+6      	; 0x4bbc <__divsf3+0x18>
    4bb6:	3e c1       	rjmp	.+636    	; 0x4e34 <__fp_inf>
    4bb8:	51 11       	cpse	r21, r1
    4bba:	ce c1       	rjmp	.+924    	; 0x4f58 <__fp_szero>
    4bbc:	4f c1       	rjmp	.+670    	; 0x4e5c <__fp_nan>

00004bbe <__divsf3x>:
    4bbe:	a9 d1       	rcall	.+850    	; 0x4f12 <__fp_split3>
    4bc0:	98 f3       	brcs	.-26     	; 0x4ba8 <__divsf3+0x4>

00004bc2 <__divsf3_pse>:
    4bc2:	99 23       	and	r25, r25
    4bc4:	c9 f3       	breq	.-14     	; 0x4bb8 <__divsf3+0x14>
    4bc6:	55 23       	and	r21, r21
    4bc8:	b1 f3       	breq	.-20     	; 0x4bb6 <__divsf3+0x12>
    4bca:	95 1b       	sub	r25, r21
    4bcc:	55 0b       	sbc	r21, r21
    4bce:	bb 27       	eor	r27, r27
    4bd0:	aa 27       	eor	r26, r26
    4bd2:	62 17       	cp	r22, r18
    4bd4:	73 07       	cpc	r23, r19
    4bd6:	84 07       	cpc	r24, r20
    4bd8:	38 f0       	brcs	.+14     	; 0x4be8 <__divsf3_pse+0x26>
    4bda:	9f 5f       	subi	r25, 0xFF	; 255
    4bdc:	5f 4f       	sbci	r21, 0xFF	; 255
    4bde:	22 0f       	add	r18, r18
    4be0:	33 1f       	adc	r19, r19
    4be2:	44 1f       	adc	r20, r20
    4be4:	aa 1f       	adc	r26, r26
    4be6:	a9 f3       	breq	.-22     	; 0x4bd2 <__divsf3_pse+0x10>
    4be8:	33 d0       	rcall	.+102    	; 0x4c50 <__divsf3_pse+0x8e>
    4bea:	0e 2e       	mov	r0, r30
    4bec:	3a f0       	brmi	.+14     	; 0x4bfc <__divsf3_pse+0x3a>
    4bee:	e0 e8       	ldi	r30, 0x80	; 128
    4bf0:	30 d0       	rcall	.+96     	; 0x4c52 <__divsf3_pse+0x90>
    4bf2:	91 50       	subi	r25, 0x01	; 1
    4bf4:	50 40       	sbci	r21, 0x00	; 0
    4bf6:	e6 95       	lsr	r30
    4bf8:	00 1c       	adc	r0, r0
    4bfa:	ca f7       	brpl	.-14     	; 0x4bee <__divsf3_pse+0x2c>
    4bfc:	29 d0       	rcall	.+82     	; 0x4c50 <__divsf3_pse+0x8e>
    4bfe:	fe 2f       	mov	r31, r30
    4c00:	27 d0       	rcall	.+78     	; 0x4c50 <__divsf3_pse+0x8e>
    4c02:	66 0f       	add	r22, r22
    4c04:	77 1f       	adc	r23, r23
    4c06:	88 1f       	adc	r24, r24
    4c08:	bb 1f       	adc	r27, r27
    4c0a:	26 17       	cp	r18, r22
    4c0c:	37 07       	cpc	r19, r23
    4c0e:	48 07       	cpc	r20, r24
    4c10:	ab 07       	cpc	r26, r27
    4c12:	b0 e8       	ldi	r27, 0x80	; 128
    4c14:	09 f0       	breq	.+2      	; 0x4c18 <__divsf3_pse+0x56>
    4c16:	bb 0b       	sbc	r27, r27
    4c18:	80 2d       	mov	r24, r0
    4c1a:	bf 01       	movw	r22, r30
    4c1c:	ff 27       	eor	r31, r31
    4c1e:	93 58       	subi	r25, 0x83	; 131
    4c20:	5f 4f       	sbci	r21, 0xFF	; 255
    4c22:	2a f0       	brmi	.+10     	; 0x4c2e <__divsf3_pse+0x6c>
    4c24:	9e 3f       	cpi	r25, 0xFE	; 254
    4c26:	51 05       	cpc	r21, r1
    4c28:	68 f0       	brcs	.+26     	; 0x4c44 <__divsf3_pse+0x82>
    4c2a:	04 c1       	rjmp	.+520    	; 0x4e34 <__fp_inf>
    4c2c:	95 c1       	rjmp	.+810    	; 0x4f58 <__fp_szero>
    4c2e:	5f 3f       	cpi	r21, 0xFF	; 255
    4c30:	ec f3       	brlt	.-6      	; 0x4c2c <__divsf3_pse+0x6a>
    4c32:	98 3e       	cpi	r25, 0xE8	; 232
    4c34:	dc f3       	brlt	.-10     	; 0x4c2c <__divsf3_pse+0x6a>
    4c36:	86 95       	lsr	r24
    4c38:	77 95       	ror	r23
    4c3a:	67 95       	ror	r22
    4c3c:	b7 95       	ror	r27
    4c3e:	f7 95       	ror	r31
    4c40:	9f 5f       	subi	r25, 0xFF	; 255
    4c42:	c9 f7       	brne	.-14     	; 0x4c36 <__divsf3_pse+0x74>
    4c44:	88 0f       	add	r24, r24
    4c46:	91 1d       	adc	r25, r1
    4c48:	96 95       	lsr	r25
    4c4a:	87 95       	ror	r24
    4c4c:	97 f9       	bld	r25, 7
    4c4e:	08 95       	ret
    4c50:	e1 e0       	ldi	r30, 0x01	; 1
    4c52:	66 0f       	add	r22, r22
    4c54:	77 1f       	adc	r23, r23
    4c56:	88 1f       	adc	r24, r24
    4c58:	bb 1f       	adc	r27, r27
    4c5a:	62 17       	cp	r22, r18
    4c5c:	73 07       	cpc	r23, r19
    4c5e:	84 07       	cpc	r24, r20
    4c60:	ba 07       	cpc	r27, r26
    4c62:	20 f0       	brcs	.+8      	; 0x4c6c <__divsf3_pse+0xaa>
    4c64:	62 1b       	sub	r22, r18
    4c66:	73 0b       	sbc	r23, r19
    4c68:	84 0b       	sbc	r24, r20
    4c6a:	ba 0b       	sbc	r27, r26
    4c6c:	ee 1f       	adc	r30, r30
    4c6e:	88 f7       	brcc	.-30     	; 0x4c52 <__divsf3_pse+0x90>
    4c70:	e0 95       	com	r30
    4c72:	08 95       	ret

00004c74 <__fixsfsi>:
    4c74:	04 d0       	rcall	.+8      	; 0x4c7e <__fixunssfsi>
    4c76:	68 94       	set
    4c78:	b1 11       	cpse	r27, r1
    4c7a:	6e c1       	rjmp	.+732    	; 0x4f58 <__fp_szero>
    4c7c:	08 95       	ret

00004c7e <__fixunssfsi>:
    4c7e:	51 d1       	rcall	.+674    	; 0x4f22 <__fp_splitA>
    4c80:	88 f0       	brcs	.+34     	; 0x4ca4 <__fixunssfsi+0x26>
    4c82:	9f 57       	subi	r25, 0x7F	; 127
    4c84:	90 f0       	brcs	.+36     	; 0x4caa <__fixunssfsi+0x2c>
    4c86:	b9 2f       	mov	r27, r25
    4c88:	99 27       	eor	r25, r25
    4c8a:	b7 51       	subi	r27, 0x17	; 23
    4c8c:	a0 f0       	brcs	.+40     	; 0x4cb6 <__fixunssfsi+0x38>
    4c8e:	d1 f0       	breq	.+52     	; 0x4cc4 <__fixunssfsi+0x46>
    4c90:	66 0f       	add	r22, r22
    4c92:	77 1f       	adc	r23, r23
    4c94:	88 1f       	adc	r24, r24
    4c96:	99 1f       	adc	r25, r25
    4c98:	1a f0       	brmi	.+6      	; 0x4ca0 <__fixunssfsi+0x22>
    4c9a:	ba 95       	dec	r27
    4c9c:	c9 f7       	brne	.-14     	; 0x4c90 <__fixunssfsi+0x12>
    4c9e:	12 c0       	rjmp	.+36     	; 0x4cc4 <__fixunssfsi+0x46>
    4ca0:	b1 30       	cpi	r27, 0x01	; 1
    4ca2:	81 f0       	breq	.+32     	; 0x4cc4 <__fixunssfsi+0x46>
    4ca4:	58 d1       	rcall	.+688    	; 0x4f56 <__fp_zero>
    4ca6:	b1 e0       	ldi	r27, 0x01	; 1
    4ca8:	08 95       	ret
    4caa:	55 c1       	rjmp	.+682    	; 0x4f56 <__fp_zero>
    4cac:	67 2f       	mov	r22, r23
    4cae:	78 2f       	mov	r23, r24
    4cb0:	88 27       	eor	r24, r24
    4cb2:	b8 5f       	subi	r27, 0xF8	; 248
    4cb4:	39 f0       	breq	.+14     	; 0x4cc4 <__fixunssfsi+0x46>
    4cb6:	b9 3f       	cpi	r27, 0xF9	; 249
    4cb8:	cc f3       	brlt	.-14     	; 0x4cac <__fixunssfsi+0x2e>
    4cba:	86 95       	lsr	r24
    4cbc:	77 95       	ror	r23
    4cbe:	67 95       	ror	r22
    4cc0:	b3 95       	inc	r27
    4cc2:	d9 f7       	brne	.-10     	; 0x4cba <__fixunssfsi+0x3c>
    4cc4:	3e f4       	brtc	.+14     	; 0x4cd4 <__fixunssfsi+0x56>
    4cc6:	90 95       	com	r25
    4cc8:	80 95       	com	r24
    4cca:	70 95       	com	r23
    4ccc:	61 95       	neg	r22
    4cce:	7f 4f       	sbci	r23, 0xFF	; 255
    4cd0:	8f 4f       	sbci	r24, 0xFF	; 255
    4cd2:	9f 4f       	sbci	r25, 0xFF	; 255
    4cd4:	08 95       	ret

00004cd6 <__floatunsisf>:
    4cd6:	e8 94       	clt
    4cd8:	09 c0       	rjmp	.+18     	; 0x4cec <__floatsisf+0x12>

00004cda <__floatsisf>:
    4cda:	97 fb       	bst	r25, 7
    4cdc:	3e f4       	brtc	.+14     	; 0x4cec <__floatsisf+0x12>
    4cde:	90 95       	com	r25
    4ce0:	80 95       	com	r24
    4ce2:	70 95       	com	r23
    4ce4:	61 95       	neg	r22
    4ce6:	7f 4f       	sbci	r23, 0xFF	; 255
    4ce8:	8f 4f       	sbci	r24, 0xFF	; 255
    4cea:	9f 4f       	sbci	r25, 0xFF	; 255
    4cec:	99 23       	and	r25, r25
    4cee:	a9 f0       	breq	.+42     	; 0x4d1a <__floatsisf+0x40>
    4cf0:	f9 2f       	mov	r31, r25
    4cf2:	96 e9       	ldi	r25, 0x96	; 150
    4cf4:	bb 27       	eor	r27, r27
    4cf6:	93 95       	inc	r25
    4cf8:	f6 95       	lsr	r31
    4cfa:	87 95       	ror	r24
    4cfc:	77 95       	ror	r23
    4cfe:	67 95       	ror	r22
    4d00:	b7 95       	ror	r27
    4d02:	f1 11       	cpse	r31, r1
    4d04:	f8 cf       	rjmp	.-16     	; 0x4cf6 <__floatsisf+0x1c>
    4d06:	fa f4       	brpl	.+62     	; 0x4d46 <__floatsisf+0x6c>
    4d08:	bb 0f       	add	r27, r27
    4d0a:	11 f4       	brne	.+4      	; 0x4d10 <__floatsisf+0x36>
    4d0c:	60 ff       	sbrs	r22, 0
    4d0e:	1b c0       	rjmp	.+54     	; 0x4d46 <__floatsisf+0x6c>
    4d10:	6f 5f       	subi	r22, 0xFF	; 255
    4d12:	7f 4f       	sbci	r23, 0xFF	; 255
    4d14:	8f 4f       	sbci	r24, 0xFF	; 255
    4d16:	9f 4f       	sbci	r25, 0xFF	; 255
    4d18:	16 c0       	rjmp	.+44     	; 0x4d46 <__floatsisf+0x6c>
    4d1a:	88 23       	and	r24, r24
    4d1c:	11 f0       	breq	.+4      	; 0x4d22 <__floatsisf+0x48>
    4d1e:	96 e9       	ldi	r25, 0x96	; 150
    4d20:	11 c0       	rjmp	.+34     	; 0x4d44 <__floatsisf+0x6a>
    4d22:	77 23       	and	r23, r23
    4d24:	21 f0       	breq	.+8      	; 0x4d2e <__floatsisf+0x54>
    4d26:	9e e8       	ldi	r25, 0x8E	; 142
    4d28:	87 2f       	mov	r24, r23
    4d2a:	76 2f       	mov	r23, r22
    4d2c:	05 c0       	rjmp	.+10     	; 0x4d38 <__floatsisf+0x5e>
    4d2e:	66 23       	and	r22, r22
    4d30:	71 f0       	breq	.+28     	; 0x4d4e <__floatsisf+0x74>
    4d32:	96 e8       	ldi	r25, 0x86	; 134
    4d34:	86 2f       	mov	r24, r22
    4d36:	70 e0       	ldi	r23, 0x00	; 0
    4d38:	60 e0       	ldi	r22, 0x00	; 0
    4d3a:	2a f0       	brmi	.+10     	; 0x4d46 <__floatsisf+0x6c>
    4d3c:	9a 95       	dec	r25
    4d3e:	66 0f       	add	r22, r22
    4d40:	77 1f       	adc	r23, r23
    4d42:	88 1f       	adc	r24, r24
    4d44:	da f7       	brpl	.-10     	; 0x4d3c <__floatsisf+0x62>
    4d46:	88 0f       	add	r24, r24
    4d48:	96 95       	lsr	r25
    4d4a:	87 95       	ror	r24
    4d4c:	97 f9       	bld	r25, 7
    4d4e:	08 95       	ret
    4d50:	88 d0       	rcall	.+272    	; 0x4e62 <__fp_pscA>
    4d52:	18 f0       	brcs	.+6      	; 0x4d5a <__floatsisf+0x80>
    4d54:	11 f0       	breq	.+4      	; 0x4d5a <__floatsisf+0x80>
    4d56:	8c d0       	rcall	.+280    	; 0x4e70 <__fp_pscB>
    4d58:	38 f4       	brcc	.+14     	; 0x4d68 <fmod+0xa>
    4d5a:	80 c0       	rjmp	.+256    	; 0x4e5c <__fp_nan>
    4d5c:	fd c0       	rjmp	.+506    	; 0x4f58 <__fp_szero>

00004d5e <fmod>:
    4d5e:	e9 2f       	mov	r30, r25
    4d60:	d8 d0       	rcall	.+432    	; 0x4f12 <__fp_split3>
    4d62:	b0 f3       	brcs	.-20     	; 0x4d50 <__floatsisf+0x76>
    4d64:	55 23       	and	r21, r21
    4d66:	c9 f3       	breq	.-14     	; 0x4d5a <__floatsisf+0x80>
    4d68:	e7 fb       	bst	r30, 7
    4d6a:	62 17       	cp	r22, r18
    4d6c:	73 07       	cpc	r23, r19
    4d6e:	84 07       	cpc	r24, r20
    4d70:	95 07       	cpc	r25, r21
    4d72:	a8 f1       	brcs	.+106    	; 0x4dde <fmod+0x80>
    4d74:	99 f3       	breq	.-26     	; 0x4d5c <__floatsisf+0x82>
    4d76:	e9 2f       	mov	r30, r25
    4d78:	ff 27       	eor	r31, r31
    4d7a:	88 23       	and	r24, r24
    4d7c:	2a f0       	brmi	.+10     	; 0x4d88 <fmod+0x2a>
    4d7e:	31 97       	sbiw	r30, 0x01	; 1
    4d80:	66 0f       	add	r22, r22
    4d82:	77 1f       	adc	r23, r23
    4d84:	88 1f       	adc	r24, r24
    4d86:	da f7       	brpl	.-10     	; 0x4d7e <fmod+0x20>
    4d88:	95 2f       	mov	r25, r21
    4d8a:	55 27       	eor	r21, r21
    4d8c:	44 23       	and	r20, r20
    4d8e:	32 f0       	brmi	.+12     	; 0x4d9c <fmod+0x3e>
    4d90:	91 50       	subi	r25, 0x01	; 1
    4d92:	50 40       	sbci	r21, 0x00	; 0
    4d94:	22 0f       	add	r18, r18
    4d96:	33 1f       	adc	r19, r19
    4d98:	44 1f       	adc	r20, r20
    4d9a:	d2 f7       	brpl	.-12     	; 0x4d90 <fmod+0x32>
    4d9c:	bb 27       	eor	r27, r27
    4d9e:	e9 1b       	sub	r30, r25
    4da0:	f5 0b       	sbc	r31, r21
    4da2:	62 1b       	sub	r22, r18
    4da4:	73 0b       	sbc	r23, r19
    4da6:	84 0b       	sbc	r24, r20
    4da8:	b1 09       	sbc	r27, r1
    4daa:	c1 f2       	breq	.-80     	; 0x4d5c <__floatsisf+0x82>
    4dac:	22 f4       	brpl	.+8      	; 0x4db6 <fmod+0x58>
    4dae:	62 0f       	add	r22, r18
    4db0:	73 1f       	adc	r23, r19
    4db2:	84 1f       	adc	r24, r20
    4db4:	b1 1d       	adc	r27, r1
    4db6:	31 97       	sbiw	r30, 0x01	; 1
    4db8:	2a f0       	brmi	.+10     	; 0x4dc4 <fmod+0x66>
    4dba:	66 0f       	add	r22, r22
    4dbc:	77 1f       	adc	r23, r23
    4dbe:	88 1f       	adc	r24, r24
    4dc0:	bb 1f       	adc	r27, r27
    4dc2:	ef cf       	rjmp	.-34     	; 0x4da2 <fmod+0x44>
    4dc4:	91 50       	subi	r25, 0x01	; 1
    4dc6:	50 40       	sbci	r21, 0x00	; 0
    4dc8:	5a f0       	brmi	.+22     	; 0x4de0 <fmod+0x82>
    4dca:	41 f0       	breq	.+16     	; 0x4ddc <fmod+0x7e>
    4dcc:	88 23       	and	r24, r24
    4dce:	32 f0       	brmi	.+12     	; 0x4ddc <fmod+0x7e>
    4dd0:	66 0f       	add	r22, r22
    4dd2:	77 1f       	adc	r23, r23
    4dd4:	88 1f       	adc	r24, r24
    4dd6:	91 50       	subi	r25, 0x01	; 1
    4dd8:	50 40       	sbci	r21, 0x00	; 0
    4dda:	c1 f7       	brne	.-16     	; 0x4dcc <fmod+0x6e>
    4ddc:	93 95       	inc	r25
    4dde:	30 c0       	rjmp	.+96     	; 0x4e40 <__fp_mpack>
    4de0:	86 95       	lsr	r24
    4de2:	77 95       	ror	r23
    4de4:	67 95       	ror	r22
    4de6:	9f 5f       	subi	r25, 0xFF	; 255
    4de8:	d9 f7       	brne	.-10     	; 0x4de0 <fmod+0x82>
    4dea:	f8 cf       	rjmp	.-16     	; 0x4ddc <fmod+0x7e>

00004dec <__fp_cmp>:
    4dec:	99 0f       	add	r25, r25
    4dee:	00 08       	sbc	r0, r0
    4df0:	55 0f       	add	r21, r21
    4df2:	aa 0b       	sbc	r26, r26
    4df4:	e0 e8       	ldi	r30, 0x80	; 128
    4df6:	fe ef       	ldi	r31, 0xFE	; 254
    4df8:	16 16       	cp	r1, r22
    4dfa:	17 06       	cpc	r1, r23
    4dfc:	e8 07       	cpc	r30, r24
    4dfe:	f9 07       	cpc	r31, r25
    4e00:	c0 f0       	brcs	.+48     	; 0x4e32 <__fp_cmp+0x46>
    4e02:	12 16       	cp	r1, r18
    4e04:	13 06       	cpc	r1, r19
    4e06:	e4 07       	cpc	r30, r20
    4e08:	f5 07       	cpc	r31, r21
    4e0a:	98 f0       	brcs	.+38     	; 0x4e32 <__fp_cmp+0x46>
    4e0c:	62 1b       	sub	r22, r18
    4e0e:	73 0b       	sbc	r23, r19
    4e10:	84 0b       	sbc	r24, r20
    4e12:	95 0b       	sbc	r25, r21
    4e14:	39 f4       	brne	.+14     	; 0x4e24 <__fp_cmp+0x38>
    4e16:	0a 26       	eor	r0, r26
    4e18:	61 f0       	breq	.+24     	; 0x4e32 <__fp_cmp+0x46>
    4e1a:	23 2b       	or	r18, r19
    4e1c:	24 2b       	or	r18, r20
    4e1e:	25 2b       	or	r18, r21
    4e20:	21 f4       	brne	.+8      	; 0x4e2a <__fp_cmp+0x3e>
    4e22:	08 95       	ret
    4e24:	0a 26       	eor	r0, r26
    4e26:	09 f4       	brne	.+2      	; 0x4e2a <__fp_cmp+0x3e>
    4e28:	a1 40       	sbci	r26, 0x01	; 1
    4e2a:	a6 95       	lsr	r26
    4e2c:	8f ef       	ldi	r24, 0xFF	; 255
    4e2e:	81 1d       	adc	r24, r1
    4e30:	81 1d       	adc	r24, r1
    4e32:	08 95       	ret

00004e34 <__fp_inf>:
    4e34:	97 f9       	bld	r25, 7
    4e36:	9f 67       	ori	r25, 0x7F	; 127
    4e38:	80 e8       	ldi	r24, 0x80	; 128
    4e3a:	70 e0       	ldi	r23, 0x00	; 0
    4e3c:	60 e0       	ldi	r22, 0x00	; 0
    4e3e:	08 95       	ret

00004e40 <__fp_mpack>:
    4e40:	9f 3f       	cpi	r25, 0xFF	; 255
    4e42:	31 f0       	breq	.+12     	; 0x4e50 <__fp_mpack_finite+0xc>

00004e44 <__fp_mpack_finite>:
    4e44:	91 50       	subi	r25, 0x01	; 1
    4e46:	20 f4       	brcc	.+8      	; 0x4e50 <__fp_mpack_finite+0xc>
    4e48:	87 95       	ror	r24
    4e4a:	77 95       	ror	r23
    4e4c:	67 95       	ror	r22
    4e4e:	b7 95       	ror	r27
    4e50:	88 0f       	add	r24, r24
    4e52:	91 1d       	adc	r25, r1
    4e54:	96 95       	lsr	r25
    4e56:	87 95       	ror	r24
    4e58:	97 f9       	bld	r25, 7
    4e5a:	08 95       	ret

00004e5c <__fp_nan>:
    4e5c:	9f ef       	ldi	r25, 0xFF	; 255
    4e5e:	80 ec       	ldi	r24, 0xC0	; 192
    4e60:	08 95       	ret

00004e62 <__fp_pscA>:
    4e62:	00 24       	eor	r0, r0
    4e64:	0a 94       	dec	r0
    4e66:	16 16       	cp	r1, r22
    4e68:	17 06       	cpc	r1, r23
    4e6a:	18 06       	cpc	r1, r24
    4e6c:	09 06       	cpc	r0, r25
    4e6e:	08 95       	ret

00004e70 <__fp_pscB>:
    4e70:	00 24       	eor	r0, r0
    4e72:	0a 94       	dec	r0
    4e74:	12 16       	cp	r1, r18
    4e76:	13 06       	cpc	r1, r19
    4e78:	14 06       	cpc	r1, r20
    4e7a:	05 06       	cpc	r0, r21
    4e7c:	08 95       	ret
    4e7e:	ee cf       	rjmp	.-36     	; 0x4e5c <__fp_nan>

00004e80 <__fp_rempio2>:
    4e80:	50 d0       	rcall	.+160    	; 0x4f22 <__fp_splitA>
    4e82:	e8 f3       	brcs	.-6      	; 0x4e7e <__fp_pscB+0xe>
    4e84:	e8 94       	clt
    4e86:	e0 e0       	ldi	r30, 0x00	; 0
    4e88:	bb 27       	eor	r27, r27
    4e8a:	9f 57       	subi	r25, 0x7F	; 127
    4e8c:	f0 f0       	brcs	.+60     	; 0x4eca <__fp_rempio2+0x4a>
    4e8e:	2a ed       	ldi	r18, 0xDA	; 218
    4e90:	3f e0       	ldi	r19, 0x0F	; 15
    4e92:	49 ec       	ldi	r20, 0xC9	; 201
    4e94:	06 c0       	rjmp	.+12     	; 0x4ea2 <__fp_rempio2+0x22>
    4e96:	ee 0f       	add	r30, r30
    4e98:	bb 0f       	add	r27, r27
    4e9a:	66 1f       	adc	r22, r22
    4e9c:	77 1f       	adc	r23, r23
    4e9e:	88 1f       	adc	r24, r24
    4ea0:	28 f0       	brcs	.+10     	; 0x4eac <__fp_rempio2+0x2c>
    4ea2:	b2 3a       	cpi	r27, 0xA2	; 162
    4ea4:	62 07       	cpc	r22, r18
    4ea6:	73 07       	cpc	r23, r19
    4ea8:	84 07       	cpc	r24, r20
    4eaa:	28 f0       	brcs	.+10     	; 0x4eb6 <__fp_rempio2+0x36>
    4eac:	b2 5a       	subi	r27, 0xA2	; 162
    4eae:	62 0b       	sbc	r22, r18
    4eb0:	73 0b       	sbc	r23, r19
    4eb2:	84 0b       	sbc	r24, r20
    4eb4:	e3 95       	inc	r30
    4eb6:	9a 95       	dec	r25
    4eb8:	72 f7       	brpl	.-36     	; 0x4e96 <__fp_rempio2+0x16>
    4eba:	80 38       	cpi	r24, 0x80	; 128
    4ebc:	30 f4       	brcc	.+12     	; 0x4eca <__fp_rempio2+0x4a>
    4ebe:	9a 95       	dec	r25
    4ec0:	bb 0f       	add	r27, r27
    4ec2:	66 1f       	adc	r22, r22
    4ec4:	77 1f       	adc	r23, r23
    4ec6:	88 1f       	adc	r24, r24
    4ec8:	d2 f7       	brpl	.-12     	; 0x4ebe <__fp_rempio2+0x3e>
    4eca:	90 48       	sbci	r25, 0x80	; 128
    4ecc:	bb cf       	rjmp	.-138    	; 0x4e44 <__fp_mpack_finite>

00004ece <__fp_round>:
    4ece:	09 2e       	mov	r0, r25
    4ed0:	03 94       	inc	r0
    4ed2:	00 0c       	add	r0, r0
    4ed4:	11 f4       	brne	.+4      	; 0x4eda <__fp_round+0xc>
    4ed6:	88 23       	and	r24, r24
    4ed8:	52 f0       	brmi	.+20     	; 0x4eee <__fp_round+0x20>
    4eda:	bb 0f       	add	r27, r27
    4edc:	40 f4       	brcc	.+16     	; 0x4eee <__fp_round+0x20>
    4ede:	bf 2b       	or	r27, r31
    4ee0:	11 f4       	brne	.+4      	; 0x4ee6 <__fp_round+0x18>
    4ee2:	60 ff       	sbrs	r22, 0
    4ee4:	04 c0       	rjmp	.+8      	; 0x4eee <__fp_round+0x20>
    4ee6:	6f 5f       	subi	r22, 0xFF	; 255
    4ee8:	7f 4f       	sbci	r23, 0xFF	; 255
    4eea:	8f 4f       	sbci	r24, 0xFF	; 255
    4eec:	9f 4f       	sbci	r25, 0xFF	; 255
    4eee:	08 95       	ret

00004ef0 <__fp_sinus>:
    4ef0:	ef 93       	push	r30
    4ef2:	e0 ff       	sbrs	r30, 0
    4ef4:	06 c0       	rjmp	.+12     	; 0x4f02 <__fp_sinus+0x12>
    4ef6:	a2 ea       	ldi	r26, 0xA2	; 162
    4ef8:	2a ed       	ldi	r18, 0xDA	; 218
    4efa:	3f e0       	ldi	r19, 0x0F	; 15
    4efc:	49 ec       	ldi	r20, 0xC9	; 201
    4efe:	5f eb       	ldi	r21, 0xBF	; 191
    4f00:	f7 dd       	rcall	.-1042   	; 0x4af0 <__addsf3x>
    4f02:	e5 df       	rcall	.-54     	; 0x4ece <__fp_round>
    4f04:	0f 90       	pop	r0
    4f06:	03 94       	inc	r0
    4f08:	01 fc       	sbrc	r0, 1
    4f0a:	90 58       	subi	r25, 0x80	; 128
    4f0c:	e4 ee       	ldi	r30, 0xE4	; 228
    4f0e:	f0 e0       	ldi	r31, 0x00	; 0
    4f10:	38 c1       	rjmp	.+624    	; 0x5182 <__fp_powsodd>

00004f12 <__fp_split3>:
    4f12:	57 fd       	sbrc	r21, 7
    4f14:	90 58       	subi	r25, 0x80	; 128
    4f16:	44 0f       	add	r20, r20
    4f18:	55 1f       	adc	r21, r21
    4f1a:	59 f0       	breq	.+22     	; 0x4f32 <__fp_splitA+0x10>
    4f1c:	5f 3f       	cpi	r21, 0xFF	; 255
    4f1e:	71 f0       	breq	.+28     	; 0x4f3c <__fp_splitA+0x1a>
    4f20:	47 95       	ror	r20

00004f22 <__fp_splitA>:
    4f22:	88 0f       	add	r24, r24
    4f24:	97 fb       	bst	r25, 7
    4f26:	99 1f       	adc	r25, r25
    4f28:	61 f0       	breq	.+24     	; 0x4f42 <__fp_splitA+0x20>
    4f2a:	9f 3f       	cpi	r25, 0xFF	; 255
    4f2c:	79 f0       	breq	.+30     	; 0x4f4c <__fp_splitA+0x2a>
    4f2e:	87 95       	ror	r24
    4f30:	08 95       	ret
    4f32:	12 16       	cp	r1, r18
    4f34:	13 06       	cpc	r1, r19
    4f36:	14 06       	cpc	r1, r20
    4f38:	55 1f       	adc	r21, r21
    4f3a:	f2 cf       	rjmp	.-28     	; 0x4f20 <__fp_split3+0xe>
    4f3c:	46 95       	lsr	r20
    4f3e:	f1 df       	rcall	.-30     	; 0x4f22 <__fp_splitA>
    4f40:	08 c0       	rjmp	.+16     	; 0x4f52 <__fp_splitA+0x30>
    4f42:	16 16       	cp	r1, r22
    4f44:	17 06       	cpc	r1, r23
    4f46:	18 06       	cpc	r1, r24
    4f48:	99 1f       	adc	r25, r25
    4f4a:	f1 cf       	rjmp	.-30     	; 0x4f2e <__fp_splitA+0xc>
    4f4c:	86 95       	lsr	r24
    4f4e:	71 05       	cpc	r23, r1
    4f50:	61 05       	cpc	r22, r1
    4f52:	08 94       	sec
    4f54:	08 95       	ret

00004f56 <__fp_zero>:
    4f56:	e8 94       	clt

00004f58 <__fp_szero>:
    4f58:	bb 27       	eor	r27, r27
    4f5a:	66 27       	eor	r22, r22
    4f5c:	77 27       	eor	r23, r23
    4f5e:	cb 01       	movw	r24, r22
    4f60:	97 f9       	bld	r25, 7
    4f62:	08 95       	ret

00004f64 <__gesf2>:
    4f64:	43 df       	rcall	.-378    	; 0x4dec <__fp_cmp>
    4f66:	08 f4       	brcc	.+2      	; 0x4f6a <__gesf2+0x6>
    4f68:	8f ef       	ldi	r24, 0xFF	; 255
    4f6a:	08 95       	ret

00004f6c <__mulsf3>:
    4f6c:	0b d0       	rcall	.+22     	; 0x4f84 <__mulsf3x>
    4f6e:	af cf       	rjmp	.-162    	; 0x4ece <__fp_round>
    4f70:	78 df       	rcall	.-272    	; 0x4e62 <__fp_pscA>
    4f72:	28 f0       	brcs	.+10     	; 0x4f7e <__mulsf3+0x12>
    4f74:	7d df       	rcall	.-262    	; 0x4e70 <__fp_pscB>
    4f76:	18 f0       	brcs	.+6      	; 0x4f7e <__mulsf3+0x12>
    4f78:	95 23       	and	r25, r21
    4f7a:	09 f0       	breq	.+2      	; 0x4f7e <__mulsf3+0x12>
    4f7c:	5b cf       	rjmp	.-330    	; 0x4e34 <__fp_inf>
    4f7e:	6e cf       	rjmp	.-292    	; 0x4e5c <__fp_nan>
    4f80:	11 24       	eor	r1, r1
    4f82:	ea cf       	rjmp	.-44     	; 0x4f58 <__fp_szero>

00004f84 <__mulsf3x>:
    4f84:	c6 df       	rcall	.-116    	; 0x4f12 <__fp_split3>
    4f86:	a0 f3       	brcs	.-24     	; 0x4f70 <__mulsf3+0x4>

00004f88 <__mulsf3_pse>:
    4f88:	95 9f       	mul	r25, r21
    4f8a:	d1 f3       	breq	.-12     	; 0x4f80 <__mulsf3+0x14>
    4f8c:	95 0f       	add	r25, r21
    4f8e:	50 e0       	ldi	r21, 0x00	; 0
    4f90:	55 1f       	adc	r21, r21
    4f92:	62 9f       	mul	r22, r18
    4f94:	f0 01       	movw	r30, r0
    4f96:	72 9f       	mul	r23, r18
    4f98:	bb 27       	eor	r27, r27
    4f9a:	f0 0d       	add	r31, r0
    4f9c:	b1 1d       	adc	r27, r1
    4f9e:	63 9f       	mul	r22, r19
    4fa0:	aa 27       	eor	r26, r26
    4fa2:	f0 0d       	add	r31, r0
    4fa4:	b1 1d       	adc	r27, r1
    4fa6:	aa 1f       	adc	r26, r26
    4fa8:	64 9f       	mul	r22, r20
    4faa:	66 27       	eor	r22, r22
    4fac:	b0 0d       	add	r27, r0
    4fae:	a1 1d       	adc	r26, r1
    4fb0:	66 1f       	adc	r22, r22
    4fb2:	82 9f       	mul	r24, r18
    4fb4:	22 27       	eor	r18, r18
    4fb6:	b0 0d       	add	r27, r0
    4fb8:	a1 1d       	adc	r26, r1
    4fba:	62 1f       	adc	r22, r18
    4fbc:	73 9f       	mul	r23, r19
    4fbe:	b0 0d       	add	r27, r0
    4fc0:	a1 1d       	adc	r26, r1
    4fc2:	62 1f       	adc	r22, r18
    4fc4:	83 9f       	mul	r24, r19
    4fc6:	a0 0d       	add	r26, r0
    4fc8:	61 1d       	adc	r22, r1
    4fca:	22 1f       	adc	r18, r18
    4fcc:	74 9f       	mul	r23, r20
    4fce:	33 27       	eor	r19, r19
    4fd0:	a0 0d       	add	r26, r0
    4fd2:	61 1d       	adc	r22, r1
    4fd4:	23 1f       	adc	r18, r19
    4fd6:	84 9f       	mul	r24, r20
    4fd8:	60 0d       	add	r22, r0
    4fda:	21 1d       	adc	r18, r1
    4fdc:	82 2f       	mov	r24, r18
    4fde:	76 2f       	mov	r23, r22
    4fe0:	6a 2f       	mov	r22, r26
    4fe2:	11 24       	eor	r1, r1
    4fe4:	9f 57       	subi	r25, 0x7F	; 127
    4fe6:	50 40       	sbci	r21, 0x00	; 0
    4fe8:	8a f0       	brmi	.+34     	; 0x500c <__mulsf3_pse+0x84>
    4fea:	e1 f0       	breq	.+56     	; 0x5024 <__mulsf3_pse+0x9c>
    4fec:	88 23       	and	r24, r24
    4fee:	4a f0       	brmi	.+18     	; 0x5002 <__mulsf3_pse+0x7a>
    4ff0:	ee 0f       	add	r30, r30
    4ff2:	ff 1f       	adc	r31, r31
    4ff4:	bb 1f       	adc	r27, r27
    4ff6:	66 1f       	adc	r22, r22
    4ff8:	77 1f       	adc	r23, r23
    4ffa:	88 1f       	adc	r24, r24
    4ffc:	91 50       	subi	r25, 0x01	; 1
    4ffe:	50 40       	sbci	r21, 0x00	; 0
    5000:	a9 f7       	brne	.-22     	; 0x4fec <__mulsf3_pse+0x64>
    5002:	9e 3f       	cpi	r25, 0xFE	; 254
    5004:	51 05       	cpc	r21, r1
    5006:	70 f0       	brcs	.+28     	; 0x5024 <__mulsf3_pse+0x9c>
    5008:	15 cf       	rjmp	.-470    	; 0x4e34 <__fp_inf>
    500a:	a6 cf       	rjmp	.-180    	; 0x4f58 <__fp_szero>
    500c:	5f 3f       	cpi	r21, 0xFF	; 255
    500e:	ec f3       	brlt	.-6      	; 0x500a <__mulsf3_pse+0x82>
    5010:	98 3e       	cpi	r25, 0xE8	; 232
    5012:	dc f3       	brlt	.-10     	; 0x500a <__mulsf3_pse+0x82>
    5014:	86 95       	lsr	r24
    5016:	77 95       	ror	r23
    5018:	67 95       	ror	r22
    501a:	b7 95       	ror	r27
    501c:	f7 95       	ror	r31
    501e:	e7 95       	ror	r30
    5020:	9f 5f       	subi	r25, 0xFF	; 255
    5022:	c1 f7       	brne	.-16     	; 0x5014 <__mulsf3_pse+0x8c>
    5024:	fe 2b       	or	r31, r30
    5026:	88 0f       	add	r24, r24
    5028:	91 1d       	adc	r25, r1
    502a:	96 95       	lsr	r25
    502c:	87 95       	ror	r24
    502e:	97 f9       	bld	r25, 7
    5030:	08 95       	ret

00005032 <pow>:
    5032:	fa 01       	movw	r30, r20
    5034:	ee 0f       	add	r30, r30
    5036:	ff 1f       	adc	r31, r31
    5038:	30 96       	adiw	r30, 0x00	; 0
    503a:	21 05       	cpc	r18, r1
    503c:	31 05       	cpc	r19, r1
    503e:	99 f1       	breq	.+102    	; 0x50a6 <pow+0x74>
    5040:	61 15       	cp	r22, r1
    5042:	71 05       	cpc	r23, r1
    5044:	61 f4       	brne	.+24     	; 0x505e <pow+0x2c>
    5046:	80 38       	cpi	r24, 0x80	; 128
    5048:	bf e3       	ldi	r27, 0x3F	; 63
    504a:	9b 07       	cpc	r25, r27
    504c:	49 f1       	breq	.+82     	; 0x50a0 <pow+0x6e>
    504e:	68 94       	set
    5050:	90 38       	cpi	r25, 0x80	; 128
    5052:	81 05       	cpc	r24, r1
    5054:	61 f0       	breq	.+24     	; 0x506e <pow+0x3c>
    5056:	80 38       	cpi	r24, 0x80	; 128
    5058:	bf ef       	ldi	r27, 0xFF	; 255
    505a:	9b 07       	cpc	r25, r27
    505c:	41 f0       	breq	.+16     	; 0x506e <pow+0x3c>
    505e:	99 23       	and	r25, r25
    5060:	42 f5       	brpl	.+80     	; 0x50b2 <pow+0x80>
    5062:	ff 3f       	cpi	r31, 0xFF	; 255
    5064:	e1 05       	cpc	r30, r1
    5066:	31 05       	cpc	r19, r1
    5068:	21 05       	cpc	r18, r1
    506a:	11 f1       	breq	.+68     	; 0x50b0 <pow+0x7e>
    506c:	e8 94       	clt
    506e:	08 94       	sec
    5070:	e7 95       	ror	r30
    5072:	d9 01       	movw	r26, r18
    5074:	aa 23       	and	r26, r26
    5076:	29 f4       	brne	.+10     	; 0x5082 <pow+0x50>
    5078:	ab 2f       	mov	r26, r27
    507a:	be 2f       	mov	r27, r30
    507c:	f8 5f       	subi	r31, 0xF8	; 248
    507e:	d0 f3       	brcs	.-12     	; 0x5074 <pow+0x42>
    5080:	10 c0       	rjmp	.+32     	; 0x50a2 <pow+0x70>
    5082:	ff 5f       	subi	r31, 0xFF	; 255
    5084:	70 f4       	brcc	.+28     	; 0x50a2 <pow+0x70>
    5086:	a6 95       	lsr	r26
    5088:	e0 f7       	brcc	.-8      	; 0x5082 <pow+0x50>
    508a:	f7 39       	cpi	r31, 0x97	; 151
    508c:	50 f0       	brcs	.+20     	; 0x50a2 <pow+0x70>
    508e:	19 f0       	breq	.+6      	; 0x5096 <pow+0x64>
    5090:	ff 3a       	cpi	r31, 0xAF	; 175
    5092:	38 f4       	brcc	.+14     	; 0x50a2 <pow+0x70>
    5094:	9f 77       	andi	r25, 0x7F	; 127
    5096:	9f 93       	push	r25
    5098:	0c d0       	rcall	.+24     	; 0x50b2 <pow+0x80>
    509a:	0f 90       	pop	r0
    509c:	07 fc       	sbrc	r0, 7
    509e:	90 58       	subi	r25, 0x80	; 128
    50a0:	08 95       	ret
    50a2:	3e f0       	brts	.+14     	; 0x50b2 <pow+0x80>
    50a4:	db ce       	rjmp	.-586    	; 0x4e5c <__fp_nan>
    50a6:	60 e0       	ldi	r22, 0x00	; 0
    50a8:	70 e0       	ldi	r23, 0x00	; 0
    50aa:	80 e8       	ldi	r24, 0x80	; 128
    50ac:	9f e3       	ldi	r25, 0x3F	; 63
    50ae:	08 95       	ret
    50b0:	4f e7       	ldi	r20, 0x7F	; 127
    50b2:	9f 77       	andi	r25, 0x7F	; 127
    50b4:	5f 93       	push	r21
    50b6:	4f 93       	push	r20
    50b8:	3f 93       	push	r19
    50ba:	2f 93       	push	r18
    50bc:	b5 d0       	rcall	.+362    	; 0x5228 <log>
    50be:	2f 91       	pop	r18
    50c0:	3f 91       	pop	r19
    50c2:	4f 91       	pop	r20
    50c4:	5f 91       	pop	r21
    50c6:	52 df       	rcall	.-348    	; 0x4f6c <__mulsf3>
    50c8:	0b c0       	rjmp	.+22     	; 0x50e0 <exp>

000050ca <sin>:
    50ca:	9f 93       	push	r25
    50cc:	d9 de       	rcall	.-590    	; 0x4e80 <__fp_rempio2>
    50ce:	0f 90       	pop	r0
    50d0:	07 fc       	sbrc	r0, 7
    50d2:	ee 5f       	subi	r30, 0xFE	; 254
    50d4:	0d cf       	rjmp	.-486    	; 0x4ef0 <__fp_sinus>
    50d6:	19 f4       	brne	.+6      	; 0x50de <sin+0x14>
    50d8:	0e f0       	brts	.+2      	; 0x50dc <sin+0x12>
    50da:	ac ce       	rjmp	.-680    	; 0x4e34 <__fp_inf>
    50dc:	3c cf       	rjmp	.-392    	; 0x4f56 <__fp_zero>
    50de:	be ce       	rjmp	.-644    	; 0x4e5c <__fp_nan>

000050e0 <exp>:
    50e0:	20 df       	rcall	.-448    	; 0x4f22 <__fp_splitA>
    50e2:	c8 f3       	brcs	.-14     	; 0x50d6 <sin+0xc>
    50e4:	96 38       	cpi	r25, 0x86	; 134
    50e6:	c0 f7       	brcc	.-16     	; 0x50d8 <sin+0xe>
    50e8:	07 f8       	bld	r0, 7
    50ea:	0f 92       	push	r0
    50ec:	e8 94       	clt
    50ee:	2b e3       	ldi	r18, 0x3B	; 59
    50f0:	3a ea       	ldi	r19, 0xAA	; 170
    50f2:	48 eb       	ldi	r20, 0xB8	; 184
    50f4:	5f e7       	ldi	r21, 0x7F	; 127
    50f6:	48 df       	rcall	.-368    	; 0x4f88 <__mulsf3_pse>
    50f8:	0f 92       	push	r0
    50fa:	0f 92       	push	r0
    50fc:	0f 92       	push	r0
    50fe:	4d b7       	in	r20, 0x3d	; 61
    5100:	5e b7       	in	r21, 0x3e	; 62
    5102:	0f 92       	push	r0
    5104:	d1 d0       	rcall	.+418    	; 0x52a8 <modf>
    5106:	e2 e0       	ldi	r30, 0x02	; 2
    5108:	f1 e0       	ldi	r31, 0x01	; 1
    510a:	16 d0       	rcall	.+44     	; 0x5138 <__fp_powser>
    510c:	4f 91       	pop	r20
    510e:	5f 91       	pop	r21
    5110:	ef 91       	pop	r30
    5112:	ff 91       	pop	r31
    5114:	e5 95       	asr	r30
    5116:	ee 1f       	adc	r30, r30
    5118:	ff 1f       	adc	r31, r31
    511a:	49 f0       	breq	.+18     	; 0x512e <exp+0x4e>
    511c:	fe 57       	subi	r31, 0x7E	; 126
    511e:	e0 68       	ori	r30, 0x80	; 128
    5120:	44 27       	eor	r20, r20
    5122:	ee 0f       	add	r30, r30
    5124:	44 1f       	adc	r20, r20
    5126:	fa 95       	dec	r31
    5128:	e1 f7       	brne	.-8      	; 0x5122 <exp+0x42>
    512a:	41 95       	neg	r20
    512c:	55 0b       	sbc	r21, r21
    512e:	43 d0       	rcall	.+134    	; 0x51b6 <ldexp>
    5130:	0f 90       	pop	r0
    5132:	07 fe       	sbrs	r0, 7
    5134:	37 c0       	rjmp	.+110    	; 0x51a4 <inverse>
    5136:	08 95       	ret

00005138 <__fp_powser>:
    5138:	df 93       	push	r29
    513a:	cf 93       	push	r28
    513c:	1f 93       	push	r17
    513e:	0f 93       	push	r16
    5140:	ff 92       	push	r15
    5142:	ef 92       	push	r14
    5144:	df 92       	push	r13
    5146:	7b 01       	movw	r14, r22
    5148:	8c 01       	movw	r16, r24
    514a:	68 94       	set
    514c:	05 c0       	rjmp	.+10     	; 0x5158 <__fp_powser+0x20>
    514e:	da 2e       	mov	r13, r26
    5150:	ef 01       	movw	r28, r30
    5152:	18 df       	rcall	.-464    	; 0x4f84 <__mulsf3x>
    5154:	fe 01       	movw	r30, r28
    5156:	e8 94       	clt
    5158:	a5 91       	lpm	r26, Z+
    515a:	25 91       	lpm	r18, Z+
    515c:	35 91       	lpm	r19, Z+
    515e:	45 91       	lpm	r20, Z+
    5160:	55 91       	lpm	r21, Z+
    5162:	ae f3       	brts	.-22     	; 0x514e <__fp_powser+0x16>
    5164:	ef 01       	movw	r28, r30
    5166:	c4 dc       	rcall	.-1656   	; 0x4af0 <__addsf3x>
    5168:	fe 01       	movw	r30, r28
    516a:	97 01       	movw	r18, r14
    516c:	a8 01       	movw	r20, r16
    516e:	da 94       	dec	r13
    5170:	79 f7       	brne	.-34     	; 0x5150 <__fp_powser+0x18>
    5172:	df 90       	pop	r13
    5174:	ef 90       	pop	r14
    5176:	ff 90       	pop	r15
    5178:	0f 91       	pop	r16
    517a:	1f 91       	pop	r17
    517c:	cf 91       	pop	r28
    517e:	df 91       	pop	r29
    5180:	08 95       	ret

00005182 <__fp_powsodd>:
    5182:	9f 93       	push	r25
    5184:	8f 93       	push	r24
    5186:	7f 93       	push	r23
    5188:	6f 93       	push	r22
    518a:	ff 93       	push	r31
    518c:	ef 93       	push	r30
    518e:	9b 01       	movw	r18, r22
    5190:	ac 01       	movw	r20, r24
    5192:	ec de       	rcall	.-552    	; 0x4f6c <__mulsf3>
    5194:	ef 91       	pop	r30
    5196:	ff 91       	pop	r31
    5198:	cf df       	rcall	.-98     	; 0x5138 <__fp_powser>
    519a:	2f 91       	pop	r18
    519c:	3f 91       	pop	r19
    519e:	4f 91       	pop	r20
    51a0:	5f 91       	pop	r21
    51a2:	e4 ce       	rjmp	.-568    	; 0x4f6c <__mulsf3>

000051a4 <inverse>:
    51a4:	9b 01       	movw	r18, r22
    51a6:	ac 01       	movw	r20, r24
    51a8:	60 e0       	ldi	r22, 0x00	; 0
    51aa:	70 e0       	ldi	r23, 0x00	; 0
    51ac:	80 e8       	ldi	r24, 0x80	; 128
    51ae:	9f e3       	ldi	r25, 0x3F	; 63
    51b0:	f9 cc       	rjmp	.-1550   	; 0x4ba4 <__divsf3>
    51b2:	40 ce       	rjmp	.-896    	; 0x4e34 <__fp_inf>
    51b4:	45 ce       	rjmp	.-886    	; 0x4e40 <__fp_mpack>

000051b6 <ldexp>:
    51b6:	b5 de       	rcall	.-662    	; 0x4f22 <__fp_splitA>
    51b8:	e8 f3       	brcs	.-6      	; 0x51b4 <inverse+0x10>
    51ba:	99 23       	and	r25, r25
    51bc:	d9 f3       	breq	.-10     	; 0x51b4 <inverse+0x10>
    51be:	94 0f       	add	r25, r20
    51c0:	51 1d       	adc	r21, r1
    51c2:	bb f3       	brvs	.-18     	; 0x51b2 <inverse+0xe>
    51c4:	91 50       	subi	r25, 0x01	; 1
    51c6:	50 40       	sbci	r21, 0x00	; 0
    51c8:	94 f0       	brlt	.+36     	; 0x51ee <ldexp+0x38>
    51ca:	59 f0       	breq	.+22     	; 0x51e2 <ldexp+0x2c>
    51cc:	88 23       	and	r24, r24
    51ce:	32 f0       	brmi	.+12     	; 0x51dc <ldexp+0x26>
    51d0:	66 0f       	add	r22, r22
    51d2:	77 1f       	adc	r23, r23
    51d4:	88 1f       	adc	r24, r24
    51d6:	91 50       	subi	r25, 0x01	; 1
    51d8:	50 40       	sbci	r21, 0x00	; 0
    51da:	c1 f7       	brne	.-16     	; 0x51cc <ldexp+0x16>
    51dc:	9e 3f       	cpi	r25, 0xFE	; 254
    51de:	51 05       	cpc	r21, r1
    51e0:	44 f7       	brge	.-48     	; 0x51b2 <inverse+0xe>
    51e2:	88 0f       	add	r24, r24
    51e4:	91 1d       	adc	r25, r1
    51e6:	96 95       	lsr	r25
    51e8:	87 95       	ror	r24
    51ea:	97 f9       	bld	r25, 7
    51ec:	08 95       	ret
    51ee:	5f 3f       	cpi	r21, 0xFF	; 255
    51f0:	ac f0       	brlt	.+42     	; 0x521c <ldexp+0x66>
    51f2:	98 3e       	cpi	r25, 0xE8	; 232
    51f4:	9c f0       	brlt	.+38     	; 0x521c <ldexp+0x66>
    51f6:	bb 27       	eor	r27, r27
    51f8:	86 95       	lsr	r24
    51fa:	77 95       	ror	r23
    51fc:	67 95       	ror	r22
    51fe:	b7 95       	ror	r27
    5200:	08 f4       	brcc	.+2      	; 0x5204 <ldexp+0x4e>
    5202:	b1 60       	ori	r27, 0x01	; 1
    5204:	93 95       	inc	r25
    5206:	c1 f7       	brne	.-16     	; 0x51f8 <ldexp+0x42>
    5208:	bb 0f       	add	r27, r27
    520a:	58 f7       	brcc	.-42     	; 0x51e2 <ldexp+0x2c>
    520c:	11 f4       	brne	.+4      	; 0x5212 <ldexp+0x5c>
    520e:	60 ff       	sbrs	r22, 0
    5210:	e8 cf       	rjmp	.-48     	; 0x51e2 <ldexp+0x2c>
    5212:	6f 5f       	subi	r22, 0xFF	; 255
    5214:	7f 4f       	sbci	r23, 0xFF	; 255
    5216:	8f 4f       	sbci	r24, 0xFF	; 255
    5218:	9f 4f       	sbci	r25, 0xFF	; 255
    521a:	e3 cf       	rjmp	.-58     	; 0x51e2 <ldexp+0x2c>
    521c:	9d ce       	rjmp	.-710    	; 0x4f58 <__fp_szero>
    521e:	0e f0       	brts	.+2      	; 0x5222 <ldexp+0x6c>
    5220:	0f ce       	rjmp	.-994    	; 0x4e40 <__fp_mpack>
    5222:	1c ce       	rjmp	.-968    	; 0x4e5c <__fp_nan>
    5224:	68 94       	set
    5226:	06 ce       	rjmp	.-1012   	; 0x4e34 <__fp_inf>

00005228 <log>:
    5228:	7c de       	rcall	.-776    	; 0x4f22 <__fp_splitA>
    522a:	c8 f3       	brcs	.-14     	; 0x521e <ldexp+0x68>
    522c:	99 23       	and	r25, r25
    522e:	d1 f3       	breq	.-12     	; 0x5224 <ldexp+0x6e>
    5230:	c6 f3       	brts	.-16     	; 0x5222 <ldexp+0x6c>
    5232:	df 93       	push	r29
    5234:	cf 93       	push	r28
    5236:	1f 93       	push	r17
    5238:	0f 93       	push	r16
    523a:	ff 92       	push	r15
    523c:	c9 2f       	mov	r28, r25
    523e:	dd 27       	eor	r29, r29
    5240:	88 23       	and	r24, r24
    5242:	2a f0       	brmi	.+10     	; 0x524e <log+0x26>
    5244:	21 97       	sbiw	r28, 0x01	; 1
    5246:	66 0f       	add	r22, r22
    5248:	77 1f       	adc	r23, r23
    524a:	88 1f       	adc	r24, r24
    524c:	da f7       	brpl	.-10     	; 0x5244 <log+0x1c>
    524e:	20 e0       	ldi	r18, 0x00	; 0
    5250:	30 e0       	ldi	r19, 0x00	; 0
    5252:	40 e8       	ldi	r20, 0x80	; 128
    5254:	5f eb       	ldi	r21, 0xBF	; 191
    5256:	9f e3       	ldi	r25, 0x3F	; 63
    5258:	88 39       	cpi	r24, 0x98	; 152
    525a:	20 f0       	brcs	.+8      	; 0x5264 <log+0x3c>
    525c:	80 3e       	cpi	r24, 0xE0	; 224
    525e:	30 f0       	brcs	.+12     	; 0x526c <log+0x44>
    5260:	21 96       	adiw	r28, 0x01	; 1
    5262:	8f 77       	andi	r24, 0x7F	; 127
    5264:	34 dc       	rcall	.-1944   	; 0x4ace <__addsf3>
    5266:	ea e2       	ldi	r30, 0x2A	; 42
    5268:	f1 e0       	ldi	r31, 0x01	; 1
    526a:	03 c0       	rjmp	.+6      	; 0x5272 <log+0x4a>
    526c:	30 dc       	rcall	.-1952   	; 0x4ace <__addsf3>
    526e:	e7 e5       	ldi	r30, 0x57	; 87
    5270:	f1 e0       	ldi	r31, 0x01	; 1
    5272:	62 df       	rcall	.-316    	; 0x5138 <__fp_powser>
    5274:	8b 01       	movw	r16, r22
    5276:	be 01       	movw	r22, r28
    5278:	ec 01       	movw	r28, r24
    527a:	fb 2e       	mov	r15, r27
    527c:	6f 57       	subi	r22, 0x7F	; 127
    527e:	71 09       	sbc	r23, r1
    5280:	75 95       	asr	r23
    5282:	77 1f       	adc	r23, r23
    5284:	88 0b       	sbc	r24, r24
    5286:	99 0b       	sbc	r25, r25
    5288:	28 dd       	rcall	.-1456   	; 0x4cda <__floatsisf>
    528a:	28 e1       	ldi	r18, 0x18	; 24
    528c:	32 e7       	ldi	r19, 0x72	; 114
    528e:	41 e3       	ldi	r20, 0x31	; 49
    5290:	5f e3       	ldi	r21, 0x3F	; 63
    5292:	78 de       	rcall	.-784    	; 0x4f84 <__mulsf3x>
    5294:	af 2d       	mov	r26, r15
    5296:	98 01       	movw	r18, r16
    5298:	ae 01       	movw	r20, r28
    529a:	ff 90       	pop	r15
    529c:	0f 91       	pop	r16
    529e:	1f 91       	pop	r17
    52a0:	cf 91       	pop	r28
    52a2:	df 91       	pop	r29
    52a4:	25 dc       	rcall	.-1974   	; 0x4af0 <__addsf3x>
    52a6:	13 ce       	rjmp	.-986    	; 0x4ece <__fp_round>

000052a8 <modf>:
    52a8:	fa 01       	movw	r30, r20
    52aa:	dc 01       	movw	r26, r24
    52ac:	aa 0f       	add	r26, r26
    52ae:	bb 1f       	adc	r27, r27
    52b0:	9b 01       	movw	r18, r22
    52b2:	ac 01       	movw	r20, r24
    52b4:	bf 57       	subi	r27, 0x7F	; 127
    52b6:	28 f4       	brcc	.+10     	; 0x52c2 <modf+0x1a>
    52b8:	22 27       	eor	r18, r18
    52ba:	33 27       	eor	r19, r19
    52bc:	44 27       	eor	r20, r20
    52be:	50 78       	andi	r21, 0x80	; 128
    52c0:	1f c0       	rjmp	.+62     	; 0x5300 <modf+0x58>
    52c2:	b7 51       	subi	r27, 0x17	; 23
    52c4:	88 f4       	brcc	.+34     	; 0x52e8 <modf+0x40>
    52c6:	ab 2f       	mov	r26, r27
    52c8:	00 24       	eor	r0, r0
    52ca:	46 95       	lsr	r20
    52cc:	37 95       	ror	r19
    52ce:	27 95       	ror	r18
    52d0:	01 1c       	adc	r0, r1
    52d2:	a3 95       	inc	r26
    52d4:	d2 f3       	brmi	.-12     	; 0x52ca <modf+0x22>
    52d6:	00 20       	and	r0, r0
    52d8:	69 f0       	breq	.+26     	; 0x52f4 <modf+0x4c>
    52da:	22 0f       	add	r18, r18
    52dc:	33 1f       	adc	r19, r19
    52de:	44 1f       	adc	r20, r20
    52e0:	b3 95       	inc	r27
    52e2:	da f3       	brmi	.-10     	; 0x52da <modf+0x32>
    52e4:	0d d0       	rcall	.+26     	; 0x5300 <modf+0x58>
    52e6:	f2 cb       	rjmp	.-2076   	; 0x4acc <__subsf3>
    52e8:	61 30       	cpi	r22, 0x01	; 1
    52ea:	71 05       	cpc	r23, r1
    52ec:	a0 e8       	ldi	r26, 0x80	; 128
    52ee:	8a 07       	cpc	r24, r26
    52f0:	b9 46       	sbci	r27, 0x69	; 105
    52f2:	30 f4       	brcc	.+12     	; 0x5300 <modf+0x58>
    52f4:	9b 01       	movw	r18, r22
    52f6:	ac 01       	movw	r20, r24
    52f8:	66 27       	eor	r22, r22
    52fa:	77 27       	eor	r23, r23
    52fc:	88 27       	eor	r24, r24
    52fe:	90 78       	andi	r25, 0x80	; 128
    5300:	30 96       	adiw	r30, 0x00	; 0
    5302:	21 f0       	breq	.+8      	; 0x530c <modf+0x64>
    5304:	20 83       	st	Z, r18
    5306:	31 83       	std	Z+1, r19	; 0x01
    5308:	42 83       	std	Z+2, r20	; 0x02
    530a:	53 83       	std	Z+3, r21	; 0x03
    530c:	08 95       	ret

0000530e <__cxa_pure_virtual>:
extern "C" void __cxa_deleted_virtual(void) __attribute__ ((__noreturn__));

void __cxa_pure_virtual(void) {
  // We might want to write some diagnostics to uart in this case
  //std::terminate();
  abort();
    530e:	0e 94 c1 35 	call	0x6b82	; 0x6b82 <abort>

00005312 <_ZN14HardwareSerial9availableEv>:
  // clear any received data
  _rx_buffer_head = _rx_buffer_tail;
}

int HardwareSerial::available(void)
{
    5312:	fc 01       	movw	r30, r24
  return ((unsigned int)(SERIAL_RX_BUFFER_SIZE + _rx_buffer_head - _rx_buffer_tail)) % SERIAL_RX_BUFFER_SIZE;
    5314:	91 8d       	ldd	r25, Z+25	; 0x19
    5316:	22 8d       	ldd	r18, Z+26	; 0x1a
    5318:	89 2f       	mov	r24, r25
    531a:	90 e0       	ldi	r25, 0x00	; 0
    531c:	80 5c       	subi	r24, 0xC0	; 192
    531e:	9f 4f       	sbci	r25, 0xFF	; 255
    5320:	82 1b       	sub	r24, r18
    5322:	91 09       	sbc	r25, r1
}
    5324:	8f 73       	andi	r24, 0x3F	; 63
    5326:	99 27       	eor	r25, r25
    5328:	08 95       	ret

0000532a <_ZN14HardwareSerial4peekEv>:

int HardwareSerial::peek(void)
{
    532a:	fc 01       	movw	r30, r24
  if (_rx_buffer_head == _rx_buffer_tail) {
    532c:	91 8d       	ldd	r25, Z+25	; 0x19
    532e:	82 8d       	ldd	r24, Z+26	; 0x1a
    5330:	98 17       	cp	r25, r24
    5332:	31 f0       	breq	.+12     	; 0x5340 <_ZN14HardwareSerial4peekEv+0x16>
    return -1;
  } else {
    return _rx_buffer[_rx_buffer_tail];
    5334:	82 8d       	ldd	r24, Z+26	; 0x1a
    5336:	e8 0f       	add	r30, r24
    5338:	f1 1d       	adc	r31, r1
    533a:	85 8d       	ldd	r24, Z+29	; 0x1d
    533c:	90 e0       	ldi	r25, 0x00	; 0
    533e:	08 95       	ret
}

int HardwareSerial::peek(void)
{
  if (_rx_buffer_head == _rx_buffer_tail) {
    return -1;
    5340:	8f ef       	ldi	r24, 0xFF	; 255
    5342:	9f ef       	ldi	r25, 0xFF	; 255
  } else {
    return _rx_buffer[_rx_buffer_tail];
  }
}
    5344:	08 95       	ret

00005346 <_ZN14HardwareSerial4readEv>:

int HardwareSerial::read(void)
{
    5346:	fc 01       	movw	r30, r24
  // if the head isn't ahead of the tail, we don't have any characters
  if (_rx_buffer_head == _rx_buffer_tail) {
    5348:	91 8d       	ldd	r25, Z+25	; 0x19
    534a:	82 8d       	ldd	r24, Z+26	; 0x1a
    534c:	98 17       	cp	r25, r24
    534e:	61 f0       	breq	.+24     	; 0x5368 <_ZN14HardwareSerial4readEv+0x22>
    return -1;
  } else {
    unsigned char c = _rx_buffer[_rx_buffer_tail];
    5350:	82 8d       	ldd	r24, Z+26	; 0x1a
    5352:	df 01       	movw	r26, r30
    5354:	a8 0f       	add	r26, r24
    5356:	b1 1d       	adc	r27, r1
    5358:	5d 96       	adiw	r26, 0x1d	; 29
    535a:	8c 91       	ld	r24, X
    _rx_buffer_tail = (rx_buffer_index_t)(_rx_buffer_tail + 1) % SERIAL_RX_BUFFER_SIZE;
    535c:	92 8d       	ldd	r25, Z+26	; 0x1a
    535e:	9f 5f       	subi	r25, 0xFF	; 255
    5360:	9f 73       	andi	r25, 0x3F	; 63
    5362:	92 8f       	std	Z+26, r25	; 0x1a
    return c;
    5364:	90 e0       	ldi	r25, 0x00	; 0
    5366:	08 95       	ret

int HardwareSerial::read(void)
{
  // if the head isn't ahead of the tail, we don't have any characters
  if (_rx_buffer_head == _rx_buffer_tail) {
    return -1;
    5368:	8f ef       	ldi	r24, 0xFF	; 255
    536a:	9f ef       	ldi	r25, 0xFF	; 255
  } else {
    unsigned char c = _rx_buffer[_rx_buffer_tail];
    _rx_buffer_tail = (rx_buffer_index_t)(_rx_buffer_tail + 1) % SERIAL_RX_BUFFER_SIZE;
    return c;
  }
}
    536c:	08 95       	ret

0000536e <_ZN14HardwareSerial17availableForWriteEv>:
{
#if (SERIAL_TX_BUFFER_SIZE>256)
  uint8_t oldSREG = SREG;
  cli();
#endif
  tx_buffer_index_t head = _tx_buffer_head;
    536e:	fc 01       	movw	r30, r24
    5370:	53 8d       	ldd	r21, Z+27	; 0x1b
  tx_buffer_index_t tail = _tx_buffer_tail;
    5372:	44 8d       	ldd	r20, Z+28	; 0x1c
    5374:	25 2f       	mov	r18, r21
    5376:	30 e0       	ldi	r19, 0x00	; 0
    5378:	84 2f       	mov	r24, r20
    537a:	90 e0       	ldi	r25, 0x00	; 0
#if (SERIAL_TX_BUFFER_SIZE>256)
  SREG = oldSREG;
#endif
  if (head >= tail) return SERIAL_TX_BUFFER_SIZE - 1 - head + tail;
    537c:	82 1b       	sub	r24, r18
    537e:	93 0b       	sbc	r25, r19
    5380:	54 17       	cp	r21, r20
    5382:	10 f0       	brcs	.+4      	; 0x5388 <_ZN14HardwareSerial17availableForWriteEv+0x1a>
    5384:	cf 96       	adiw	r24, 0x3f	; 63
    5386:	08 95       	ret
  return tail - head - 1;
    5388:	01 97       	sbiw	r24, 0x01	; 1
}
    538a:	08 95       	ret

0000538c <_Z14serialEventRunv>:
#endif

void serialEventRun(void)
{
#if defined(HAVE_HWSERIAL0)
  if (Serial0_available && serialEvent && Serial0_available()) serialEvent();
    538c:	8d e4       	ldi	r24, 0x4D	; 77
    538e:	9b e2       	ldi	r25, 0x2B	; 43
    5390:	89 2b       	or	r24, r25
    5392:	39 f0       	breq	.+14     	; 0x53a2 <_Z14serialEventRunv+0x16>
    5394:	80 e0       	ldi	r24, 0x00	; 0
    5396:	90 e0       	ldi	r25, 0x00	; 0
    5398:	89 2b       	or	r24, r25
    539a:	19 f0       	breq	.+6      	; 0x53a2 <_Z14serialEventRunv+0x16>
    539c:	7e d1       	rcall	.+764    	; 0x569a <_Z17Serial0_availablev>
    539e:	81 11       	cpse	r24, r1
    53a0:	24 c0       	rjmp	.+72     	; 0x53ea <_Z14serialEventRunv+0x5e>
#endif
#if defined(HAVE_HWSERIAL1)
  if (Serial1_available && serialEvent1 && Serial1_available()) serialEvent1();
    53a2:	80 e0       	ldi	r24, 0x00	; 0
    53a4:	90 e0       	ldi	r25, 0x00	; 0
    53a6:	89 2b       	or	r24, r25
    53a8:	41 f0       	breq	.+16     	; 0x53ba <_Z14serialEventRunv+0x2e>
    53aa:	80 e0       	ldi	r24, 0x00	; 0
    53ac:	90 e0       	ldi	r25, 0x00	; 0
    53ae:	89 2b       	or	r24, r25
    53b0:	21 f0       	breq	.+8      	; 0x53ba <_Z14serialEventRunv+0x2e>
    53b2:	0e 94 00 00 	call	0	; 0x0 <__vectors>
    53b6:	81 11       	cpse	r24, r1
    53b8:	1b c0       	rjmp	.+54     	; 0x53f0 <_Z14serialEventRunv+0x64>
#endif
#if defined(HAVE_HWSERIAL2)
  if (Serial2_available && serialEvent2 && Serial2_available()) serialEvent2();
    53ba:	82 ee       	ldi	r24, 0xE2	; 226
    53bc:	9b e2       	ldi	r25, 0x2B	; 43
    53be:	89 2b       	or	r24, r25
    53c0:	39 f0       	breq	.+14     	; 0x53d0 <_Z14serialEventRunv+0x44>
    53c2:	80 e0       	ldi	r24, 0x00	; 0
    53c4:	90 e0       	ldi	r25, 0x00	; 0
    53c6:	89 2b       	or	r24, r25
    53c8:	19 f0       	breq	.+6      	; 0x53d0 <_Z14serialEventRunv+0x44>
    53ca:	fc d1       	rcall	.+1016   	; 0x57c4 <_Z17Serial2_availablev>
    53cc:	81 11       	cpse	r24, r1
    53ce:	13 c0       	rjmp	.+38     	; 0x53f6 <_Z14serialEventRunv+0x6a>
#endif
#if defined(HAVE_HWSERIAL3)
  if (Serial3_available && serialEvent3 && Serial3_available()) serialEvent3();
    53d0:	80 e0       	ldi	r24, 0x00	; 0
    53d2:	90 e0       	ldi	r25, 0x00	; 0
    53d4:	89 2b       	or	r24, r25
    53d6:	a1 f0       	breq	.+40     	; 0x5400 <_Z14serialEventRunv+0x74>
    53d8:	80 e0       	ldi	r24, 0x00	; 0
    53da:	90 e0       	ldi	r25, 0x00	; 0
    53dc:	89 2b       	or	r24, r25
    53de:	81 f0       	breq	.+32     	; 0x5400 <_Z14serialEventRunv+0x74>
    53e0:	0e 94 00 00 	call	0	; 0x0 <__vectors>
    53e4:	81 11       	cpse	r24, r1
    53e6:	0a c0       	rjmp	.+20     	; 0x53fc <_Z14serialEventRunv+0x70>
    53e8:	08 95       	ret
#endif

void serialEventRun(void)
{
#if defined(HAVE_HWSERIAL0)
  if (Serial0_available && serialEvent && Serial0_available()) serialEvent();
    53ea:	0e 94 00 00 	call	0	; 0x0 <__vectors>
    53ee:	d9 cf       	rjmp	.-78     	; 0x53a2 <_Z14serialEventRunv+0x16>
#endif
#if defined(HAVE_HWSERIAL1)
  if (Serial1_available && serialEvent1 && Serial1_available()) serialEvent1();
    53f0:	0e 94 00 00 	call	0	; 0x0 <__vectors>
    53f4:	e2 cf       	rjmp	.-60     	; 0x53ba <_Z14serialEventRunv+0x2e>
#endif
#if defined(HAVE_HWSERIAL2)
  if (Serial2_available && serialEvent2 && Serial2_available()) serialEvent2();
    53f6:	0e 94 00 00 	call	0	; 0x0 <__vectors>
    53fa:	ea cf       	rjmp	.-44     	; 0x53d0 <_Z14serialEventRunv+0x44>
#endif
#if defined(HAVE_HWSERIAL3)
  if (Serial3_available && serialEvent3 && Serial3_available()) serialEvent3();
    53fc:	0c 94 00 00 	jmp	0	; 0x0 <__vectors>
    5400:	08 95       	ret

00005402 <_ZN14HardwareSerial17_tx_udr_empty_irqEv>:
}

// Actual interrupt handlers //////////////////////////////////////////////////////////////

void HardwareSerial::_tx_udr_empty_irq(void)
{
    5402:	fc 01       	movw	r30, r24
  // If interrupts are enabled, there must be more data in the output
  // buffer. Send the next byte
  unsigned char c = _tx_buffer[_tx_buffer_tail];
    5404:	84 8d       	ldd	r24, Z+28	; 0x1c
    5406:	df 01       	movw	r26, r30
    5408:	a8 0f       	add	r26, r24
    540a:	b1 1d       	adc	r27, r1
    540c:	a3 5a       	subi	r26, 0xA3	; 163
    540e:	bf 4f       	sbci	r27, 0xFF	; 255
    5410:	2c 91       	ld	r18, X
  _tx_buffer_tail = (_tx_buffer_tail + 1) % SERIAL_TX_BUFFER_SIZE;
    5412:	84 8d       	ldd	r24, Z+28	; 0x1c
    5414:	90 e0       	ldi	r25, 0x00	; 0
    5416:	01 96       	adiw	r24, 0x01	; 1
    5418:	8f 73       	andi	r24, 0x3F	; 63
    541a:	99 27       	eor	r25, r25
    541c:	84 8f       	std	Z+28, r24	; 0x1c

  *_udr = c;
    541e:	a6 89       	ldd	r26, Z+22	; 0x16
    5420:	b7 89       	ldd	r27, Z+23	; 0x17
    5422:	2c 93       	st	X, r18

  // clear the TXC bit -- "can be cleared by writing a one to its bit
  // location". This makes sure flush() won't return until the bytes
  // actually got written
  sbi(*_ucsra, TXC0);
    5424:	a0 89       	ldd	r26, Z+16	; 0x10
    5426:	b1 89       	ldd	r27, Z+17	; 0x11
    5428:	8c 91       	ld	r24, X
    542a:	80 64       	ori	r24, 0x40	; 64
    542c:	8c 93       	st	X, r24

  if (_tx_buffer_head == _tx_buffer_tail) {
    542e:	93 8d       	ldd	r25, Z+27	; 0x1b
    5430:	84 8d       	ldd	r24, Z+28	; 0x1c
    5432:	98 13       	cpse	r25, r24
    5434:	06 c0       	rjmp	.+12     	; 0x5442 <_ZN14HardwareSerial17_tx_udr_empty_irqEv+0x40>
    // Buffer empty, so disable interrupts
    cbi(*_ucsrb, UDRIE0);
    5436:	02 88       	ldd	r0, Z+18	; 0x12
    5438:	f3 89       	ldd	r31, Z+19	; 0x13
    543a:	e0 2d       	mov	r30, r0
    543c:	80 81       	ld	r24, Z
    543e:	8f 7d       	andi	r24, 0xDF	; 223
    5440:	80 83       	st	Z, r24
    5442:	08 95       	ret

00005444 <_ZN14HardwareSerial5flushEv>:
  if (head >= tail) return SERIAL_TX_BUFFER_SIZE - 1 - head + tail;
  return tail - head - 1;
}

void HardwareSerial::flush()
{
    5444:	cf 93       	push	r28
    5446:	df 93       	push	r29
    5448:	ec 01       	movw	r28, r24
  // If we have never written a byte, no need to flush. This special
  // case is needed since there is no way to force the TXC (transmit
  // complete) bit to 1 during initialization
  if (!_written)
    544a:	88 8d       	ldd	r24, Y+24	; 0x18
    544c:	88 23       	and	r24, r24
    544e:	c1 f0       	breq	.+48     	; 0x5480 <_ZN14HardwareSerial5flushEv+0x3c>
    return;

  while (bit_is_set(*_ucsrb, UDRIE0) || bit_is_clear(*_ucsra, TXC0)) {
    5450:	ea 89       	ldd	r30, Y+18	; 0x12
    5452:	fb 89       	ldd	r31, Y+19	; 0x13
    5454:	80 81       	ld	r24, Z
    5456:	85 fd       	sbrc	r24, 5
    5458:	05 c0       	rjmp	.+10     	; 0x5464 <_ZN14HardwareSerial5flushEv+0x20>
    545a:	a8 89       	ldd	r26, Y+16	; 0x10
    545c:	b9 89       	ldd	r27, Y+17	; 0x11
    545e:	8c 91       	ld	r24, X
    5460:	86 fd       	sbrc	r24, 6
    5462:	0e c0       	rjmp	.+28     	; 0x5480 <_ZN14HardwareSerial5flushEv+0x3c>
    if (bit_is_clear(SREG, SREG_I) && bit_is_set(*_ucsrb, UDRIE0))
    5464:	0f b6       	in	r0, 0x3f	; 63
    5466:	07 fc       	sbrc	r0, 7
    5468:	f5 cf       	rjmp	.-22     	; 0x5454 <_ZN14HardwareSerial5flushEv+0x10>
    546a:	80 81       	ld	r24, Z
    546c:	85 ff       	sbrs	r24, 5
    546e:	f2 cf       	rjmp	.-28     	; 0x5454 <_ZN14HardwareSerial5flushEv+0x10>
	// Interrupts are globally disabled, but the DR empty
	// interrupt should be enabled, so poll the DR empty flag to
	// prevent deadlock
	if (bit_is_set(*_ucsra, UDRE0))
    5470:	a8 89       	ldd	r26, Y+16	; 0x10
    5472:	b9 89       	ldd	r27, Y+17	; 0x11
    5474:	8c 91       	ld	r24, X
    5476:	85 ff       	sbrs	r24, 5
    5478:	ed cf       	rjmp	.-38     	; 0x5454 <_ZN14HardwareSerial5flushEv+0x10>
	  _tx_udr_empty_irq();
    547a:	ce 01       	movw	r24, r28
    547c:	c2 df       	rcall	.-124    	; 0x5402 <_ZN14HardwareSerial17_tx_udr_empty_irqEv>
    547e:	e8 cf       	rjmp	.-48     	; 0x5450 <_ZN14HardwareSerial5flushEv+0xc>
  }
  // If we get here, nothing is queued anymore (DRIE is disabled) and
  // the hardware finished tranmission (TXC is set).
}
    5480:	df 91       	pop	r29
    5482:	cf 91       	pop	r28
    5484:	08 95       	ret

00005486 <_ZN14HardwareSerial5writeEh>:

size_t HardwareSerial::write(uint8_t c)
{
    5486:	ef 92       	push	r14
    5488:	ff 92       	push	r15
    548a:	0f 93       	push	r16
    548c:	1f 93       	push	r17
    548e:	cf 93       	push	r28
    5490:	df 93       	push	r29
    5492:	ec 01       	movw	r28, r24
  _written = true;
    5494:	81 e0       	ldi	r24, 0x01	; 1
    5496:	88 8f       	std	Y+24, r24	; 0x18
  // If the buffer and the data register is empty, just write the byte
  // to the data register and be done. This shortcut helps
  // significantly improve the effective datarate at high (>
  // 500kbit/s) bitrates, where interrupt overhead becomes a slowdown.
  if (_tx_buffer_head == _tx_buffer_tail && bit_is_set(*_ucsra, UDRE0)) {
    5498:	9b 8d       	ldd	r25, Y+27	; 0x1b
    549a:	8c 8d       	ldd	r24, Y+28	; 0x1c
    549c:	98 13       	cpse	r25, r24
    549e:	05 c0       	rjmp	.+10     	; 0x54aa <_ZN14HardwareSerial5writeEh+0x24>
    54a0:	e8 89       	ldd	r30, Y+16	; 0x10
    54a2:	f9 89       	ldd	r31, Y+17	; 0x11
    54a4:	80 81       	ld	r24, Z
    54a6:	85 fd       	sbrc	r24, 5
    54a8:	23 c0       	rjmp	.+70     	; 0x54f0 <_ZN14HardwareSerial5writeEh+0x6a>
    54aa:	f6 2e       	mov	r15, r22
    *_udr = c;
    sbi(*_ucsra, TXC0);
    return 1;
  }
  tx_buffer_index_t i = (_tx_buffer_head + 1) % SERIAL_TX_BUFFER_SIZE;
    54ac:	0b 8d       	ldd	r16, Y+27	; 0x1b
    54ae:	10 e0       	ldi	r17, 0x00	; 0
    54b0:	0f 5f       	subi	r16, 0xFF	; 255
    54b2:	1f 4f       	sbci	r17, 0xFF	; 255
    54b4:	0f 73       	andi	r16, 0x3F	; 63
    54b6:	11 27       	eor	r17, r17
    54b8:	e0 2e       	mov	r14, r16
	
  // If the output buffer is full, there's nothing for it other than to 
  // wait for the interrupt handler to empty it a bit
  while (i == _tx_buffer_tail) {
    54ba:	8c 8d       	ldd	r24, Y+28	; 0x1c
    54bc:	e8 12       	cpse	r14, r24
    54be:	0b c0       	rjmp	.+22     	; 0x54d6 <_ZN14HardwareSerial5writeEh+0x50>
    if (bit_is_clear(SREG, SREG_I)) {
    54c0:	0f b6       	in	r0, 0x3f	; 63
    54c2:	07 fc       	sbrc	r0, 7
    54c4:	fa cf       	rjmp	.-12     	; 0x54ba <_ZN14HardwareSerial5writeEh+0x34>
      // Interrupts are disabled, so we'll have to poll the data
      // register empty flag ourselves. If it is set, pretend an
      // interrupt has happened and call the handler to free up
      // space for us.
      if(bit_is_set(*_ucsra, UDRE0))
    54c6:	e8 89       	ldd	r30, Y+16	; 0x10
    54c8:	f9 89       	ldd	r31, Y+17	; 0x11
    54ca:	80 81       	ld	r24, Z
    54cc:	85 ff       	sbrs	r24, 5
    54ce:	f5 cf       	rjmp	.-22     	; 0x54ba <_ZN14HardwareSerial5writeEh+0x34>
	_tx_udr_empty_irq();
    54d0:	ce 01       	movw	r24, r28
    54d2:	97 df       	rcall	.-210    	; 0x5402 <_ZN14HardwareSerial17_tx_udr_empty_irqEv>
    54d4:	f2 cf       	rjmp	.-28     	; 0x54ba <_ZN14HardwareSerial5writeEh+0x34>
    } else {
      // nop, the interrupt handler will free up space for us
    }
  }

  _tx_buffer[_tx_buffer_head] = c;
    54d6:	8b 8d       	ldd	r24, Y+27	; 0x1b
    54d8:	fe 01       	movw	r30, r28
    54da:	e8 0f       	add	r30, r24
    54dc:	f1 1d       	adc	r31, r1
    54de:	e3 5a       	subi	r30, 0xA3	; 163
    54e0:	ff 4f       	sbci	r31, 0xFF	; 255
    54e2:	f0 82       	st	Z, r15
  _tx_buffer_head = i;
    54e4:	0b 8f       	std	Y+27, r16	; 0x1b
	
  sbi(*_ucsrb, UDRIE0);
    54e6:	ea 89       	ldd	r30, Y+18	; 0x12
    54e8:	fb 89       	ldd	r31, Y+19	; 0x13
    54ea:	80 81       	ld	r24, Z
    54ec:	80 62       	ori	r24, 0x20	; 32
    54ee:	07 c0       	rjmp	.+14     	; 0x54fe <_ZN14HardwareSerial5writeEh+0x78>
  // If the buffer and the data register is empty, just write the byte
  // to the data register and be done. This shortcut helps
  // significantly improve the effective datarate at high (>
  // 500kbit/s) bitrates, where interrupt overhead becomes a slowdown.
  if (_tx_buffer_head == _tx_buffer_tail && bit_is_set(*_ucsra, UDRE0)) {
    *_udr = c;
    54f0:	ee 89       	ldd	r30, Y+22	; 0x16
    54f2:	ff 89       	ldd	r31, Y+23	; 0x17
    54f4:	60 83       	st	Z, r22
    sbi(*_ucsra, TXC0);
    54f6:	e8 89       	ldd	r30, Y+16	; 0x10
    54f8:	f9 89       	ldd	r31, Y+17	; 0x11
    54fa:	80 81       	ld	r24, Z
    54fc:	80 64       	ori	r24, 0x40	; 64
    54fe:	80 83       	st	Z, r24
  _tx_buffer_head = i;
	
  sbi(*_ucsrb, UDRIE0);
  
  return 1;
}
    5500:	81 e0       	ldi	r24, 0x01	; 1
    5502:	90 e0       	ldi	r25, 0x00	; 0
    5504:	df 91       	pop	r29
    5506:	cf 91       	pop	r28
    5508:	1f 91       	pop	r17
    550a:	0f 91       	pop	r16
    550c:	ff 90       	pop	r15
    550e:	ef 90       	pop	r14
    5510:	08 95       	ret

00005512 <_ZN14HardwareSerial5beginEmh>:
}

// Public Methods //////////////////////////////////////////////////////////////

void HardwareSerial::begin(unsigned long baud, byte config)
{
    5512:	cf 92       	push	r12
    5514:	df 92       	push	r13
    5516:	ef 92       	push	r14
    5518:	ff 92       	push	r15
    551a:	1f 93       	push	r17
    551c:	cf 93       	push	r28
    551e:	df 93       	push	r29
    5520:	ec 01       	movw	r28, r24
    5522:	6a 01       	movw	r12, r20
    5524:	7b 01       	movw	r14, r22
    5526:	12 2f       	mov	r17, r18
  // Try u2x mode first
  uint16_t baud_setting = (F_CPU / 4 / baud - 1) / 2;
  *_ucsra = 1 << U2X0;
    5528:	e8 89       	ldd	r30, Y+16	; 0x10
    552a:	f9 89       	ldd	r31, Y+17	; 0x11
    552c:	82 e0       	ldi	r24, 0x02	; 2
    552e:	80 83       	st	Z, r24
  // hardcoded exception for 57600 for compatibility with the bootloader
  // shipped with the Duemilanove and previous boards and the firmware
  // on the 8U2 on the Uno and Mega 2560. Also, The baud_setting cannot
  // be > 4095, so switch back to non-u2x mode if the baud rate is too
  // low.
  if (((F_CPU == 16000000UL) && (baud == 57600)) || (baud_setting >4095))
    5530:	41 15       	cp	r20, r1
    5532:	51 4e       	sbci	r21, 0xE1	; 225
    5534:	61 05       	cpc	r22, r1
    5536:	71 05       	cpc	r23, r1
    5538:	b1 f0       	breq	.+44     	; 0x5566 <_ZN14HardwareSerial5beginEmh+0x54>
// Public Methods //////////////////////////////////////////////////////////////

void HardwareSerial::begin(unsigned long baud, byte config)
{
  // Try u2x mode first
  uint16_t baud_setting = (F_CPU / 4 / baud - 1) / 2;
    553a:	60 e0       	ldi	r22, 0x00	; 0
    553c:	79 e0       	ldi	r23, 0x09	; 9
    553e:	8d e3       	ldi	r24, 0x3D	; 61
    5540:	90 e0       	ldi	r25, 0x00	; 0
    5542:	a7 01       	movw	r20, r14
    5544:	96 01       	movw	r18, r12
    5546:	0e 94 4b 33 	call	0x6696	; 0x6696 <__udivmodsi4>
    554a:	da 01       	movw	r26, r20
    554c:	c9 01       	movw	r24, r18
    554e:	01 97       	sbiw	r24, 0x01	; 1
    5550:	a1 09       	sbc	r26, r1
    5552:	b1 09       	sbc	r27, r1
    5554:	b6 95       	lsr	r27
    5556:	a7 95       	ror	r26
    5558:	97 95       	ror	r25
    555a:	87 95       	ror	r24
    555c:	ac 01       	movw	r20, r24
  // hardcoded exception for 57600 for compatibility with the bootloader
  // shipped with the Duemilanove and previous boards and the firmware
  // on the 8U2 on the Uno and Mega 2560. Also, The baud_setting cannot
  // be > 4095, so switch back to non-u2x mode if the baud rate is too
  // low.
  if (((F_CPU == 16000000UL) && (baud == 57600)) || (baud_setting >4095))
    555e:	41 15       	cp	r20, r1
    5560:	80 e1       	ldi	r24, 0x10	; 16
    5562:	58 07       	cpc	r21, r24
    5564:	a8 f0       	brcs	.+42     	; 0x5590 <_ZN14HardwareSerial5beginEmh+0x7e>
  {
    *_ucsra = 0;
    5566:	e8 89       	ldd	r30, Y+16	; 0x10
    5568:	f9 89       	ldd	r31, Y+17	; 0x11
    556a:	10 82       	st	Z, r1
    baud_setting = (F_CPU / 8 / baud - 1) / 2;
    556c:	60 e8       	ldi	r22, 0x80	; 128
    556e:	74 e8       	ldi	r23, 0x84	; 132
    5570:	8e e1       	ldi	r24, 0x1E	; 30
    5572:	90 e0       	ldi	r25, 0x00	; 0
    5574:	a7 01       	movw	r20, r14
    5576:	96 01       	movw	r18, r12
    5578:	0e 94 4b 33 	call	0x6696	; 0x6696 <__udivmodsi4>
    557c:	ba 01       	movw	r22, r20
    557e:	a9 01       	movw	r20, r18
    5580:	41 50       	subi	r20, 0x01	; 1
    5582:	51 09       	sbc	r21, r1
    5584:	61 09       	sbc	r22, r1
    5586:	71 09       	sbc	r23, r1
    5588:	76 95       	lsr	r23
    558a:	67 95       	ror	r22
    558c:	57 95       	ror	r21
    558e:	47 95       	ror	r20
  }

  // assign the baud_setting, a.k.a. ubrr (USART Baud Rate Register)
  *_ubrrh = baud_setting >> 8;
    5590:	ec 85       	ldd	r30, Y+12	; 0x0c
    5592:	fd 85       	ldd	r31, Y+13	; 0x0d
    5594:	50 83       	st	Z, r21
  *_ubrrl = baud_setting;
    5596:	ee 85       	ldd	r30, Y+14	; 0x0e
    5598:	ff 85       	ldd	r31, Y+15	; 0x0f
    559a:	40 83       	st	Z, r20

  _written = false;
    559c:	18 8e       	std	Y+24, r1	; 0x18

  //set the data bits, parity, and stop bits
#if defined(__AVR_ATmega8__)
  config |= 0x80; // select UCSRC register (shared with UBRRH)
#endif
  *_ucsrc = config;
    559e:	ec 89       	ldd	r30, Y+20	; 0x14
    55a0:	fd 89       	ldd	r31, Y+21	; 0x15
    55a2:	10 83       	st	Z, r17
  
  sbi(*_ucsrb, RXEN0);
    55a4:	ea 89       	ldd	r30, Y+18	; 0x12
    55a6:	fb 89       	ldd	r31, Y+19	; 0x13
    55a8:	80 81       	ld	r24, Z
    55aa:	80 61       	ori	r24, 0x10	; 16
    55ac:	80 83       	st	Z, r24
  sbi(*_ucsrb, TXEN0);
    55ae:	ea 89       	ldd	r30, Y+18	; 0x12
    55b0:	fb 89       	ldd	r31, Y+19	; 0x13
    55b2:	80 81       	ld	r24, Z
    55b4:	88 60       	ori	r24, 0x08	; 8
    55b6:	80 83       	st	Z, r24
  sbi(*_ucsrb, RXCIE0);
    55b8:	ea 89       	ldd	r30, Y+18	; 0x12
    55ba:	fb 89       	ldd	r31, Y+19	; 0x13
    55bc:	80 81       	ld	r24, Z
    55be:	80 68       	ori	r24, 0x80	; 128
    55c0:	80 83       	st	Z, r24
  cbi(*_ucsrb, UDRIE0);
    55c2:	ea 89       	ldd	r30, Y+18	; 0x12
    55c4:	fb 89       	ldd	r31, Y+19	; 0x13
    55c6:	80 81       	ld	r24, Z
    55c8:	8f 7d       	andi	r24, 0xDF	; 223
    55ca:	80 83       	st	Z, r24
}
    55cc:	df 91       	pop	r29
    55ce:	cf 91       	pop	r28
    55d0:	1f 91       	pop	r17
    55d2:	ff 90       	pop	r15
    55d4:	ef 90       	pop	r14
    55d6:	df 90       	pop	r13
    55d8:	cf 90       	pop	r12
    55da:	08 95       	ret

000055dc <__vector_25>:
#elif defined(USART_RXC_vect)
  ISR(USART_RXC_vect) // ATmega8
#else
  #error "Don't know what the Data Received vector is called for Serial"
#endif
  {
    55dc:	1f 92       	push	r1
    55de:	0f 92       	push	r0
    55e0:	0f b6       	in	r0, 0x3f	; 63
    55e2:	0f 92       	push	r0
    55e4:	11 24       	eor	r1, r1
    55e6:	0b b6       	in	r0, 0x3b	; 59
    55e8:	0f 92       	push	r0
    55ea:	2f 93       	push	r18
    55ec:	8f 93       	push	r24
    55ee:	9f 93       	push	r25
    55f0:	ef 93       	push	r30
    55f2:	ff 93       	push	r31

// Actual interrupt handlers //////////////////////////////////////////////////////////////

void HardwareSerial::_rx_complete_irq(void)
{
  if (bit_is_clear(*_ucsra, UPE0)) {
    55f4:	e0 91 94 0e 	lds	r30, 0x0E94	; 0x800e94 <Serial+0x10>
    55f8:	f0 91 95 0e 	lds	r31, 0x0E95	; 0x800e95 <Serial+0x11>
    55fc:	80 81       	ld	r24, Z
    55fe:	e0 91 9a 0e 	lds	r30, 0x0E9A	; 0x800e9a <Serial+0x16>
    5602:	f0 91 9b 0e 	lds	r31, 0x0E9B	; 0x800e9b <Serial+0x17>
    5606:	82 fd       	sbrc	r24, 2
    5608:	12 c0       	rjmp	.+36     	; 0x562e <__vector_25+0x52>
    // No Parity error, read byte and store it in the buffer if there is
    // room
    unsigned char c = *_udr;
    560a:	90 81       	ld	r25, Z
    rx_buffer_index_t i = (unsigned int)(_rx_buffer_head + 1) % SERIAL_RX_BUFFER_SIZE;
    560c:	80 91 9d 0e 	lds	r24, 0x0E9D	; 0x800e9d <Serial+0x19>
    5610:	8f 5f       	subi	r24, 0xFF	; 255
    5612:	8f 73       	andi	r24, 0x3F	; 63

    // if we should be storing the received character into the location
    // just before the tail (meaning that the head would advance to the
    // current location of the tail), we're about to overflow the buffer
    // and so we don't write the character or advance the head.
    if (i != _rx_buffer_tail) {
    5614:	20 91 9e 0e 	lds	r18, 0x0E9E	; 0x800e9e <Serial+0x1a>
    5618:	82 17       	cp	r24, r18
    561a:	51 f0       	breq	.+20     	; 0x5630 <__vector_25+0x54>
      _rx_buffer[_rx_buffer_head] = c;
    561c:	e0 91 9d 0e 	lds	r30, 0x0E9D	; 0x800e9d <Serial+0x19>
    5620:	f0 e0       	ldi	r31, 0x00	; 0
    5622:	ec 57       	subi	r30, 0x7C	; 124
    5624:	f1 4f       	sbci	r31, 0xF1	; 241
    5626:	95 8f       	std	Z+29, r25	; 0x1d
      _rx_buffer_head = i;
    5628:	80 93 9d 0e 	sts	0x0E9D, r24	; 0x800e9d <Serial+0x19>
    562c:	01 c0       	rjmp	.+2      	; 0x5630 <__vector_25+0x54>
    }
  } else {
    // Parity error, read byte but discard it
    *_udr;
    562e:	80 81       	ld	r24, Z
    Serial._rx_complete_irq();
  }
    5630:	ff 91       	pop	r31
    5632:	ef 91       	pop	r30
    5634:	9f 91       	pop	r25
    5636:	8f 91       	pop	r24
    5638:	2f 91       	pop	r18
    563a:	0f 90       	pop	r0
    563c:	0b be       	out	0x3b, r0	; 59
    563e:	0f 90       	pop	r0
    5640:	0f be       	out	0x3f, r0	; 63
    5642:	0f 90       	pop	r0
    5644:	1f 90       	pop	r1
    5646:	18 95       	reti

00005648 <__vector_26>:
#elif defined(USART_UDRE_vect)
ISR(USART_UDRE_vect)
#else
  #error "Don't know what the Data Register Empty vector is called for Serial"
#endif
{
    5648:	1f 92       	push	r1
    564a:	0f 92       	push	r0
    564c:	0f b6       	in	r0, 0x3f	; 63
    564e:	0f 92       	push	r0
    5650:	11 24       	eor	r1, r1
    5652:	0b b6       	in	r0, 0x3b	; 59
    5654:	0f 92       	push	r0
    5656:	2f 93       	push	r18
    5658:	3f 93       	push	r19
    565a:	4f 93       	push	r20
    565c:	5f 93       	push	r21
    565e:	6f 93       	push	r22
    5660:	7f 93       	push	r23
    5662:	8f 93       	push	r24
    5664:	9f 93       	push	r25
    5666:	af 93       	push	r26
    5668:	bf 93       	push	r27
    566a:	ef 93       	push	r30
    566c:	ff 93       	push	r31
  Serial._tx_udr_empty_irq();
    566e:	84 e8       	ldi	r24, 0x84	; 132
    5670:	9e e0       	ldi	r25, 0x0E	; 14
    5672:	c7 de       	rcall	.-626    	; 0x5402 <_ZN14HardwareSerial17_tx_udr_empty_irqEv>
}
    5674:	ff 91       	pop	r31
    5676:	ef 91       	pop	r30
    5678:	bf 91       	pop	r27
    567a:	af 91       	pop	r26
    567c:	9f 91       	pop	r25
    567e:	8f 91       	pop	r24
    5680:	7f 91       	pop	r23
    5682:	6f 91       	pop	r22
    5684:	5f 91       	pop	r21
    5686:	4f 91       	pop	r20
    5688:	3f 91       	pop	r19
    568a:	2f 91       	pop	r18
    568c:	0f 90       	pop	r0
    568e:	0b be       	out	0x3b, r0	; 59
    5690:	0f 90       	pop	r0
    5692:	0f be       	out	0x3f, r0	; 63
    5694:	0f 90       	pop	r0
    5696:	1f 90       	pop	r1
    5698:	18 95       	reti

0000569a <_Z17Serial0_availablev>:
#endif

// Function that can be weakly referenced by serialEventRun to prevent
// pulling in this file if it's not otherwise used.
bool Serial0_available() {
  return Serial.available();
    569a:	84 e8       	ldi	r24, 0x84	; 132
    569c:	9e e0       	ldi	r25, 0x0E	; 14
    569e:	39 de       	rcall	.-910    	; 0x5312 <_ZN14HardwareSerial9availableEv>
    56a0:	21 e0       	ldi	r18, 0x01	; 1
    56a2:	89 2b       	or	r24, r25
    56a4:	09 f4       	brne	.+2      	; 0x56a8 <_Z17Serial0_availablev+0xe>
    56a6:	20 e0       	ldi	r18, 0x00	; 0
}
    56a8:	82 2f       	mov	r24, r18
    56aa:	08 95       	ret

000056ac <_GLOBAL__sub_I___vector_25>:
    size_t printNumber(unsigned long, uint8_t);
    size_t printFloat(double, uint8_t);
  protected:
    void setWriteError(int err = 1) { write_error = err; }
  public:
    Print() : write_error(0) {}
    56ac:	e4 e8       	ldi	r30, 0x84	; 132
    56ae:	fe e0       	ldi	r31, 0x0E	; 14
    56b0:	13 82       	std	Z+3, r1	; 0x03
    56b2:	12 82       	std	Z+2, r1	; 0x02
  public:
    virtual int available() = 0;
    virtual int read() = 0;
    virtual int peek() = 0;

    Stream() {_timeout=1000;}
    56b4:	88 ee       	ldi	r24, 0xE8	; 232
    56b6:	93 e0       	ldi	r25, 0x03	; 3
    56b8:	a0 e0       	ldi	r26, 0x00	; 0
    56ba:	b0 e0       	ldi	r27, 0x00	; 0
    56bc:	84 83       	std	Z+4, r24	; 0x04
    56be:	95 83       	std	Z+5, r25	; 0x05
    56c0:	a6 83       	std	Z+6, r26	; 0x06
    56c2:	b7 83       	std	Z+7, r27	; 0x07
  volatile uint8_t *ucsrc, volatile uint8_t *udr) :
    _ubrrh(ubrrh), _ubrrl(ubrrl),
    _ucsra(ucsra), _ucsrb(ucsrb), _ucsrc(ucsrc),
    _udr(udr),
    _rx_buffer_head(0), _rx_buffer_tail(0),
    _tx_buffer_head(0), _tx_buffer_tail(0)
    56c4:	8c e6       	ldi	r24, 0x6C	; 108
    56c6:	9c e0       	ldi	r25, 0x0C	; 12
    56c8:	91 83       	std	Z+1, r25	; 0x01
    56ca:	80 83       	st	Z, r24
    56cc:	85 ec       	ldi	r24, 0xC5	; 197
    56ce:	90 e0       	ldi	r25, 0x00	; 0
    56d0:	95 87       	std	Z+13, r25	; 0x0d
    56d2:	84 87       	std	Z+12, r24	; 0x0c
    56d4:	84 ec       	ldi	r24, 0xC4	; 196
    56d6:	90 e0       	ldi	r25, 0x00	; 0
    56d8:	97 87       	std	Z+15, r25	; 0x0f
    56da:	86 87       	std	Z+14, r24	; 0x0e
    56dc:	80 ec       	ldi	r24, 0xC0	; 192
    56de:	90 e0       	ldi	r25, 0x00	; 0
    56e0:	91 8b       	std	Z+17, r25	; 0x11
    56e2:	80 8b       	std	Z+16, r24	; 0x10
    56e4:	81 ec       	ldi	r24, 0xC1	; 193
    56e6:	90 e0       	ldi	r25, 0x00	; 0
    56e8:	93 8b       	std	Z+19, r25	; 0x13
    56ea:	82 8b       	std	Z+18, r24	; 0x12
    56ec:	82 ec       	ldi	r24, 0xC2	; 194
    56ee:	90 e0       	ldi	r25, 0x00	; 0
    56f0:	95 8b       	std	Z+21, r25	; 0x15
    56f2:	84 8b       	std	Z+20, r24	; 0x14
    56f4:	86 ec       	ldi	r24, 0xC6	; 198
    56f6:	90 e0       	ldi	r25, 0x00	; 0
    56f8:	97 8b       	std	Z+23, r25	; 0x17
    56fa:	86 8b       	std	Z+22, r24	; 0x16
    56fc:	11 8e       	std	Z+25, r1	; 0x19
    56fe:	12 8e       	std	Z+26, r1	; 0x1a
    5700:	13 8e       	std	Z+27, r1	; 0x1b
    5702:	14 8e       	std	Z+28, r1	; 0x1c
    5704:	08 95       	ret

00005706 <__vector_51>:
// first place.

#if defined(HAVE_HWSERIAL2)

ISR(USART2_RX_vect)
{
    5706:	1f 92       	push	r1
    5708:	0f 92       	push	r0
    570a:	0f b6       	in	r0, 0x3f	; 63
    570c:	0f 92       	push	r0
    570e:	11 24       	eor	r1, r1
    5710:	0b b6       	in	r0, 0x3b	; 59
    5712:	0f 92       	push	r0
    5714:	2f 93       	push	r18
    5716:	8f 93       	push	r24
    5718:	9f 93       	push	r25
    571a:	ef 93       	push	r30
    571c:	ff 93       	push	r31

// Actual interrupt handlers //////////////////////////////////////////////////////////////

void HardwareSerial::_rx_complete_irq(void)
{
  if (bit_is_clear(*_ucsra, UPE0)) {
    571e:	e0 91 31 0f 	lds	r30, 0x0F31	; 0x800f31 <Serial2+0x10>
    5722:	f0 91 32 0f 	lds	r31, 0x0F32	; 0x800f32 <Serial2+0x11>
    5726:	80 81       	ld	r24, Z
    5728:	e0 91 37 0f 	lds	r30, 0x0F37	; 0x800f37 <Serial2+0x16>
    572c:	f0 91 38 0f 	lds	r31, 0x0F38	; 0x800f38 <Serial2+0x17>
    5730:	82 fd       	sbrc	r24, 2
    5732:	12 c0       	rjmp	.+36     	; 0x5758 <__vector_51+0x52>
    // No Parity error, read byte and store it in the buffer if there is
    // room
    unsigned char c = *_udr;
    5734:	90 81       	ld	r25, Z
    rx_buffer_index_t i = (unsigned int)(_rx_buffer_head + 1) % SERIAL_RX_BUFFER_SIZE;
    5736:	80 91 3a 0f 	lds	r24, 0x0F3A	; 0x800f3a <Serial2+0x19>
    573a:	8f 5f       	subi	r24, 0xFF	; 255
    573c:	8f 73       	andi	r24, 0x3F	; 63

    // if we should be storing the received character into the location
    // just before the tail (meaning that the head would advance to the
    // current location of the tail), we're about to overflow the buffer
    // and so we don't write the character or advance the head.
    if (i != _rx_buffer_tail) {
    573e:	20 91 3b 0f 	lds	r18, 0x0F3B	; 0x800f3b <Serial2+0x1a>
    5742:	82 17       	cp	r24, r18
    5744:	51 f0       	breq	.+20     	; 0x575a <__vector_51+0x54>
      _rx_buffer[_rx_buffer_head] = c;
    5746:	e0 91 3a 0f 	lds	r30, 0x0F3A	; 0x800f3a <Serial2+0x19>
    574a:	f0 e0       	ldi	r31, 0x00	; 0
    574c:	ef 5d       	subi	r30, 0xDF	; 223
    574e:	f0 4f       	sbci	r31, 0xF0	; 240
    5750:	95 8f       	std	Z+29, r25	; 0x1d
      _rx_buffer_head = i;
    5752:	80 93 3a 0f 	sts	0x0F3A, r24	; 0x800f3a <Serial2+0x19>
    5756:	01 c0       	rjmp	.+2      	; 0x575a <__vector_51+0x54>
    }
  } else {
    // Parity error, read byte but discard it
    *_udr;
    5758:	80 81       	ld	r24, Z
  Serial2._rx_complete_irq();
}
    575a:	ff 91       	pop	r31
    575c:	ef 91       	pop	r30
    575e:	9f 91       	pop	r25
    5760:	8f 91       	pop	r24
    5762:	2f 91       	pop	r18
    5764:	0f 90       	pop	r0
    5766:	0b be       	out	0x3b, r0	; 59
    5768:	0f 90       	pop	r0
    576a:	0f be       	out	0x3f, r0	; 63
    576c:	0f 90       	pop	r0
    576e:	1f 90       	pop	r1
    5770:	18 95       	reti

00005772 <__vector_52>:

ISR(USART2_UDRE_vect)
{
    5772:	1f 92       	push	r1
    5774:	0f 92       	push	r0
    5776:	0f b6       	in	r0, 0x3f	; 63
    5778:	0f 92       	push	r0
    577a:	11 24       	eor	r1, r1
    577c:	0b b6       	in	r0, 0x3b	; 59
    577e:	0f 92       	push	r0
    5780:	2f 93       	push	r18
    5782:	3f 93       	push	r19
    5784:	4f 93       	push	r20
    5786:	5f 93       	push	r21
    5788:	6f 93       	push	r22
    578a:	7f 93       	push	r23
    578c:	8f 93       	push	r24
    578e:	9f 93       	push	r25
    5790:	af 93       	push	r26
    5792:	bf 93       	push	r27
    5794:	ef 93       	push	r30
    5796:	ff 93       	push	r31
  Serial2._tx_udr_empty_irq();
    5798:	81 e2       	ldi	r24, 0x21	; 33
    579a:	9f e0       	ldi	r25, 0x0F	; 15
    579c:	32 de       	rcall	.-924    	; 0x5402 <_ZN14HardwareSerial17_tx_udr_empty_irqEv>
}
    579e:	ff 91       	pop	r31
    57a0:	ef 91       	pop	r30
    57a2:	bf 91       	pop	r27
    57a4:	af 91       	pop	r26
    57a6:	9f 91       	pop	r25
    57a8:	8f 91       	pop	r24
    57aa:	7f 91       	pop	r23
    57ac:	6f 91       	pop	r22
    57ae:	5f 91       	pop	r21
    57b0:	4f 91       	pop	r20
    57b2:	3f 91       	pop	r19
    57b4:	2f 91       	pop	r18
    57b6:	0f 90       	pop	r0
    57b8:	0b be       	out	0x3b, r0	; 59
    57ba:	0f 90       	pop	r0
    57bc:	0f be       	out	0x3f, r0	; 63
    57be:	0f 90       	pop	r0
    57c0:	1f 90       	pop	r1
    57c2:	18 95       	reti

000057c4 <_Z17Serial2_availablev>:
HardwareSerial Serial2(&UBRR2H, &UBRR2L, &UCSR2A, &UCSR2B, &UCSR2C, &UDR2);

// Function that can be weakly referenced by serialEventRun to prevent
// pulling in this file if it's not otherwise used.
bool Serial2_available() {
  return Serial2.available();
    57c4:	81 e2       	ldi	r24, 0x21	; 33
    57c6:	9f e0       	ldi	r25, 0x0F	; 15
    57c8:	a4 dd       	rcall	.-1208   	; 0x5312 <_ZN14HardwareSerial9availableEv>
    57ca:	21 e0       	ldi	r18, 0x01	; 1
    57cc:	89 2b       	or	r24, r25
    57ce:	09 f4       	brne	.+2      	; 0x57d2 <_Z17Serial2_availablev+0xe>
    57d0:	20 e0       	ldi	r18, 0x00	; 0
}
    57d2:	82 2f       	mov	r24, r18
    57d4:	08 95       	ret

000057d6 <_GLOBAL__sub_I___vector_51>:
    57d6:	e1 e2       	ldi	r30, 0x21	; 33
    57d8:	ff e0       	ldi	r31, 0x0F	; 15
    57da:	13 82       	std	Z+3, r1	; 0x03
    57dc:	12 82       	std	Z+2, r1	; 0x02
    57de:	88 ee       	ldi	r24, 0xE8	; 232
    57e0:	93 e0       	ldi	r25, 0x03	; 3
    57e2:	a0 e0       	ldi	r26, 0x00	; 0
    57e4:	b0 e0       	ldi	r27, 0x00	; 0
    57e6:	84 83       	std	Z+4, r24	; 0x04
    57e8:	95 83       	std	Z+5, r25	; 0x05
    57ea:	a6 83       	std	Z+6, r26	; 0x06
    57ec:	b7 83       	std	Z+7, r27	; 0x07
  volatile uint8_t *ucsrc, volatile uint8_t *udr) :
    _ubrrh(ubrrh), _ubrrl(ubrrl),
    _ucsra(ucsra), _ucsrb(ucsrb), _ucsrc(ucsrc),
    _udr(udr),
    _rx_buffer_head(0), _rx_buffer_tail(0),
    _tx_buffer_head(0), _tx_buffer_tail(0)
    57ee:	8c e6       	ldi	r24, 0x6C	; 108
    57f0:	9c e0       	ldi	r25, 0x0C	; 12
    57f2:	91 83       	std	Z+1, r25	; 0x01
    57f4:	80 83       	st	Z, r24
    57f6:	85 ed       	ldi	r24, 0xD5	; 213
    57f8:	90 e0       	ldi	r25, 0x00	; 0
    57fa:	95 87       	std	Z+13, r25	; 0x0d
    57fc:	84 87       	std	Z+12, r24	; 0x0c
    57fe:	84 ed       	ldi	r24, 0xD4	; 212
    5800:	90 e0       	ldi	r25, 0x00	; 0
    5802:	97 87       	std	Z+15, r25	; 0x0f
    5804:	86 87       	std	Z+14, r24	; 0x0e
    5806:	80 ed       	ldi	r24, 0xD0	; 208
    5808:	90 e0       	ldi	r25, 0x00	; 0
    580a:	91 8b       	std	Z+17, r25	; 0x11
    580c:	80 8b       	std	Z+16, r24	; 0x10
    580e:	81 ed       	ldi	r24, 0xD1	; 209
    5810:	90 e0       	ldi	r25, 0x00	; 0
    5812:	93 8b       	std	Z+19, r25	; 0x13
    5814:	82 8b       	std	Z+18, r24	; 0x12
    5816:	82 ed       	ldi	r24, 0xD2	; 210
    5818:	90 e0       	ldi	r25, 0x00	; 0
    581a:	95 8b       	std	Z+21, r25	; 0x15
    581c:	84 8b       	std	Z+20, r24	; 0x14
    581e:	86 ed       	ldi	r24, 0xD6	; 214
    5820:	90 e0       	ldi	r25, 0x00	; 0
    5822:	97 8b       	std	Z+23, r25	; 0x17
    5824:	86 8b       	std	Z+22, r24	; 0x16
    5826:	11 8e       	std	Z+25, r1	; 0x19
    5828:	12 8e       	std	Z+26, r1	; 0x1a
    582a:	13 8e       	std	Z+27, r1	; 0x1b
    582c:	14 8e       	std	Z+28, r1	; 0x1c
    582e:	08 95       	ret

00005830 <initVariant>:
// May be redefined by variant files.
void initVariant() __attribute__((weak));
void initVariant() { }

void setupUSB() __attribute__((weak));
void setupUSB() { }
    5830:	08 95       	ret

00005832 <main>:

int main(void)
{
	init();
    5832:	b7 d4       	rcall	.+2414   	; 0x61a2 <init>

	initVariant();
    5834:	fd df       	rcall	.-6      	; 0x5830 <initVariant>

#if defined(USBCON)
	USBDevice.attach();
#endif
	
	setup();
    5836:	0e 94 0f 1f 	call	0x3e1e	; 0x3e1e <setup>
    
	for (;;) {
		loop();
		if (serialEventRun) serialEventRun();
    583a:	c6 ec       	ldi	r28, 0xC6	; 198
    583c:	d9 e2       	ldi	r29, 0x29	; 41
#endif
	
	setup();
    
	for (;;) {
		loop();
    583e:	0e 94 53 1f 	call	0x3ea6	; 0x3ea6 <loop>
		if (serialEventRun) serialEventRun();
    5842:	20 97       	sbiw	r28, 0x00	; 0
    5844:	e1 f3       	breq	.-8      	; 0x583e <main+0xc>
    5846:	a2 dd       	rcall	.-1212   	; 0x538c <_Z14serialEventRunv>
    5848:	fa cf       	rjmp	.-12     	; 0x583e <main+0xc>

0000584a <_ZN5Print5writeEPKhj>:
size_t Print::println(unsigned long num, int base)
{
  size_t n = print(num, base);
  n += println();
  return n;
}
    584a:	cf 92       	push	r12
    584c:	df 92       	push	r13
    584e:	ef 92       	push	r14
    5850:	ff 92       	push	r15
    5852:	0f 93       	push	r16
    5854:	1f 93       	push	r17
    5856:	cf 93       	push	r28
    5858:	df 93       	push	r29
    585a:	6c 01       	movw	r12, r24
    585c:	7a 01       	movw	r14, r20
    585e:	8b 01       	movw	r16, r22
    5860:	c0 e0       	ldi	r28, 0x00	; 0
    5862:	d0 e0       	ldi	r29, 0x00	; 0
    5864:	ce 15       	cp	r28, r14
    5866:	df 05       	cpc	r29, r15
    5868:	89 f0       	breq	.+34     	; 0x588c <_ZN5Print5writeEPKhj+0x42>
    586a:	d8 01       	movw	r26, r16
    586c:	6d 91       	ld	r22, X+
    586e:	8d 01       	movw	r16, r26
    5870:	d6 01       	movw	r26, r12
    5872:	ed 91       	ld	r30, X+
    5874:	fc 91       	ld	r31, X
    5876:	01 90       	ld	r0, Z+
    5878:	f0 81       	ld	r31, Z
    587a:	e0 2d       	mov	r30, r0
    587c:	c6 01       	movw	r24, r12
    587e:	19 95       	eicall
    5880:	89 2b       	or	r24, r25
    5882:	11 f4       	brne	.+4      	; 0x5888 <_ZN5Print5writeEPKhj+0x3e>
    5884:	7e 01       	movw	r14, r28
    5886:	02 c0       	rjmp	.+4      	; 0x588c <_ZN5Print5writeEPKhj+0x42>
    5888:	21 96       	adiw	r28, 0x01	; 1
    588a:	ec cf       	rjmp	.-40     	; 0x5864 <_ZN5Print5writeEPKhj+0x1a>
    588c:	c7 01       	movw	r24, r14
    588e:	df 91       	pop	r29
    5890:	cf 91       	pop	r28
    5892:	1f 91       	pop	r17
    5894:	0f 91       	pop	r16
    5896:	ff 90       	pop	r15
    5898:	ef 90       	pop	r14
    589a:	df 90       	pop	r13
    589c:	cf 90       	pop	r12
    589e:	08 95       	ret

000058a0 <_ZN5Print5writeEPKc>:
    58a0:	61 15       	cp	r22, r1
    58a2:	71 05       	cpc	r23, r1
    58a4:	79 f0       	breq	.+30     	; 0x58c4 <_ZN5Print5writeEPKc+0x24>
    58a6:	fb 01       	movw	r30, r22
    58a8:	01 90       	ld	r0, Z+
    58aa:	00 20       	and	r0, r0
    58ac:	e9 f7       	brne	.-6      	; 0x58a8 <_ZN5Print5writeEPKc+0x8>
    58ae:	31 97       	sbiw	r30, 0x01	; 1
    58b0:	af 01       	movw	r20, r30
    58b2:	46 1b       	sub	r20, r22
    58b4:	57 0b       	sbc	r21, r23
    58b6:	dc 01       	movw	r26, r24
    58b8:	ed 91       	ld	r30, X+
    58ba:	fc 91       	ld	r31, X
    58bc:	02 80       	ldd	r0, Z+2	; 0x02
    58be:	f3 81       	ldd	r31, Z+3	; 0x03
    58c0:	e0 2d       	mov	r30, r0
    58c2:	19 94       	eijmp
    58c4:	80 e0       	ldi	r24, 0x00	; 0
    58c6:	90 e0       	ldi	r25, 0x00	; 0
    58c8:	08 95       	ret

000058ca <_ZN5Print5printERK6String>:
    58ca:	dc 01       	movw	r26, r24
    58cc:	ed 91       	ld	r30, X+
    58ce:	fc 91       	ld	r31, X
    58d0:	db 01       	movw	r26, r22
    58d2:	14 96       	adiw	r26, 0x04	; 4
    58d4:	4d 91       	ld	r20, X+
    58d6:	5c 91       	ld	r21, X
    58d8:	15 97       	sbiw	r26, 0x05	; 5
    58da:	6d 91       	ld	r22, X+
    58dc:	7c 91       	ld	r23, X
    58de:	02 80       	ldd	r0, Z+2	; 0x02
    58e0:	f3 81       	ldd	r31, Z+3	; 0x03
    58e2:	e0 2d       	mov	r30, r0
    58e4:	19 94       	eijmp

000058e6 <_ZN5Print5printEPKc>:
    58e6:	dc cf       	rjmp	.-72     	; 0x58a0 <_ZN5Print5writeEPKc>

000058e8 <_ZN5Print5printEc>:
    58e8:	dc 01       	movw	r26, r24
    58ea:	ed 91       	ld	r30, X+
    58ec:	fc 91       	ld	r31, X
    58ee:	01 90       	ld	r0, Z+
    58f0:	f0 81       	ld	r31, Z
    58f2:	e0 2d       	mov	r30, r0
    58f4:	19 94       	eijmp

000058f6 <_ZN5Print7printlnEv>:
    58f6:	6a e7       	ldi	r22, 0x7A	; 122
    58f8:	7c e0       	ldi	r23, 0x0C	; 12
    58fa:	d2 cf       	rjmp	.-92     	; 0x58a0 <_ZN5Print5writeEPKc>

000058fc <_ZN5Print7printlnEPKc>:
    58fc:	0f 93       	push	r16
    58fe:	1f 93       	push	r17
    5900:	cf 93       	push	r28
    5902:	df 93       	push	r29
    5904:	ec 01       	movw	r28, r24
    5906:	cc df       	rcall	.-104    	; 0x58a0 <_ZN5Print5writeEPKc>
    5908:	8c 01       	movw	r16, r24
    590a:	ce 01       	movw	r24, r28
    590c:	f4 df       	rcall	.-24     	; 0x58f6 <_ZN5Print7printlnEv>
    590e:	80 0f       	add	r24, r16
    5910:	91 1f       	adc	r25, r17
    5912:	df 91       	pop	r29
    5914:	cf 91       	pop	r28
    5916:	1f 91       	pop	r17
    5918:	0f 91       	pop	r16
    591a:	08 95       	ret

0000591c <_ZN5Print11printNumberEmh>:
    591c:	8f 92       	push	r8
    591e:	9f 92       	push	r9
    5920:	af 92       	push	r10
    5922:	bf 92       	push	r11
    5924:	cf 92       	push	r12
    5926:	df 92       	push	r13
    5928:	ef 92       	push	r14
    592a:	ff 92       	push	r15
    592c:	0f 93       	push	r16
    592e:	1f 93       	push	r17
    5930:	cf 93       	push	r28
    5932:	df 93       	push	r29
    5934:	cd b7       	in	r28, 0x3d	; 61
    5936:	de b7       	in	r29, 0x3e	; 62
    5938:	a1 97       	sbiw	r28, 0x21	; 33
    593a:	0f b6       	in	r0, 0x3f	; 63
    593c:	f8 94       	cli
    593e:	de bf       	out	0x3e, r29	; 62
    5940:	0f be       	out	0x3f, r0	; 63
    5942:	cd bf       	out	0x3d, r28	; 61
    5944:	7c 01       	movw	r14, r24
    5946:	d4 2e       	mov	r13, r20
    5948:	c5 2e       	mov	r12, r21
    594a:	db 01       	movw	r26, r22
    594c:	19 a2       	std	Y+33, r1	; 0x21
    594e:	22 30       	cpi	r18, 0x02	; 2
    5950:	08 f4       	brcc	.+2      	; 0x5954 <_ZN5Print11printNumberEmh+0x38>
    5952:	2a e0       	ldi	r18, 0x0A	; 10
    5954:	8e 01       	movw	r16, r28
    5956:	0f 5d       	subi	r16, 0xDF	; 223
    5958:	1f 4f       	sbci	r17, 0xFF	; 255
    595a:	82 2e       	mov	r8, r18
    595c:	91 2c       	mov	r9, r1
    595e:	a1 2c       	mov	r10, r1
    5960:	b1 2c       	mov	r11, r1
    5962:	6d 2d       	mov	r22, r13
    5964:	7c 2d       	mov	r23, r12
    5966:	cd 01       	movw	r24, r26
    5968:	a5 01       	movw	r20, r10
    596a:	94 01       	movw	r18, r8
    596c:	94 d6       	rcall	.+3368   	; 0x6696 <__udivmodsi4>
    596e:	d2 2e       	mov	r13, r18
    5970:	c3 2e       	mov	r12, r19
    5972:	da 01       	movw	r26, r20
    5974:	01 50       	subi	r16, 0x01	; 1
    5976:	11 09       	sbc	r17, r1
    5978:	6a 30       	cpi	r22, 0x0A	; 10
    597a:	71 05       	cpc	r23, r1
    597c:	81 05       	cpc	r24, r1
    597e:	91 05       	cpc	r25, r1
    5980:	10 f4       	brcc	.+4      	; 0x5986 <_ZN5Print11printNumberEmh+0x6a>
    5982:	60 5d       	subi	r22, 0xD0	; 208
    5984:	01 c0       	rjmp	.+2      	; 0x5988 <_ZN5Print11printNumberEmh+0x6c>
    5986:	69 5c       	subi	r22, 0xC9	; 201
    5988:	f8 01       	movw	r30, r16
    598a:	60 83       	st	Z, r22
    598c:	23 2b       	or	r18, r19
    598e:	24 2b       	or	r18, r20
    5990:	25 2b       	or	r18, r21
    5992:	39 f7       	brne	.-50     	; 0x5962 <_ZN5Print11printNumberEmh+0x46>
    5994:	b8 01       	movw	r22, r16
    5996:	c7 01       	movw	r24, r14
    5998:	83 df       	rcall	.-250    	; 0x58a0 <_ZN5Print5writeEPKc>
    599a:	a1 96       	adiw	r28, 0x21	; 33
    599c:	0f b6       	in	r0, 0x3f	; 63
    599e:	f8 94       	cli
    59a0:	de bf       	out	0x3e, r29	; 62
    59a2:	0f be       	out	0x3f, r0	; 63
    59a4:	cd bf       	out	0x3d, r28	; 61
    59a6:	df 91       	pop	r29
    59a8:	cf 91       	pop	r28
    59aa:	1f 91       	pop	r17
    59ac:	0f 91       	pop	r16
    59ae:	ff 90       	pop	r15
    59b0:	ef 90       	pop	r14
    59b2:	df 90       	pop	r13
    59b4:	cf 90       	pop	r12
    59b6:	bf 90       	pop	r11
    59b8:	af 90       	pop	r10
    59ba:	9f 90       	pop	r9
    59bc:	8f 90       	pop	r8
    59be:	08 95       	ret

000059c0 <_ZN5Print5printEli>:
    59c0:	cf 92       	push	r12
    59c2:	df 92       	push	r13
    59c4:	ef 92       	push	r14
    59c6:	ff 92       	push	r15
    59c8:	0f 93       	push	r16
    59ca:	1f 93       	push	r17
    59cc:	cf 93       	push	r28
    59ce:	df 93       	push	r29
    59d0:	ec 01       	movw	r28, r24
    59d2:	6a 01       	movw	r12, r20
    59d4:	7b 01       	movw	r14, r22
    59d6:	21 15       	cp	r18, r1
    59d8:	31 05       	cpc	r19, r1
    59da:	79 f4       	brne	.+30     	; 0x59fa <_ZN5Print5printEli+0x3a>
    59dc:	e8 81       	ld	r30, Y
    59de:	f9 81       	ldd	r31, Y+1	; 0x01
    59e0:	01 90       	ld	r0, Z+
    59e2:	f0 81       	ld	r31, Z
    59e4:	e0 2d       	mov	r30, r0
    59e6:	64 2f       	mov	r22, r20
    59e8:	df 91       	pop	r29
    59ea:	cf 91       	pop	r28
    59ec:	1f 91       	pop	r17
    59ee:	0f 91       	pop	r16
    59f0:	ff 90       	pop	r15
    59f2:	ef 90       	pop	r14
    59f4:	df 90       	pop	r13
    59f6:	cf 90       	pop	r12
    59f8:	19 94       	eijmp
    59fa:	2a 30       	cpi	r18, 0x0A	; 10
    59fc:	31 05       	cpc	r19, r1
    59fe:	d9 f4       	brne	.+54     	; 0x5a36 <_ZN5Print5printEli+0x76>
    5a00:	77 ff       	sbrs	r23, 7
    5a02:	18 c0       	rjmp	.+48     	; 0x5a34 <_ZN5Print5printEli+0x74>
    5a04:	6d e2       	ldi	r22, 0x2D	; 45
    5a06:	70 df       	rcall	.-288    	; 0x58e8 <_ZN5Print5printEc>
    5a08:	8c 01       	movw	r16, r24
    5a0a:	44 27       	eor	r20, r20
    5a0c:	55 27       	eor	r21, r21
    5a0e:	ba 01       	movw	r22, r20
    5a10:	4c 19       	sub	r20, r12
    5a12:	5d 09       	sbc	r21, r13
    5a14:	6e 09       	sbc	r22, r14
    5a16:	7f 09       	sbc	r23, r15
    5a18:	2a e0       	ldi	r18, 0x0A	; 10
    5a1a:	ce 01       	movw	r24, r28
    5a1c:	7f df       	rcall	.-258    	; 0x591c <_ZN5Print11printNumberEmh>
    5a1e:	80 0f       	add	r24, r16
    5a20:	91 1f       	adc	r25, r17
    5a22:	df 91       	pop	r29
    5a24:	cf 91       	pop	r28
    5a26:	1f 91       	pop	r17
    5a28:	0f 91       	pop	r16
    5a2a:	ff 90       	pop	r15
    5a2c:	ef 90       	pop	r14
    5a2e:	df 90       	pop	r13
    5a30:	cf 90       	pop	r12
    5a32:	08 95       	ret
    5a34:	2a e0       	ldi	r18, 0x0A	; 10
    5a36:	b7 01       	movw	r22, r14
    5a38:	a6 01       	movw	r20, r12
    5a3a:	ce 01       	movw	r24, r28
    5a3c:	df 91       	pop	r29
    5a3e:	cf 91       	pop	r28
    5a40:	1f 91       	pop	r17
    5a42:	0f 91       	pop	r16
    5a44:	ff 90       	pop	r15
    5a46:	ef 90       	pop	r14
    5a48:	df 90       	pop	r13
    5a4a:	cf 90       	pop	r12
    5a4c:	67 cf       	rjmp	.-306    	; 0x591c <_ZN5Print11printNumberEmh>

00005a4e <_ZN5Print5printEii>:
    5a4e:	9a 01       	movw	r18, r20
    5a50:	ab 01       	movw	r20, r22
    5a52:	77 0f       	add	r23, r23
    5a54:	66 0b       	sbc	r22, r22
    5a56:	77 0b       	sbc	r23, r23
    5a58:	b3 cf       	rjmp	.-154    	; 0x59c0 <_ZN5Print5printEli>

00005a5a <_ZN5Print7printlnEii>:
    5a5a:	0f 93       	push	r16
    5a5c:	1f 93       	push	r17
    5a5e:	cf 93       	push	r28
    5a60:	df 93       	push	r29
    5a62:	ec 01       	movw	r28, r24
    5a64:	9a 01       	movw	r18, r20
    5a66:	ab 01       	movw	r20, r22
    5a68:	77 0f       	add	r23, r23
    5a6a:	66 0b       	sbc	r22, r22
    5a6c:	77 0b       	sbc	r23, r23
    5a6e:	a8 df       	rcall	.-176    	; 0x59c0 <_ZN5Print5printEli>
    5a70:	8c 01       	movw	r16, r24
    5a72:	ce 01       	movw	r24, r28
    5a74:	40 df       	rcall	.-384    	; 0x58f6 <_ZN5Print7printlnEv>
    5a76:	80 0f       	add	r24, r16
    5a78:	91 1f       	adc	r25, r17
    5a7a:	df 91       	pop	r29
    5a7c:	cf 91       	pop	r28
    5a7e:	1f 91       	pop	r17
    5a80:	0f 91       	pop	r16
    5a82:	08 95       	ret

00005a84 <_ZN5Print5printEmi>:
    5a84:	21 15       	cp	r18, r1
    5a86:	31 05       	cpc	r19, r1
    5a88:	41 f4       	brne	.+16     	; 0x5a9a <_ZN5Print5printEmi+0x16>
    5a8a:	dc 01       	movw	r26, r24
    5a8c:	ed 91       	ld	r30, X+
    5a8e:	fc 91       	ld	r31, X
    5a90:	01 90       	ld	r0, Z+
    5a92:	f0 81       	ld	r31, Z
    5a94:	e0 2d       	mov	r30, r0
    5a96:	64 2f       	mov	r22, r20
    5a98:	19 94       	eijmp
    5a9a:	40 cf       	rjmp	.-384    	; 0x591c <_ZN5Print11printNumberEmh>

00005a9c <_ZN5Print7printlnEhi>:
    5a9c:	0f 93       	push	r16
    5a9e:	1f 93       	push	r17
    5aa0:	cf 93       	push	r28
    5aa2:	df 93       	push	r29
    5aa4:	ec 01       	movw	r28, r24
    5aa6:	9a 01       	movw	r18, r20
    5aa8:	46 2f       	mov	r20, r22
    5aaa:	50 e0       	ldi	r21, 0x00	; 0
    5aac:	60 e0       	ldi	r22, 0x00	; 0
    5aae:	70 e0       	ldi	r23, 0x00	; 0
    5ab0:	e9 df       	rcall	.-46     	; 0x5a84 <_ZN5Print5printEmi>
    5ab2:	8c 01       	movw	r16, r24
    5ab4:	ce 01       	movw	r24, r28
    5ab6:	1f df       	rcall	.-450    	; 0x58f6 <_ZN5Print7printlnEv>
    5ab8:	80 0f       	add	r24, r16
    5aba:	91 1f       	adc	r25, r17
    5abc:	df 91       	pop	r29
    5abe:	cf 91       	pop	r28
    5ac0:	1f 91       	pop	r17
    5ac2:	0f 91       	pop	r16
    5ac4:	08 95       	ret

00005ac6 <_ZN5Print10printFloatEdh>:

  return write(str);
}

size_t Print::printFloat(double number, uint8_t digits) 
{ 
    5ac6:	4f 92       	push	r4
    5ac8:	5f 92       	push	r5
    5aca:	6f 92       	push	r6
    5acc:	7f 92       	push	r7
    5ace:	8f 92       	push	r8
    5ad0:	9f 92       	push	r9
    5ad2:	af 92       	push	r10
    5ad4:	bf 92       	push	r11
    5ad6:	cf 92       	push	r12
    5ad8:	df 92       	push	r13
    5ada:	ef 92       	push	r14
    5adc:	ff 92       	push	r15
    5ade:	cf 93       	push	r28
    5ae0:	df 93       	push	r29
    5ae2:	ec 01       	movw	r28, r24
    5ae4:	6a 01       	movw	r12, r20
    5ae6:	7b 01       	movw	r14, r22
    5ae8:	b2 2e       	mov	r11, r18
  size_t n = 0;
  
  if (isnan(number)) return print("nan");
    5aea:	9a 01       	movw	r18, r20
    5aec:	ab 01       	movw	r20, r22
    5aee:	c7 01       	movw	r24, r14
    5af0:	b6 01       	movw	r22, r12
    5af2:	bd d5       	rcall	.+2938   	; 0x666e <__unordsf2>
    5af4:	88 23       	and	r24, r24
    5af6:	19 f0       	breq	.+6      	; 0x5afe <_ZN5Print10printFloatEdh+0x38>
  return write(s.c_str(), s.length());
}

size_t Print::print(const char str[])
{
  return write(str);
    5af8:	6d e7       	ldi	r22, 0x7D	; 125
    5afa:	7c e0       	ldi	r23, 0x0C	; 12
    5afc:	24 c0       	rjmp	.+72     	; 0x5b46 <_ZN5Print10printFloatEdh+0x80>
size_t Print::printFloat(double number, uint8_t digits) 
{ 
  size_t n = 0;
  
  if (isnan(number)) return print("nan");
  if (isinf(number)) return print("inf");
    5afe:	26 01       	movw	r4, r12
    5b00:	37 01       	movw	r6, r14
    5b02:	e8 94       	clt
    5b04:	77 f8       	bld	r7, 7
    5b06:	2f ef       	ldi	r18, 0xFF	; 255
    5b08:	3f ef       	ldi	r19, 0xFF	; 255
    5b0a:	4f e7       	ldi	r20, 0x7F	; 127
    5b0c:	5f e7       	ldi	r21, 0x7F	; 127
    5b0e:	c3 01       	movw	r24, r6
    5b10:	b2 01       	movw	r22, r4
    5b12:	ad d5       	rcall	.+2906   	; 0x666e <__unordsf2>
    5b14:	81 11       	cpse	r24, r1
    5b16:	0c c0       	rjmp	.+24     	; 0x5b30 <_ZN5Print10printFloatEdh+0x6a>
    5b18:	2f ef       	ldi	r18, 0xFF	; 255
    5b1a:	3f ef       	ldi	r19, 0xFF	; 255
    5b1c:	4f e7       	ldi	r20, 0x7F	; 127
    5b1e:	5f e7       	ldi	r21, 0x7F	; 127
    5b20:	c3 01       	movw	r24, r6
    5b22:	b2 01       	movw	r22, r4
    5b24:	38 d8       	rcall	.-3984   	; 0x4b96 <__cmpsf2>
    5b26:	18 16       	cp	r1, r24
    5b28:	1c f4       	brge	.+6      	; 0x5b30 <_ZN5Print10printFloatEdh+0x6a>
  return write(s.c_str(), s.length());
}

size_t Print::print(const char str[])
{
  return write(str);
    5b2a:	61 e8       	ldi	r22, 0x81	; 129
    5b2c:	7c e0       	ldi	r23, 0x0C	; 12
    5b2e:	0b c0       	rjmp	.+22     	; 0x5b46 <_ZN5Print10printFloatEdh+0x80>
{ 
  size_t n = 0;
  
  if (isnan(number)) return print("nan");
  if (isinf(number)) return print("inf");
  if (number > 4294967040.0) return print ("ovf");  // constant determined empirically
    5b30:	2f ef       	ldi	r18, 0xFF	; 255
    5b32:	3f ef       	ldi	r19, 0xFF	; 255
    5b34:	4f e7       	ldi	r20, 0x7F	; 127
    5b36:	5f e4       	ldi	r21, 0x4F	; 79
    5b38:	c7 01       	movw	r24, r14
    5b3a:	b6 01       	movw	r22, r12
    5b3c:	13 da       	rcall	.-3034   	; 0x4f64 <__gesf2>
    5b3e:	18 16       	cp	r1, r24
    5b40:	94 f4       	brge	.+36     	; 0x5b66 <_ZN5Print10printFloatEdh+0xa0>
  return write(s.c_str(), s.length());
}

size_t Print::print(const char str[])
{
  return write(str);
    5b42:	65 e8       	ldi	r22, 0x85	; 133
    5b44:	7c e0       	ldi	r23, 0x0C	; 12
    5b46:	ce 01       	movw	r24, r28
    n += print(toPrint);
    remainder -= toPrint; 
  } 
  
  return n;
}
    5b48:	df 91       	pop	r29
    5b4a:	cf 91       	pop	r28
    5b4c:	ff 90       	pop	r15
    5b4e:	ef 90       	pop	r14
    5b50:	df 90       	pop	r13
    5b52:	cf 90       	pop	r12
    5b54:	bf 90       	pop	r11
    5b56:	af 90       	pop	r10
    5b58:	9f 90       	pop	r9
    5b5a:	8f 90       	pop	r8
    5b5c:	7f 90       	pop	r7
    5b5e:	6f 90       	pop	r6
    5b60:	5f 90       	pop	r5
    5b62:	4f 90       	pop	r4
  return write(s.c_str(), s.length());
}

size_t Print::print(const char str[])
{
  return write(str);
    5b64:	9d ce       	rjmp	.-710    	; 0x58a0 <_ZN5Print5writeEPKc>
  size_t n = 0;
  
  if (isnan(number)) return print("nan");
  if (isinf(number)) return print("inf");
  if (number > 4294967040.0) return print ("ovf");  // constant determined empirically
  if (number <-4294967040.0) return print ("ovf");  // constant determined empirically
    5b66:	2f ef       	ldi	r18, 0xFF	; 255
    5b68:	3f ef       	ldi	r19, 0xFF	; 255
    5b6a:	4f e7       	ldi	r20, 0x7F	; 127
    5b6c:	5f ec       	ldi	r21, 0xCF	; 207
    5b6e:	c7 01       	movw	r24, r14
    5b70:	b6 01       	movw	r22, r12
    5b72:	11 d8       	rcall	.-4062   	; 0x4b96 <__cmpsf2>
    5b74:	87 fd       	sbrc	r24, 7
    5b76:	e5 cf       	rjmp	.-54     	; 0x5b42 <_ZN5Print10printFloatEdh+0x7c>
  
  // Handle negative numbers
  if (number < 0.0)
    5b78:	20 e0       	ldi	r18, 0x00	; 0
    5b7a:	30 e0       	ldi	r19, 0x00	; 0
    5b7c:	a9 01       	movw	r20, r18
    5b7e:	c7 01       	movw	r24, r14
    5b80:	b6 01       	movw	r22, r12
    5b82:	09 d8       	rcall	.-4078   	; 0x4b96 <__cmpsf2>
    5b84:	87 ff       	sbrs	r24, 7
    5b86:	09 c0       	rjmp	.+18     	; 0x5b9a <_ZN5Print10printFloatEdh+0xd4>
  {
     n += print('-');
    5b88:	6d e2       	ldi	r22, 0x2D	; 45
    5b8a:	ce 01       	movw	r24, r28
    5b8c:	ad de       	rcall	.-678    	; 0x58e8 <_ZN5Print5printEc>
    5b8e:	4c 01       	movw	r8, r24
     number = -number;
    5b90:	f7 fa       	bst	r15, 7
    5b92:	f0 94       	com	r15
    5b94:	f7 f8       	bld	r15, 7
    5b96:	f0 94       	com	r15
    5b98:	02 c0       	rjmp	.+4      	; 0x5b9e <_ZN5Print10printFloatEdh+0xd8>
  return write(str);
}

size_t Print::printFloat(double number, uint8_t digits) 
{ 
  size_t n = 0;
    5b9a:	81 2c       	mov	r8, r1
    5b9c:	91 2c       	mov	r9, r1
     number = -number;
  }

  // Round correctly so that print(1.999, 2) prints as "2.00"
  double rounding = 0.5;
  for (uint8_t i=0; i<digits; ++i)
    5b9e:	a1 2c       	mov	r10, r1
     n += print('-');
     number = -number;
  }

  // Round correctly so that print(1.999, 2) prints as "2.00"
  double rounding = 0.5;
    5ba0:	60 e0       	ldi	r22, 0x00	; 0
    5ba2:	70 e0       	ldi	r23, 0x00	; 0
    5ba4:	80 e0       	ldi	r24, 0x00	; 0
    5ba6:	9f e3       	ldi	r25, 0x3F	; 63
  for (uint8_t i=0; i<digits; ++i)
    5ba8:	ab 14       	cp	r10, r11
    5baa:	41 f0       	breq	.+16     	; 0x5bbc <_ZN5Print10printFloatEdh+0xf6>
    rounding /= 10.0;
    5bac:	20 e0       	ldi	r18, 0x00	; 0
    5bae:	30 e0       	ldi	r19, 0x00	; 0
    5bb0:	40 e2       	ldi	r20, 0x20	; 32
    5bb2:	51 e4       	ldi	r21, 0x41	; 65
    5bb4:	0e 94 d2 25 	call	0x4ba4	; 0x4ba4 <__divsf3>
     number = -number;
  }

  // Round correctly so that print(1.999, 2) prints as "2.00"
  double rounding = 0.5;
  for (uint8_t i=0; i<digits; ++i)
    5bb8:	a3 94       	inc	r10
    5bba:	f6 cf       	rjmp	.-20     	; 0x5ba8 <_ZN5Print10printFloatEdh+0xe2>
    rounding /= 10.0;
  
  number += rounding;
    5bbc:	9b 01       	movw	r18, r22
    5bbe:	ac 01       	movw	r20, r24
    5bc0:	c7 01       	movw	r24, r14
    5bc2:	b6 01       	movw	r22, r12
    5bc4:	0e 94 67 25 	call	0x4ace	; 0x4ace <__addsf3>
    5bc8:	2b 01       	movw	r4, r22
    5bca:	3c 01       	movw	r6, r24

  // Extract the integer part of the number and print it
  unsigned long int_part = (unsigned long)number;
    5bcc:	58 d8       	rcall	.-3920   	; 0x4c7e <__fixunssfsi>
    5bce:	6b 01       	movw	r12, r22
    5bd0:	7c 01       	movw	r14, r24
  double remainder = number - (double)int_part;
    5bd2:	81 d8       	rcall	.-3838   	; 0x4cd6 <__floatunsisf>
    5bd4:	9b 01       	movw	r18, r22
    5bd6:	ac 01       	movw	r20, r24
    5bd8:	c3 01       	movw	r24, r6
    5bda:	b2 01       	movw	r22, r4
    5bdc:	0e 94 66 25 	call	0x4acc	; 0x4acc <__subsf3>
    5be0:	2b 01       	movw	r4, r22
    5be2:	3c 01       	movw	r6, r24
}

size_t Print::print(unsigned long n, int base)
{
  if (base == 0) return write(n);
  else return printNumber(n, base);
    5be4:	2a e0       	ldi	r18, 0x0A	; 10
    5be6:	b7 01       	movw	r22, r14
    5be8:	a6 01       	movw	r20, r12
    5bea:	ce 01       	movw	r24, r28
    5bec:	97 de       	rcall	.-722    	; 0x591c <_ZN5Print11printNumberEmh>
  number += rounding;

  // Extract the integer part of the number and print it
  unsigned long int_part = (unsigned long)number;
  double remainder = number - (double)int_part;
  n += print(int_part);
    5bee:	7c 01       	movw	r14, r24
    5bf0:	e8 0c       	add	r14, r8
    5bf2:	f9 1c       	adc	r15, r9

  // Print the decimal point, but only if there are digits beyond
  if (digits > 0) {
    5bf4:	bb 20       	and	r11, r11
    5bf6:	29 f0       	breq	.+10     	; 0x5c02 <_ZN5Print10printFloatEdh+0x13c>
    n += print('.'); 
    5bf8:	6e e2       	ldi	r22, 0x2E	; 46
    5bfa:	ce 01       	movw	r24, r28
    5bfc:	75 de       	rcall	.-790    	; 0x58e8 <_ZN5Print5printEc>
    5bfe:	e8 0e       	add	r14, r24
    5c00:	f9 1e       	adc	r15, r25
     n += print('-');
     number = -number;
  }

  // Round correctly so that print(1.999, 2) prints as "2.00"
  double rounding = 0.5;
    5c02:	db 2c       	mov	r13, r11
  if (digits > 0) {
    n += print('.'); 
  }

  // Extract digits from the remainder one at a time
  while (digits-- > 0)
    5c04:	dd 20       	and	r13, r13
    5c06:	09 f1       	breq	.+66     	; 0x5c4a <_ZN5Print10printFloatEdh+0x184>
  {
    remainder *= 10.0;
    5c08:	20 e0       	ldi	r18, 0x00	; 0
    5c0a:	30 e0       	ldi	r19, 0x00	; 0
    5c0c:	40 e2       	ldi	r20, 0x20	; 32
    5c0e:	51 e4       	ldi	r21, 0x41	; 65
    5c10:	c3 01       	movw	r24, r6
    5c12:	b2 01       	movw	r22, r4
    5c14:	ab d9       	rcall	.-3242   	; 0x4f6c <__mulsf3>
    5c16:	2b 01       	movw	r4, r22
    5c18:	3c 01       	movw	r6, r24
    unsigned int toPrint = (unsigned int)(remainder);
    5c1a:	31 d8       	rcall	.-3998   	; 0x4c7e <__fixunssfsi>
  return print((long) n, base);
}

size_t Print::print(unsigned int n, int base)
{
  return print((unsigned long) n, base);
    5c1c:	4b 01       	movw	r8, r22
    5c1e:	a1 2c       	mov	r10, r1
    5c20:	b1 2c       	mov	r11, r1
}

size_t Print::print(unsigned long n, int base)
{
  if (base == 0) return write(n);
  else return printNumber(n, base);
    5c22:	2a e0       	ldi	r18, 0x0A	; 10
    5c24:	b5 01       	movw	r22, r10
    5c26:	a4 01       	movw	r20, r8
    5c28:	ce 01       	movw	r24, r28
    5c2a:	78 de       	rcall	.-784    	; 0x591c <_ZN5Print11printNumberEmh>
  // Extract digits from the remainder one at a time
  while (digits-- > 0)
  {
    remainder *= 10.0;
    unsigned int toPrint = (unsigned int)(remainder);
    n += print(toPrint);
    5c2c:	e8 0e       	add	r14, r24
    5c2e:	f9 1e       	adc	r15, r25
    remainder -= toPrint; 
    5c30:	c5 01       	movw	r24, r10
    5c32:	b4 01       	movw	r22, r8
    5c34:	50 d8       	rcall	.-3936   	; 0x4cd6 <__floatunsisf>
    5c36:	9b 01       	movw	r18, r22
    5c38:	ac 01       	movw	r20, r24
    5c3a:	c3 01       	movw	r24, r6
    5c3c:	b2 01       	movw	r22, r4
    5c3e:	0e 94 66 25 	call	0x4acc	; 0x4acc <__subsf3>
    5c42:	2b 01       	movw	r4, r22
    5c44:	3c 01       	movw	r6, r24
    5c46:	da 94       	dec	r13
    5c48:	dd cf       	rjmp	.-70     	; 0x5c04 <_ZN5Print10printFloatEdh+0x13e>
  } 
  
  return n;
}
    5c4a:	c7 01       	movw	r24, r14
    5c4c:	df 91       	pop	r29
    5c4e:	cf 91       	pop	r28
    5c50:	ff 90       	pop	r15
    5c52:	ef 90       	pop	r14
    5c54:	df 90       	pop	r13
    5c56:	cf 90       	pop	r12
    5c58:	bf 90       	pop	r11
    5c5a:	af 90       	pop	r10
    5c5c:	9f 90       	pop	r9
    5c5e:	8f 90       	pop	r8
    5c60:	7f 90       	pop	r7
    5c62:	6f 90       	pop	r6
    5c64:	5f 90       	pop	r5
    5c66:	4f 90       	pop	r4
    5c68:	08 95       	ret

00005c6a <_ZN5Print5printEdi>:
  else return printNumber(n, base);
}

size_t Print::print(double n, int digits)
{
  return printFloat(n, digits);
    5c6a:	2d cf       	rjmp	.-422    	; 0x5ac6 <_ZN5Print10printFloatEdh>

00005c6c <_ZN5Print7printlnEdi>:
  n += println();
  return n;
}

size_t Print::println(double num, int digits)
{
    5c6c:	0f 93       	push	r16
    5c6e:	1f 93       	push	r17
    5c70:	cf 93       	push	r28
    5c72:	df 93       	push	r29
    5c74:	ec 01       	movw	r28, r24
  else return printNumber(n, base);
}

size_t Print::print(double n, int digits)
{
  return printFloat(n, digits);
    5c76:	27 df       	rcall	.-434    	; 0x5ac6 <_ZN5Print10printFloatEdh>
    5c78:	8c 01       	movw	r16, r24
}

size_t Print::println(double num, int digits)
{
  size_t n = print(num, digits);
  n += println();
    5c7a:	ce 01       	movw	r24, r28
    5c7c:	3c de       	rcall	.-904    	; 0x58f6 <_ZN5Print7printlnEv>
  return n;
}
    5c7e:	80 0f       	add	r24, r16
    5c80:	91 1f       	adc	r25, r17
    5c82:	df 91       	pop	r29
    5c84:	cf 91       	pop	r28
    5c86:	1f 91       	pop	r17
    5c88:	0f 91       	pop	r16
    5c8a:	08 95       	ret

00005c8c <nothing>:
    #endif
      break;       
#endif
    }
      
    intFunc[interruptNum] = nothing;
    5c8c:	08 95       	ret

00005c8e <attachInterrupt>:
    5c8e:	88 30       	cpi	r24, 0x08	; 8
    5c90:	08 f0       	brcs	.+2      	; 0x5c94 <attachInterrupt+0x6>
    5c92:	6f c0       	rjmp	.+222    	; 0x5d72 <attachInterrupt+0xe4>
    5c94:	a8 2f       	mov	r26, r24
    5c96:	b0 e0       	ldi	r27, 0x00	; 0
    5c98:	aa 0f       	add	r26, r26
    5c9a:	bb 1f       	adc	r27, r27
    5c9c:	a3 5c       	subi	r26, 0xC3	; 195
    5c9e:	b9 4f       	sbci	r27, 0xF9	; 249
    5ca0:	11 96       	adiw	r26, 0x01	; 1
    5ca2:	7c 93       	st	X, r23
    5ca4:	6e 93       	st	-X, r22
    5ca6:	90 e0       	ldi	r25, 0x00	; 0
    5ca8:	fc 01       	movw	r30, r24
    5caa:	31 97       	sbiw	r30, 0x01	; 1
    5cac:	e7 30       	cpi	r30, 0x07	; 7
    5cae:	f1 05       	cpc	r31, r1
    5cb0:	98 f5       	brcc	.+102    	; 0x5d18 <attachInterrupt+0x8a>
    5cb2:	88 27       	eor	r24, r24
    5cb4:	ee 53       	subi	r30, 0x3E	; 62
    5cb6:	ff 4f       	sbci	r31, 0xFF	; 255
    5cb8:	8f 4f       	sbci	r24, 0xFF	; 255
    5cba:	2b c5       	rjmp	.+2646   	; 0x6712 <__tablejump2__>
    5cbc:	80 91 69 00 	lds	r24, 0x0069	; 0x800069 <__TEXT_REGION_LENGTH__+0x700069>
    5cc0:	8c 7f       	andi	r24, 0xFC	; 252
    5cc2:	48 2b       	or	r20, r24
    5cc4:	40 93 69 00 	sts	0x0069, r20	; 0x800069 <__TEXT_REGION_LENGTH__+0x700069>
    5cc8:	e8 9a       	sbi	0x1d, 0	; 29
    5cca:	08 95       	ret
    5ccc:	80 91 69 00 	lds	r24, 0x0069	; 0x800069 <__TEXT_REGION_LENGTH__+0x700069>
    5cd0:	44 0f       	add	r20, r20
    5cd2:	55 1f       	adc	r21, r21
    5cd4:	44 0f       	add	r20, r20
    5cd6:	55 1f       	adc	r21, r21
    5cd8:	83 7f       	andi	r24, 0xF3	; 243
    5cda:	48 2b       	or	r20, r24
    5cdc:	40 93 69 00 	sts	0x0069, r20	; 0x800069 <__TEXT_REGION_LENGTH__+0x700069>
    5ce0:	e9 9a       	sbi	0x1d, 1	; 29
    5ce2:	08 95       	ret
    5ce4:	80 91 69 00 	lds	r24, 0x0069	; 0x800069 <__TEXT_REGION_LENGTH__+0x700069>
    5ce8:	74 e0       	ldi	r23, 0x04	; 4
    5cea:	44 0f       	add	r20, r20
    5cec:	55 1f       	adc	r21, r21
    5cee:	7a 95       	dec	r23
    5cf0:	e1 f7       	brne	.-8      	; 0x5cea <attachInterrupt+0x5c>
    5cf2:	8f 7c       	andi	r24, 0xCF	; 207
    5cf4:	48 2b       	or	r20, r24
    5cf6:	40 93 69 00 	sts	0x0069, r20	; 0x800069 <__TEXT_REGION_LENGTH__+0x700069>
    5cfa:	ea 9a       	sbi	0x1d, 2	; 29
    5cfc:	08 95       	ret
    5cfe:	80 91 69 00 	lds	r24, 0x0069	; 0x800069 <__TEXT_REGION_LENGTH__+0x700069>
    5d02:	66 e0       	ldi	r22, 0x06	; 6
    5d04:	44 0f       	add	r20, r20
    5d06:	55 1f       	adc	r21, r21
    5d08:	6a 95       	dec	r22
    5d0a:	e1 f7       	brne	.-8      	; 0x5d04 <attachInterrupt+0x76>
    5d0c:	8f 73       	andi	r24, 0x3F	; 63
    5d0e:	48 2b       	or	r20, r24
    5d10:	40 93 69 00 	sts	0x0069, r20	; 0x800069 <__TEXT_REGION_LENGTH__+0x700069>
    5d14:	eb 9a       	sbi	0x1d, 3	; 29
    5d16:	08 95       	ret
    5d18:	80 91 6a 00 	lds	r24, 0x006A	; 0x80006a <__TEXT_REGION_LENGTH__+0x70006a>
    5d1c:	8c 7f       	andi	r24, 0xFC	; 252
    5d1e:	48 2b       	or	r20, r24
    5d20:	40 93 6a 00 	sts	0x006A, r20	; 0x80006a <__TEXT_REGION_LENGTH__+0x70006a>
    5d24:	ec 9a       	sbi	0x1d, 4	; 29
    5d26:	08 95       	ret
    5d28:	80 91 6a 00 	lds	r24, 0x006A	; 0x80006a <__TEXT_REGION_LENGTH__+0x70006a>
    5d2c:	44 0f       	add	r20, r20
    5d2e:	55 1f       	adc	r21, r21
    5d30:	44 0f       	add	r20, r20
    5d32:	55 1f       	adc	r21, r21
    5d34:	83 7f       	andi	r24, 0xF3	; 243
    5d36:	48 2b       	or	r20, r24
    5d38:	40 93 6a 00 	sts	0x006A, r20	; 0x80006a <__TEXT_REGION_LENGTH__+0x70006a>
    5d3c:	ed 9a       	sbi	0x1d, 5	; 29
    5d3e:	08 95       	ret
    5d40:	80 91 6a 00 	lds	r24, 0x006A	; 0x80006a <__TEXT_REGION_LENGTH__+0x70006a>
    5d44:	24 e0       	ldi	r18, 0x04	; 4
    5d46:	44 0f       	add	r20, r20
    5d48:	55 1f       	adc	r21, r21
    5d4a:	2a 95       	dec	r18
    5d4c:	e1 f7       	brne	.-8      	; 0x5d46 <attachInterrupt+0xb8>
    5d4e:	8f 7c       	andi	r24, 0xCF	; 207
    5d50:	48 2b       	or	r20, r24
    5d52:	40 93 6a 00 	sts	0x006A, r20	; 0x80006a <__TEXT_REGION_LENGTH__+0x70006a>
    5d56:	ee 9a       	sbi	0x1d, 6	; 29
    5d58:	08 95       	ret
    5d5a:	80 91 6a 00 	lds	r24, 0x006A	; 0x80006a <__TEXT_REGION_LENGTH__+0x70006a>
    5d5e:	96 e0       	ldi	r25, 0x06	; 6
    5d60:	44 0f       	add	r20, r20
    5d62:	55 1f       	adc	r21, r21
    5d64:	9a 95       	dec	r25
    5d66:	e1 f7       	brne	.-8      	; 0x5d60 <attachInterrupt+0xd2>
    5d68:	8f 73       	andi	r24, 0x3F	; 63
    5d6a:	48 2b       	or	r20, r24
    5d6c:	40 93 6a 00 	sts	0x006A, r20	; 0x80006a <__TEXT_REGION_LENGTH__+0x70006a>
    5d70:	ef 9a       	sbi	0x1d, 7	; 29
    5d72:	08 95       	ret

00005d74 <__vector_1>:
IMPLEMENT_ISR(INT3_vect, EXTERNAL_INT_3)
IMPLEMENT_ISR(INT6_vect, EXTERNAL_INT_4)

#elif defined(EICRA) && defined(EICRB)

IMPLEMENT_ISR(INT0_vect, EXTERNAL_INT_2)
    5d74:	1f 92       	push	r1
    5d76:	0f 92       	push	r0
    5d78:	0f b6       	in	r0, 0x3f	; 63
    5d7a:	0f 92       	push	r0
    5d7c:	11 24       	eor	r1, r1
    5d7e:	0b b6       	in	r0, 0x3b	; 59
    5d80:	0f 92       	push	r0
    5d82:	2f 93       	push	r18
    5d84:	3f 93       	push	r19
    5d86:	4f 93       	push	r20
    5d88:	5f 93       	push	r21
    5d8a:	6f 93       	push	r22
    5d8c:	7f 93       	push	r23
    5d8e:	8f 93       	push	r24
    5d90:	9f 93       	push	r25
    5d92:	af 93       	push	r26
    5d94:	bf 93       	push	r27
    5d96:	ef 93       	push	r30
    5d98:	ff 93       	push	r31
    5d9a:	e0 91 41 06 	lds	r30, 0x0641	; 0x800641 <intFunc+0x4>
    5d9e:	f0 91 42 06 	lds	r31, 0x0642	; 0x800642 <intFunc+0x5>
    5da2:	19 95       	eicall
    5da4:	ff 91       	pop	r31
    5da6:	ef 91       	pop	r30
    5da8:	bf 91       	pop	r27
    5daa:	af 91       	pop	r26
    5dac:	9f 91       	pop	r25
    5dae:	8f 91       	pop	r24
    5db0:	7f 91       	pop	r23
    5db2:	6f 91       	pop	r22
    5db4:	5f 91       	pop	r21
    5db6:	4f 91       	pop	r20
    5db8:	3f 91       	pop	r19
    5dba:	2f 91       	pop	r18
    5dbc:	0f 90       	pop	r0
    5dbe:	0b be       	out	0x3b, r0	; 59
    5dc0:	0f 90       	pop	r0
    5dc2:	0f be       	out	0x3f, r0	; 63
    5dc4:	0f 90       	pop	r0
    5dc6:	1f 90       	pop	r1
    5dc8:	18 95       	reti

00005dca <__vector_2>:
IMPLEMENT_ISR(INT1_vect, EXTERNAL_INT_3)
    5dca:	1f 92       	push	r1
    5dcc:	0f 92       	push	r0
    5dce:	0f b6       	in	r0, 0x3f	; 63
    5dd0:	0f 92       	push	r0
    5dd2:	11 24       	eor	r1, r1
    5dd4:	0b b6       	in	r0, 0x3b	; 59
    5dd6:	0f 92       	push	r0
    5dd8:	2f 93       	push	r18
    5dda:	3f 93       	push	r19
    5ddc:	4f 93       	push	r20
    5dde:	5f 93       	push	r21
    5de0:	6f 93       	push	r22
    5de2:	7f 93       	push	r23
    5de4:	8f 93       	push	r24
    5de6:	9f 93       	push	r25
    5de8:	af 93       	push	r26
    5dea:	bf 93       	push	r27
    5dec:	ef 93       	push	r30
    5dee:	ff 93       	push	r31
    5df0:	e0 91 43 06 	lds	r30, 0x0643	; 0x800643 <intFunc+0x6>
    5df4:	f0 91 44 06 	lds	r31, 0x0644	; 0x800644 <intFunc+0x7>
    5df8:	19 95       	eicall
    5dfa:	ff 91       	pop	r31
    5dfc:	ef 91       	pop	r30
    5dfe:	bf 91       	pop	r27
    5e00:	af 91       	pop	r26
    5e02:	9f 91       	pop	r25
    5e04:	8f 91       	pop	r24
    5e06:	7f 91       	pop	r23
    5e08:	6f 91       	pop	r22
    5e0a:	5f 91       	pop	r21
    5e0c:	4f 91       	pop	r20
    5e0e:	3f 91       	pop	r19
    5e10:	2f 91       	pop	r18
    5e12:	0f 90       	pop	r0
    5e14:	0b be       	out	0x3b, r0	; 59
    5e16:	0f 90       	pop	r0
    5e18:	0f be       	out	0x3f, r0	; 63
    5e1a:	0f 90       	pop	r0
    5e1c:	1f 90       	pop	r1
    5e1e:	18 95       	reti

00005e20 <__vector_3>:
IMPLEMENT_ISR(INT2_vect, EXTERNAL_INT_4)
    5e20:	1f 92       	push	r1
    5e22:	0f 92       	push	r0
    5e24:	0f b6       	in	r0, 0x3f	; 63
    5e26:	0f 92       	push	r0
    5e28:	11 24       	eor	r1, r1
    5e2a:	0b b6       	in	r0, 0x3b	; 59
    5e2c:	0f 92       	push	r0
    5e2e:	2f 93       	push	r18
    5e30:	3f 93       	push	r19
    5e32:	4f 93       	push	r20
    5e34:	5f 93       	push	r21
    5e36:	6f 93       	push	r22
    5e38:	7f 93       	push	r23
    5e3a:	8f 93       	push	r24
    5e3c:	9f 93       	push	r25
    5e3e:	af 93       	push	r26
    5e40:	bf 93       	push	r27
    5e42:	ef 93       	push	r30
    5e44:	ff 93       	push	r31
    5e46:	e0 91 45 06 	lds	r30, 0x0645	; 0x800645 <intFunc+0x8>
    5e4a:	f0 91 46 06 	lds	r31, 0x0646	; 0x800646 <intFunc+0x9>
    5e4e:	19 95       	eicall
    5e50:	ff 91       	pop	r31
    5e52:	ef 91       	pop	r30
    5e54:	bf 91       	pop	r27
    5e56:	af 91       	pop	r26
    5e58:	9f 91       	pop	r25
    5e5a:	8f 91       	pop	r24
    5e5c:	7f 91       	pop	r23
    5e5e:	6f 91       	pop	r22
    5e60:	5f 91       	pop	r21
    5e62:	4f 91       	pop	r20
    5e64:	3f 91       	pop	r19
    5e66:	2f 91       	pop	r18
    5e68:	0f 90       	pop	r0
    5e6a:	0b be       	out	0x3b, r0	; 59
    5e6c:	0f 90       	pop	r0
    5e6e:	0f be       	out	0x3f, r0	; 63
    5e70:	0f 90       	pop	r0
    5e72:	1f 90       	pop	r1
    5e74:	18 95       	reti

00005e76 <__vector_4>:
IMPLEMENT_ISR(INT3_vect, EXTERNAL_INT_5)
    5e76:	1f 92       	push	r1
    5e78:	0f 92       	push	r0
    5e7a:	0f b6       	in	r0, 0x3f	; 63
    5e7c:	0f 92       	push	r0
    5e7e:	11 24       	eor	r1, r1
    5e80:	0b b6       	in	r0, 0x3b	; 59
    5e82:	0f 92       	push	r0
    5e84:	2f 93       	push	r18
    5e86:	3f 93       	push	r19
    5e88:	4f 93       	push	r20
    5e8a:	5f 93       	push	r21
    5e8c:	6f 93       	push	r22
    5e8e:	7f 93       	push	r23
    5e90:	8f 93       	push	r24
    5e92:	9f 93       	push	r25
    5e94:	af 93       	push	r26
    5e96:	bf 93       	push	r27
    5e98:	ef 93       	push	r30
    5e9a:	ff 93       	push	r31
    5e9c:	e0 91 47 06 	lds	r30, 0x0647	; 0x800647 <intFunc+0xa>
    5ea0:	f0 91 48 06 	lds	r31, 0x0648	; 0x800648 <intFunc+0xb>
    5ea4:	19 95       	eicall
    5ea6:	ff 91       	pop	r31
    5ea8:	ef 91       	pop	r30
    5eaa:	bf 91       	pop	r27
    5eac:	af 91       	pop	r26
    5eae:	9f 91       	pop	r25
    5eb0:	8f 91       	pop	r24
    5eb2:	7f 91       	pop	r23
    5eb4:	6f 91       	pop	r22
    5eb6:	5f 91       	pop	r21
    5eb8:	4f 91       	pop	r20
    5eba:	3f 91       	pop	r19
    5ebc:	2f 91       	pop	r18
    5ebe:	0f 90       	pop	r0
    5ec0:	0b be       	out	0x3b, r0	; 59
    5ec2:	0f 90       	pop	r0
    5ec4:	0f be       	out	0x3f, r0	; 63
    5ec6:	0f 90       	pop	r0
    5ec8:	1f 90       	pop	r1
    5eca:	18 95       	reti

00005ecc <__vector_5>:
IMPLEMENT_ISR(INT4_vect, EXTERNAL_INT_0)
    5ecc:	1f 92       	push	r1
    5ece:	0f 92       	push	r0
    5ed0:	0f b6       	in	r0, 0x3f	; 63
    5ed2:	0f 92       	push	r0
    5ed4:	11 24       	eor	r1, r1
    5ed6:	0b b6       	in	r0, 0x3b	; 59
    5ed8:	0f 92       	push	r0
    5eda:	2f 93       	push	r18
    5edc:	3f 93       	push	r19
    5ede:	4f 93       	push	r20
    5ee0:	5f 93       	push	r21
    5ee2:	6f 93       	push	r22
    5ee4:	7f 93       	push	r23
    5ee6:	8f 93       	push	r24
    5ee8:	9f 93       	push	r25
    5eea:	af 93       	push	r26
    5eec:	bf 93       	push	r27
    5eee:	ef 93       	push	r30
    5ef0:	ff 93       	push	r31
    5ef2:	e0 91 3d 06 	lds	r30, 0x063D	; 0x80063d <intFunc>
    5ef6:	f0 91 3e 06 	lds	r31, 0x063E	; 0x80063e <intFunc+0x1>
    5efa:	19 95       	eicall
    5efc:	ff 91       	pop	r31
    5efe:	ef 91       	pop	r30
    5f00:	bf 91       	pop	r27
    5f02:	af 91       	pop	r26
    5f04:	9f 91       	pop	r25
    5f06:	8f 91       	pop	r24
    5f08:	7f 91       	pop	r23
    5f0a:	6f 91       	pop	r22
    5f0c:	5f 91       	pop	r21
    5f0e:	4f 91       	pop	r20
    5f10:	3f 91       	pop	r19
    5f12:	2f 91       	pop	r18
    5f14:	0f 90       	pop	r0
    5f16:	0b be       	out	0x3b, r0	; 59
    5f18:	0f 90       	pop	r0
    5f1a:	0f be       	out	0x3f, r0	; 63
    5f1c:	0f 90       	pop	r0
    5f1e:	1f 90       	pop	r1
    5f20:	18 95       	reti

00005f22 <__vector_6>:
IMPLEMENT_ISR(INT5_vect, EXTERNAL_INT_1)
    5f22:	1f 92       	push	r1
    5f24:	0f 92       	push	r0
    5f26:	0f b6       	in	r0, 0x3f	; 63
    5f28:	0f 92       	push	r0
    5f2a:	11 24       	eor	r1, r1
    5f2c:	0b b6       	in	r0, 0x3b	; 59
    5f2e:	0f 92       	push	r0
    5f30:	2f 93       	push	r18
    5f32:	3f 93       	push	r19
    5f34:	4f 93       	push	r20
    5f36:	5f 93       	push	r21
    5f38:	6f 93       	push	r22
    5f3a:	7f 93       	push	r23
    5f3c:	8f 93       	push	r24
    5f3e:	9f 93       	push	r25
    5f40:	af 93       	push	r26
    5f42:	bf 93       	push	r27
    5f44:	ef 93       	push	r30
    5f46:	ff 93       	push	r31
    5f48:	e0 91 3f 06 	lds	r30, 0x063F	; 0x80063f <intFunc+0x2>
    5f4c:	f0 91 40 06 	lds	r31, 0x0640	; 0x800640 <intFunc+0x3>
    5f50:	19 95       	eicall
    5f52:	ff 91       	pop	r31
    5f54:	ef 91       	pop	r30
    5f56:	bf 91       	pop	r27
    5f58:	af 91       	pop	r26
    5f5a:	9f 91       	pop	r25
    5f5c:	8f 91       	pop	r24
    5f5e:	7f 91       	pop	r23
    5f60:	6f 91       	pop	r22
    5f62:	5f 91       	pop	r21
    5f64:	4f 91       	pop	r20
    5f66:	3f 91       	pop	r19
    5f68:	2f 91       	pop	r18
    5f6a:	0f 90       	pop	r0
    5f6c:	0b be       	out	0x3b, r0	; 59
    5f6e:	0f 90       	pop	r0
    5f70:	0f be       	out	0x3f, r0	; 63
    5f72:	0f 90       	pop	r0
    5f74:	1f 90       	pop	r1
    5f76:	18 95       	reti

00005f78 <__vector_7>:
IMPLEMENT_ISR(INT6_vect, EXTERNAL_INT_6)
    5f78:	1f 92       	push	r1
    5f7a:	0f 92       	push	r0
    5f7c:	0f b6       	in	r0, 0x3f	; 63
    5f7e:	0f 92       	push	r0
    5f80:	11 24       	eor	r1, r1
    5f82:	0b b6       	in	r0, 0x3b	; 59
    5f84:	0f 92       	push	r0
    5f86:	2f 93       	push	r18
    5f88:	3f 93       	push	r19
    5f8a:	4f 93       	push	r20
    5f8c:	5f 93       	push	r21
    5f8e:	6f 93       	push	r22
    5f90:	7f 93       	push	r23
    5f92:	8f 93       	push	r24
    5f94:	9f 93       	push	r25
    5f96:	af 93       	push	r26
    5f98:	bf 93       	push	r27
    5f9a:	ef 93       	push	r30
    5f9c:	ff 93       	push	r31
    5f9e:	e0 91 49 06 	lds	r30, 0x0649	; 0x800649 <intFunc+0xc>
    5fa2:	f0 91 4a 06 	lds	r31, 0x064A	; 0x80064a <intFunc+0xd>
    5fa6:	19 95       	eicall
    5fa8:	ff 91       	pop	r31
    5faa:	ef 91       	pop	r30
    5fac:	bf 91       	pop	r27
    5fae:	af 91       	pop	r26
    5fb0:	9f 91       	pop	r25
    5fb2:	8f 91       	pop	r24
    5fb4:	7f 91       	pop	r23
    5fb6:	6f 91       	pop	r22
    5fb8:	5f 91       	pop	r21
    5fba:	4f 91       	pop	r20
    5fbc:	3f 91       	pop	r19
    5fbe:	2f 91       	pop	r18
    5fc0:	0f 90       	pop	r0
    5fc2:	0b be       	out	0x3b, r0	; 59
    5fc4:	0f 90       	pop	r0
    5fc6:	0f be       	out	0x3f, r0	; 63
    5fc8:	0f 90       	pop	r0
    5fca:	1f 90       	pop	r1
    5fcc:	18 95       	reti

00005fce <__vector_8>:
IMPLEMENT_ISR(INT7_vect, EXTERNAL_INT_7)
    5fce:	1f 92       	push	r1
    5fd0:	0f 92       	push	r0
    5fd2:	0f b6       	in	r0, 0x3f	; 63
    5fd4:	0f 92       	push	r0
    5fd6:	11 24       	eor	r1, r1
    5fd8:	0b b6       	in	r0, 0x3b	; 59
    5fda:	0f 92       	push	r0
    5fdc:	2f 93       	push	r18
    5fde:	3f 93       	push	r19
    5fe0:	4f 93       	push	r20
    5fe2:	5f 93       	push	r21
    5fe4:	6f 93       	push	r22
    5fe6:	7f 93       	push	r23
    5fe8:	8f 93       	push	r24
    5fea:	9f 93       	push	r25
    5fec:	af 93       	push	r26
    5fee:	bf 93       	push	r27
    5ff0:	ef 93       	push	r30
    5ff2:	ff 93       	push	r31
    5ff4:	e0 91 4b 06 	lds	r30, 0x064B	; 0x80064b <intFunc+0xe>
    5ff8:	f0 91 4c 06 	lds	r31, 0x064C	; 0x80064c <intFunc+0xf>
    5ffc:	19 95       	eicall
    5ffe:	ff 91       	pop	r31
    6000:	ef 91       	pop	r30
    6002:	bf 91       	pop	r27
    6004:	af 91       	pop	r26
    6006:	9f 91       	pop	r25
    6008:	8f 91       	pop	r24
    600a:	7f 91       	pop	r23
    600c:	6f 91       	pop	r22
    600e:	5f 91       	pop	r21
    6010:	4f 91       	pop	r20
    6012:	3f 91       	pop	r19
    6014:	2f 91       	pop	r18
    6016:	0f 90       	pop	r0
    6018:	0b be       	out	0x3b, r0	; 59
    601a:	0f 90       	pop	r0
    601c:	0f be       	out	0x3f, r0	; 63
    601e:	0f 90       	pop	r0
    6020:	1f 90       	pop	r1
    6022:	18 95       	reti

00006024 <__vector_23>:
#if defined(__AVR_ATtiny24__) || defined(__AVR_ATtiny44__) || defined(__AVR_ATtiny84__)
ISR(TIM0_OVF_vect)
#else
ISR(TIMER0_OVF_vect)
#endif
{
    6024:	1f 92       	push	r1
    6026:	0f 92       	push	r0
    6028:	0f b6       	in	r0, 0x3f	; 63
    602a:	0f 92       	push	r0
    602c:	11 24       	eor	r1, r1
    602e:	2f 93       	push	r18
    6030:	3f 93       	push	r19
    6032:	8f 93       	push	r24
    6034:	9f 93       	push	r25
    6036:	af 93       	push	r26
    6038:	bf 93       	push	r27
	// copy these to local variables so they can be stored in registers
	// (volatile variables must be read from memory on every access)
	unsigned long m = timer0_millis;
    603a:	80 91 bf 0f 	lds	r24, 0x0FBF	; 0x800fbf <timer0_millis>
    603e:	90 91 c0 0f 	lds	r25, 0x0FC0	; 0x800fc0 <timer0_millis+0x1>
    6042:	a0 91 c1 0f 	lds	r26, 0x0FC1	; 0x800fc1 <timer0_millis+0x2>
    6046:	b0 91 c2 0f 	lds	r27, 0x0FC2	; 0x800fc2 <timer0_millis+0x3>
	unsigned char f = timer0_fract;
    604a:	30 91 be 0f 	lds	r19, 0x0FBE	; 0x800fbe <timer0_fract>

	m += MILLIS_INC;
	f += FRACT_INC;
    604e:	23 e0       	ldi	r18, 0x03	; 3
    6050:	23 0f       	add	r18, r19
	if (f >= FRACT_MAX) {
    6052:	2d 37       	cpi	r18, 0x7D	; 125
    6054:	20 f4       	brcc	.+8      	; 0x605e <__vector_23+0x3a>
	// copy these to local variables so they can be stored in registers
	// (volatile variables must be read from memory on every access)
	unsigned long m = timer0_millis;
	unsigned char f = timer0_fract;

	m += MILLIS_INC;
    6056:	01 96       	adiw	r24, 0x01	; 1
    6058:	a1 1d       	adc	r26, r1
    605a:	b1 1d       	adc	r27, r1
    605c:	05 c0       	rjmp	.+10     	; 0x6068 <__vector_23+0x44>
	f += FRACT_INC;
	if (f >= FRACT_MAX) {
		f -= FRACT_MAX;
    605e:	26 e8       	ldi	r18, 0x86	; 134
    6060:	23 0f       	add	r18, r19
		m += 1;
    6062:	02 96       	adiw	r24, 0x02	; 2
    6064:	a1 1d       	adc	r26, r1
    6066:	b1 1d       	adc	r27, r1
	}

	timer0_fract = f;
    6068:	20 93 be 0f 	sts	0x0FBE, r18	; 0x800fbe <timer0_fract>
	timer0_millis = m;
    606c:	80 93 bf 0f 	sts	0x0FBF, r24	; 0x800fbf <timer0_millis>
    6070:	90 93 c0 0f 	sts	0x0FC0, r25	; 0x800fc0 <timer0_millis+0x1>
    6074:	a0 93 c1 0f 	sts	0x0FC1, r26	; 0x800fc1 <timer0_millis+0x2>
    6078:	b0 93 c2 0f 	sts	0x0FC2, r27	; 0x800fc2 <timer0_millis+0x3>
	timer0_overflow_count++;
    607c:	80 91 c3 0f 	lds	r24, 0x0FC3	; 0x800fc3 <timer0_overflow_count>
    6080:	90 91 c4 0f 	lds	r25, 0x0FC4	; 0x800fc4 <timer0_overflow_count+0x1>
    6084:	a0 91 c5 0f 	lds	r26, 0x0FC5	; 0x800fc5 <timer0_overflow_count+0x2>
    6088:	b0 91 c6 0f 	lds	r27, 0x0FC6	; 0x800fc6 <timer0_overflow_count+0x3>
    608c:	01 96       	adiw	r24, 0x01	; 1
    608e:	a1 1d       	adc	r26, r1
    6090:	b1 1d       	adc	r27, r1
    6092:	80 93 c3 0f 	sts	0x0FC3, r24	; 0x800fc3 <timer0_overflow_count>
    6096:	90 93 c4 0f 	sts	0x0FC4, r25	; 0x800fc4 <timer0_overflow_count+0x1>
    609a:	a0 93 c5 0f 	sts	0x0FC5, r26	; 0x800fc5 <timer0_overflow_count+0x2>
    609e:	b0 93 c6 0f 	sts	0x0FC6, r27	; 0x800fc6 <timer0_overflow_count+0x3>
}
    60a2:	bf 91       	pop	r27
    60a4:	af 91       	pop	r26
    60a6:	9f 91       	pop	r25
    60a8:	8f 91       	pop	r24
    60aa:	3f 91       	pop	r19
    60ac:	2f 91       	pop	r18
    60ae:	0f 90       	pop	r0
    60b0:	0f be       	out	0x3f, r0	; 63
    60b2:	0f 90       	pop	r0
    60b4:	1f 90       	pop	r1
    60b6:	18 95       	reti

000060b8 <millis>:

unsigned long millis()
{
	unsigned long m;
	uint8_t oldSREG = SREG;
    60b8:	2f b7       	in	r18, 0x3f	; 63

	// disable interrupts while we read timer0_millis or we might get an
	// inconsistent value (e.g. in the middle of a write to timer0_millis)
	cli();
    60ba:	f8 94       	cli
	m = timer0_millis;
    60bc:	60 91 bf 0f 	lds	r22, 0x0FBF	; 0x800fbf <timer0_millis>
    60c0:	70 91 c0 0f 	lds	r23, 0x0FC0	; 0x800fc0 <timer0_millis+0x1>
    60c4:	80 91 c1 0f 	lds	r24, 0x0FC1	; 0x800fc1 <timer0_millis+0x2>
    60c8:	90 91 c2 0f 	lds	r25, 0x0FC2	; 0x800fc2 <timer0_millis+0x3>
	SREG = oldSREG;
    60cc:	2f bf       	out	0x3f, r18	; 63

	return m;
}
    60ce:	08 95       	ret

000060d0 <micros>:

unsigned long micros() {
	unsigned long m;
	uint8_t oldSREG = SREG, t;
    60d0:	3f b7       	in	r19, 0x3f	; 63
	
	cli();
    60d2:	f8 94       	cli
	m = timer0_overflow_count;
    60d4:	80 91 c3 0f 	lds	r24, 0x0FC3	; 0x800fc3 <timer0_overflow_count>
    60d8:	90 91 c4 0f 	lds	r25, 0x0FC4	; 0x800fc4 <timer0_overflow_count+0x1>
    60dc:	a0 91 c5 0f 	lds	r26, 0x0FC5	; 0x800fc5 <timer0_overflow_count+0x2>
    60e0:	b0 91 c6 0f 	lds	r27, 0x0FC6	; 0x800fc6 <timer0_overflow_count+0x3>
#if defined(TCNT0)
	t = TCNT0;
    60e4:	26 b5       	in	r18, 0x26	; 38
#else
	#error TIMER 0 not defined
#endif

#ifdef TIFR0
	if ((TIFR0 & _BV(TOV0)) && (t < 255))
    60e6:	a8 9b       	sbis	0x15, 0	; 21
    60e8:	05 c0       	rjmp	.+10     	; 0x60f4 <micros+0x24>
    60ea:	2f 3f       	cpi	r18, 0xFF	; 255
    60ec:	19 f0       	breq	.+6      	; 0x60f4 <micros+0x24>
		m++;
    60ee:	01 96       	adiw	r24, 0x01	; 1
    60f0:	a1 1d       	adc	r26, r1
    60f2:	b1 1d       	adc	r27, r1
#else
	if ((TIFR & _BV(TOV0)) && (t < 255))
		m++;
#endif

	SREG = oldSREG;
    60f4:	3f bf       	out	0x3f, r19	; 63
	
	return ((m << 8) + t) * (64 / clockCyclesPerMicrosecond());
    60f6:	ba 2f       	mov	r27, r26
    60f8:	a9 2f       	mov	r26, r25
    60fa:	98 2f       	mov	r25, r24
    60fc:	88 27       	eor	r24, r24
    60fe:	82 0f       	add	r24, r18
    6100:	91 1d       	adc	r25, r1
    6102:	a1 1d       	adc	r26, r1
    6104:	b1 1d       	adc	r27, r1
    6106:	bc 01       	movw	r22, r24
    6108:	cd 01       	movw	r24, r26
    610a:	42 e0       	ldi	r20, 0x02	; 2
    610c:	66 0f       	add	r22, r22
    610e:	77 1f       	adc	r23, r23
    6110:	88 1f       	adc	r24, r24
    6112:	99 1f       	adc	r25, r25
    6114:	4a 95       	dec	r20
    6116:	d1 f7       	brne	.-12     	; 0x610c <micros+0x3c>
}
    6118:	08 95       	ret

0000611a <delay>:

void delay(unsigned long ms)
{
    611a:	8f 92       	push	r8
    611c:	9f 92       	push	r9
    611e:	af 92       	push	r10
    6120:	bf 92       	push	r11
    6122:	cf 92       	push	r12
    6124:	df 92       	push	r13
    6126:	ef 92       	push	r14
    6128:	ff 92       	push	r15
    612a:	6b 01       	movw	r12, r22
    612c:	7c 01       	movw	r14, r24
	uint32_t start = micros();
    612e:	d0 df       	rcall	.-96     	; 0x60d0 <micros>
    6130:	4b 01       	movw	r8, r22
    6132:	5c 01       	movw	r10, r24

	while (ms > 0) {
    6134:	c1 14       	cp	r12, r1
    6136:	d1 04       	cpc	r13, r1
    6138:	e1 04       	cpc	r14, r1
    613a:	f1 04       	cpc	r15, r1
    613c:	f1 f0       	breq	.+60     	; 0x617a <delay+0x60>
		yield();
    613e:	96 d2       	rcall	.+1324   	; 0x666c <yield>
		while ( ms > 0 && (micros() - start) >= 1000) {
    6140:	c7 df       	rcall	.-114    	; 0x60d0 <micros>
    6142:	dc 01       	movw	r26, r24
    6144:	cb 01       	movw	r24, r22
    6146:	88 19       	sub	r24, r8
    6148:	99 09       	sbc	r25, r9
    614a:	aa 09       	sbc	r26, r10
    614c:	bb 09       	sbc	r27, r11
    614e:	88 3e       	cpi	r24, 0xE8	; 232
    6150:	93 40       	sbci	r25, 0x03	; 3
    6152:	a1 05       	cpc	r26, r1
    6154:	b1 05       	cpc	r27, r1
    6156:	70 f3       	brcs	.-36     	; 0x6134 <delay+0x1a>
			ms--;
    6158:	21 e0       	ldi	r18, 0x01	; 1
    615a:	c2 1a       	sub	r12, r18
    615c:	d1 08       	sbc	r13, r1
    615e:	e1 08       	sbc	r14, r1
    6160:	f1 08       	sbc	r15, r1
			start += 1000;
    6162:	88 ee       	ldi	r24, 0xE8	; 232
    6164:	88 0e       	add	r8, r24
    6166:	83 e0       	ldi	r24, 0x03	; 3
    6168:	98 1e       	adc	r9, r24
    616a:	a1 1c       	adc	r10, r1
    616c:	b1 1c       	adc	r11, r1
{
	uint32_t start = micros();

	while (ms > 0) {
		yield();
		while ( ms > 0 && (micros() - start) >= 1000) {
    616e:	c1 14       	cp	r12, r1
    6170:	d1 04       	cpc	r13, r1
    6172:	e1 04       	cpc	r14, r1
    6174:	f1 04       	cpc	r15, r1
    6176:	21 f7       	brne	.-56     	; 0x6140 <delay+0x26>
    6178:	dd cf       	rjmp	.-70     	; 0x6134 <delay+0x1a>
			ms--;
			start += 1000;
		}
	}
}
    617a:	ff 90       	pop	r15
    617c:	ef 90       	pop	r14
    617e:	df 90       	pop	r13
    6180:	cf 90       	pop	r12
    6182:	bf 90       	pop	r11
    6184:	af 90       	pop	r10
    6186:	9f 90       	pop	r9
    6188:	8f 90       	pop	r8
    618a:	08 95       	ret

0000618c <delayMicroseconds>:
#elif F_CPU >= 16000000L
	// for the 16 MHz clock on most Arduino boards

	// for a one-microsecond delay, simply return.  the overhead
	// of the function call takes 14 (16) cycles, which is 1us
	if (us <= 1) return; //  = 3 cycles, (4 when true)
    618c:	82 30       	cpi	r24, 0x02	; 2
    618e:	91 05       	cpc	r25, r1
    6190:	38 f0       	brcs	.+14     	; 0x61a0 <delayMicroseconds+0x14>

	// the following loop takes 1/4 of a microsecond (4 cycles)
	// per iteration, so execute it four times for each microsecond of
	// delay requested.
	us <<= 2; // x4 us, = 4 cycles
    6192:	88 0f       	add	r24, r24
    6194:	99 1f       	adc	r25, r25
    6196:	88 0f       	add	r24, r24
    6198:	99 1f       	adc	r25, r25

	// account for the time taken in the preceeding commands.
	// we just burned 19 (21) cycles above, remove 5, (5*4=20)
	// us is at least 8 so we can substract 5
	us -= 5; // = 2 cycles,
    619a:	05 97       	sbiw	r24, 0x05	; 5
	

#endif

	// busy wait
	__asm__ __volatile__ (
    619c:	01 97       	sbiw	r24, 0x01	; 1
    619e:	f1 f7       	brne	.-4      	; 0x619c <delayMicroseconds+0x10>
    61a0:	08 95       	ret

000061a2 <init>:

void init()
{
	// this needs to be called before setup() or some functions won't
	// work there
	sei();
    61a2:	78 94       	sei
	
	// on the ATmega168, timer 0 is also used for fast hardware pwm
	// (using phase-correct PWM would mean that timer 0 overflowed half as often
	// resulting in different millis() behavior on the ATmega8 and ATmega168)
#if defined(TCCR0A) && defined(WGM01)
	sbi(TCCR0A, WGM01);
    61a4:	84 b5       	in	r24, 0x24	; 36
    61a6:	82 60       	ori	r24, 0x02	; 2
    61a8:	84 bd       	out	0x24, r24	; 36
	sbi(TCCR0A, WGM00);
    61aa:	84 b5       	in	r24, 0x24	; 36
    61ac:	81 60       	ori	r24, 0x01	; 1
    61ae:	84 bd       	out	0x24, r24	; 36
	// this combination is for the standard atmega8
	sbi(TCCR0, CS01);
	sbi(TCCR0, CS00);
#elif defined(TCCR0B) && defined(CS01) && defined(CS00)
	// this combination is for the standard 168/328/1280/2560
	sbi(TCCR0B, CS01);
    61b0:	85 b5       	in	r24, 0x25	; 37
    61b2:	82 60       	ori	r24, 0x02	; 2
    61b4:	85 bd       	out	0x25, r24	; 37
	sbi(TCCR0B, CS00);
    61b6:	85 b5       	in	r24, 0x25	; 37
    61b8:	81 60       	ori	r24, 0x01	; 1
    61ba:	85 bd       	out	0x25, r24	; 37

	// enable timer 0 overflow interrupt
#if defined(TIMSK) && defined(TOIE0)
	sbi(TIMSK, TOIE0);
#elif defined(TIMSK0) && defined(TOIE0)
	sbi(TIMSK0, TOIE0);
    61bc:	ee e6       	ldi	r30, 0x6E	; 110
    61be:	f0 e0       	ldi	r31, 0x00	; 0
    61c0:	80 81       	ld	r24, Z
    61c2:	81 60       	ori	r24, 0x01	; 1
    61c4:	80 83       	st	Z, r24
	// this is better for motors as it ensures an even waveform
	// note, however, that fast pwm mode can achieve a frequency of up
	// 8 MHz (with a 16 MHz clock) at 50% duty cycle

#if defined(TCCR1B) && defined(CS11) && defined(CS10)
	TCCR1B = 0;
    61c6:	e1 e8       	ldi	r30, 0x81	; 129
    61c8:	f0 e0       	ldi	r31, 0x00	; 0
    61ca:	10 82       	st	Z, r1

	// set timer 1 prescale factor to 64
	sbi(TCCR1B, CS11);
    61cc:	80 81       	ld	r24, Z
    61ce:	82 60       	ori	r24, 0x02	; 2
    61d0:	80 83       	st	Z, r24
#if F_CPU >= 8000000L
	sbi(TCCR1B, CS10);
    61d2:	80 81       	ld	r24, Z
    61d4:	81 60       	ori	r24, 0x01	; 1
    61d6:	80 83       	st	Z, r24
	sbi(TCCR1, CS10);
#endif
#endif
	// put timer 1 in 8-bit phase correct pwm mode
#if defined(TCCR1A) && defined(WGM10)
	sbi(TCCR1A, WGM10);
    61d8:	e0 e8       	ldi	r30, 0x80	; 128
    61da:	f0 e0       	ldi	r31, 0x00	; 0
    61dc:	80 81       	ld	r24, Z
    61de:	81 60       	ori	r24, 0x01	; 1
    61e0:	80 83       	st	Z, r24

	// set timer 2 prescale factor to 64
#if defined(TCCR2) && defined(CS22)
	sbi(TCCR2, CS22);
#elif defined(TCCR2B) && defined(CS22)
	sbi(TCCR2B, CS22);
    61e2:	e1 eb       	ldi	r30, 0xB1	; 177
    61e4:	f0 e0       	ldi	r31, 0x00	; 0
    61e6:	80 81       	ld	r24, Z
    61e8:	84 60       	ori	r24, 0x04	; 4
    61ea:	80 83       	st	Z, r24

	// configure timer 2 for phase correct pwm (8-bit)
#if defined(TCCR2) && defined(WGM20)
	sbi(TCCR2, WGM20);
#elif defined(TCCR2A) && defined(WGM20)
	sbi(TCCR2A, WGM20);
    61ec:	e0 eb       	ldi	r30, 0xB0	; 176
    61ee:	f0 e0       	ldi	r31, 0x00	; 0
    61f0:	80 81       	ld	r24, Z
    61f2:	81 60       	ori	r24, 0x01	; 1
    61f4:	80 83       	st	Z, r24
//#else
	// Timer 2 not finished (may not be present on this CPU)
#endif

#if defined(TCCR3B) && defined(CS31) && defined(WGM30)
	sbi(TCCR3B, CS31);		// set timer 3 prescale factor to 64
    61f6:	e1 e9       	ldi	r30, 0x91	; 145
    61f8:	f0 e0       	ldi	r31, 0x00	; 0
    61fa:	80 81       	ld	r24, Z
    61fc:	82 60       	ori	r24, 0x02	; 2
    61fe:	80 83       	st	Z, r24
	sbi(TCCR3B, CS30);
    6200:	80 81       	ld	r24, Z
    6202:	81 60       	ori	r24, 0x01	; 1
    6204:	80 83       	st	Z, r24
	sbi(TCCR3A, WGM30);		// put timer 3 in 8-bit phase correct pwm mode
    6206:	e0 e9       	ldi	r30, 0x90	; 144
    6208:	f0 e0       	ldi	r31, 0x00	; 0
    620a:	80 81       	ld	r24, Z
    620c:	81 60       	ori	r24, 0x01	; 1
    620e:	80 83       	st	Z, r24
	sbi(TCCR4D, WGM40);		// put timer 4 in phase- and frequency-correct PWM mode	
	sbi(TCCR4A, PWM4A);		// enable PWM mode for comparator OCR4A
	sbi(TCCR4C, PWM4D);		// enable PWM mode for comparator OCR4D
#else /* beginning of timer4 block for ATMEGA1280 and ATMEGA2560 */
#if defined(TCCR4B) && defined(CS41) && defined(WGM40)
	sbi(TCCR4B, CS41);		// set timer 4 prescale factor to 64
    6210:	e1 ea       	ldi	r30, 0xA1	; 161
    6212:	f0 e0       	ldi	r31, 0x00	; 0
    6214:	80 81       	ld	r24, Z
    6216:	82 60       	ori	r24, 0x02	; 2
    6218:	80 83       	st	Z, r24
	sbi(TCCR4B, CS40);
    621a:	80 81       	ld	r24, Z
    621c:	81 60       	ori	r24, 0x01	; 1
    621e:	80 83       	st	Z, r24
	sbi(TCCR4A, WGM40);		// put timer 4 in 8-bit phase correct pwm mode
    6220:	e0 ea       	ldi	r30, 0xA0	; 160
    6222:	f0 e0       	ldi	r31, 0x00	; 0
    6224:	80 81       	ld	r24, Z
    6226:	81 60       	ori	r24, 0x01	; 1
    6228:	80 83       	st	Z, r24
#endif
#endif /* end timer4 block for ATMEGA1280/2560 and similar */	

#if defined(TCCR5B) && defined(CS51) && defined(WGM50)
	sbi(TCCR5B, CS51);		// set timer 5 prescale factor to 64
    622a:	e1 e2       	ldi	r30, 0x21	; 33
    622c:	f1 e0       	ldi	r31, 0x01	; 1
    622e:	80 81       	ld	r24, Z
    6230:	82 60       	ori	r24, 0x02	; 2
    6232:	80 83       	st	Z, r24
	sbi(TCCR5B, CS50);
    6234:	80 81       	ld	r24, Z
    6236:	81 60       	ori	r24, 0x01	; 1
    6238:	80 83       	st	Z, r24
	sbi(TCCR5A, WGM50);		// put timer 5 in 8-bit phase correct pwm mode
    623a:	e0 e2       	ldi	r30, 0x20	; 32
    623c:	f1 e0       	ldi	r31, 0x01	; 1
    623e:	80 81       	ld	r24, Z
    6240:	81 60       	ori	r24, 0x01	; 1
    6242:	80 83       	st	Z, r24
#endif

#if defined(ADCSRA)
	// set a2d prescaler so we are inside the desired 50-200 KHz range.
	#if F_CPU >= 16000000 // 16 MHz / 128 = 125 KHz
		sbi(ADCSRA, ADPS2);
    6244:	ea e7       	ldi	r30, 0x7A	; 122
    6246:	f0 e0       	ldi	r31, 0x00	; 0
    6248:	80 81       	ld	r24, Z
    624a:	84 60       	ori	r24, 0x04	; 4
    624c:	80 83       	st	Z, r24
		sbi(ADCSRA, ADPS1);
    624e:	80 81       	ld	r24, Z
    6250:	82 60       	ori	r24, 0x02	; 2
    6252:	80 83       	st	Z, r24
		sbi(ADCSRA, ADPS0);
    6254:	80 81       	ld	r24, Z
    6256:	81 60       	ori	r24, 0x01	; 1
    6258:	80 83       	st	Z, r24
		cbi(ADCSRA, ADPS2);
		cbi(ADCSRA, ADPS1);
		sbi(ADCSRA, ADPS0);
	#endif
	// enable a2d conversions
	sbi(ADCSRA, ADEN);
    625a:	80 81       	ld	r24, Z
    625c:	80 68       	ori	r24, 0x80	; 128
    625e:	80 83       	st	Z, r24
	// here so they can be used as normal digital i/o; they will be
	// reconnected in Serial.begin()
#if defined(UCSRB)
	UCSRB = 0;
#elif defined(UCSR0B)
	UCSR0B = 0;
    6260:	10 92 c1 00 	sts	0x00C1, r1	; 0x8000c1 <__TEXT_REGION_LENGTH__+0x7000c1>
    6264:	08 95       	ret

00006266 <turnOffPWM>:
//
//static inline void turnOffPWM(uint8_t timer) __attribute__ ((always_inline));
//static inline void turnOffPWM(uint8_t timer)
static void turnOffPWM(uint8_t timer)
{
	switch (timer)
    6266:	90 e0       	ldi	r25, 0x00	; 0
    6268:	fc 01       	movw	r30, r24
    626a:	31 97       	sbiw	r30, 0x01	; 1
    626c:	e2 31       	cpi	r30, 0x12	; 18
    626e:	f1 05       	cpc	r31, r1
    6270:	08 f0       	brcs	.+2      	; 0x6274 <turnOffPWM+0xe>
    6272:	4d c0       	rjmp	.+154    	; 0x630e <turnOffPWM+0xa8>
    6274:	88 27       	eor	r24, r24
    6276:	e7 53       	subi	r30, 0x37	; 55
    6278:	ff 4f       	sbci	r31, 0xFF	; 255
    627a:	8f 4f       	sbci	r24, 0xFF	; 255
    627c:	4a c2       	rjmp	.+1172   	; 0x6712 <__tablejump2__>
	{
		#if defined(TCCR1A) && defined(COM1A1)
		case TIMER1A:   cbi(TCCR1A, COM1A1);    break;
    627e:	80 91 80 00 	lds	r24, 0x0080	; 0x800080 <__TEXT_REGION_LENGTH__+0x700080>
    6282:	8f 77       	andi	r24, 0x7F	; 127
    6284:	03 c0       	rjmp	.+6      	; 0x628c <turnOffPWM+0x26>
		#endif
		#if defined(TCCR1A) && defined(COM1B1)
		case TIMER1B:   cbi(TCCR1A, COM1B1);    break;
    6286:	80 91 80 00 	lds	r24, 0x0080	; 0x800080 <__TEXT_REGION_LENGTH__+0x700080>
    628a:	8f 7d       	andi	r24, 0xDF	; 223
    628c:	80 93 80 00 	sts	0x0080, r24	; 0x800080 <__TEXT_REGION_LENGTH__+0x700080>
    6290:	08 95       	ret
		#endif
		#if defined(TCCR1A) && defined(COM1C1)
		case TIMER1C:   cbi(TCCR1A, COM1C1);    break;
    6292:	80 91 80 00 	lds	r24, 0x0080	; 0x800080 <__TEXT_REGION_LENGTH__+0x700080>
    6296:	87 7f       	andi	r24, 0xF7	; 247
    6298:	f9 cf       	rjmp	.-14     	; 0x628c <turnOffPWM+0x26>
		#if defined(TCCR2) && defined(COM21)
		case  TIMER2:   cbi(TCCR2, COM21);      break;
		#endif
		
		#if defined(TCCR0A) && defined(COM0A1)
		case  TIMER0A:  cbi(TCCR0A, COM0A1);    break;
    629a:	84 b5       	in	r24, 0x24	; 36
    629c:	8f 77       	andi	r24, 0x7F	; 127
    629e:	02 c0       	rjmp	.+4      	; 0x62a4 <turnOffPWM+0x3e>
		#endif
		
		#if defined(TCCR0A) && defined(COM0B1)
		case  TIMER0B:  cbi(TCCR0A, COM0B1);    break;
    62a0:	84 b5       	in	r24, 0x24	; 36
    62a2:	8f 7d       	andi	r24, 0xDF	; 223
    62a4:	84 bd       	out	0x24, r24	; 36
    62a6:	08 95       	ret
		#endif
		#if defined(TCCR2A) && defined(COM2A1)
		case  TIMER2A:  cbi(TCCR2A, COM2A1);    break;
    62a8:	80 91 b0 00 	lds	r24, 0x00B0	; 0x8000b0 <__TEXT_REGION_LENGTH__+0x7000b0>
    62ac:	8f 77       	andi	r24, 0x7F	; 127
    62ae:	03 c0       	rjmp	.+6      	; 0x62b6 <turnOffPWM+0x50>
		#endif
		#if defined(TCCR2A) && defined(COM2B1)
		case  TIMER2B:  cbi(TCCR2A, COM2B1);    break;
    62b0:	80 91 b0 00 	lds	r24, 0x00B0	; 0x8000b0 <__TEXT_REGION_LENGTH__+0x7000b0>
    62b4:	8f 7d       	andi	r24, 0xDF	; 223
    62b6:	80 93 b0 00 	sts	0x00B0, r24	; 0x8000b0 <__TEXT_REGION_LENGTH__+0x7000b0>
    62ba:	08 95       	ret
		#endif
		
		#if defined(TCCR3A) && defined(COM3A1)
		case  TIMER3A:  cbi(TCCR3A, COM3A1);    break;
    62bc:	80 91 90 00 	lds	r24, 0x0090	; 0x800090 <__TEXT_REGION_LENGTH__+0x700090>
    62c0:	8f 77       	andi	r24, 0x7F	; 127
    62c2:	07 c0       	rjmp	.+14     	; 0x62d2 <turnOffPWM+0x6c>
		#endif
		#if defined(TCCR3A) && defined(COM3B1)
		case  TIMER3B:  cbi(TCCR3A, COM3B1);    break;
    62c4:	80 91 90 00 	lds	r24, 0x0090	; 0x800090 <__TEXT_REGION_LENGTH__+0x700090>
    62c8:	8f 7d       	andi	r24, 0xDF	; 223
    62ca:	03 c0       	rjmp	.+6      	; 0x62d2 <turnOffPWM+0x6c>
		#endif
		#if defined(TCCR3A) && defined(COM3C1)
		case  TIMER3C:  cbi(TCCR3A, COM3C1);    break;
    62cc:	80 91 90 00 	lds	r24, 0x0090	; 0x800090 <__TEXT_REGION_LENGTH__+0x700090>
    62d0:	87 7f       	andi	r24, 0xF7	; 247
    62d2:	80 93 90 00 	sts	0x0090, r24	; 0x800090 <__TEXT_REGION_LENGTH__+0x700090>
    62d6:	08 95       	ret
		#endif

		#if defined(TCCR4A) && defined(COM4A1)
		case  TIMER4A:  cbi(TCCR4A, COM4A1);    break;
    62d8:	80 91 a0 00 	lds	r24, 0x00A0	; 0x8000a0 <__TEXT_REGION_LENGTH__+0x7000a0>
    62dc:	8f 77       	andi	r24, 0x7F	; 127
    62de:	07 c0       	rjmp	.+14     	; 0x62ee <turnOffPWM+0x88>
		#endif					
		#if defined(TCCR4A) && defined(COM4B1)
		case  TIMER4B:  cbi(TCCR4A, COM4B1);    break;
    62e0:	80 91 a0 00 	lds	r24, 0x00A0	; 0x8000a0 <__TEXT_REGION_LENGTH__+0x7000a0>
    62e4:	8f 7d       	andi	r24, 0xDF	; 223
    62e6:	03 c0       	rjmp	.+6      	; 0x62ee <turnOffPWM+0x88>
		#endif
		#if defined(TCCR4A) && defined(COM4C1)
		case  TIMER4C:  cbi(TCCR4A, COM4C1);    break;
    62e8:	80 91 a0 00 	lds	r24, 0x00A0	; 0x8000a0 <__TEXT_REGION_LENGTH__+0x7000a0>
    62ec:	87 7f       	andi	r24, 0xF7	; 247
    62ee:	80 93 a0 00 	sts	0x00A0, r24	; 0x8000a0 <__TEXT_REGION_LENGTH__+0x7000a0>
    62f2:	08 95       	ret
		#if defined(TCCR4C) && defined(COM4D1)
		case TIMER4D:	cbi(TCCR4C, COM4D1);	break;
		#endif			
			
		#if defined(TCCR5A)
		case  TIMER5A:  cbi(TCCR5A, COM5A1);    break;
    62f4:	80 91 20 01 	lds	r24, 0x0120	; 0x800120 <__TEXT_REGION_LENGTH__+0x700120>
    62f8:	8f 77       	andi	r24, 0x7F	; 127
    62fa:	07 c0       	rjmp	.+14     	; 0x630a <turnOffPWM+0xa4>
		case  TIMER5B:  cbi(TCCR5A, COM5B1);    break;
    62fc:	80 91 20 01 	lds	r24, 0x0120	; 0x800120 <__TEXT_REGION_LENGTH__+0x700120>
    6300:	8f 7d       	andi	r24, 0xDF	; 223
    6302:	03 c0       	rjmp	.+6      	; 0x630a <turnOffPWM+0xa4>
		case  TIMER5C:  cbi(TCCR5A, COM5C1);    break;
    6304:	80 91 20 01 	lds	r24, 0x0120	; 0x800120 <__TEXT_REGION_LENGTH__+0x700120>
    6308:	87 7f       	andi	r24, 0xF7	; 247
    630a:	80 93 20 01 	sts	0x0120, r24	; 0x800120 <__TEXT_REGION_LENGTH__+0x700120>
    630e:	08 95       	ret

00006310 <pinMode>:
#define ARDUINO_MAIN
#include "wiring_private.h"
#include "pins_arduino.h"

void pinMode(uint8_t pin, uint8_t mode)
{
    6310:	cf 93       	push	r28
    6312:	df 93       	push	r29
	uint8_t bit = digitalPinToBitMask(pin);
    6314:	90 e0       	ldi	r25, 0x00	; 0
    6316:	fc 01       	movw	r30, r24
    6318:	e4 50       	subi	r30, 0x04	; 4
    631a:	f9 4f       	sbci	r31, 0xF9	; 249
    631c:	24 91       	lpm	r18, Z
	uint8_t port = digitalPinToPort(pin);
    631e:	fc 01       	movw	r30, r24
    6320:	ee 5b       	subi	r30, 0xBE	; 190
    6322:	f8 4f       	sbci	r31, 0xF8	; 248
    6324:	84 91       	lpm	r24, Z
	volatile uint8_t *reg, *out;

	if (port == NOT_A_PIN) return;
    6326:	88 23       	and	r24, r24
    6328:	61 f1       	breq	.+88     	; 0x6382 <pinMode+0x72>

	// JWS: can I let the optimizer do this?
	reg = portModeRegister(port);
    632a:	90 e0       	ldi	r25, 0x00	; 0
    632c:	88 0f       	add	r24, r24
    632e:	99 1f       	adc	r25, r25
    6330:	fc 01       	movw	r30, r24
    6332:	e4 54       	subi	r30, 0x44	; 68
    6334:	f8 4f       	sbci	r31, 0xF8	; 248
    6336:	c5 91       	lpm	r28, Z+
    6338:	d4 91       	lpm	r29, Z
	out = portOutputRegister(port);
    633a:	fc 01       	movw	r30, r24
    633c:	ee 55       	subi	r30, 0x5E	; 94
    633e:	f8 4f       	sbci	r31, 0xF8	; 248
    6340:	a5 91       	lpm	r26, Z+
    6342:	b4 91       	lpm	r27, Z

	if (mode == INPUT) { 
    6344:	61 11       	cpse	r22, r1
    6346:	09 c0       	rjmp	.+18     	; 0x635a <pinMode+0x4a>
		uint8_t oldSREG = SREG;
    6348:	9f b7       	in	r25, 0x3f	; 63
                cli();
    634a:	f8 94       	cli
		*reg &= ~bit;
    634c:	88 81       	ld	r24, Y
    634e:	20 95       	com	r18
    6350:	82 23       	and	r24, r18
    6352:	88 83       	st	Y, r24
		*out &= ~bit;
    6354:	ec 91       	ld	r30, X
    6356:	2e 23       	and	r18, r30
    6358:	0b c0       	rjmp	.+22     	; 0x6370 <pinMode+0x60>
		SREG = oldSREG;
	} else if (mode == INPUT_PULLUP) {
    635a:	62 30       	cpi	r22, 0x02	; 2
    635c:	61 f4       	brne	.+24     	; 0x6376 <pinMode+0x66>
		uint8_t oldSREG = SREG;
    635e:	9f b7       	in	r25, 0x3f	; 63
                cli();
    6360:	f8 94       	cli
		*reg &= ~bit;
    6362:	38 81       	ld	r19, Y
    6364:	82 2f       	mov	r24, r18
    6366:	80 95       	com	r24
    6368:	83 23       	and	r24, r19
    636a:	88 83       	st	Y, r24
		*out |= bit;
    636c:	ec 91       	ld	r30, X
    636e:	2e 2b       	or	r18, r30
    6370:	2c 93       	st	X, r18
		SREG = oldSREG;
    6372:	9f bf       	out	0x3f, r25	; 63
    6374:	06 c0       	rjmp	.+12     	; 0x6382 <pinMode+0x72>
	} else {
		uint8_t oldSREG = SREG;
    6376:	8f b7       	in	r24, 0x3f	; 63
                cli();
    6378:	f8 94       	cli
		*reg |= bit;
    637a:	e8 81       	ld	r30, Y
    637c:	2e 2b       	or	r18, r30
    637e:	28 83       	st	Y, r18
		SREG = oldSREG;
    6380:	8f bf       	out	0x3f, r24	; 63
	}
}
    6382:	df 91       	pop	r29
    6384:	cf 91       	pop	r28
    6386:	08 95       	ret

00006388 <digitalWrite>:
		#endif
	}
}

void digitalWrite(uint8_t pin, uint8_t val)
{
    6388:	1f 93       	push	r17
    638a:	cf 93       	push	r28
    638c:	df 93       	push	r29
	uint8_t timer = digitalPinToTimer(pin);
    638e:	28 2f       	mov	r18, r24
    6390:	30 e0       	ldi	r19, 0x00	; 0
    6392:	f9 01       	movw	r30, r18
    6394:	ea 54       	subi	r30, 0x4A	; 74
    6396:	f9 4f       	sbci	r31, 0xF9	; 249
    6398:	84 91       	lpm	r24, Z
	uint8_t bit = digitalPinToBitMask(pin);
    639a:	f9 01       	movw	r30, r18
    639c:	e4 50       	subi	r30, 0x04	; 4
    639e:	f9 4f       	sbci	r31, 0xF9	; 249
    63a0:	d4 91       	lpm	r29, Z
	uint8_t port = digitalPinToPort(pin);
    63a2:	f9 01       	movw	r30, r18
    63a4:	ee 5b       	subi	r30, 0xBE	; 190
    63a6:	f8 4f       	sbci	r31, 0xF8	; 248
    63a8:	c4 91       	lpm	r28, Z
	volatile uint8_t *out;

	if (port == NOT_A_PIN) return;
    63aa:	cc 23       	and	r28, r28
    63ac:	c1 f0       	breq	.+48     	; 0x63de <digitalWrite+0x56>
    63ae:	16 2f       	mov	r17, r22

	// If the pin that support PWM output, we need to turn it off
	// before doing a digital write.
	if (timer != NOT_ON_TIMER) turnOffPWM(timer);
    63b0:	81 11       	cpse	r24, r1
    63b2:	59 df       	rcall	.-334    	; 0x6266 <turnOffPWM>

	out = portOutputRegister(port);
    63b4:	ec 2f       	mov	r30, r28
    63b6:	f0 e0       	ldi	r31, 0x00	; 0
    63b8:	ee 0f       	add	r30, r30
    63ba:	ff 1f       	adc	r31, r31
    63bc:	ee 55       	subi	r30, 0x5E	; 94
    63be:	f8 4f       	sbci	r31, 0xF8	; 248
    63c0:	a5 91       	lpm	r26, Z+
    63c2:	b4 91       	lpm	r27, Z

	uint8_t oldSREG = SREG;
    63c4:	8f b7       	in	r24, 0x3f	; 63
	cli();
    63c6:	f8 94       	cli

	if (val == LOW) {
    63c8:	11 11       	cpse	r17, r1
    63ca:	05 c0       	rjmp	.+10     	; 0x63d6 <digitalWrite+0x4e>
		*out &= ~bit;
    63cc:	9c 91       	ld	r25, X
    63ce:	ed 2f       	mov	r30, r29
    63d0:	e0 95       	com	r30
    63d2:	e9 23       	and	r30, r25
    63d4:	02 c0       	rjmp	.+4      	; 0x63da <digitalWrite+0x52>
	} else {
		*out |= bit;
    63d6:	ec 91       	ld	r30, X
    63d8:	ed 2b       	or	r30, r29
    63da:	ec 93       	st	X, r30
	}

	SREG = oldSREG;
    63dc:	8f bf       	out	0x3f, r24	; 63
}
    63de:	df 91       	pop	r29
    63e0:	cf 91       	pop	r28
    63e2:	1f 91       	pop	r17
    63e4:	08 95       	ret

000063e6 <digitalRead>:

int digitalRead(uint8_t pin)
{
    63e6:	cf 93       	push	r28
    63e8:	df 93       	push	r29
	uint8_t timer = digitalPinToTimer(pin);
    63ea:	28 2f       	mov	r18, r24
    63ec:	30 e0       	ldi	r19, 0x00	; 0
    63ee:	f9 01       	movw	r30, r18
    63f0:	ea 54       	subi	r30, 0x4A	; 74
    63f2:	f9 4f       	sbci	r31, 0xF9	; 249
    63f4:	84 91       	lpm	r24, Z
	uint8_t bit = digitalPinToBitMask(pin);
    63f6:	f9 01       	movw	r30, r18
    63f8:	e4 50       	subi	r30, 0x04	; 4
    63fa:	f9 4f       	sbci	r31, 0xF9	; 249
    63fc:	d4 91       	lpm	r29, Z
	uint8_t port = digitalPinToPort(pin);
    63fe:	f9 01       	movw	r30, r18
    6400:	ee 5b       	subi	r30, 0xBE	; 190
    6402:	f8 4f       	sbci	r31, 0xF8	; 248
    6404:	c4 91       	lpm	r28, Z

	if (port == NOT_A_PIN) return LOW;
    6406:	cc 23       	and	r28, r28
    6408:	89 f0       	breq	.+34     	; 0x642c <digitalRead+0x46>

	// If the pin that support PWM output, we need to turn it off
	// before getting a digital reading.
	if (timer != NOT_ON_TIMER) turnOffPWM(timer);
    640a:	81 11       	cpse	r24, r1
    640c:	2c df       	rcall	.-424    	; 0x6266 <turnOffPWM>

	if (*portInputRegister(port) & bit) return HIGH;
    640e:	ec 2f       	mov	r30, r28
    6410:	f0 e0       	ldi	r31, 0x00	; 0
    6412:	ee 0f       	add	r30, r30
    6414:	ff 1f       	adc	r31, r31
    6416:	e8 57       	subi	r30, 0x78	; 120
    6418:	f8 4f       	sbci	r31, 0xF8	; 248
    641a:	a5 91       	lpm	r26, Z+
    641c:	b4 91       	lpm	r27, Z
    641e:	ec 91       	ld	r30, X
    6420:	ed 23       	and	r30, r29
    6422:	81 e0       	ldi	r24, 0x01	; 1
    6424:	90 e0       	ldi	r25, 0x00	; 0
    6426:	21 f4       	brne	.+8      	; 0x6430 <digitalRead+0x4a>
    6428:	80 e0       	ldi	r24, 0x00	; 0
    642a:	02 c0       	rjmp	.+4      	; 0x6430 <digitalRead+0x4a>
{
	uint8_t timer = digitalPinToTimer(pin);
	uint8_t bit = digitalPinToBitMask(pin);
	uint8_t port = digitalPinToPort(pin);

	if (port == NOT_A_PIN) return LOW;
    642c:	80 e0       	ldi	r24, 0x00	; 0
    642e:	90 e0       	ldi	r25, 0x00	; 0
	// before getting a digital reading.
	if (timer != NOT_ON_TIMER) turnOffPWM(timer);

	if (*portInputRegister(port) & bit) return HIGH;
	return LOW;
}
    6430:	df 91       	pop	r29
    6432:	cf 91       	pop	r28
    6434:	08 95       	ret

00006436 <_Z3maplllll>:
  long diff = howbig - howsmall;
  return random(diff) + howsmall;
}

long map(long x, long in_min, long in_max, long out_min, long out_max)
{
    6436:	4f 92       	push	r4
    6438:	5f 92       	push	r5
    643a:	6f 92       	push	r6
    643c:	7f 92       	push	r7
    643e:	af 92       	push	r10
    6440:	bf 92       	push	r11
    6442:	cf 92       	push	r12
    6444:	df 92       	push	r13
    6446:	ef 92       	push	r14
    6448:	ff 92       	push	r15
    644a:	0f 93       	push	r16
    644c:	1f 93       	push	r17
    644e:	cf 93       	push	r28
    6450:	df 93       	push	r29
    6452:	cd b7       	in	r28, 0x3d	; 61
    6454:	de b7       	in	r29, 0x3e	; 62
    6456:	29 01       	movw	r4, r18
    6458:	3a 01       	movw	r6, r20
  return (x - in_min) * (out_max - out_min) / (in_max - in_min) + out_min;
    645a:	9b 01       	movw	r18, r22
    645c:	ac 01       	movw	r20, r24
    645e:	24 19       	sub	r18, r4
    6460:	35 09       	sbc	r19, r5
    6462:	46 09       	sbc	r20, r6
    6464:	57 09       	sbc	r21, r7
    6466:	8a 89       	ldd	r24, Y+18	; 0x12
    6468:	9b 89       	ldd	r25, Y+19	; 0x13
    646a:	ac 89       	ldd	r26, Y+20	; 0x14
    646c:	bd 89       	ldd	r27, Y+21	; 0x15
    646e:	bc 01       	movw	r22, r24
    6470:	cd 01       	movw	r24, r26
    6472:	6a 19       	sub	r22, r10
    6474:	7b 09       	sbc	r23, r11
    6476:	8c 09       	sbc	r24, r12
    6478:	9d 09       	sbc	r25, r13
    647a:	fe d0       	rcall	.+508    	; 0x6678 <__mulsi3>
    647c:	a8 01       	movw	r20, r16
    647e:	97 01       	movw	r18, r14
    6480:	24 19       	sub	r18, r4
    6482:	35 09       	sbc	r19, r5
    6484:	46 09       	sbc	r20, r6
    6486:	57 09       	sbc	r21, r7
    6488:	28 d1       	rcall	.+592    	; 0x66da <__divmodsi4>
    648a:	ca 01       	movw	r24, r20
    648c:	b9 01       	movw	r22, r18
    648e:	6a 0d       	add	r22, r10
    6490:	7b 1d       	adc	r23, r11
    6492:	8c 1d       	adc	r24, r12
    6494:	9d 1d       	adc	r25, r13
}
    6496:	df 91       	pop	r29
    6498:	cf 91       	pop	r28
    649a:	1f 91       	pop	r17
    649c:	0f 91       	pop	r16
    649e:	ff 90       	pop	r15
    64a0:	ef 90       	pop	r14
    64a2:	df 90       	pop	r13
    64a4:	cf 90       	pop	r12
    64a6:	bf 90       	pop	r11
    64a8:	af 90       	pop	r10
    64aa:	7f 90       	pop	r7
    64ac:	6f 90       	pop	r6
    64ae:	5f 90       	pop	r5
    64b0:	4f 90       	pop	r4
    64b2:	08 95       	ret

000064b4 <_ZN6StringD1Ev>:
{
	if (!buffer) return;
	for (char *p = buffer; *p; p++) {
		*p = tolower(*p);
	}
}
    64b4:	fc 01       	movw	r30, r24
    64b6:	80 81       	ld	r24, Z
    64b8:	91 81       	ldd	r25, Z+1	; 0x01
    64ba:	e7 c1       	rjmp	.+974    	; 0x688a <free>

000064bc <_ZN6String10invalidateEv>:
    64bc:	cf 93       	push	r28
    64be:	df 93       	push	r29
    64c0:	ec 01       	movw	r28, r24
    64c2:	88 81       	ld	r24, Y
    64c4:	99 81       	ldd	r25, Y+1	; 0x01
    64c6:	00 97       	sbiw	r24, 0x00	; 0
    64c8:	09 f0       	breq	.+2      	; 0x64cc <_ZN6String10invalidateEv+0x10>
    64ca:	df d1       	rcall	.+958    	; 0x688a <free>
    64cc:	19 82       	std	Y+1, r1	; 0x01
    64ce:	18 82       	st	Y, r1
    64d0:	1d 82       	std	Y+5, r1	; 0x05
    64d2:	1c 82       	std	Y+4, r1	; 0x04
    64d4:	1b 82       	std	Y+3, r1	; 0x03
    64d6:	1a 82       	std	Y+2, r1	; 0x02
    64d8:	df 91       	pop	r29
    64da:	cf 91       	pop	r28
    64dc:	08 95       	ret

000064de <_ZN6String12changeBufferEj>:
    64de:	0f 93       	push	r16
    64e0:	1f 93       	push	r17
    64e2:	cf 93       	push	r28
    64e4:	df 93       	push	r29
    64e6:	ec 01       	movw	r28, r24
    64e8:	8b 01       	movw	r16, r22
    64ea:	6f 5f       	subi	r22, 0xFF	; 255
    64ec:	7f 4f       	sbci	r23, 0xFF	; 255
    64ee:	88 81       	ld	r24, Y
    64f0:	99 81       	ldd	r25, Y+1	; 0x01
    64f2:	63 d2       	rcall	.+1222   	; 0x69ba <realloc>
    64f4:	00 97       	sbiw	r24, 0x00	; 0
    64f6:	31 f0       	breq	.+12     	; 0x6504 <_ZN6String12changeBufferEj+0x26>
    64f8:	99 83       	std	Y+1, r25	; 0x01
    64fa:	88 83       	st	Y, r24
    64fc:	1b 83       	std	Y+3, r17	; 0x03
    64fe:	0a 83       	std	Y+2, r16	; 0x02
    6500:	81 e0       	ldi	r24, 0x01	; 1
    6502:	01 c0       	rjmp	.+2      	; 0x6506 <_ZN6String12changeBufferEj+0x28>
    6504:	80 e0       	ldi	r24, 0x00	; 0
    6506:	df 91       	pop	r29
    6508:	cf 91       	pop	r28
    650a:	1f 91       	pop	r17
    650c:	0f 91       	pop	r16
    650e:	08 95       	ret

00006510 <_ZN6String7reserveEj>:
    6510:	cf 93       	push	r28
    6512:	df 93       	push	r29
    6514:	ec 01       	movw	r28, r24
    6516:	88 81       	ld	r24, Y
    6518:	99 81       	ldd	r25, Y+1	; 0x01
    651a:	89 2b       	or	r24, r25
    651c:	29 f0       	breq	.+10     	; 0x6528 <_ZN6String7reserveEj+0x18>
    651e:	8a 81       	ldd	r24, Y+2	; 0x02
    6520:	9b 81       	ldd	r25, Y+3	; 0x03
    6522:	86 17       	cp	r24, r22
    6524:	97 07       	cpc	r25, r23
    6526:	58 f4       	brcc	.+22     	; 0x653e <_ZN6String7reserveEj+0x2e>
    6528:	ce 01       	movw	r24, r28
    652a:	d9 df       	rcall	.-78     	; 0x64de <_ZN6String12changeBufferEj>
    652c:	88 23       	and	r24, r24
    652e:	41 f0       	breq	.+16     	; 0x6540 <_ZN6String7reserveEj+0x30>
    6530:	8c 81       	ldd	r24, Y+4	; 0x04
    6532:	9d 81       	ldd	r25, Y+5	; 0x05
    6534:	89 2b       	or	r24, r25
    6536:	19 f4       	brne	.+6      	; 0x653e <_ZN6String7reserveEj+0x2e>
    6538:	e8 81       	ld	r30, Y
    653a:	f9 81       	ldd	r31, Y+1	; 0x01
    653c:	10 82       	st	Z, r1
    653e:	81 e0       	ldi	r24, 0x01	; 1
    6540:	df 91       	pop	r29
    6542:	cf 91       	pop	r28
    6544:	08 95       	ret

00006546 <_ZN6String4copyEPKcj>:
    6546:	ef 92       	push	r14
    6548:	ff 92       	push	r15
    654a:	0f 93       	push	r16
    654c:	1f 93       	push	r17
    654e:	cf 93       	push	r28
    6550:	df 93       	push	r29
    6552:	ec 01       	movw	r28, r24
    6554:	7b 01       	movw	r14, r22
    6556:	8a 01       	movw	r16, r20
    6558:	ba 01       	movw	r22, r20
    655a:	da df       	rcall	.-76     	; 0x6510 <_ZN6String7reserveEj>
    655c:	81 11       	cpse	r24, r1
    655e:	03 c0       	rjmp	.+6      	; 0x6566 <_ZN6String4copyEPKcj+0x20>
    6560:	ce 01       	movw	r24, r28
    6562:	ac df       	rcall	.-168    	; 0x64bc <_ZN6String10invalidateEv>
    6564:	06 c0       	rjmp	.+12     	; 0x6572 <_ZN6String4copyEPKcj+0x2c>
    6566:	1d 83       	std	Y+5, r17	; 0x05
    6568:	0c 83       	std	Y+4, r16	; 0x04
    656a:	b7 01       	movw	r22, r14
    656c:	88 81       	ld	r24, Y
    656e:	99 81       	ldd	r25, Y+1	; 0x01
    6570:	26 d3       	rcall	.+1612   	; 0x6bbe <strcpy>
    6572:	ce 01       	movw	r24, r28
    6574:	df 91       	pop	r29
    6576:	cf 91       	pop	r28
    6578:	1f 91       	pop	r17
    657a:	0f 91       	pop	r16
    657c:	ff 90       	pop	r15
    657e:	ef 90       	pop	r14
    6580:	08 95       	ret

00006582 <_ZN6StringC1EPKc>:
    6582:	fc 01       	movw	r30, r24
    6584:	11 82       	std	Z+1, r1	; 0x01
    6586:	10 82       	st	Z, r1
    6588:	13 82       	std	Z+3, r1	; 0x03
    658a:	12 82       	std	Z+2, r1	; 0x02
    658c:	15 82       	std	Z+5, r1	; 0x05
    658e:	14 82       	std	Z+4, r1	; 0x04
    6590:	61 15       	cp	r22, r1
    6592:	71 05       	cpc	r23, r1
    6594:	49 f0       	breq	.+18     	; 0x65a8 <_ZN6StringC1EPKc+0x26>
    6596:	fb 01       	movw	r30, r22
    6598:	01 90       	ld	r0, Z+
    659a:	00 20       	and	r0, r0
    659c:	e9 f7       	brne	.-6      	; 0x6598 <_ZN6StringC1EPKc+0x16>
    659e:	31 97       	sbiw	r30, 0x01	; 1
    65a0:	af 01       	movw	r20, r30
    65a2:	46 1b       	sub	r20, r22
    65a4:	57 0b       	sbc	r21, r23
    65a6:	cf cf       	rjmp	.-98     	; 0x6546 <_ZN6String4copyEPKcj>
    65a8:	08 95       	ret

000065aa <_ZN6StringaSERKS_>:
    65aa:	cf 93       	push	r28
    65ac:	df 93       	push	r29
    65ae:	ec 01       	movw	r28, r24
    65b0:	fb 01       	movw	r30, r22
    65b2:	86 17       	cp	r24, r22
    65b4:	97 07       	cpc	r25, r23
    65b6:	51 f0       	breq	.+20     	; 0x65cc <_ZN6StringaSERKS_+0x22>
    65b8:	60 81       	ld	r22, Z
    65ba:	71 81       	ldd	r23, Z+1	; 0x01
    65bc:	61 15       	cp	r22, r1
    65be:	71 05       	cpc	r23, r1
    65c0:	21 f0       	breq	.+8      	; 0x65ca <_ZN6StringaSERKS_+0x20>
    65c2:	44 81       	ldd	r20, Z+4	; 0x04
    65c4:	55 81       	ldd	r21, Z+5	; 0x05
    65c6:	bf df       	rcall	.-130    	; 0x6546 <_ZN6String4copyEPKcj>
    65c8:	01 c0       	rjmp	.+2      	; 0x65cc <_ZN6StringaSERKS_+0x22>
    65ca:	78 df       	rcall	.-272    	; 0x64bc <_ZN6String10invalidateEv>
    65cc:	ce 01       	movw	r24, r28
    65ce:	df 91       	pop	r29
    65d0:	cf 91       	pop	r28
    65d2:	08 95       	ret

000065d4 <_ZN6StringC1ERKS_>:
    65d4:	fc 01       	movw	r30, r24
    65d6:	11 82       	std	Z+1, r1	; 0x01
    65d8:	10 82       	st	Z, r1
    65da:	13 82       	std	Z+3, r1	; 0x03
    65dc:	12 82       	std	Z+2, r1	; 0x02
    65de:	15 82       	std	Z+5, r1	; 0x05
    65e0:	14 82       	std	Z+4, r1	; 0x04
    65e2:	e3 cf       	rjmp	.-58     	; 0x65aa <_ZN6StringaSERKS_>

000065e4 <_ZN6StringaSEPKc>:
    65e4:	cf 93       	push	r28
    65e6:	df 93       	push	r29
    65e8:	ec 01       	movw	r28, r24
    65ea:	61 15       	cp	r22, r1
    65ec:	71 05       	cpc	r23, r1
    65ee:	51 f0       	breq	.+20     	; 0x6604 <_ZN6StringaSEPKc+0x20>
    65f0:	fb 01       	movw	r30, r22
    65f2:	01 90       	ld	r0, Z+
    65f4:	00 20       	and	r0, r0
    65f6:	e9 f7       	brne	.-6      	; 0x65f2 <_ZN6StringaSEPKc+0xe>
    65f8:	31 97       	sbiw	r30, 0x01	; 1
    65fa:	af 01       	movw	r20, r30
    65fc:	46 1b       	sub	r20, r22
    65fe:	57 0b       	sbc	r21, r23
    6600:	a2 df       	rcall	.-188    	; 0x6546 <_ZN6String4copyEPKcj>
    6602:	01 c0       	rjmp	.+2      	; 0x6606 <_ZN6StringaSEPKc+0x22>
    6604:	5b df       	rcall	.-330    	; 0x64bc <_ZN6String10invalidateEv>
    6606:	ce 01       	movw	r24, r28
    6608:	df 91       	pop	r29
    660a:	cf 91       	pop	r28
    660c:	08 95       	ret

0000660e <_ZNK6String6equalsEPKc>:
    660e:	fc 01       	movw	r30, r24
    6610:	24 81       	ldd	r18, Z+4	; 0x04
    6612:	35 81       	ldd	r19, Z+5	; 0x05
    6614:	23 2b       	or	r18, r19
    6616:	31 f4       	brne	.+12     	; 0x6624 <_ZNK6String6equalsEPKc+0x16>
    6618:	21 e0       	ldi	r18, 0x01	; 1
    661a:	61 15       	cp	r22, r1
    661c:	71 05       	cpc	r23, r1
    661e:	99 f0       	breq	.+38     	; 0x6646 <_ZNK6String6equalsEPKc+0x38>
    6620:	fb 01       	movw	r30, r22
    6622:	08 c0       	rjmp	.+16     	; 0x6634 <_ZNK6String6equalsEPKc+0x26>
    6624:	fc 01       	movw	r30, r24
    6626:	80 81       	ld	r24, Z
    6628:	91 81       	ldd	r25, Z+1	; 0x01
    662a:	61 15       	cp	r22, r1
    662c:	71 05       	cpc	r23, r1
    662e:	31 f4       	brne	.+12     	; 0x663c <_ZNK6String6equalsEPKc+0x2e>
    6630:	21 e0       	ldi	r18, 0x01	; 1
    6632:	fc 01       	movw	r30, r24
    6634:	80 81       	ld	r24, Z
    6636:	88 23       	and	r24, r24
    6638:	31 f0       	breq	.+12     	; 0x6646 <_ZNK6String6equalsEPKc+0x38>
    663a:	04 c0       	rjmp	.+8      	; 0x6644 <_ZNK6String6equalsEPKc+0x36>
    663c:	b7 d2       	rcall	.+1390   	; 0x6bac <strcmp>
    663e:	21 e0       	ldi	r18, 0x01	; 1
    6640:	89 2b       	or	r24, r25
    6642:	09 f0       	breq	.+2      	; 0x6646 <_ZNK6String6equalsEPKc+0x38>
    6644:	20 e0       	ldi	r18, 0x00	; 0
    6646:	82 2f       	mov	r24, r18
    6648:	08 95       	ret

0000664a <_ZN6String11toUpperCaseEv>:

void String::toUpperCase(void)
{
    664a:	cf 93       	push	r28
    664c:	df 93       	push	r29
	if (!buffer) return;
    664e:	fc 01       	movw	r30, r24
    6650:	c0 81       	ld	r28, Z
    6652:	d1 81       	ldd	r29, Z+1	; 0x01
    6654:	20 97       	sbiw	r28, 0x00	; 0
    6656:	39 f0       	breq	.+14     	; 0x6666 <_ZN6String11toUpperCaseEv+0x1c>
	for (char *p = buffer; *p; p++) {
    6658:	88 81       	ld	r24, Y
    665a:	88 23       	and	r24, r24
    665c:	21 f0       	breq	.+8      	; 0x6666 <_ZN6String11toUpperCaseEv+0x1c>
		*p = toupper(*p);
    665e:	90 e0       	ldi	r25, 0x00	; 0
    6660:	94 d2       	rcall	.+1320   	; 0x6b8a <toupper>
    6662:	89 93       	st	Y+, r24
    6664:	f9 cf       	rjmp	.-14     	; 0x6658 <_ZN6String11toUpperCaseEv+0xe>
	}
}
    6666:	df 91       	pop	r29
    6668:	cf 91       	pop	r28
    666a:	08 95       	ret

0000666c <yield>:
 * libraries or sketches that supports cooperative threads.
 *
 * Its defined as a weak symbol and it can be redefined to implement a
 * real cooperative scheduler.
 */
static void __empty() {
    666c:	08 95       	ret

0000666e <__unordsf2>:
    666e:	0e 94 f6 26 	call	0x4dec	; 0x4dec <__fp_cmp>
    6672:	88 0b       	sbc	r24, r24
    6674:	99 0b       	sbc	r25, r25
    6676:	08 95       	ret

00006678 <__mulsi3>:
    6678:	db 01       	movw	r26, r22
    667a:	8f 93       	push	r24
    667c:	9f 93       	push	r25
    667e:	66 d0       	rcall	.+204    	; 0x674c <__muluhisi3>
    6680:	bf 91       	pop	r27
    6682:	af 91       	pop	r26
    6684:	a2 9f       	mul	r26, r18
    6686:	80 0d       	add	r24, r0
    6688:	91 1d       	adc	r25, r1
    668a:	a3 9f       	mul	r26, r19
    668c:	90 0d       	add	r25, r0
    668e:	b2 9f       	mul	r27, r18
    6690:	90 0d       	add	r25, r0
    6692:	11 24       	eor	r1, r1
    6694:	08 95       	ret

00006696 <__udivmodsi4>:
    6696:	a1 e2       	ldi	r26, 0x21	; 33
    6698:	1a 2e       	mov	r1, r26
    669a:	aa 1b       	sub	r26, r26
    669c:	bb 1b       	sub	r27, r27
    669e:	fd 01       	movw	r30, r26
    66a0:	0d c0       	rjmp	.+26     	; 0x66bc <__udivmodsi4_ep>

000066a2 <__udivmodsi4_loop>:
    66a2:	aa 1f       	adc	r26, r26
    66a4:	bb 1f       	adc	r27, r27
    66a6:	ee 1f       	adc	r30, r30
    66a8:	ff 1f       	adc	r31, r31
    66aa:	a2 17       	cp	r26, r18
    66ac:	b3 07       	cpc	r27, r19
    66ae:	e4 07       	cpc	r30, r20
    66b0:	f5 07       	cpc	r31, r21
    66b2:	20 f0       	brcs	.+8      	; 0x66bc <__udivmodsi4_ep>
    66b4:	a2 1b       	sub	r26, r18
    66b6:	b3 0b       	sbc	r27, r19
    66b8:	e4 0b       	sbc	r30, r20
    66ba:	f5 0b       	sbc	r31, r21

000066bc <__udivmodsi4_ep>:
    66bc:	66 1f       	adc	r22, r22
    66be:	77 1f       	adc	r23, r23
    66c0:	88 1f       	adc	r24, r24
    66c2:	99 1f       	adc	r25, r25
    66c4:	1a 94       	dec	r1
    66c6:	69 f7       	brne	.-38     	; 0x66a2 <__udivmodsi4_loop>
    66c8:	60 95       	com	r22
    66ca:	70 95       	com	r23
    66cc:	80 95       	com	r24
    66ce:	90 95       	com	r25
    66d0:	9b 01       	movw	r18, r22
    66d2:	ac 01       	movw	r20, r24
    66d4:	bd 01       	movw	r22, r26
    66d6:	cf 01       	movw	r24, r30
    66d8:	08 95       	ret

000066da <__divmodsi4>:
    66da:	05 2e       	mov	r0, r21
    66dc:	97 fb       	bst	r25, 7
    66de:	16 f4       	brtc	.+4      	; 0x66e4 <__divmodsi4+0xa>
    66e0:	00 94       	com	r0
    66e2:	0f d0       	rcall	.+30     	; 0x6702 <__negsi2>
    66e4:	57 fd       	sbrc	r21, 7
    66e6:	05 d0       	rcall	.+10     	; 0x66f2 <__divmodsi4_neg2>
    66e8:	d6 df       	rcall	.-84     	; 0x6696 <__udivmodsi4>
    66ea:	07 fc       	sbrc	r0, 7
    66ec:	02 d0       	rcall	.+4      	; 0x66f2 <__divmodsi4_neg2>
    66ee:	46 f4       	brtc	.+16     	; 0x6700 <__divmodsi4_exit>
    66f0:	08 c0       	rjmp	.+16     	; 0x6702 <__negsi2>

000066f2 <__divmodsi4_neg2>:
    66f2:	50 95       	com	r21
    66f4:	40 95       	com	r20
    66f6:	30 95       	com	r19
    66f8:	21 95       	neg	r18
    66fa:	3f 4f       	sbci	r19, 0xFF	; 255
    66fc:	4f 4f       	sbci	r20, 0xFF	; 255
    66fe:	5f 4f       	sbci	r21, 0xFF	; 255

00006700 <__divmodsi4_exit>:
    6700:	08 95       	ret

00006702 <__negsi2>:
    6702:	90 95       	com	r25
    6704:	80 95       	com	r24
    6706:	70 95       	com	r23
    6708:	61 95       	neg	r22
    670a:	7f 4f       	sbci	r23, 0xFF	; 255
    670c:	8f 4f       	sbci	r24, 0xFF	; 255
    670e:	9f 4f       	sbci	r25, 0xFF	; 255
    6710:	08 95       	ret

00006712 <__tablejump2__>:
    6712:	ee 0f       	add	r30, r30
    6714:	ff 1f       	adc	r31, r31
    6716:	88 1f       	adc	r24, r24
    6718:	8b bf       	out	0x3b, r24	; 59
    671a:	07 90       	elpm	r0, Z+
    671c:	f6 91       	elpm	r31, Z
    671e:	e0 2d       	mov	r30, r0
    6720:	19 94       	eijmp

00006722 <__umulhisi3>:
    6722:	a2 9f       	mul	r26, r18
    6724:	b0 01       	movw	r22, r0
    6726:	b3 9f       	mul	r27, r19
    6728:	c0 01       	movw	r24, r0
    672a:	a3 9f       	mul	r26, r19
    672c:	70 0d       	add	r23, r0
    672e:	81 1d       	adc	r24, r1
    6730:	11 24       	eor	r1, r1
    6732:	91 1d       	adc	r25, r1
    6734:	b2 9f       	mul	r27, r18
    6736:	70 0d       	add	r23, r0
    6738:	81 1d       	adc	r24, r1
    673a:	11 24       	eor	r1, r1
    673c:	91 1d       	adc	r25, r1
    673e:	08 95       	ret

00006740 <__usmulhisi3>:
    6740:	f0 df       	rcall	.-32     	; 0x6722 <__umulhisi3>

00006742 <__usmulhisi3_tail>:
    6742:	b7 ff       	sbrs	r27, 7
    6744:	08 95       	ret
    6746:	82 1b       	sub	r24, r18
    6748:	93 0b       	sbc	r25, r19
    674a:	08 95       	ret

0000674c <__muluhisi3>:
    674c:	ea df       	rcall	.-44     	; 0x6722 <__umulhisi3>
    674e:	a5 9f       	mul	r26, r21
    6750:	90 0d       	add	r25, r0
    6752:	b4 9f       	mul	r27, r20
    6754:	90 0d       	add	r25, r0
    6756:	a4 9f       	mul	r26, r20
    6758:	80 0d       	add	r24, r0
    675a:	91 1d       	adc	r25, r1
    675c:	11 24       	eor	r1, r1
    675e:	08 95       	ret

00006760 <malloc>:
    6760:	cf 93       	push	r28
    6762:	df 93       	push	r29
    6764:	82 30       	cpi	r24, 0x02	; 2
    6766:	91 05       	cpc	r25, r1
    6768:	10 f4       	brcc	.+4      	; 0x676e <malloc+0xe>
    676a:	82 e0       	ldi	r24, 0x02	; 2
    676c:	90 e0       	ldi	r25, 0x00	; 0
    676e:	e0 91 c9 0f 	lds	r30, 0x0FC9	; 0x800fc9 <__flp>
    6772:	f0 91 ca 0f 	lds	r31, 0x0FCA	; 0x800fca <__flp+0x1>
    6776:	20 e0       	ldi	r18, 0x00	; 0
    6778:	30 e0       	ldi	r19, 0x00	; 0
    677a:	c0 e0       	ldi	r28, 0x00	; 0
    677c:	d0 e0       	ldi	r29, 0x00	; 0
    677e:	30 97       	sbiw	r30, 0x00	; 0
    6780:	11 f1       	breq	.+68     	; 0x67c6 <malloc+0x66>
    6782:	40 81       	ld	r20, Z
    6784:	51 81       	ldd	r21, Z+1	; 0x01
    6786:	48 17       	cp	r20, r24
    6788:	59 07       	cpc	r21, r25
    678a:	c0 f0       	brcs	.+48     	; 0x67bc <malloc+0x5c>
    678c:	48 17       	cp	r20, r24
    678e:	59 07       	cpc	r21, r25
    6790:	61 f4       	brne	.+24     	; 0x67aa <malloc+0x4a>
    6792:	82 81       	ldd	r24, Z+2	; 0x02
    6794:	93 81       	ldd	r25, Z+3	; 0x03
    6796:	20 97       	sbiw	r28, 0x00	; 0
    6798:	19 f0       	breq	.+6      	; 0x67a0 <malloc+0x40>
    679a:	9b 83       	std	Y+3, r25	; 0x03
    679c:	8a 83       	std	Y+2, r24	; 0x02
    679e:	2b c0       	rjmp	.+86     	; 0x67f6 <malloc+0x96>
    67a0:	90 93 ca 0f 	sts	0x0FCA, r25	; 0x800fca <__flp+0x1>
    67a4:	80 93 c9 0f 	sts	0x0FC9, r24	; 0x800fc9 <__flp>
    67a8:	26 c0       	rjmp	.+76     	; 0x67f6 <malloc+0x96>
    67aa:	21 15       	cp	r18, r1
    67ac:	31 05       	cpc	r19, r1
    67ae:	19 f0       	breq	.+6      	; 0x67b6 <malloc+0x56>
    67b0:	42 17       	cp	r20, r18
    67b2:	53 07       	cpc	r21, r19
    67b4:	18 f4       	brcc	.+6      	; 0x67bc <malloc+0x5c>
    67b6:	9a 01       	movw	r18, r20
    67b8:	be 01       	movw	r22, r28
    67ba:	df 01       	movw	r26, r30
    67bc:	ef 01       	movw	r28, r30
    67be:	02 80       	ldd	r0, Z+2	; 0x02
    67c0:	f3 81       	ldd	r31, Z+3	; 0x03
    67c2:	e0 2d       	mov	r30, r0
    67c4:	dc cf       	rjmp	.-72     	; 0x677e <malloc+0x1e>
    67c6:	21 15       	cp	r18, r1
    67c8:	31 05       	cpc	r19, r1
    67ca:	09 f1       	breq	.+66     	; 0x680e <malloc+0xae>
    67cc:	28 1b       	sub	r18, r24
    67ce:	39 0b       	sbc	r19, r25
    67d0:	24 30       	cpi	r18, 0x04	; 4
    67d2:	31 05       	cpc	r19, r1
    67d4:	90 f4       	brcc	.+36     	; 0x67fa <malloc+0x9a>
    67d6:	12 96       	adiw	r26, 0x02	; 2
    67d8:	8d 91       	ld	r24, X+
    67da:	9c 91       	ld	r25, X
    67dc:	13 97       	sbiw	r26, 0x03	; 3
    67de:	61 15       	cp	r22, r1
    67e0:	71 05       	cpc	r23, r1
    67e2:	21 f0       	breq	.+8      	; 0x67ec <malloc+0x8c>
    67e4:	fb 01       	movw	r30, r22
    67e6:	93 83       	std	Z+3, r25	; 0x03
    67e8:	82 83       	std	Z+2, r24	; 0x02
    67ea:	04 c0       	rjmp	.+8      	; 0x67f4 <malloc+0x94>
    67ec:	90 93 ca 0f 	sts	0x0FCA, r25	; 0x800fca <__flp+0x1>
    67f0:	80 93 c9 0f 	sts	0x0FC9, r24	; 0x800fc9 <__flp>
    67f4:	fd 01       	movw	r30, r26
    67f6:	32 96       	adiw	r30, 0x02	; 2
    67f8:	44 c0       	rjmp	.+136    	; 0x6882 <malloc+0x122>
    67fa:	fd 01       	movw	r30, r26
    67fc:	e2 0f       	add	r30, r18
    67fe:	f3 1f       	adc	r31, r19
    6800:	81 93       	st	Z+, r24
    6802:	91 93       	st	Z+, r25
    6804:	22 50       	subi	r18, 0x02	; 2
    6806:	31 09       	sbc	r19, r1
    6808:	2d 93       	st	X+, r18
    680a:	3c 93       	st	X, r19
    680c:	3a c0       	rjmp	.+116    	; 0x6882 <malloc+0x122>
    680e:	20 91 c7 0f 	lds	r18, 0x0FC7	; 0x800fc7 <__brkval>
    6812:	30 91 c8 0f 	lds	r19, 0x0FC8	; 0x800fc8 <__brkval+0x1>
    6816:	23 2b       	or	r18, r19
    6818:	41 f4       	brne	.+16     	; 0x682a <malloc+0xca>
    681a:	20 91 02 02 	lds	r18, 0x0202	; 0x800202 <__malloc_heap_start>
    681e:	30 91 03 02 	lds	r19, 0x0203	; 0x800203 <__malloc_heap_start+0x1>
    6822:	30 93 c8 0f 	sts	0x0FC8, r19	; 0x800fc8 <__brkval+0x1>
    6826:	20 93 c7 0f 	sts	0x0FC7, r18	; 0x800fc7 <__brkval>
    682a:	20 91 00 02 	lds	r18, 0x0200	; 0x800200 <__data_start>
    682e:	30 91 01 02 	lds	r19, 0x0201	; 0x800201 <__data_start+0x1>
    6832:	21 15       	cp	r18, r1
    6834:	31 05       	cpc	r19, r1
    6836:	41 f4       	brne	.+16     	; 0x6848 <malloc+0xe8>
    6838:	2d b7       	in	r18, 0x3d	; 61
    683a:	3e b7       	in	r19, 0x3e	; 62
    683c:	40 91 04 02 	lds	r20, 0x0204	; 0x800204 <__malloc_margin>
    6840:	50 91 05 02 	lds	r21, 0x0205	; 0x800205 <__malloc_margin+0x1>
    6844:	24 1b       	sub	r18, r20
    6846:	35 0b       	sbc	r19, r21
    6848:	e0 91 c7 0f 	lds	r30, 0x0FC7	; 0x800fc7 <__brkval>
    684c:	f0 91 c8 0f 	lds	r31, 0x0FC8	; 0x800fc8 <__brkval+0x1>
    6850:	e2 17       	cp	r30, r18
    6852:	f3 07       	cpc	r31, r19
    6854:	a0 f4       	brcc	.+40     	; 0x687e <malloc+0x11e>
    6856:	2e 1b       	sub	r18, r30
    6858:	3f 0b       	sbc	r19, r31
    685a:	28 17       	cp	r18, r24
    685c:	39 07       	cpc	r19, r25
    685e:	78 f0       	brcs	.+30     	; 0x687e <malloc+0x11e>
    6860:	ac 01       	movw	r20, r24
    6862:	4e 5f       	subi	r20, 0xFE	; 254
    6864:	5f 4f       	sbci	r21, 0xFF	; 255
    6866:	24 17       	cp	r18, r20
    6868:	35 07       	cpc	r19, r21
    686a:	48 f0       	brcs	.+18     	; 0x687e <malloc+0x11e>
    686c:	4e 0f       	add	r20, r30
    686e:	5f 1f       	adc	r21, r31
    6870:	50 93 c8 0f 	sts	0x0FC8, r21	; 0x800fc8 <__brkval+0x1>
    6874:	40 93 c7 0f 	sts	0x0FC7, r20	; 0x800fc7 <__brkval>
    6878:	81 93       	st	Z+, r24
    687a:	91 93       	st	Z+, r25
    687c:	02 c0       	rjmp	.+4      	; 0x6882 <malloc+0x122>
    687e:	e0 e0       	ldi	r30, 0x00	; 0
    6880:	f0 e0       	ldi	r31, 0x00	; 0
    6882:	cf 01       	movw	r24, r30
    6884:	df 91       	pop	r29
    6886:	cf 91       	pop	r28
    6888:	08 95       	ret

0000688a <free>:
    688a:	0f 93       	push	r16
    688c:	1f 93       	push	r17
    688e:	cf 93       	push	r28
    6890:	df 93       	push	r29
    6892:	00 97       	sbiw	r24, 0x00	; 0
    6894:	09 f4       	brne	.+2      	; 0x6898 <free+0xe>
    6896:	8c c0       	rjmp	.+280    	; 0x69b0 <free+0x126>
    6898:	fc 01       	movw	r30, r24
    689a:	32 97       	sbiw	r30, 0x02	; 2
    689c:	13 82       	std	Z+3, r1	; 0x03
    689e:	12 82       	std	Z+2, r1	; 0x02
    68a0:	00 91 c9 0f 	lds	r16, 0x0FC9	; 0x800fc9 <__flp>
    68a4:	10 91 ca 0f 	lds	r17, 0x0FCA	; 0x800fca <__flp+0x1>
    68a8:	01 15       	cp	r16, r1
    68aa:	11 05       	cpc	r17, r1
    68ac:	81 f4       	brne	.+32     	; 0x68ce <free+0x44>
    68ae:	20 81       	ld	r18, Z
    68b0:	31 81       	ldd	r19, Z+1	; 0x01
    68b2:	82 0f       	add	r24, r18
    68b4:	93 1f       	adc	r25, r19
    68b6:	20 91 c7 0f 	lds	r18, 0x0FC7	; 0x800fc7 <__brkval>
    68ba:	30 91 c8 0f 	lds	r19, 0x0FC8	; 0x800fc8 <__brkval+0x1>
    68be:	28 17       	cp	r18, r24
    68c0:	39 07       	cpc	r19, r25
    68c2:	79 f5       	brne	.+94     	; 0x6922 <free+0x98>
    68c4:	f0 93 c8 0f 	sts	0x0FC8, r31	; 0x800fc8 <__brkval+0x1>
    68c8:	e0 93 c7 0f 	sts	0x0FC7, r30	; 0x800fc7 <__brkval>
    68cc:	71 c0       	rjmp	.+226    	; 0x69b0 <free+0x126>
    68ce:	d8 01       	movw	r26, r16
    68d0:	40 e0       	ldi	r20, 0x00	; 0
    68d2:	50 e0       	ldi	r21, 0x00	; 0
    68d4:	ae 17       	cp	r26, r30
    68d6:	bf 07       	cpc	r27, r31
    68d8:	50 f4       	brcc	.+20     	; 0x68ee <free+0x64>
    68da:	12 96       	adiw	r26, 0x02	; 2
    68dc:	2d 91       	ld	r18, X+
    68de:	3c 91       	ld	r19, X
    68e0:	13 97       	sbiw	r26, 0x03	; 3
    68e2:	ad 01       	movw	r20, r26
    68e4:	21 15       	cp	r18, r1
    68e6:	31 05       	cpc	r19, r1
    68e8:	09 f1       	breq	.+66     	; 0x692c <free+0xa2>
    68ea:	d9 01       	movw	r26, r18
    68ec:	f3 cf       	rjmp	.-26     	; 0x68d4 <free+0x4a>
    68ee:	9d 01       	movw	r18, r26
    68f0:	da 01       	movw	r26, r20
    68f2:	33 83       	std	Z+3, r19	; 0x03
    68f4:	22 83       	std	Z+2, r18	; 0x02
    68f6:	60 81       	ld	r22, Z
    68f8:	71 81       	ldd	r23, Z+1	; 0x01
    68fa:	86 0f       	add	r24, r22
    68fc:	97 1f       	adc	r25, r23
    68fe:	82 17       	cp	r24, r18
    6900:	93 07       	cpc	r25, r19
    6902:	69 f4       	brne	.+26     	; 0x691e <free+0x94>
    6904:	ec 01       	movw	r28, r24
    6906:	28 81       	ld	r18, Y
    6908:	39 81       	ldd	r19, Y+1	; 0x01
    690a:	26 0f       	add	r18, r22
    690c:	37 1f       	adc	r19, r23
    690e:	2e 5f       	subi	r18, 0xFE	; 254
    6910:	3f 4f       	sbci	r19, 0xFF	; 255
    6912:	31 83       	std	Z+1, r19	; 0x01
    6914:	20 83       	st	Z, r18
    6916:	8a 81       	ldd	r24, Y+2	; 0x02
    6918:	9b 81       	ldd	r25, Y+3	; 0x03
    691a:	93 83       	std	Z+3, r25	; 0x03
    691c:	82 83       	std	Z+2, r24	; 0x02
    691e:	45 2b       	or	r20, r21
    6920:	29 f4       	brne	.+10     	; 0x692c <free+0xa2>
    6922:	f0 93 ca 0f 	sts	0x0FCA, r31	; 0x800fca <__flp+0x1>
    6926:	e0 93 c9 0f 	sts	0x0FC9, r30	; 0x800fc9 <__flp>
    692a:	42 c0       	rjmp	.+132    	; 0x69b0 <free+0x126>
    692c:	13 96       	adiw	r26, 0x03	; 3
    692e:	fc 93       	st	X, r31
    6930:	ee 93       	st	-X, r30
    6932:	12 97       	sbiw	r26, 0x02	; 2
    6934:	ed 01       	movw	r28, r26
    6936:	49 91       	ld	r20, Y+
    6938:	59 91       	ld	r21, Y+
    693a:	9e 01       	movw	r18, r28
    693c:	24 0f       	add	r18, r20
    693e:	35 1f       	adc	r19, r21
    6940:	e2 17       	cp	r30, r18
    6942:	f3 07       	cpc	r31, r19
    6944:	71 f4       	brne	.+28     	; 0x6962 <free+0xd8>
    6946:	80 81       	ld	r24, Z
    6948:	91 81       	ldd	r25, Z+1	; 0x01
    694a:	84 0f       	add	r24, r20
    694c:	95 1f       	adc	r25, r21
    694e:	02 96       	adiw	r24, 0x02	; 2
    6950:	11 96       	adiw	r26, 0x01	; 1
    6952:	9c 93       	st	X, r25
    6954:	8e 93       	st	-X, r24
    6956:	82 81       	ldd	r24, Z+2	; 0x02
    6958:	93 81       	ldd	r25, Z+3	; 0x03
    695a:	13 96       	adiw	r26, 0x03	; 3
    695c:	9c 93       	st	X, r25
    695e:	8e 93       	st	-X, r24
    6960:	12 97       	sbiw	r26, 0x02	; 2
    6962:	e0 e0       	ldi	r30, 0x00	; 0
    6964:	f0 e0       	ldi	r31, 0x00	; 0
    6966:	d8 01       	movw	r26, r16
    6968:	12 96       	adiw	r26, 0x02	; 2
    696a:	8d 91       	ld	r24, X+
    696c:	9c 91       	ld	r25, X
    696e:	13 97       	sbiw	r26, 0x03	; 3
    6970:	00 97       	sbiw	r24, 0x00	; 0
    6972:	19 f0       	breq	.+6      	; 0x697a <free+0xf0>
    6974:	f8 01       	movw	r30, r16
    6976:	8c 01       	movw	r16, r24
    6978:	f6 cf       	rjmp	.-20     	; 0x6966 <free+0xdc>
    697a:	8d 91       	ld	r24, X+
    697c:	9c 91       	ld	r25, X
    697e:	98 01       	movw	r18, r16
    6980:	2e 5f       	subi	r18, 0xFE	; 254
    6982:	3f 4f       	sbci	r19, 0xFF	; 255
    6984:	82 0f       	add	r24, r18
    6986:	93 1f       	adc	r25, r19
    6988:	20 91 c7 0f 	lds	r18, 0x0FC7	; 0x800fc7 <__brkval>
    698c:	30 91 c8 0f 	lds	r19, 0x0FC8	; 0x800fc8 <__brkval+0x1>
    6990:	28 17       	cp	r18, r24
    6992:	39 07       	cpc	r19, r25
    6994:	69 f4       	brne	.+26     	; 0x69b0 <free+0x126>
    6996:	30 97       	sbiw	r30, 0x00	; 0
    6998:	29 f4       	brne	.+10     	; 0x69a4 <free+0x11a>
    699a:	10 92 ca 0f 	sts	0x0FCA, r1	; 0x800fca <__flp+0x1>
    699e:	10 92 c9 0f 	sts	0x0FC9, r1	; 0x800fc9 <__flp>
    69a2:	02 c0       	rjmp	.+4      	; 0x69a8 <free+0x11e>
    69a4:	13 82       	std	Z+3, r1	; 0x03
    69a6:	12 82       	std	Z+2, r1	; 0x02
    69a8:	10 93 c8 0f 	sts	0x0FC8, r17	; 0x800fc8 <__brkval+0x1>
    69ac:	00 93 c7 0f 	sts	0x0FC7, r16	; 0x800fc7 <__brkval>
    69b0:	df 91       	pop	r29
    69b2:	cf 91       	pop	r28
    69b4:	1f 91       	pop	r17
    69b6:	0f 91       	pop	r16
    69b8:	08 95       	ret

000069ba <realloc>:
    69ba:	6f 92       	push	r6
    69bc:	7f 92       	push	r7
    69be:	8f 92       	push	r8
    69c0:	9f 92       	push	r9
    69c2:	af 92       	push	r10
    69c4:	bf 92       	push	r11
    69c6:	cf 92       	push	r12
    69c8:	df 92       	push	r13
    69ca:	ef 92       	push	r14
    69cc:	ff 92       	push	r15
    69ce:	0f 93       	push	r16
    69d0:	1f 93       	push	r17
    69d2:	cf 93       	push	r28
    69d4:	df 93       	push	r29
    69d6:	ec 01       	movw	r28, r24
    69d8:	00 97       	sbiw	r24, 0x00	; 0
    69da:	81 f4       	brne	.+32     	; 0x69fc <realloc+0x42>
    69dc:	cb 01       	movw	r24, r22
    69de:	df 91       	pop	r29
    69e0:	cf 91       	pop	r28
    69e2:	1f 91       	pop	r17
    69e4:	0f 91       	pop	r16
    69e6:	ff 90       	pop	r15
    69e8:	ef 90       	pop	r14
    69ea:	df 90       	pop	r13
    69ec:	cf 90       	pop	r12
    69ee:	bf 90       	pop	r11
    69f0:	af 90       	pop	r10
    69f2:	9f 90       	pop	r9
    69f4:	8f 90       	pop	r8
    69f6:	7f 90       	pop	r7
    69f8:	6f 90       	pop	r6
    69fa:	b2 ce       	rjmp	.-668    	; 0x6760 <malloc>
    69fc:	fc 01       	movw	r30, r24
    69fe:	e6 0f       	add	r30, r22
    6a00:	f7 1f       	adc	r31, r23
    6a02:	9c 01       	movw	r18, r24
    6a04:	22 50       	subi	r18, 0x02	; 2
    6a06:	31 09       	sbc	r19, r1
    6a08:	e2 17       	cp	r30, r18
    6a0a:	f3 07       	cpc	r31, r19
    6a0c:	08 f4       	brcc	.+2      	; 0x6a10 <realloc+0x56>
    6a0e:	a8 c0       	rjmp	.+336    	; 0x6b60 <realloc+0x1a6>
    6a10:	d9 01       	movw	r26, r18
    6a12:	0d 91       	ld	r16, X+
    6a14:	1c 91       	ld	r17, X
    6a16:	11 97       	sbiw	r26, 0x01	; 1
    6a18:	06 17       	cp	r16, r22
    6a1a:	17 07       	cpc	r17, r23
    6a1c:	a8 f0       	brcs	.+42     	; 0x6a48 <realloc+0x8e>
    6a1e:	05 30       	cpi	r16, 0x05	; 5
    6a20:	11 05       	cpc	r17, r1
    6a22:	08 f4       	brcc	.+2      	; 0x6a26 <realloc+0x6c>
    6a24:	9b c0       	rjmp	.+310    	; 0x6b5c <realloc+0x1a2>
    6a26:	c8 01       	movw	r24, r16
    6a28:	04 97       	sbiw	r24, 0x04	; 4
    6a2a:	86 17       	cp	r24, r22
    6a2c:	97 07       	cpc	r25, r23
    6a2e:	08 f4       	brcc	.+2      	; 0x6a32 <realloc+0x78>
    6a30:	95 c0       	rjmp	.+298    	; 0x6b5c <realloc+0x1a2>
    6a32:	02 50       	subi	r16, 0x02	; 2
    6a34:	11 09       	sbc	r17, r1
    6a36:	06 1b       	sub	r16, r22
    6a38:	17 0b       	sbc	r17, r23
    6a3a:	01 93       	st	Z+, r16
    6a3c:	11 93       	st	Z+, r17
    6a3e:	6d 93       	st	X+, r22
    6a40:	7c 93       	st	X, r23
    6a42:	cf 01       	movw	r24, r30
    6a44:	22 df       	rcall	.-444    	; 0x688a <free>
    6a46:	8a c0       	rjmp	.+276    	; 0x6b5c <realloc+0x1a2>
    6a48:	5b 01       	movw	r10, r22
    6a4a:	a0 1a       	sub	r10, r16
    6a4c:	b1 0a       	sbc	r11, r17
    6a4e:	4c 01       	movw	r8, r24
    6a50:	80 0e       	add	r8, r16
    6a52:	91 1e       	adc	r9, r17
    6a54:	a0 91 c9 0f 	lds	r26, 0x0FC9	; 0x800fc9 <__flp>
    6a58:	b0 91 ca 0f 	lds	r27, 0x0FCA	; 0x800fca <__flp+0x1>
    6a5c:	40 e0       	ldi	r20, 0x00	; 0
    6a5e:	50 e0       	ldi	r21, 0x00	; 0
    6a60:	e1 2c       	mov	r14, r1
    6a62:	f1 2c       	mov	r15, r1
    6a64:	10 97       	sbiw	r26, 0x00	; 0
    6a66:	09 f4       	brne	.+2      	; 0x6a6a <realloc+0xb0>
    6a68:	4a c0       	rjmp	.+148    	; 0x6afe <realloc+0x144>
    6a6a:	a8 15       	cp	r26, r8
    6a6c:	b9 05       	cpc	r27, r9
    6a6e:	d1 f5       	brne	.+116    	; 0x6ae4 <realloc+0x12a>
    6a70:	6d 90       	ld	r6, X+
    6a72:	7c 90       	ld	r7, X
    6a74:	11 97       	sbiw	r26, 0x01	; 1
    6a76:	63 01       	movw	r12, r6
    6a78:	82 e0       	ldi	r24, 0x02	; 2
    6a7a:	c8 0e       	add	r12, r24
    6a7c:	d1 1c       	adc	r13, r1
    6a7e:	ca 14       	cp	r12, r10
    6a80:	db 04       	cpc	r13, r11
    6a82:	80 f1       	brcs	.+96     	; 0x6ae4 <realloc+0x12a>
    6a84:	a3 01       	movw	r20, r6
    6a86:	4a 19       	sub	r20, r10
    6a88:	5b 09       	sbc	r21, r11
    6a8a:	6a 01       	movw	r12, r20
    6a8c:	82 e0       	ldi	r24, 0x02	; 2
    6a8e:	c8 0e       	add	r12, r24
    6a90:	d1 1c       	adc	r13, r1
    6a92:	12 96       	adiw	r26, 0x02	; 2
    6a94:	bc 90       	ld	r11, X
    6a96:	12 97       	sbiw	r26, 0x02	; 2
    6a98:	13 96       	adiw	r26, 0x03	; 3
    6a9a:	ac 91       	ld	r26, X
    6a9c:	b5 e0       	ldi	r27, 0x05	; 5
    6a9e:	cb 16       	cp	r12, r27
    6aa0:	d1 04       	cpc	r13, r1
    6aa2:	40 f0       	brcs	.+16     	; 0x6ab4 <realloc+0xfa>
    6aa4:	b2 82       	std	Z+2, r11	; 0x02
    6aa6:	a3 83       	std	Z+3, r26	; 0x03
    6aa8:	51 83       	std	Z+1, r21	; 0x01
    6aaa:	40 83       	st	Z, r20
    6aac:	d9 01       	movw	r26, r18
    6aae:	6d 93       	st	X+, r22
    6ab0:	7c 93       	st	X, r23
    6ab2:	0a c0       	rjmp	.+20     	; 0x6ac8 <realloc+0x10e>
    6ab4:	0e 5f       	subi	r16, 0xFE	; 254
    6ab6:	1f 4f       	sbci	r17, 0xFF	; 255
    6ab8:	c3 01       	movw	r24, r6
    6aba:	80 0f       	add	r24, r16
    6abc:	91 1f       	adc	r25, r17
    6abe:	f9 01       	movw	r30, r18
    6ac0:	91 83       	std	Z+1, r25	; 0x01
    6ac2:	80 83       	st	Z, r24
    6ac4:	eb 2d       	mov	r30, r11
    6ac6:	fa 2f       	mov	r31, r26
    6ac8:	e1 14       	cp	r14, r1
    6aca:	f1 04       	cpc	r15, r1
    6acc:	31 f0       	breq	.+12     	; 0x6ada <realloc+0x120>
    6ace:	d7 01       	movw	r26, r14
    6ad0:	13 96       	adiw	r26, 0x03	; 3
    6ad2:	fc 93       	st	X, r31
    6ad4:	ee 93       	st	-X, r30
    6ad6:	12 97       	sbiw	r26, 0x02	; 2
    6ad8:	41 c0       	rjmp	.+130    	; 0x6b5c <realloc+0x1a2>
    6ada:	f0 93 ca 0f 	sts	0x0FCA, r31	; 0x800fca <__flp+0x1>
    6ade:	e0 93 c9 0f 	sts	0x0FC9, r30	; 0x800fc9 <__flp>
    6ae2:	3c c0       	rjmp	.+120    	; 0x6b5c <realloc+0x1a2>
    6ae4:	8d 91       	ld	r24, X+
    6ae6:	9c 91       	ld	r25, X
    6ae8:	11 97       	sbiw	r26, 0x01	; 1
    6aea:	48 17       	cp	r20, r24
    6aec:	59 07       	cpc	r21, r25
    6aee:	08 f4       	brcc	.+2      	; 0x6af2 <realloc+0x138>
    6af0:	ac 01       	movw	r20, r24
    6af2:	7d 01       	movw	r14, r26
    6af4:	12 96       	adiw	r26, 0x02	; 2
    6af6:	0d 90       	ld	r0, X+
    6af8:	bc 91       	ld	r27, X
    6afa:	a0 2d       	mov	r26, r0
    6afc:	b3 cf       	rjmp	.-154    	; 0x6a64 <realloc+0xaa>
    6afe:	80 91 c7 0f 	lds	r24, 0x0FC7	; 0x800fc7 <__brkval>
    6b02:	90 91 c8 0f 	lds	r25, 0x0FC8	; 0x800fc8 <__brkval+0x1>
    6b06:	88 15       	cp	r24, r8
    6b08:	99 05       	cpc	r25, r9
    6b0a:	e1 f4       	brne	.+56     	; 0x6b44 <realloc+0x18a>
    6b0c:	46 17       	cp	r20, r22
    6b0e:	57 07       	cpc	r21, r23
    6b10:	c8 f4       	brcc	.+50     	; 0x6b44 <realloc+0x18a>
    6b12:	80 91 00 02 	lds	r24, 0x0200	; 0x800200 <__data_start>
    6b16:	90 91 01 02 	lds	r25, 0x0201	; 0x800201 <__data_start+0x1>
    6b1a:	00 97       	sbiw	r24, 0x00	; 0
    6b1c:	41 f4       	brne	.+16     	; 0x6b2e <realloc+0x174>
    6b1e:	8d b7       	in	r24, 0x3d	; 61
    6b20:	9e b7       	in	r25, 0x3e	; 62
    6b22:	40 91 04 02 	lds	r20, 0x0204	; 0x800204 <__malloc_margin>
    6b26:	50 91 05 02 	lds	r21, 0x0205	; 0x800205 <__malloc_margin+0x1>
    6b2a:	84 1b       	sub	r24, r20
    6b2c:	95 0b       	sbc	r25, r21
    6b2e:	e8 17       	cp	r30, r24
    6b30:	f9 07       	cpc	r31, r25
    6b32:	b0 f4       	brcc	.+44     	; 0x6b60 <realloc+0x1a6>
    6b34:	f0 93 c8 0f 	sts	0x0FC8, r31	; 0x800fc8 <__brkval+0x1>
    6b38:	e0 93 c7 0f 	sts	0x0FC7, r30	; 0x800fc7 <__brkval>
    6b3c:	f9 01       	movw	r30, r18
    6b3e:	71 83       	std	Z+1, r23	; 0x01
    6b40:	60 83       	st	Z, r22
    6b42:	0c c0       	rjmp	.+24     	; 0x6b5c <realloc+0x1a2>
    6b44:	cb 01       	movw	r24, r22
    6b46:	0c de       	rcall	.-1000   	; 0x6760 <malloc>
    6b48:	7c 01       	movw	r14, r24
    6b4a:	00 97       	sbiw	r24, 0x00	; 0
    6b4c:	49 f0       	breq	.+18     	; 0x6b60 <realloc+0x1a6>
    6b4e:	a8 01       	movw	r20, r16
    6b50:	be 01       	movw	r22, r28
    6b52:	23 d0       	rcall	.+70     	; 0x6b9a <memcpy>
    6b54:	ce 01       	movw	r24, r28
    6b56:	99 de       	rcall	.-718    	; 0x688a <free>
    6b58:	c7 01       	movw	r24, r14
    6b5a:	04 c0       	rjmp	.+8      	; 0x6b64 <realloc+0x1aa>
    6b5c:	ce 01       	movw	r24, r28
    6b5e:	02 c0       	rjmp	.+4      	; 0x6b64 <realloc+0x1aa>
    6b60:	80 e0       	ldi	r24, 0x00	; 0
    6b62:	90 e0       	ldi	r25, 0x00	; 0
    6b64:	df 91       	pop	r29
    6b66:	cf 91       	pop	r28
    6b68:	1f 91       	pop	r17
    6b6a:	0f 91       	pop	r16
    6b6c:	ff 90       	pop	r15
    6b6e:	ef 90       	pop	r14
    6b70:	df 90       	pop	r13
    6b72:	cf 90       	pop	r12
    6b74:	bf 90       	pop	r11
    6b76:	af 90       	pop	r10
    6b78:	9f 90       	pop	r9
    6b7a:	8f 90       	pop	r8
    6b7c:	7f 90       	pop	r7
    6b7e:	6f 90       	pop	r6
    6b80:	08 95       	ret

00006b82 <abort>:
    6b82:	81 e0       	ldi	r24, 0x01	; 1
    6b84:	90 e0       	ldi	r25, 0x00	; 0
    6b86:	f8 94       	cli
    6b88:	21 c0       	rjmp	.+66     	; 0x6bcc <__do_global_dtors>

00006b8a <toupper>:
    6b8a:	91 11       	cpse	r25, r1
    6b8c:	08 95       	ret
    6b8e:	81 56       	subi	r24, 0x61	; 97
    6b90:	8a 51       	subi	r24, 0x1A	; 26
    6b92:	08 f4       	brcc	.+2      	; 0x6b96 <toupper+0xc>
    6b94:	80 52       	subi	r24, 0x20	; 32
    6b96:	85 58       	subi	r24, 0x85	; 133
    6b98:	08 95       	ret

00006b9a <memcpy>:
    6b9a:	fb 01       	movw	r30, r22
    6b9c:	dc 01       	movw	r26, r24
    6b9e:	02 c0       	rjmp	.+4      	; 0x6ba4 <memcpy+0xa>
    6ba0:	01 90       	ld	r0, Z+
    6ba2:	0d 92       	st	X+, r0
    6ba4:	41 50       	subi	r20, 0x01	; 1
    6ba6:	50 40       	sbci	r21, 0x00	; 0
    6ba8:	d8 f7       	brcc	.-10     	; 0x6ba0 <memcpy+0x6>
    6baa:	08 95       	ret

00006bac <strcmp>:
    6bac:	fb 01       	movw	r30, r22
    6bae:	dc 01       	movw	r26, r24
    6bb0:	8d 91       	ld	r24, X+
    6bb2:	01 90       	ld	r0, Z+
    6bb4:	80 19       	sub	r24, r0
    6bb6:	01 10       	cpse	r0, r1
    6bb8:	d9 f3       	breq	.-10     	; 0x6bb0 <strcmp+0x4>
    6bba:	99 0b       	sbc	r25, r25
    6bbc:	08 95       	ret

00006bbe <strcpy>:
    6bbe:	fb 01       	movw	r30, r22
    6bc0:	dc 01       	movw	r26, r24
    6bc2:	01 90       	ld	r0, Z+
    6bc4:	0d 92       	st	X+, r0
    6bc6:	00 20       	and	r0, r0
    6bc8:	e1 f7       	brne	.-8      	; 0x6bc2 <strcpy+0x4>
    6bca:	08 95       	ret

00006bcc <__do_global_dtors>:
    6bcc:	13 e0       	ldi	r17, 0x03	; 3
    6bce:	c0 ef       	ldi	r28, 0xF0	; 240
    6bd0:	d3 e0       	ldi	r29, 0x03	; 3
    6bd2:	00 e0       	ldi	r16, 0x00	; 0
    6bd4:	05 c0       	rjmp	.+10     	; 0x6be0 <__do_global_dtors+0x14>
    6bd6:	80 2f       	mov	r24, r16
    6bd8:	fe 01       	movw	r30, r28
    6bda:	9b dd       	rcall	.-1226   	; 0x6712 <__tablejump2__>
    6bdc:	21 96       	adiw	r28, 0x01	; 1
    6bde:	01 1d       	adc	r16, r1
    6be0:	c1 3f       	cpi	r28, 0xF1	; 241
    6be2:	d1 07       	cpc	r29, r17
    6be4:	80 e0       	ldi	r24, 0x00	; 0
    6be6:	08 07       	cpc	r16, r24
    6be8:	b1 f7       	brne	.-20     	; 0x6bd6 <__do_global_dtors+0xa>
    6bea:	f8 94       	cli

00006bec <__stop_program>:
    6bec:	ff cf       	rjmp	.-2      	; 0x6bec <__stop_program>
