
sketch_feb03a.elf:     file format elf32-avr

Sections:
Idx Name          Size      VMA       LMA       File off  Algn
  0 .data         00000a4a  00800200  00007264  000072f8  2**0
                  CONTENTS, ALLOC, LOAD, DATA
  1 .text         00007264  00000000  00000000  00000094  2**1
                  CONTENTS, ALLOC, LOAD, READONLY, CODE
  2 .bss          000003d0  00800c4a  00800c4a  00007d42  2**0
                  ALLOC
  3 .comment      00000030  00000000  00000000  00007d42  2**0
                  CONTENTS, READONLY
  4 .note.gnu.avr.deviceinfo 00000040  00000000  00000000  00007d74  2**2
                  CONTENTS, READONLY
  5 .debug_aranges 00000f18  00000000  00000000  00007db4  2**0
                  CONTENTS, READONLY, DEBUGGING
  6 .debug_info   000275b8  00000000  00000000  00008ccc  2**0
                  CONTENTS, READONLY, DEBUGGING
  7 .debug_abbrev 0000548d  00000000  00000000  00030284  2**0
                  CONTENTS, READONLY, DEBUGGING
  8 .debug_line   00008f98  00000000  00000000  00035711  2**0
                  CONTENTS, READONLY, DEBUGGING
  9 .debug_frame  00003dd8  00000000  00000000  0003e6ac  2**2
                  CONTENTS, READONLY, DEBUGGING
 10 .debug_str    000050d3  00000000  00000000  00042484  2**0
                  CONTENTS, READONLY, DEBUGGING
 11 .debug_loc    00018d80  00000000  00000000  00047557  2**0
                  CONTENTS, READONLY, DEBUGGING
 12 .debug_ranges 00001268  00000000  00000000  000602d7  2**0
                  CONTENTS, READONLY, DEBUGGING

Disassembly of section .text:

00000000 <__vectors>:
       0:	07 c4       	rjmp	.+2062   	; 0x810 <__dtors_end>
       2:	00 00       	nop
       4:	0c 94 f5 31 	jmp	0x63ea	; 0x63ea <__vector_1>
       8:	0c 94 20 32 	jmp	0x6440	; 0x6440 <__vector_2>
       c:	0c 94 4b 32 	jmp	0x6496	; 0x6496 <__vector_3>
      10:	0c 94 76 32 	jmp	0x64ec	; 0x64ec <__vector_4>
      14:	0c 94 a1 32 	jmp	0x6542	; 0x6542 <__vector_5>
      18:	0c 94 cc 32 	jmp	0x6598	; 0x6598 <__vector_6>
      1c:	0c 94 f7 32 	jmp	0x65ee	; 0x65ee <__vector_7>
      20:	0c 94 22 33 	jmp	0x6644	; 0x6644 <__vector_8>
      24:	26 c4       	rjmp	.+2124   	; 0x872 <__bad_interrupt>
      26:	00 00       	nop
      28:	24 c4       	rjmp	.+2120   	; 0x872 <__bad_interrupt>
      2a:	00 00       	nop
      2c:	22 c4       	rjmp	.+2116   	; 0x872 <__bad_interrupt>
      2e:	00 00       	nop
      30:	20 c4       	rjmp	.+2112   	; 0x872 <__bad_interrupt>
      32:	00 00       	nop
      34:	1e c4       	rjmp	.+2108   	; 0x872 <__bad_interrupt>
      36:	00 00       	nop
      38:	1c c4       	rjmp	.+2104   	; 0x872 <__bad_interrupt>
      3a:	00 00       	nop
      3c:	1a c4       	rjmp	.+2100   	; 0x872 <__bad_interrupt>
      3e:	00 00       	nop
      40:	18 c4       	rjmp	.+2096   	; 0x872 <__bad_interrupt>
      42:	00 00       	nop
      44:	0c 94 b2 27 	jmp	0x4f64	; 0x4f64 <__vector_17>
      48:	14 c4       	rjmp	.+2088   	; 0x872 <__bad_interrupt>
      4a:	00 00       	nop
      4c:	12 c4       	rjmp	.+2084   	; 0x872 <__bad_interrupt>
      4e:	00 00       	nop
      50:	10 c4       	rjmp	.+2080   	; 0x872 <__bad_interrupt>
      52:	00 00       	nop
      54:	0e c4       	rjmp	.+2076   	; 0x872 <__bad_interrupt>
      56:	00 00       	nop
      58:	0c c4       	rjmp	.+2072   	; 0x872 <__bad_interrupt>
      5a:	00 00       	nop
      5c:	0c 94 4d 33 	jmp	0x669a	; 0x669a <__vector_23>
      60:	08 c4       	rjmp	.+2064   	; 0x872 <__bad_interrupt>
      62:	00 00       	nop
      64:	0c 94 13 2e 	jmp	0x5c26	; 0x5c26 <__vector_25>
      68:	0c 94 49 2e 	jmp	0x5c92	; 0x5c92 <__vector_26>
      6c:	02 c4       	rjmp	.+2052   	; 0x872 <__bad_interrupt>
      6e:	00 00       	nop
      70:	00 c4       	rjmp	.+2048   	; 0x872 <__bad_interrupt>
      72:	00 00       	nop
      74:	fe c3       	rjmp	.+2044   	; 0x872 <__bad_interrupt>
      76:	00 00       	nop
      78:	fc c3       	rjmp	.+2040   	; 0x872 <__bad_interrupt>
      7a:	00 00       	nop
      7c:	fa c3       	rjmp	.+2036   	; 0x872 <__bad_interrupt>
      7e:	00 00       	nop
      80:	f8 c3       	rjmp	.+2032   	; 0x872 <__bad_interrupt>
      82:	00 00       	nop
      84:	f6 c3       	rjmp	.+2028   	; 0x872 <__bad_interrupt>
      86:	00 00       	nop
      88:	f4 c3       	rjmp	.+2024   	; 0x872 <__bad_interrupt>
      8a:	00 00       	nop
      8c:	f2 c3       	rjmp	.+2020   	; 0x872 <__bad_interrupt>
      8e:	00 00       	nop
      90:	f0 c3       	rjmp	.+2016   	; 0x872 <__bad_interrupt>
      92:	00 00       	nop
      94:	ee c3       	rjmp	.+2012   	; 0x872 <__bad_interrupt>
      96:	00 00       	nop
      98:	ec c3       	rjmp	.+2008   	; 0x872 <__bad_interrupt>
      9a:	00 00       	nop
      9c:	0c 94 6e 24 	jmp	0x48dc	; 0x48dc <__vector_39>
      a0:	e8 c3       	rjmp	.+2000   	; 0x872 <__bad_interrupt>
      a2:	00 00       	nop
      a4:	e6 c3       	rjmp	.+1996   	; 0x872 <__bad_interrupt>
      a6:	00 00       	nop
      a8:	e4 c3       	rjmp	.+1992   	; 0x872 <__bad_interrupt>
      aa:	00 00       	nop
      ac:	e2 c3       	rjmp	.+1988   	; 0x872 <__bad_interrupt>
      ae:	00 00       	nop
      b0:	e0 c3       	rjmp	.+1984   	; 0x872 <__bad_interrupt>
      b2:	00 00       	nop
      b4:	de c3       	rjmp	.+1980   	; 0x872 <__bad_interrupt>
      b6:	00 00       	nop
      b8:	dc c3       	rjmp	.+1976   	; 0x872 <__bad_interrupt>
      ba:	00 00       	nop
      bc:	da c3       	rjmp	.+1972   	; 0x872 <__bad_interrupt>
      be:	00 00       	nop
      c0:	d8 c3       	rjmp	.+1968   	; 0x872 <__bad_interrupt>
      c2:	00 00       	nop
      c4:	d6 c3       	rjmp	.+1964   	; 0x872 <__bad_interrupt>
      c6:	00 00       	nop
      c8:	d4 c3       	rjmp	.+1960   	; 0x872 <__bad_interrupt>
      ca:	00 00       	nop
      cc:	0c 94 a8 2e 	jmp	0x5d50	; 0x5d50 <__vector_51>
      d0:	0c 94 de 2e 	jmp	0x5dbc	; 0x5dbc <__vector_52>
      d4:	ce c3       	rjmp	.+1948   	; 0x872 <__bad_interrupt>
      d6:	00 00       	nop
      d8:	cc c3       	rjmp	.+1944   	; 0x872 <__bad_interrupt>
      da:	00 00       	nop
      dc:	ca c3       	rjmp	.+1940   	; 0x872 <__bad_interrupt>
      de:	00 00       	nop
      e0:	c8 c3       	rjmp	.+1936   	; 0x872 <__bad_interrupt>
      e2:	00 00       	nop
      e4:	08 4a       	sbci	r16, 0xA8	; 168
      e6:	d7 3b       	cpi	r29, 0xB7	; 183
      e8:	3b ce       	rjmp	.-906    	; 0xfffffd60 <__eeprom_end+0xff7efd60>
      ea:	01 6e       	ori	r16, 0xE1	; 225
      ec:	84 bc       	out	0x24, r8	; 36
      ee:	bf fd       	.word	0xfdbf	; ????
      f0:	c1 2f       	mov	r28, r17
      f2:	3d 6c       	ori	r19, 0xCD	; 205
      f4:	74 31       	cpi	r23, 0x14	; 20
      f6:	9a bd       	out	0x2a, r25	; 42
      f8:	56 83       	std	Z+6, r21	; 0x06
      fa:	3d da       	rcall	.-2950   	; 0xfffff576 <__eeprom_end+0xff7ef576>
      fc:	3d 00       	.word	0x003d	; ????
      fe:	c7 7f       	andi	r28, 0xF7	; 247
     100:	11 be       	out	0x31, r1	; 49
     102:	d9 e4       	ldi	r29, 0x49	; 73
     104:	bb 4c       	sbci	r27, 0xCB	; 203
     106:	3e 91       	ld	r19, -X
     108:	6b aa       	std	Y+51, r6	; 0x33
     10a:	aa be       	out	0x3a, r10	; 58
     10c:	00 00       	nop
     10e:	00 80       	ld	r0, Z
     110:	3f 05       	cpc	r19, r15
     112:	a8 4c       	sbci	r26, 0xC8	; 200
     114:	cd b2       	in	r12, 0x1d	; 29
     116:	d4 4e       	sbci	r29, 0xE4	; 228
     118:	b9 38       	cpi	r27, 0x89	; 137
     11a:	36 a9       	ldd	r19, Z+54	; 0x36
     11c:	02 0c       	add	r0, r2
     11e:	50 b9       	out	0x00, r21	; 0
     120:	91 86       	std	Z+9, r9	; 0x09
     122:	88 08       	sbc	r8, r8
     124:	3c a6       	std	Y+44, r3	; 0x2c
     126:	aa aa       	std	Y+50, r10	; 0x32
     128:	2a be       	out	0x3a, r2	; 58
     12a:	00 00       	nop
     12c:	00 80       	ld	r0, Z
     12e:	3f 07       	cpc	r19, r31
     130:	63 42       	sbci	r22, 0x23	; 35
     132:	36 b7       	in	r19, 0x36	; 54
     134:	9b d8       	rcall	.-3786   	; 0xfffff26c <__eeprom_end+0xff7ef26c>
     136:	a7 1a       	sub	r10, r23
     138:	39 68       	ori	r19, 0x89	; 137
     13a:	56 18       	sub	r5, r6
     13c:	ae ba       	out	0x1e, r10	; 30
     13e:	ab 55       	subi	r26, 0x5B	; 91
     140:	8c 1d       	adc	r24, r12
     142:	3c b7       	in	r19, 0x3c	; 60
     144:	cc 57       	subi	r28, 0x7C	; 124
     146:	63 bd       	out	0x23, r22	; 35
     148:	6d ed       	ldi	r22, 0xDD	; 221
     14a:	fd 75       	andi	r31, 0x5D	; 93
     14c:	3e f6       	brtc	.-114    	; 0xdc <__SREG__+0x9d>
     14e:	17 72       	andi	r17, 0x27	; 39
     150:	31 bf       	out	0x31, r19	; 49
     152:	00 00       	nop
     154:	00 80       	ld	r0, Z
     156:	3f 08       	sbc	r3, r15
     158:	00 00       	nop
     15a:	00 be       	out	0x30, r0	; 48
     15c:	92 24       	eor	r9, r2
     15e:	49 12       	cpse	r4, r25
     160:	3e ab       	std	Y+54, r19	; 0x36
     162:	aa aa       	std	Y+50, r10	; 0x32
     164:	2a be       	out	0x3a, r2	; 58
     166:	cd cc       	rjmp	.-1638   	; 0xfffffb02 <__eeprom_end+0xff7efb02>
     168:	cc 4c       	sbci	r28, 0xCC	; 204
     16a:	3e 00       	.word	0x003e	; ????
     16c:	00 00       	nop
     16e:	80 be       	out	0x30, r8	; 48
     170:	ab aa       	std	Y+51, r10	; 0x33
     172:	aa aa       	std	Y+50, r10	; 0x32
     174:	3e 00       	.word	0x003e	; ????
     176:	00 00       	nop
     178:	00 bf       	out	0x30, r16	; 48
     17a:	00 00       	nop
     17c:	00 80       	ld	r0, Z
     17e:	3f 00       	.word	0x003f	; ????
     180:	00 00       	nop
     182:	00 00       	nop
     184:	08 41       	sbci	r16, 0x18	; 24
     186:	78 d3       	rcall	.+1776   	; 0x878 <_ZN5Print17availableForWriteEv+0x4>
     188:	bb 43       	sbci	r27, 0x3B	; 59
     18a:	87 d1       	rcall	.+782    	; 0x49a <__FUSE_REGION_LENGTH__+0x9a>
     18c:	13 3d       	cpi	r17, 0xD3	; 211
     18e:	19 0e       	add	r1, r25
     190:	3c c3       	rjmp	.+1656   	; 0x80a <__ctors_start+0x6>
     192:	bd 42       	sbci	r27, 0x2D	; 45
     194:	82 ad       	ldd	r24, Z+58	; 0x3a
     196:	2b 3e       	cpi	r18, 0xEB	; 235
     198:	68 ec       	ldi	r22, 0xC8	; 200
     19a:	82 76       	andi	r24, 0x62	; 98
     19c:	be d9       	rcall	.-3204   	; 0xfffff51a <__eeprom_end+0xff7ef51a>
     19e:	8f e1       	ldi	r24, 0x1F	; 31
     1a0:	a9 3e       	cpi	r26, 0xE9	; 233
     1a2:	4c 80       	ldd	r4, Y+4	; 0x04
     1a4:	ef ff       	.word	0xffef	; ????
     1a6:	be 01       	movw	r22, r28
     1a8:	c4 ff       	sbrs	r28, 4
     1aa:	7f 3f       	cpi	r23, 0xFF	; 255
     1ac:	00 00       	nop
     1ae:	00 00       	nop
     1b0:	00 00       	nop
     1b2:	cf 31       	cpi	r28, 0x1F	; 31
     1b4:	99 31       	cpi	r25, 0x19	; 25
     1b6:	a1 31       	cpi	r26, 0x11	; 17
     1b8:	ad 31       	cpi	r26, 0x1D	; 29
     1ba:	ba 31       	cpi	r27, 0x1A	; 26
     1bc:	db 31       	cpi	r29, 0x1B	; 27
     1be:	e8 31       	cpi	r30, 0x18	; 24
     1c0:	88 34       	cpi	r24, 0x48	; 72
     1c2:	8b 34       	cpi	r24, 0x4B	; 75
     1c4:	7a 34       	cpi	r23, 0x4A	; 74
     1c6:	7e 34       	cpi	r23, 0x4E	; 78
     1c8:	84 34       	cpi	r24, 0x44	; 68
     1ca:	c2 34       	cpi	r28, 0x42	; 66
     1cc:	8f 34       	cpi	r24, 0x4F	; 79
     1ce:	93 34       	cpi	r25, 0x43	; 67
     1d0:	99 34       	cpi	r25, 0x49	; 73
     1d2:	9d 34       	cpi	r25, 0x4D	; 77
     1d4:	a1 34       	cpi	r26, 0x41	; 65
     1d6:	a7 34       	cpi	r26, 0x47	; 71
     1d8:	ab 34       	cpi	r26, 0x4B	; 75
     1da:	af 34       	cpi	r26, 0x4F	; 79
     1dc:	c2 34       	cpi	r28, 0x42	; 66
     1de:	b5 34       	cpi	r27, 0x45	; 69
     1e0:	b9 34       	cpi	r27, 0x49	; 73
     1e2:	bd 34       	cpi	r27, 0x4D	; 77

000001e4 <__trampolines_end>:
     1e4:	00 00       	nop
     1e6:	00 00       	nop
     1e8:	00 3e       	cpi	r16, 0xE0	; 224
     1ea:	5b 4f       	sbci	r21, 0xFB	; 251
     1ec:	5b 3e       	cpi	r21, 0xEB	; 235
     1ee:	3e 6b       	ori	r19, 0xBE	; 190
     1f0:	4f 6b       	ori	r20, 0xBF	; 191
     1f2:	3e 1c       	adc	r3, r14
     1f4:	3e 7c       	andi	r19, 0xCE	; 206
     1f6:	3e 1c       	adc	r3, r14
     1f8:	18 3c       	cpi	r17, 0xC8	; 200
     1fa:	7e 3c       	cpi	r23, 0xCE	; 206
     1fc:	18 1c       	adc	r1, r8
     1fe:	57 7d       	andi	r21, 0xD7	; 215
     200:	57 1c       	adc	r5, r7
     202:	1c 5e       	subi	r17, 0xEC	; 236
     204:	7f 5e       	subi	r23, 0xEF	; 239
     206:	1c 00       	.word	0x001c	; ????
     208:	18 3c       	cpi	r17, 0xC8	; 200
     20a:	18 00       	.word	0x0018	; ????
     20c:	ff e7       	ldi	r31, 0x7F	; 127
     20e:	c3 e7       	ldi	r28, 0x73	; 115
     210:	ff 00       	.word	0x00ff	; ????
     212:	18 24       	eor	r1, r8
     214:	18 00       	.word	0x0018	; ????
     216:	ff e7       	ldi	r31, 0x7F	; 127
     218:	db e7       	ldi	r29, 0x7B	; 123
     21a:	ff 30       	cpi	r31, 0x0F	; 15
     21c:	48 3a       	cpi	r20, 0xA8	; 168
     21e:	06 0e       	add	r0, r22
     220:	26 29       	or	r18, r6
     222:	79 29       	or	r23, r9
     224:	26 40       	sbci	r18, 0x06	; 6
     226:	7f 05       	cpc	r23, r15
     228:	05 07       	cpc	r16, r21
     22a:	40 7f       	andi	r20, 0xF0	; 240
     22c:	05 25       	eor	r16, r5
     22e:	3f 5a       	subi	r19, 0xAF	; 175
     230:	3c e7       	ldi	r19, 0x7C	; 124
     232:	3c 5a       	subi	r19, 0xAC	; 172
     234:	7f 3e       	cpi	r23, 0xEF	; 239
     236:	1c 1c       	adc	r1, r12
     238:	08 08       	sbc	r0, r8
     23a:	1c 1c       	adc	r1, r12
     23c:	3e 7f       	andi	r19, 0xFE	; 254
     23e:	14 22       	and	r1, r20
     240:	7f 22       	and	r7, r31
     242:	14 5f       	subi	r17, 0xF4	; 244
     244:	5f 00       	.word	0x005f	; ????
     246:	5f 5f       	subi	r21, 0xFF	; 255
     248:	06 09       	sbc	r16, r6
     24a:	7f 01       	movw	r14, r30
     24c:	7f 00       	.word	0x007f	; ????
     24e:	66 89       	ldd	r22, Z+22	; 0x16
     250:	95 6a       	ori	r25, 0xA5	; 165
     252:	60 60       	ori	r22, 0x00	; 0
     254:	60 60       	ori	r22, 0x00	; 0
     256:	60 94       	com	r6
     258:	a2 ff       	sbrs	r26, 2
     25a:	a2 94       	swap	r10
     25c:	08 04       	cpc	r0, r8
     25e:	7e 04       	cpc	r7, r14
     260:	08 10       	cpse	r0, r8
     262:	20 7e       	andi	r18, 0xE0	; 224
     264:	20 10       	cpse	r2, r0
     266:	08 08       	sbc	r0, r8
     268:	2a 1c       	adc	r2, r10
     26a:	08 08       	sbc	r0, r8
     26c:	1c 2a       	or	r1, r28
     26e:	08 08       	sbc	r0, r8
     270:	1e 10       	cpse	r1, r14
     272:	10 10       	cpse	r1, r0
     274:	10 0c       	add	r1, r0
     276:	1e 0c       	add	r1, r14
     278:	1e 0c       	add	r1, r14
     27a:	30 38       	cpi	r19, 0x80	; 128
     27c:	3e 38       	cpi	r19, 0x8E	; 142
     27e:	30 06       	cpc	r3, r16
     280:	0e 3e       	cpi	r16, 0xEE	; 238
     282:	0e 06       	cpc	r0, r30
     284:	00 00       	nop
     286:	00 00       	nop
     288:	00 00       	nop
     28a:	00 5f       	subi	r16, 0xF0	; 240
     28c:	00 00       	nop
     28e:	00 07       	cpc	r16, r16
     290:	00 07       	cpc	r16, r16
     292:	00 14       	cp	r0, r0
     294:	7f 14       	cp	r7, r15
     296:	7f 14       	cp	r7, r15
     298:	24 2a       	or	r2, r20
     29a:	7f 2a       	or	r7, r31
     29c:	12 23       	and	r17, r18
     29e:	13 08       	sbc	r1, r3
     2a0:	64 62       	ori	r22, 0x24	; 36
     2a2:	36 49       	sbci	r19, 0x96	; 150
     2a4:	56 20       	and	r5, r6
     2a6:	50 00       	.word	0x0050	; ????
     2a8:	08 07       	cpc	r16, r24
     2aa:	03 00       	.word	0x0003	; ????
     2ac:	00 1c       	adc	r0, r0
     2ae:	22 41       	sbci	r18, 0x12	; 18
     2b0:	00 00       	nop
     2b2:	41 22       	and	r4, r17
     2b4:	1c 00       	.word	0x001c	; ????
     2b6:	2a 1c       	adc	r2, r10
     2b8:	7f 1c       	adc	r7, r15
     2ba:	2a 08       	sbc	r2, r10
     2bc:	08 3e       	cpi	r16, 0xE8	; 232
     2be:	08 08       	sbc	r0, r8
     2c0:	00 80       	ld	r0, Z
     2c2:	70 30       	cpi	r23, 0x00	; 0
     2c4:	00 08       	sbc	r0, r0
     2c6:	08 08       	sbc	r0, r8
     2c8:	08 08       	sbc	r0, r8
     2ca:	00 00       	nop
     2cc:	60 60       	ori	r22, 0x00	; 0
     2ce:	00 20       	and	r0, r0
     2d0:	10 08       	sbc	r1, r0
     2d2:	04 02       	muls	r16, r20
     2d4:	3e 51       	subi	r19, 0x1E	; 30
     2d6:	49 45       	sbci	r20, 0x59	; 89
     2d8:	3e 00       	.word	0x003e	; ????
     2da:	42 7f       	andi	r20, 0xF2	; 242
     2dc:	40 00       	.word	0x0040	; ????
     2de:	72 49       	sbci	r23, 0x92	; 146
     2e0:	49 49       	sbci	r20, 0x99	; 153
     2e2:	46 21       	and	r20, r6
     2e4:	41 49       	sbci	r20, 0x91	; 145
     2e6:	4d 33       	cpi	r20, 0x3D	; 61
     2e8:	18 14       	cp	r1, r8
     2ea:	12 7f       	andi	r17, 0xF2	; 242
     2ec:	10 27       	eor	r17, r16
     2ee:	45 45       	sbci	r20, 0x55	; 85
     2f0:	45 39       	cpi	r20, 0x95	; 149
     2f2:	3c 4a       	sbci	r19, 0xAC	; 172
     2f4:	49 49       	sbci	r20, 0x99	; 153
     2f6:	31 41       	sbci	r19, 0x11	; 17
     2f8:	21 11       	cpse	r18, r1
     2fa:	09 07       	cpc	r16, r25
     2fc:	36 49       	sbci	r19, 0x96	; 150
     2fe:	49 49       	sbci	r20, 0x99	; 153
     300:	36 46       	sbci	r19, 0x66	; 102
     302:	49 49       	sbci	r20, 0x99	; 153
     304:	29 1e       	adc	r2, r25
     306:	00 00       	nop
     308:	14 00       	.word	0x0014	; ????
     30a:	00 00       	nop
     30c:	40 34       	cpi	r20, 0x40	; 64
     30e:	00 00       	nop
     310:	00 08       	sbc	r0, r0
     312:	14 22       	and	r1, r20
     314:	41 14       	cp	r4, r1
     316:	14 14       	cp	r1, r4
     318:	14 14       	cp	r1, r4
     31a:	00 41       	sbci	r16, 0x10	; 16
     31c:	22 14       	cp	r2, r2
     31e:	08 02       	muls	r16, r24
     320:	01 59       	subi	r16, 0x91	; 145
     322:	09 06       	cpc	r0, r25
     324:	3e 41       	sbci	r19, 0x1E	; 30
     326:	5d 59       	subi	r21, 0x9D	; 157
     328:	4e 7c       	andi	r20, 0xCE	; 206
     32a:	12 11       	cpse	r17, r2
     32c:	12 7c       	andi	r17, 0xC2	; 194
     32e:	7f 49       	sbci	r23, 0x9F	; 159
     330:	49 49       	sbci	r20, 0x99	; 153
     332:	36 3e       	cpi	r19, 0xE6	; 230
     334:	41 41       	sbci	r20, 0x11	; 17
     336:	41 22       	and	r4, r17
     338:	7f 41       	sbci	r23, 0x1F	; 31
     33a:	41 41       	sbci	r20, 0x11	; 17
     33c:	3e 7f       	andi	r19, 0xFE	; 254
     33e:	49 49       	sbci	r20, 0x99	; 153
     340:	49 41       	sbci	r20, 0x19	; 25
     342:	7f 09       	sbc	r23, r15
     344:	09 09       	sbc	r16, r9
     346:	01 3e       	cpi	r16, 0xE1	; 225
     348:	41 41       	sbci	r20, 0x11	; 17
     34a:	51 73       	andi	r21, 0x31	; 49
     34c:	7f 08       	sbc	r7, r15
     34e:	08 08       	sbc	r0, r8
     350:	7f 00       	.word	0x007f	; ????
     352:	41 7f       	andi	r20, 0xF1	; 241
     354:	41 00       	.word	0x0041	; ????
     356:	20 40       	sbci	r18, 0x00	; 0
     358:	41 3f       	cpi	r20, 0xF1	; 241
     35a:	01 7f       	andi	r16, 0xF1	; 241
     35c:	08 14       	cp	r0, r8
     35e:	22 41       	sbci	r18, 0x12	; 18
     360:	7f 40       	sbci	r23, 0x0F	; 15
     362:	40 40       	sbci	r20, 0x00	; 0
     364:	40 7f       	andi	r20, 0xF0	; 240
     366:	02 1c       	adc	r0, r2
     368:	02 7f       	andi	r16, 0xF2	; 242
     36a:	7f 04       	cpc	r7, r15
     36c:	08 10       	cpse	r0, r8
     36e:	7f 3e       	cpi	r23, 0xEF	; 239
     370:	41 41       	sbci	r20, 0x11	; 17
     372:	41 3e       	cpi	r20, 0xE1	; 225
     374:	7f 09       	sbc	r23, r15
     376:	09 09       	sbc	r16, r9
     378:	06 3e       	cpi	r16, 0xE6	; 230
     37a:	41 51       	subi	r20, 0x11	; 17
     37c:	21 5e       	subi	r18, 0xE1	; 225
     37e:	7f 09       	sbc	r23, r15
     380:	19 29       	or	r17, r9
     382:	46 26       	eor	r4, r22
     384:	49 49       	sbci	r20, 0x99	; 153
     386:	49 32       	cpi	r20, 0x29	; 41
     388:	03 01       	movw	r0, r6
     38a:	7f 01       	movw	r14, r30
     38c:	03 3f       	cpi	r16, 0xF3	; 243
     38e:	40 40       	sbci	r20, 0x00	; 0
     390:	40 3f       	cpi	r20, 0xF0	; 240
     392:	1f 20       	and	r1, r15
     394:	40 20       	and	r4, r0
     396:	1f 3f       	cpi	r17, 0xFF	; 255
     398:	40 38       	cpi	r20, 0x80	; 128
     39a:	40 3f       	cpi	r20, 0xF0	; 240
     39c:	63 14       	cp	r6, r3
     39e:	08 14       	cp	r0, r8
     3a0:	63 03       	mulsu	r22, r19
     3a2:	04 78       	andi	r16, 0x84	; 132
     3a4:	04 03       	mulsu	r16, r20
     3a6:	61 59       	subi	r22, 0x91	; 145
     3a8:	49 4d       	sbci	r20, 0xD9	; 217
     3aa:	43 00       	.word	0x0043	; ????
     3ac:	7f 41       	sbci	r23, 0x1F	; 31
     3ae:	41 41       	sbci	r20, 0x11	; 17
     3b0:	02 04       	cpc	r0, r2
     3b2:	08 10       	cpse	r0, r8
     3b4:	20 00       	.word	0x0020	; ????
     3b6:	41 41       	sbci	r20, 0x11	; 17
     3b8:	41 7f       	andi	r20, 0xF1	; 241
     3ba:	04 02       	muls	r16, r20
     3bc:	01 02       	muls	r16, r17
     3be:	04 40       	sbci	r16, 0x04	; 4
     3c0:	40 40       	sbci	r20, 0x00	; 0
     3c2:	40 40       	sbci	r20, 0x00	; 0
     3c4:	00 03       	mulsu	r16, r16
     3c6:	07 08       	sbc	r0, r7
     3c8:	00 20       	and	r0, r0
     3ca:	54 54       	subi	r21, 0x44	; 68
     3cc:	78 40       	sbci	r23, 0x08	; 8
     3ce:	7f 28       	or	r7, r15
     3d0:	44 44       	sbci	r20, 0x44	; 68
     3d2:	38 38       	cpi	r19, 0x88	; 136
     3d4:	44 44       	sbci	r20, 0x44	; 68
     3d6:	44 28       	or	r4, r4
     3d8:	38 44       	sbci	r19, 0x48	; 72
     3da:	44 28       	or	r4, r4
     3dc:	7f 38       	cpi	r23, 0x8F	; 143
     3de:	54 54       	subi	r21, 0x44	; 68
     3e0:	54 18       	sub	r5, r4
     3e2:	00 08       	sbc	r0, r0
     3e4:	7e 09       	sbc	r23, r14
     3e6:	02 18       	sub	r0, r2
     3e8:	a4 a4       	ldd	r10, Z+44	; 0x2c
     3ea:	9c 78       	andi	r25, 0x8C	; 140
     3ec:	7f 08       	sbc	r7, r15
     3ee:	04 04       	cpc	r0, r4
     3f0:	78 00       	.word	0x0078	; ????
     3f2:	44 7d       	andi	r20, 0xD4	; 212
     3f4:	40 00       	.word	0x0040	; ????
     3f6:	20 40       	sbci	r18, 0x00	; 0
     3f8:	40 3d       	cpi	r20, 0xD0	; 208
     3fa:	00 7f       	andi	r16, 0xF0	; 240
     3fc:	10 28       	or	r1, r0
     3fe:	44 00       	.word	0x0044	; ????
     400:	00 41       	sbci	r16, 0x10	; 16
     402:	7f 40       	sbci	r23, 0x0F	; 15
     404:	00 7c       	andi	r16, 0xC0	; 192
     406:	04 78       	andi	r16, 0x84	; 132
     408:	04 78       	andi	r16, 0x84	; 132
     40a:	7c 08       	sbc	r7, r12
     40c:	04 04       	cpc	r0, r4
     40e:	78 38       	cpi	r23, 0x88	; 136
     410:	44 44       	sbci	r20, 0x44	; 68
     412:	44 38       	cpi	r20, 0x84	; 132
     414:	fc 18       	sub	r15, r12
     416:	24 24       	eor	r2, r4
     418:	18 18       	sub	r1, r8
     41a:	24 24       	eor	r2, r4
     41c:	18 fc       	.word	0xfc18	; ????
     41e:	7c 08       	sbc	r7, r12
     420:	04 04       	cpc	r0, r4
     422:	08 48       	sbci	r16, 0x88	; 136
     424:	54 54       	subi	r21, 0x44	; 68
     426:	54 24       	eor	r5, r4
     428:	04 04       	cpc	r0, r4
     42a:	3f 44       	sbci	r19, 0x4F	; 79
     42c:	24 3c       	cpi	r18, 0xC4	; 196
     42e:	40 40       	sbci	r20, 0x00	; 0
     430:	20 7c       	andi	r18, 0xC0	; 192
     432:	1c 20       	and	r1, r12
     434:	40 20       	and	r4, r0
     436:	1c 3c       	cpi	r17, 0xCC	; 204
     438:	40 30       	cpi	r20, 0x00	; 0
     43a:	40 3c       	cpi	r20, 0xC0	; 192
     43c:	44 28       	or	r4, r4
     43e:	10 28       	or	r1, r0
     440:	44 4c       	sbci	r20, 0xC4	; 196
     442:	90 90 90 7c 	lds	r9, 0x7C90	; 0x807c90 <__bss_end+0x6c76>
     446:	44 64       	ori	r20, 0x44	; 68
     448:	54 4c       	sbci	r21, 0xC4	; 196
     44a:	44 00       	.word	0x0044	; ????
     44c:	08 36       	cpi	r16, 0x68	; 104
     44e:	41 00       	.word	0x0041	; ????
     450:	00 00       	nop
     452:	77 00       	.word	0x0077	; ????
     454:	00 00       	nop
     456:	41 36       	cpi	r20, 0x61	; 97
     458:	08 00       	.word	0x0008	; ????
     45a:	02 01       	movw	r0, r4
     45c:	02 04       	cpc	r0, r2
     45e:	02 3c       	cpi	r16, 0xC2	; 194
     460:	26 23       	and	r18, r22
     462:	26 3c       	cpi	r18, 0xC6	; 198
     464:	1e a1       	ldd	r17, Y+38	; 0x26
     466:	a1 61       	ori	r26, 0x11	; 17
     468:	12 3a       	cpi	r17, 0xA2	; 162
     46a:	40 40       	sbci	r20, 0x00	; 0
     46c:	20 7a       	andi	r18, 0xA0	; 160
     46e:	38 54       	subi	r19, 0x48	; 72
     470:	54 55       	subi	r21, 0x54	; 84
     472:	59 21       	and	r21, r9
     474:	55 55       	subi	r21, 0x55	; 85
     476:	79 41       	sbci	r23, 0x19	; 25
     478:	22 54       	subi	r18, 0x42	; 66
     47a:	54 78       	andi	r21, 0x84	; 132
     47c:	42 21       	and	r20, r2
     47e:	55 54       	subi	r21, 0x45	; 69
     480:	78 40       	sbci	r23, 0x08	; 8
     482:	20 54       	subi	r18, 0x40	; 64
     484:	55 79       	andi	r21, 0x95	; 149
     486:	40 0c       	add	r4, r0
     488:	1e 52       	subi	r17, 0x2E	; 46
     48a:	72 12       	cpse	r7, r18
     48c:	39 55       	subi	r19, 0x59	; 89
     48e:	55 55       	subi	r21, 0x55	; 85
     490:	59 39       	cpi	r21, 0x99	; 153
     492:	54 54       	subi	r21, 0x44	; 68
     494:	54 59       	subi	r21, 0x94	; 148
     496:	39 55       	subi	r19, 0x59	; 89
     498:	54 54       	subi	r21, 0x44	; 68
     49a:	58 00       	.word	0x0058	; ????
     49c:	00 45       	sbci	r16, 0x50	; 80
     49e:	7c 41       	sbci	r23, 0x1C	; 28
     4a0:	00 02       	muls	r16, r16
     4a2:	45 7d       	andi	r20, 0xD5	; 213
     4a4:	42 00       	.word	0x0042	; ????
     4a6:	01 45       	sbci	r16, 0x51	; 81
     4a8:	7c 40       	sbci	r23, 0x0C	; 12
     4aa:	7d 12       	cpse	r7, r29
     4ac:	11 12       	cpse	r1, r17
     4ae:	7d f0       	brhs	.+30     	; 0x4ce <__FUSE_REGION_LENGTH__+0xce>
     4b0:	28 25       	eor	r18, r8
     4b2:	28 f0       	brcs	.+10     	; 0x4be <__FUSE_REGION_LENGTH__+0xbe>
     4b4:	7c 54       	subi	r23, 0x4C	; 76
     4b6:	55 45       	sbci	r21, 0x55	; 85
     4b8:	00 20       	and	r0, r0
     4ba:	54 54       	subi	r21, 0x44	; 68
     4bc:	7c 54       	subi	r23, 0x4C	; 76
     4be:	7c 0a       	sbc	r7, r28
     4c0:	09 7f       	andi	r16, 0xF9	; 249
     4c2:	49 32       	cpi	r20, 0x29	; 41
     4c4:	49 49       	sbci	r20, 0x99	; 153
     4c6:	49 32       	cpi	r20, 0x29	; 41
     4c8:	3a 44       	sbci	r19, 0x4A	; 74
     4ca:	44 44       	sbci	r20, 0x44	; 68
     4cc:	3a 32       	cpi	r19, 0x2A	; 42
     4ce:	4a 48       	sbci	r20, 0x8A	; 138
     4d0:	48 30       	cpi	r20, 0x08	; 8
     4d2:	3a 41       	sbci	r19, 0x1A	; 26
     4d4:	41 21       	and	r20, r1
     4d6:	7a 3a       	cpi	r23, 0xAA	; 170
     4d8:	42 40       	sbci	r20, 0x02	; 2
     4da:	20 78       	andi	r18, 0x80	; 128
     4dc:	00 9d       	mul	r16, r0
     4de:	a0 a0       	ldd	r10, Z+32	; 0x20
     4e0:	7d 3d       	cpi	r23, 0xDD	; 221
     4e2:	42 42       	sbci	r20, 0x22	; 34
     4e4:	42 3d       	cpi	r20, 0xD2	; 210
     4e6:	3d 40       	sbci	r19, 0x0D	; 13
     4e8:	40 40       	sbci	r20, 0x00	; 0
     4ea:	3d 3c       	cpi	r19, 0xCD	; 205
     4ec:	24 ff       	sbrs	r18, 4
     4ee:	24 24       	eor	r2, r4
     4f0:	48 7e       	andi	r20, 0xE8	; 232
     4f2:	49 43       	sbci	r20, 0x39	; 57
     4f4:	66 2b       	or	r22, r22
     4f6:	2f fc       	.word	0xfc2f	; ????
     4f8:	2f 2b       	or	r18, r31
     4fa:	ff 09       	sbc	r31, r15
     4fc:	29 f6       	brne	.-118    	; 0x488 <__FUSE_REGION_LENGTH__+0x88>
     4fe:	20 c0       	rjmp	.+64     	; 0x540 <__FUSE_REGION_LENGTH__+0x140>
     500:	88 7e       	andi	r24, 0xE8	; 232
     502:	09 03       	fmul	r16, r17
     504:	20 54       	subi	r18, 0x40	; 64
     506:	54 79       	andi	r21, 0x94	; 148
     508:	41 00       	.word	0x0041	; ????
     50a:	00 44       	sbci	r16, 0x40	; 64
     50c:	7d 41       	sbci	r23, 0x1D	; 29
     50e:	30 48       	sbci	r19, 0x80	; 128
     510:	48 4a       	sbci	r20, 0xA8	; 168
     512:	32 38       	cpi	r19, 0x82	; 130
     514:	40 40       	sbci	r20, 0x00	; 0
     516:	22 7a       	andi	r18, 0xA2	; 162
     518:	00 7a       	andi	r16, 0xA0	; 160
     51a:	0a 0a       	sbc	r0, r26
     51c:	72 7d       	andi	r23, 0xD2	; 210
     51e:	0d 19       	sub	r16, r13
     520:	31 7d       	andi	r19, 0xD1	; 209
     522:	26 29       	or	r18, r6
     524:	29 2f       	mov	r18, r25
     526:	28 26       	eor	r2, r24
     528:	29 29       	or	r18, r9
     52a:	29 26       	eor	r2, r25
     52c:	30 48       	sbci	r19, 0x80	; 128
     52e:	4d 40       	sbci	r20, 0x0D	; 13
     530:	20 38       	cpi	r18, 0x80	; 128
     532:	08 08       	sbc	r0, r8
     534:	08 08       	sbc	r0, r8
     536:	08 08       	sbc	r0, r8
     538:	08 08       	sbc	r0, r8
     53a:	38 2f       	mov	r19, r24
     53c:	10 c8       	rjmp	.-4064   	; 0xfffff55e <__eeprom_end+0xff7ef55e>
     53e:	ac ba       	out	0x1c, r10	; 28
     540:	2f 10       	cpse	r2, r15
     542:	28 34       	cpi	r18, 0x48	; 72
     544:	fa 00       	.word	0x00fa	; ????
     546:	00 7b       	andi	r16, 0xB0	; 176
     548:	00 00       	nop
     54a:	08 14       	cp	r0, r8
     54c:	2a 14       	cp	r2, r10
     54e:	22 22       	and	r2, r18
     550:	14 2a       	or	r1, r20
     552:	14 08       	sbc	r1, r4
     554:	55 00       	.word	0x0055	; ????
     556:	55 00       	.word	0x0055	; ????
     558:	55 aa       	std	Z+53, r5	; 0x35
     55a:	55 aa       	std	Z+53, r5	; 0x35
     55c:	55 aa       	std	Z+53, r5	; 0x35
     55e:	ff 55       	subi	r31, 0x5F	; 95
     560:	ff 55       	subi	r31, 0x5F	; 95
     562:	ff 00       	.word	0x00ff	; ????
     564:	00 00       	nop
     566:	ff 00       	.word	0x00ff	; ????
     568:	10 10       	cpse	r1, r0
     56a:	10 ff       	sbrs	r17, 0
     56c:	00 14       	cp	r0, r0
     56e:	14 14       	cp	r1, r4
     570:	ff 00       	.word	0x00ff	; ????
     572:	10 10       	cpse	r1, r0
     574:	ff 00       	.word	0x00ff	; ????
     576:	ff 10       	cpse	r15, r15
     578:	10 f0       	brcs	.+4      	; 0x57e <__FUSE_REGION_LENGTH__+0x17e>
     57a:	10 f0       	brcs	.+4      	; 0x580 <__FUSE_REGION_LENGTH__+0x180>
     57c:	14 14       	cp	r1, r4
     57e:	14 fc       	sbrc	r1, 4
     580:	00 14       	cp	r0, r0
     582:	14 f7       	brge	.-60     	; 0x548 <__FUSE_REGION_LENGTH__+0x148>
     584:	00 ff       	sbrs	r16, 0
     586:	00 00       	nop
     588:	ff 00       	.word	0x00ff	; ????
     58a:	ff 14       	cp	r15, r15
     58c:	14 f4       	brge	.+4      	; 0x592 <__FUSE_REGION_LENGTH__+0x192>
     58e:	04 fc       	sbrc	r0, 4
     590:	14 14       	cp	r1, r4
     592:	17 10       	cpse	r1, r7
     594:	1f 10       	cpse	r1, r15
     596:	10 1f       	adc	r17, r16
     598:	10 1f       	adc	r17, r16
     59a:	14 14       	cp	r1, r4
     59c:	14 1f       	adc	r17, r20
     59e:	00 10       	cpse	r0, r0
     5a0:	10 10       	cpse	r1, r0
     5a2:	f0 00       	.word	0x00f0	; ????
     5a4:	00 00       	nop
     5a6:	00 1f       	adc	r16, r16
     5a8:	10 10       	cpse	r1, r0
     5aa:	10 10       	cpse	r1, r0
     5ac:	1f 10       	cpse	r1, r15
     5ae:	10 10       	cpse	r1, r0
     5b0:	10 f0       	brcs	.+4      	; 0x5b6 <__FUSE_REGION_LENGTH__+0x1b6>
     5b2:	10 00       	.word	0x0010	; ????
     5b4:	00 00       	nop
     5b6:	ff 10       	cpse	r15, r15
     5b8:	10 10       	cpse	r1, r0
     5ba:	10 10       	cpse	r1, r0
     5bc:	10 10       	cpse	r1, r0
     5be:	10 10       	cpse	r1, r0
     5c0:	ff 10       	cpse	r15, r15
     5c2:	00 00       	nop
     5c4:	00 ff       	sbrs	r16, 0
     5c6:	14 00       	.word	0x0014	; ????
     5c8:	00 ff       	sbrs	r16, 0
     5ca:	00 ff       	sbrs	r16, 0
     5cc:	00 00       	nop
     5ce:	1f 10       	cpse	r1, r15
     5d0:	17 00       	.word	0x0017	; ????
     5d2:	00 fc       	sbrc	r0, 0
     5d4:	04 f4       	brge	.+0      	; 0x5d6 <__FUSE_REGION_LENGTH__+0x1d6>
     5d6:	14 14       	cp	r1, r4
     5d8:	17 10       	cpse	r1, r7
     5da:	17 14       	cp	r1, r7
     5dc:	14 f4       	brge	.+4      	; 0x5e2 <__FUSE_REGION_LENGTH__+0x1e2>
     5de:	04 f4       	brge	.+0      	; 0x5e0 <__FUSE_REGION_LENGTH__+0x1e0>
     5e0:	00 00       	nop
     5e2:	ff 00       	.word	0x00ff	; ????
     5e4:	f7 14       	cp	r15, r7
     5e6:	14 14       	cp	r1, r4
     5e8:	14 14       	cp	r1, r4
     5ea:	14 14       	cp	r1, r4
     5ec:	f7 00       	.word	0x00f7	; ????
     5ee:	f7 14       	cp	r15, r7
     5f0:	14 14       	cp	r1, r4
     5f2:	17 14       	cp	r1, r7
     5f4:	10 10       	cpse	r1, r0
     5f6:	1f 10       	cpse	r1, r15
     5f8:	1f 14       	cp	r1, r15
     5fa:	14 14       	cp	r1, r4
     5fc:	f4 14       	cp	r15, r4
     5fe:	10 10       	cpse	r1, r0
     600:	f0 10       	cpse	r15, r0
     602:	f0 00       	.word	0x00f0	; ????
     604:	00 1f       	adc	r16, r16
     606:	10 1f       	adc	r17, r16
     608:	00 00       	nop
     60a:	00 1f       	adc	r16, r16
     60c:	14 00       	.word	0x0014	; ????
     60e:	00 00       	nop
     610:	fc 14       	cp	r15, r12
     612:	00 00       	nop
     614:	f0 10       	cpse	r15, r0
     616:	f0 10       	cpse	r15, r0
     618:	10 ff       	sbrs	r17, 0
     61a:	10 ff       	sbrs	r17, 0
     61c:	14 14       	cp	r1, r4
     61e:	14 ff       	sbrs	r17, 4
     620:	14 10       	cpse	r1, r4
     622:	10 10       	cpse	r1, r0
     624:	1f 00       	.word	0x001f	; ????
     626:	00 00       	nop
     628:	00 f0       	brcs	.+0      	; 0x62a <__FUSE_REGION_LENGTH__+0x22a>
     62a:	10 ff       	sbrs	r17, 0
     62c:	ff ff       	.word	0xffff	; ????
     62e:	ff ff       	.word	0xffff	; ????
     630:	f0 f0       	brcs	.+60     	; 0x66e <__FUSE_REGION_LENGTH__+0x26e>
     632:	f0 f0       	brcs	.+60     	; 0x670 <__FUSE_REGION_LENGTH__+0x270>
     634:	f0 ff       	sbrs	r31, 0
     636:	ff ff       	.word	0xffff	; ????
     638:	00 00       	nop
     63a:	00 00       	nop
     63c:	00 ff       	sbrs	r16, 0
     63e:	ff 0f       	add	r31, r31
     640:	0f 0f       	add	r16, r31
     642:	0f 0f       	add	r16, r31
     644:	38 44       	sbci	r19, 0x48	; 72
     646:	44 38       	cpi	r20, 0x84	; 132
     648:	44 fc       	sbrc	r4, 4
     64a:	4a 4a       	sbci	r20, 0xAA	; 170
     64c:	4a 34       	cpi	r20, 0x4A	; 74
     64e:	7e 02       	muls	r23, r30
     650:	02 06       	cpc	r0, r18
     652:	06 02       	muls	r16, r22
     654:	7e 02       	muls	r23, r30
     656:	7e 02       	muls	r23, r30
     658:	63 55       	subi	r22, 0x53	; 83
     65a:	49 41       	sbci	r20, 0x19	; 25
     65c:	63 38       	cpi	r22, 0x83	; 131
     65e:	44 44       	sbci	r20, 0x44	; 68
     660:	3c 04       	cpc	r3, r12
     662:	40 7e       	andi	r20, 0xE0	; 224
     664:	20 1e       	adc	r2, r16
     666:	20 06       	cpc	r2, r16
     668:	02 7e       	andi	r16, 0xE2	; 226
     66a:	02 02       	muls	r16, r18
     66c:	99 a5       	ldd	r25, Y+41	; 0x29
     66e:	e7 a5       	ldd	r30, Z+47	; 0x2f
     670:	99 1c       	adc	r9, r9
     672:	2a 49       	sbci	r18, 0x9A	; 154
     674:	2a 1c       	adc	r2, r10
     676:	4c 72       	andi	r20, 0x2C	; 44
     678:	01 72       	andi	r16, 0x21	; 33
     67a:	4c 30       	cpi	r20, 0x0C	; 12
     67c:	4a 4d       	sbci	r20, 0xDA	; 218
     67e:	4d 30       	cpi	r20, 0x0D	; 13
     680:	30 48       	sbci	r19, 0x80	; 128
     682:	78 48       	sbci	r23, 0x88	; 136
     684:	30 bc       	out	0x20, r3	; 32
     686:	62 5a       	subi	r22, 0xA2	; 162
     688:	46 3d       	cpi	r20, 0xD6	; 214
     68a:	3e 49       	sbci	r19, 0x9E	; 158
     68c:	49 49       	sbci	r20, 0x99	; 153
     68e:	00 7e       	andi	r16, 0xE0	; 224
     690:	01 01       	movw	r0, r2
     692:	01 7e       	andi	r16, 0xE1	; 225
     694:	2a 2a       	or	r2, r26
     696:	2a 2a       	or	r2, r26
     698:	2a 44       	sbci	r18, 0x4A	; 74
     69a:	44 5f       	subi	r20, 0xF4	; 244
     69c:	44 44       	sbci	r20, 0x44	; 68
     69e:	40 51       	subi	r20, 0x10	; 16
     6a0:	4a 44       	sbci	r20, 0x4A	; 74
     6a2:	40 40       	sbci	r20, 0x00	; 0
     6a4:	44 4a       	sbci	r20, 0xA4	; 164
     6a6:	51 40       	sbci	r21, 0x01	; 1
     6a8:	00 00       	nop
     6aa:	ff 01       	movw	r30, r30
     6ac:	03 e0       	ldi	r16, 0x03	; 3
     6ae:	80 ff       	sbrs	r24, 0
     6b0:	00 00       	nop
     6b2:	08 08       	sbc	r0, r8
     6b4:	6b 6b       	ori	r22, 0xBB	; 187
     6b6:	08 36       	cpi	r16, 0x68	; 104
     6b8:	12 36       	cpi	r17, 0x62	; 98
     6ba:	24 36       	cpi	r18, 0x64	; 100
     6bc:	06 0f       	add	r16, r22
     6be:	09 0f       	add	r16, r25
     6c0:	06 00       	.word	0x0006	; ????
     6c2:	00 18       	sub	r0, r0
     6c4:	18 00       	.word	0x0018	; ????
     6c6:	00 00       	nop
     6c8:	10 10       	cpse	r1, r0
     6ca:	00 30       	cpi	r16, 0x00	; 0
     6cc:	40 ff       	sbrs	r20, 0
     6ce:	01 01       	movw	r0, r2
     6d0:	00 1f       	adc	r16, r16
     6d2:	01 01       	movw	r0, r2
     6d4:	1e 00       	.word	0x001e	; ????
     6d6:	19 1d       	adc	r17, r9
     6d8:	17 12       	cpse	r1, r23
     6da:	00 3c       	cpi	r16, 0xC0	; 192
     6dc:	3c 3c       	cpi	r19, 0xCC	; 204
     6de:	3c 00       	.word	0x003c	; ????
     6e0:	00 00       	nop
	...

000006e4 <digital_pin_to_timer_PGM>:
     6e4:	00 00 0a 0b 02 09 0c 0d 0e 08 07 03 04 01 00 00     ................
	...
     710:	12 11 10 00 00 00 00 00 00 00 00 00 00 00 00 00     ................
	...

0000072a <digital_pin_to_bit_mask_PGM>:
     72a:	01 02 10 20 20 08 08 10 20 40 10 20 40 80 02 01     ...  ... @. @...
     73a:	02 01 08 04 02 01 01 02 04 08 10 20 40 80 80 40     ........... @..@
     74a:	20 10 08 04 02 01 80 04 02 01 80 40 20 10 08 04      ..........@ ...
     75a:	02 01 08 04 02 01 01 02 04 08 10 20 40 80 01 02     ........... @...
     76a:	04 08 10 20 40 80                                   ... @.

00000770 <digital_pin_to_port_PGM>:
     770:	05 05 05 05 07 05 08 08 08 08 02 02 02 02 0a 0a     ................
     780:	08 08 04 04 04 04 01 01 01 01 01 01 01 01 03 03     ................
     790:	03 03 03 03 03 03 04 07 07 07 0c 0c 0c 0c 0c 0c     ................
     7a0:	0c 0c 02 02 02 02 06 06 06 06 06 06 06 06 0b 0b     ................
     7b0:	0b 0b 0b 0b 0b 0b                                   ......

000007b6 <port_to_input_PGM>:
     7b6:	00 00 20 00 23 00 26 00 29 00 2c 00 2f 00 32 00     .. .#.&.).,./.2.
     7c6:	00 01 00 00 03 01 06 01 09 01                       ..........

000007d0 <port_to_output_PGM>:
     7d0:	00 00 22 00 25 00 28 00 2b 00 2e 00 31 00 34 00     ..".%.(.+...1.4.
     7e0:	02 01 00 00 05 01 08 01 0b 01                       ..........

000007ea <port_to_mode_PGM>:
     7ea:	00 00 21 00 24 00 27 00 2a 00 2d 00 30 00 33 00     ..!.$.'.*.-.0.3.
     7fa:	01 01 00 00 04 01 07 01 0a 01                       ..........

00000804 <__ctors_start>:
     804:	4b 14       	cp	r4, r11
     806:	f7 22       	and	r15, r23
     808:	bf 26       	eor	r11, r31
     80a:	7b 2e       	mov	r7, r27
     80c:	10 2f       	mov	r17, r16

0000080e <__ctors_end>:
     80e:	39 23       	and	r19, r25

00000810 <__dtors_end>:
     810:	11 24       	eor	r1, r1
     812:	1f be       	out	0x3f, r1	; 63
     814:	cf ef       	ldi	r28, 0xFF	; 255
     816:	d1 e2       	ldi	r29, 0x21	; 33
     818:	de bf       	out	0x3e, r29	; 62
     81a:	cd bf       	out	0x3d, r28	; 61
     81c:	00 e0       	ldi	r16, 0x00	; 0
     81e:	0c bf       	out	0x3c, r16	; 60

00000820 <__do_copy_data>:
     820:	1c e0       	ldi	r17, 0x0C	; 12
     822:	a0 e0       	ldi	r26, 0x00	; 0
     824:	b2 e0       	ldi	r27, 0x02	; 2
     826:	e4 e6       	ldi	r30, 0x64	; 100
     828:	f2 e7       	ldi	r31, 0x72	; 114
     82a:	00 e0       	ldi	r16, 0x00	; 0
     82c:	0b bf       	out	0x3b, r16	; 59
     82e:	02 c0       	rjmp	.+4      	; 0x834 <__do_copy_data+0x14>
     830:	07 90       	elpm	r0, Z+
     832:	0d 92       	st	X+, r0
     834:	aa 34       	cpi	r26, 0x4A	; 74
     836:	b1 07       	cpc	r27, r17
     838:	d9 f7       	brne	.-10     	; 0x830 <__do_copy_data+0x10>

0000083a <__do_clear_bss>:
     83a:	20 e1       	ldi	r18, 0x10	; 16
     83c:	aa e4       	ldi	r26, 0x4A	; 74
     83e:	bc e0       	ldi	r27, 0x0C	; 12
     840:	01 c0       	rjmp	.+2      	; 0x844 <.do_clear_bss_start>

00000842 <.do_clear_bss_loop>:
     842:	1d 92       	st	X+, r1

00000844 <.do_clear_bss_start>:
     844:	aa 31       	cpi	r26, 0x1A	; 26
     846:	b2 07       	cpc	r27, r18
     848:	e1 f7       	brne	.-8      	; 0x842 <.do_clear_bss_loop>

0000084a <__do_global_ctors>:
     84a:	14 e0       	ldi	r17, 0x04	; 4
     84c:	c7 e0       	ldi	r28, 0x07	; 7
     84e:	d4 e0       	ldi	r29, 0x04	; 4
     850:	00 e0       	ldi	r16, 0x00	; 0
     852:	06 c0       	rjmp	.+12     	; 0x860 <__do_global_ctors+0x16>
     854:	21 97       	sbiw	r28, 0x01	; 1
     856:	01 09       	sbc	r16, r1
     858:	80 2f       	mov	r24, r16
     85a:	fe 01       	movw	r30, r28
     85c:	0e 94 c4 36 	call	0x6d88	; 0x6d88 <__tablejump2__>
     860:	c2 30       	cpi	r28, 0x02	; 2
     862:	d1 07       	cpc	r29, r17
     864:	80 e0       	ldi	r24, 0x00	; 0
     866:	08 07       	cpc	r16, r24
     868:	a9 f7       	brne	.-22     	; 0x854 <__do_global_ctors+0xa>
     86a:	0e 94 3e 2f 	call	0x5e7c	; 0x5e7c <main>
     86e:	0c 94 21 39 	jmp	0x7242	; 0x7242 <__do_global_dtors>

00000872 <__bad_interrupt>:
     872:	c6 cb       	rjmp	.-2164   	; 0x0 <__vectors>

00000874 <_ZN5Print17availableForWriteEv>:
      return write((const uint8_t *)buffer, size);
    }

    // default to zero, meaning "a single write may block"
    // should be overriden by subclasses with buffering
    virtual int availableForWrite() { return 0; }
     874:	80 e0       	ldi	r24, 0x00	; 0
     876:	90 e0       	ldi	r25, 0x00	; 0
     878:	08 95       	ret

0000087a <_ZN5Print5flushEv>:
    size_t println(unsigned long, int = DEC);
    size_t println(double, int = 2);
    size_t println(const Printable&);
    size_t println(void);

    virtual void flush() { /* Empty implementation for backward compatibility */ }
     87a:	08 95       	ret

0000087c <_ZN12Adafruit_GFX9writeLineEiiiij>:
    }
    if(maxy >= miny) {
        *y1 = miny;
        *h  = maxy - miny + 1;
    }
}
     87c:	2f 92       	push	r2
     87e:	3f 92       	push	r3
     880:	4f 92       	push	r4
     882:	5f 92       	push	r5
     884:	6f 92       	push	r6
     886:	7f 92       	push	r7
     888:	8f 92       	push	r8
     88a:	9f 92       	push	r9
     88c:	af 92       	push	r10
     88e:	bf 92       	push	r11
     890:	cf 92       	push	r12
     892:	df 92       	push	r13
     894:	ef 92       	push	r14
     896:	ff 92       	push	r15
     898:	0f 93       	push	r16
     89a:	1f 93       	push	r17
     89c:	cf 93       	push	r28
     89e:	df 93       	push	r29
     8a0:	00 d0       	rcall	.+0      	; 0x8a2 <_ZN12Adafruit_GFX9writeLineEiiiij+0x26>
     8a2:	cd b7       	in	r28, 0x3d	; 61
     8a4:	de b7       	in	r29, 0x3e	; 62
     8a6:	4c 01       	movw	r8, r24
     8a8:	7b 83       	std	Y+3, r23	; 0x03
     8aa:	6a 83       	std	Y+2, r22	; 0x02
     8ac:	6a 01       	movw	r12, r20
     8ae:	59 01       	movw	r10, r18
     8b0:	17 01       	movw	r2, r14
     8b2:	98 01       	movw	r18, r16
     8b4:	24 1b       	sub	r18, r20
     8b6:	35 0b       	sbc	r19, r21
     8b8:	37 ff       	sbrs	r19, 7
     8ba:	03 c0       	rjmp	.+6      	; 0x8c2 <_ZN12Adafruit_GFX9writeLineEiiiij+0x46>
     8bc:	31 95       	neg	r19
     8be:	21 95       	neg	r18
     8c0:	31 09       	sbc	r19, r1
     8c2:	c5 01       	movw	r24, r10
     8c4:	4a 81       	ldd	r20, Y+2	; 0x02
     8c6:	5b 81       	ldd	r21, Y+3	; 0x03
     8c8:	84 1b       	sub	r24, r20
     8ca:	95 0b       	sbc	r25, r21
     8cc:	97 ff       	sbrs	r25, 7
     8ce:	03 c0       	rjmp	.+6      	; 0x8d6 <_ZN12Adafruit_GFX9writeLineEiiiij+0x5a>
     8d0:	91 95       	neg	r25
     8d2:	81 95       	neg	r24
     8d4:	91 09       	sbc	r25, r1
     8d6:	51 e0       	ldi	r21, 0x01	; 1
     8d8:	59 83       	std	Y+1, r21	; 0x01
     8da:	82 17       	cp	r24, r18
     8dc:	93 07       	cpc	r25, r19
     8de:	14 f0       	brlt	.+4      	; 0x8e4 <_ZN12Adafruit_GFX9writeLineEiiiij+0x68>
     8e0:	19 82       	std	Y+1, r1	; 0x01
     8e2:	0b c0       	rjmp	.+22     	; 0x8fa <_ZN12Adafruit_GFX9writeLineEiiiij+0x7e>
     8e4:	9a 2d       	mov	r25, r10
     8e6:	8b 2d       	mov	r24, r11
     8e8:	58 01       	movw	r10, r16
     8ea:	09 2f       	mov	r16, r25
     8ec:	18 2f       	mov	r17, r24
     8ee:	9a 81       	ldd	r25, Y+2	; 0x02
     8f0:	8b 81       	ldd	r24, Y+3	; 0x03
     8f2:	db 82       	std	Y+3, r13	; 0x03
     8f4:	ca 82       	std	Y+2, r12	; 0x02
     8f6:	c9 2e       	mov	r12, r25
     8f8:	d8 2e       	mov	r13, r24
     8fa:	8a 81       	ldd	r24, Y+2	; 0x02
     8fc:	9b 81       	ldd	r25, Y+3	; 0x03
     8fe:	a8 16       	cp	r10, r24
     900:	b9 06       	cpc	r11, r25
     902:	5c f4       	brge	.+22     	; 0x91a <_ZN12Adafruit_GFX9writeLineEiiiij+0x9e>
     904:	9c 2d       	mov	r25, r12
     906:	8d 2d       	mov	r24, r13
     908:	68 01       	movw	r12, r16
     90a:	09 2f       	mov	r16, r25
     90c:	18 2f       	mov	r17, r24
     90e:	9a 81       	ldd	r25, Y+2	; 0x02
     910:	8b 81       	ldd	r24, Y+3	; 0x03
     912:	bb 82       	std	Y+3, r11	; 0x03
     914:	aa 82       	std	Y+2, r10	; 0x02
     916:	a9 2e       	mov	r10, r25
     918:	b8 2e       	mov	r11, r24
     91a:	25 01       	movw	r4, r10
     91c:	aa 81       	ldd	r26, Y+2	; 0x02
     91e:	bb 81       	ldd	r27, Y+3	; 0x03
     920:	4a 1a       	sub	r4, r26
     922:	5b 0a       	sbc	r5, r27
     924:	38 01       	movw	r6, r16
     926:	6c 18       	sub	r6, r12
     928:	7d 08       	sbc	r7, r13
     92a:	77 fe       	sbrs	r7, 7
     92c:	03 c0       	rjmp	.+6      	; 0x934 <_ZN12Adafruit_GFX9writeLineEiiiij+0xb8>
     92e:	71 94       	neg	r7
     930:	61 94       	neg	r6
     932:	71 08       	sbc	r7, r1
     934:	72 01       	movw	r14, r4
     936:	57 fe       	sbrs	r5, 7
     938:	03 c0       	rjmp	.+6      	; 0x940 <_ZN12Adafruit_GFX9writeLineEiiiij+0xc4>
     93a:	bf ef       	ldi	r27, 0xFF	; 255
     93c:	eb 1a       	sub	r14, r27
     93e:	fb 0a       	sbc	r15, r27
     940:	f5 94       	asr	r15
     942:	e7 94       	ror	r14
     944:	c0 16       	cp	r12, r16
     946:	d1 06       	cpc	r13, r17
     948:	1c f0       	brlt	.+6      	; 0x950 <_ZN12Adafruit_GFX9writeLineEiiiij+0xd4>
     94a:	0f ef       	ldi	r16, 0xFF	; 255
     94c:	1f ef       	ldi	r17, 0xFF	; 255
     94e:	1f c0       	rjmp	.+62     	; 0x98e <_ZN12Adafruit_GFX9writeLineEiiiij+0x112>
     950:	01 e0       	ldi	r16, 0x01	; 1
     952:	10 e0       	ldi	r17, 0x00	; 0
     954:	1c c0       	rjmp	.+56     	; 0x98e <_ZN12Adafruit_GFX9writeLineEiiiij+0x112>
     956:	d4 01       	movw	r26, r8
     958:	ed 91       	ld	r30, X+
     95a:	fc 91       	ld	r31, X
     95c:	b9 81       	ldd	r27, Y+1	; 0x01
     95e:	04 84       	ldd	r0, Z+12	; 0x0c
     960:	f5 85       	ldd	r31, Z+13	; 0x0d
     962:	e0 2d       	mov	r30, r0
     964:	91 01       	movw	r18, r2
     966:	bb 23       	and	r27, r27
     968:	c1 f0       	breq	.+48     	; 0x99a <_ZN12Adafruit_GFX9writeLineEiiiij+0x11e>
     96a:	4a 81       	ldd	r20, Y+2	; 0x02
     96c:	5b 81       	ldd	r21, Y+3	; 0x03
     96e:	b6 01       	movw	r22, r12
     970:	c4 01       	movw	r24, r8
     972:	19 95       	eicall
     974:	e6 18       	sub	r14, r6
     976:	f7 08       	sbc	r15, r7
     978:	f7 fe       	sbrs	r15, 7
     97a:	04 c0       	rjmp	.+8      	; 0x984 <_ZN12Adafruit_GFX9writeLineEiiiij+0x108>
     97c:	c0 0e       	add	r12, r16
     97e:	d1 1e       	adc	r13, r17
     980:	e4 0c       	add	r14, r4
     982:	f5 1c       	adc	r15, r5
     984:	ea 81       	ldd	r30, Y+2	; 0x02
     986:	fb 81       	ldd	r31, Y+3	; 0x03
     988:	31 96       	adiw	r30, 0x01	; 1
     98a:	fb 83       	std	Y+3, r31	; 0x03
     98c:	ea 83       	std	Y+2, r30	; 0x02
     98e:	4a 81       	ldd	r20, Y+2	; 0x02
     990:	5b 81       	ldd	r21, Y+3	; 0x03
     992:	a4 16       	cp	r10, r20
     994:	b5 06       	cpc	r11, r21
     996:	fc f6       	brge	.-66     	; 0x956 <_ZN12Adafruit_GFX9writeLineEiiiij+0xda>
     998:	04 c0       	rjmp	.+8      	; 0x9a2 <_ZN12Adafruit_GFX9writeLineEiiiij+0x126>
     99a:	a6 01       	movw	r20, r12
     99c:	6a 81       	ldd	r22, Y+2	; 0x02
     99e:	7b 81       	ldd	r23, Y+3	; 0x03
     9a0:	e7 cf       	rjmp	.-50     	; 0x970 <_ZN12Adafruit_GFX9writeLineEiiiij+0xf4>
     9a2:	0f 90       	pop	r0
     9a4:	0f 90       	pop	r0
     9a6:	0f 90       	pop	r0
     9a8:	df 91       	pop	r29
     9aa:	cf 91       	pop	r28
     9ac:	1f 91       	pop	r17
     9ae:	0f 91       	pop	r16
     9b0:	ff 90       	pop	r15
     9b2:	ef 90       	pop	r14
     9b4:	df 90       	pop	r13
     9b6:	cf 90       	pop	r12
     9b8:	bf 90       	pop	r11
     9ba:	af 90       	pop	r10
     9bc:	9f 90       	pop	r9
     9be:	8f 90       	pop	r8
     9c0:	7f 90       	pop	r7
     9c2:	6f 90       	pop	r6
     9c4:	5f 90       	pop	r5
     9c6:	4f 90       	pop	r4
     9c8:	3f 90       	pop	r3
     9ca:	2f 90       	pop	r2
     9cc:	08 95       	ret

000009ce <_ZN12Adafruit_GFX10startWriteEv>:
     9ce:	08 95       	ret

000009d0 <_ZN12Adafruit_GFX10writePixelEiij>:
     9d0:	dc 01       	movw	r26, r24
     9d2:	ed 91       	ld	r30, X+
     9d4:	fc 91       	ld	r31, X
     9d6:	00 84       	ldd	r0, Z+8	; 0x08
     9d8:	f1 85       	ldd	r31, Z+9	; 0x09
     9da:	e0 2d       	mov	r30, r0
     9dc:	19 94       	eijmp

000009de <_ZN12Adafruit_GFX14writeFastVLineEiiij>:
     9de:	0f 93       	push	r16
     9e0:	1f 93       	push	r17
     9e2:	dc 01       	movw	r26, r24
     9e4:	ed 91       	ld	r30, X+
     9e6:	fc 91       	ld	r31, X
     9e8:	04 8c       	ldd	r0, Z+28	; 0x1c
     9ea:	f5 8d       	ldd	r31, Z+29	; 0x1d
     9ec:	e0 2d       	mov	r30, r0
     9ee:	19 95       	eicall
     9f0:	1f 91       	pop	r17
     9f2:	0f 91       	pop	r16
     9f4:	08 95       	ret

000009f6 <_ZN12Adafruit_GFX14writeFastHLineEiiij>:
     9f6:	0f 93       	push	r16
     9f8:	1f 93       	push	r17
     9fa:	dc 01       	movw	r26, r24
     9fc:	ed 91       	ld	r30, X+
     9fe:	fc 91       	ld	r31, X
     a00:	06 8c       	ldd	r0, Z+30	; 0x1e
     a02:	f7 8d       	ldd	r31, Z+31	; 0x1f
     a04:	e0 2d       	mov	r30, r0
     a06:	19 95       	eicall
     a08:	1f 91       	pop	r17
     a0a:	0f 91       	pop	r16
     a0c:	08 95       	ret

00000a0e <_ZN12Adafruit_GFX13writeFillRectEiiiij>:
     a0e:	ef 92       	push	r14
     a10:	ff 92       	push	r15
     a12:	0f 93       	push	r16
     a14:	1f 93       	push	r17
     a16:	dc 01       	movw	r26, r24
     a18:	ed 91       	ld	r30, X+
     a1a:	fc 91       	ld	r31, X
     a1c:	00 a0       	ldd	r0, Z+32	; 0x20
     a1e:	f1 a1       	ldd	r31, Z+33	; 0x21
     a20:	e0 2d       	mov	r30, r0
     a22:	19 95       	eicall
     a24:	1f 91       	pop	r17
     a26:	0f 91       	pop	r16
     a28:	ff 90       	pop	r15
     a2a:	ef 90       	pop	r14
     a2c:	08 95       	ret

00000a2e <_ZN12Adafruit_GFX8endWriteEv>:
     a2e:	08 95       	ret

00000a30 <_ZN12Adafruit_GFX13drawFastVLineEiiij>:
     a30:	af 92       	push	r10
     a32:	bf 92       	push	r11
     a34:	cf 92       	push	r12
     a36:	df 92       	push	r13
     a38:	ef 92       	push	r14
     a3a:	ff 92       	push	r15
     a3c:	0f 93       	push	r16
     a3e:	1f 93       	push	r17
     a40:	cf 93       	push	r28
     a42:	df 93       	push	r29
     a44:	00 d0       	rcall	.+0      	; 0xa46 <_ZN12Adafruit_GFX13drawFastVLineEiiij+0x16>
     a46:	1f 92       	push	r1
     a48:	cd b7       	in	r28, 0x3d	; 61
     a4a:	de b7       	in	r29, 0x3e	; 62
     a4c:	5c 01       	movw	r10, r24
     a4e:	69 01       	movw	r12, r18
     a50:	dc 01       	movw	r26, r24
     a52:	ed 91       	ld	r30, X+
     a54:	fc 91       	ld	r31, X
     a56:	02 84       	ldd	r0, Z+10	; 0x0a
     a58:	f3 85       	ldd	r31, Z+11	; 0x0b
     a5a:	e0 2d       	mov	r30, r0
     a5c:	4b 83       	std	Y+3, r20	; 0x03
     a5e:	5c 83       	std	Y+4, r21	; 0x04
     a60:	69 83       	std	Y+1, r22	; 0x01
     a62:	7a 83       	std	Y+2, r23	; 0x02
     a64:	19 95       	eicall
     a66:	d5 01       	movw	r26, r10
     a68:	ed 91       	ld	r30, X+
     a6a:	fc 91       	ld	r31, X
     a6c:	4b 81       	ldd	r20, Y+3	; 0x03
     a6e:	5c 81       	ldd	r21, Y+4	; 0x04
     a70:	c4 0e       	add	r12, r20
     a72:	d5 1e       	adc	r13, r21
     a74:	b1 e0       	ldi	r27, 0x01	; 1
     a76:	cb 1a       	sub	r12, r27
     a78:	d1 08       	sbc	r13, r1
     a7a:	04 88       	ldd	r0, Z+20	; 0x14
     a7c:	f5 89       	ldd	r31, Z+21	; 0x15
     a7e:	e0 2d       	mov	r30, r0
     a80:	78 01       	movw	r14, r16
     a82:	86 01       	movw	r16, r12
     a84:	69 81       	ldd	r22, Y+1	; 0x01
     a86:	7a 81       	ldd	r23, Y+2	; 0x02
     a88:	9b 01       	movw	r18, r22
     a8a:	c5 01       	movw	r24, r10
     a8c:	19 95       	eicall
     a8e:	d5 01       	movw	r26, r10
     a90:	ed 91       	ld	r30, X+
     a92:	fc 91       	ld	r31, X
     a94:	06 88       	ldd	r0, Z+22	; 0x16
     a96:	f7 89       	ldd	r31, Z+23	; 0x17
     a98:	e0 2d       	mov	r30, r0
     a9a:	c5 01       	movw	r24, r10
     a9c:	0f 90       	pop	r0
     a9e:	0f 90       	pop	r0
     aa0:	0f 90       	pop	r0
     aa2:	0f 90       	pop	r0
     aa4:	df 91       	pop	r29
     aa6:	cf 91       	pop	r28
     aa8:	1f 91       	pop	r17
     aaa:	0f 91       	pop	r16
     aac:	ff 90       	pop	r15
     aae:	ef 90       	pop	r14
     ab0:	df 90       	pop	r13
     ab2:	cf 90       	pop	r12
     ab4:	bf 90       	pop	r11
     ab6:	af 90       	pop	r10
     ab8:	19 94       	eijmp

00000aba <_ZN12Adafruit_GFX13drawFastHLineEiiij>:
     aba:	af 92       	push	r10
     abc:	bf 92       	push	r11
     abe:	cf 92       	push	r12
     ac0:	df 92       	push	r13
     ac2:	ef 92       	push	r14
     ac4:	ff 92       	push	r15
     ac6:	0f 93       	push	r16
     ac8:	1f 93       	push	r17
     aca:	cf 93       	push	r28
     acc:	df 93       	push	r29
     ace:	00 d0       	rcall	.+0      	; 0xad0 <_ZN12Adafruit_GFX13drawFastHLineEiiij+0x16>
     ad0:	1f 92       	push	r1
     ad2:	cd b7       	in	r28, 0x3d	; 61
     ad4:	de b7       	in	r29, 0x3e	; 62
     ad6:	5c 01       	movw	r10, r24
     ad8:	69 01       	movw	r12, r18
     ada:	dc 01       	movw	r26, r24
     adc:	ed 91       	ld	r30, X+
     ade:	fc 91       	ld	r31, X
     ae0:	02 84       	ldd	r0, Z+10	; 0x0a
     ae2:	f3 85       	ldd	r31, Z+11	; 0x0b
     ae4:	e0 2d       	mov	r30, r0
     ae6:	4b 83       	std	Y+3, r20	; 0x03
     ae8:	5c 83       	std	Y+4, r21	; 0x04
     aea:	69 83       	std	Y+1, r22	; 0x01
     aec:	7a 83       	std	Y+2, r23	; 0x02
     aee:	19 95       	eicall
     af0:	d5 01       	movw	r26, r10
     af2:	ed 91       	ld	r30, X+
     af4:	fc 91       	ld	r31, X
     af6:	69 81       	ldd	r22, Y+1	; 0x01
     af8:	7a 81       	ldd	r23, Y+2	; 0x02
     afa:	9b 01       	movw	r18, r22
     afc:	2c 0d       	add	r18, r12
     afe:	3d 1d       	adc	r19, r13
     b00:	21 50       	subi	r18, 0x01	; 1
     b02:	31 09       	sbc	r19, r1
     b04:	04 88       	ldd	r0, Z+20	; 0x14
     b06:	f5 89       	ldd	r31, Z+21	; 0x15
     b08:	e0 2d       	mov	r30, r0
     b0a:	78 01       	movw	r14, r16
     b0c:	4b 81       	ldd	r20, Y+3	; 0x03
     b0e:	5c 81       	ldd	r21, Y+4	; 0x04
     b10:	8a 01       	movw	r16, r20
     b12:	c5 01       	movw	r24, r10
     b14:	19 95       	eicall
     b16:	d5 01       	movw	r26, r10
     b18:	ed 91       	ld	r30, X+
     b1a:	fc 91       	ld	r31, X
     b1c:	06 88       	ldd	r0, Z+22	; 0x16
     b1e:	f7 89       	ldd	r31, Z+23	; 0x17
     b20:	e0 2d       	mov	r30, r0
     b22:	c5 01       	movw	r24, r10
     b24:	0f 90       	pop	r0
     b26:	0f 90       	pop	r0
     b28:	0f 90       	pop	r0
     b2a:	0f 90       	pop	r0
     b2c:	df 91       	pop	r29
     b2e:	cf 91       	pop	r28
     b30:	1f 91       	pop	r17
     b32:	0f 91       	pop	r16
     b34:	ff 90       	pop	r15
     b36:	ef 90       	pop	r14
     b38:	df 90       	pop	r13
     b3a:	cf 90       	pop	r12
     b3c:	bf 90       	pop	r11
     b3e:	af 90       	pop	r10
     b40:	19 94       	eijmp

00000b42 <_ZN12Adafruit_GFX8fillRectEiiiij>:
     b42:	4f 92       	push	r4
     b44:	5f 92       	push	r5
     b46:	6f 92       	push	r6
     b48:	7f 92       	push	r7
     b4a:	8f 92       	push	r8
     b4c:	9f 92       	push	r9
     b4e:	af 92       	push	r10
     b50:	bf 92       	push	r11
     b52:	cf 92       	push	r12
     b54:	df 92       	push	r13
     b56:	ef 92       	push	r14
     b58:	ff 92       	push	r15
     b5a:	0f 93       	push	r16
     b5c:	1f 93       	push	r17
     b5e:	cf 93       	push	r28
     b60:	df 93       	push	r29
     b62:	1f 92       	push	r1
     b64:	1f 92       	push	r1
     b66:	cd b7       	in	r28, 0x3d	; 61
     b68:	de b7       	in	r29, 0x3e	; 62
     b6a:	6c 01       	movw	r12, r24
     b6c:	5a 01       	movw	r10, r20
     b6e:	39 01       	movw	r6, r18
     b70:	48 01       	movw	r8, r16
     b72:	dc 01       	movw	r26, r24
     b74:	ed 91       	ld	r30, X+
     b76:	fc 91       	ld	r31, X
     b78:	02 84       	ldd	r0, Z+10	; 0x0a
     b7a:	f3 85       	ldd	r31, Z+11	; 0x0b
     b7c:	e0 2d       	mov	r30, r0
     b7e:	69 83       	std	Y+1, r22	; 0x01
     b80:	7a 83       	std	Y+2, r23	; 0x02
     b82:	19 95       	eicall
     b84:	69 81       	ldd	r22, Y+1	; 0x01
     b86:	46 2e       	mov	r4, r22
     b88:	7a 81       	ldd	r23, Y+2	; 0x02
     b8a:	57 2e       	mov	r5, r23
     b8c:	64 0c       	add	r6, r4
     b8e:	75 1c       	adc	r7, r5
     b90:	d6 01       	movw	r26, r12
     b92:	ed 91       	ld	r30, X+
     b94:	fc 91       	ld	r31, X
     b96:	46 14       	cp	r4, r6
     b98:	57 04       	cpc	r5, r7
     b9a:	6c f4       	brge	.+26     	; 0xbb6 <_ZN12Adafruit_GFX8fillRectEiiiij+0x74>
     b9c:	00 88       	ldd	r0, Z+16	; 0x10
     b9e:	f1 89       	ldd	r31, Z+17	; 0x11
     ba0:	e0 2d       	mov	r30, r0
     ba2:	87 01       	movw	r16, r14
     ba4:	94 01       	movw	r18, r8
     ba6:	a5 01       	movw	r20, r10
     ba8:	b2 01       	movw	r22, r4
     baa:	c6 01       	movw	r24, r12
     bac:	19 95       	eicall
     bae:	bf ef       	ldi	r27, 0xFF	; 255
     bb0:	4b 1a       	sub	r4, r27
     bb2:	5b 0a       	sbc	r5, r27
     bb4:	ed cf       	rjmp	.-38     	; 0xb90 <_ZN12Adafruit_GFX8fillRectEiiiij+0x4e>
     bb6:	06 88       	ldd	r0, Z+22	; 0x16
     bb8:	f7 89       	ldd	r31, Z+23	; 0x17
     bba:	e0 2d       	mov	r30, r0
     bbc:	c6 01       	movw	r24, r12
     bbe:	0f 90       	pop	r0
     bc0:	0f 90       	pop	r0
     bc2:	df 91       	pop	r29
     bc4:	cf 91       	pop	r28
     bc6:	1f 91       	pop	r17
     bc8:	0f 91       	pop	r16
     bca:	ff 90       	pop	r15
     bcc:	ef 90       	pop	r14
     bce:	df 90       	pop	r13
     bd0:	cf 90       	pop	r12
     bd2:	bf 90       	pop	r11
     bd4:	af 90       	pop	r10
     bd6:	9f 90       	pop	r9
     bd8:	8f 90       	pop	r8
     bda:	7f 90       	pop	r7
     bdc:	6f 90       	pop	r6
     bde:	5f 90       	pop	r5
     be0:	4f 90       	pop	r4
     be2:	19 94       	eijmp

00000be4 <_ZN12Adafruit_GFX10fillScreenEj>:
     be4:	ef 92       	push	r14
     be6:	ff 92       	push	r15
     be8:	0f 93       	push	r16
     bea:	1f 93       	push	r17
     bec:	dc 01       	movw	r26, r24
     bee:	ed 91       	ld	r30, X+
     bf0:	fc 91       	ld	r31, X
     bf2:	11 97       	sbiw	r26, 0x01	; 1
     bf4:	1a 96       	adiw	r26, 0x0a	; 10
     bf6:	0d 91       	ld	r16, X+
     bf8:	1c 91       	ld	r17, X
     bfa:	1b 97       	sbiw	r26, 0x0b	; 11
     bfc:	18 96       	adiw	r26, 0x08	; 8
     bfe:	2d 91       	ld	r18, X+
     c00:	3c 91       	ld	r19, X
     c02:	19 97       	sbiw	r26, 0x09	; 9
     c04:	00 a0       	ldd	r0, Z+32	; 0x20
     c06:	f1 a1       	ldd	r31, Z+33	; 0x21
     c08:	e0 2d       	mov	r30, r0
     c0a:	7b 01       	movw	r14, r22
     c0c:	40 e0       	ldi	r20, 0x00	; 0
     c0e:	50 e0       	ldi	r21, 0x00	; 0
     c10:	60 e0       	ldi	r22, 0x00	; 0
     c12:	70 e0       	ldi	r23, 0x00	; 0
     c14:	19 95       	eicall
     c16:	1f 91       	pop	r17
     c18:	0f 91       	pop	r16
     c1a:	ff 90       	pop	r15
     c1c:	ef 90       	pop	r14
     c1e:	08 95       	ret

00000c20 <_ZN12Adafruit_GFX8drawLineEiiiij>:
     c20:	cf 92       	push	r12
     c22:	df 92       	push	r13
     c24:	ef 92       	push	r14
     c26:	ff 92       	push	r15
     c28:	0f 93       	push	r16
     c2a:	1f 93       	push	r17
     c2c:	cf 93       	push	r28
     c2e:	df 93       	push	r29
     c30:	00 d0       	rcall	.+0      	; 0xc32 <_ZN12Adafruit_GFX8drawLineEiiiij+0x12>
     c32:	00 d0       	rcall	.+0      	; 0xc34 <_ZN12Adafruit_GFX8drawLineEiiiij+0x14>
     c34:	cd b7       	in	r28, 0x3d	; 61
     c36:	de b7       	in	r29, 0x3e	; 62
     c38:	6c 01       	movw	r12, r24
     c3a:	dc 01       	movw	r26, r24
     c3c:	ed 91       	ld	r30, X+
     c3e:	fc 91       	ld	r31, X
     c40:	62 17       	cp	r22, r18
     c42:	73 07       	cpc	r23, r19
     c44:	89 f4       	brne	.+34     	; 0xc68 <_ZN12Adafruit_GFX8drawLineEiiiij+0x48>
     c46:	04 17       	cp	r16, r20
     c48:	15 07       	cpc	r17, r21
     c4a:	2c f4       	brge	.+10     	; 0xc56 <_ZN12Adafruit_GFX8drawLineEiiiij+0x36>
     c4c:	94 2f       	mov	r25, r20
     c4e:	85 2f       	mov	r24, r21
     c50:	a8 01       	movw	r20, r16
     c52:	09 2f       	mov	r16, r25
     c54:	18 2f       	mov	r17, r24
     c56:	04 1b       	sub	r16, r20
     c58:	15 0b       	sbc	r17, r21
     c5a:	98 01       	movw	r18, r16
     c5c:	2f 5f       	subi	r18, 0xFF	; 255
     c5e:	3f 4f       	sbci	r19, 0xFF	; 255
     c60:	04 8c       	ldd	r0, Z+28	; 0x1c
     c62:	f5 8d       	ldd	r31, Z+29	; 0x1d
     c64:	e0 2d       	mov	r30, r0
     c66:	12 c0       	rjmp	.+36     	; 0xc8c <_ZN12Adafruit_GFX8drawLineEiiiij+0x6c>
     c68:	40 17       	cp	r20, r16
     c6a:	51 07       	cpc	r21, r17
     c6c:	09 f5       	brne	.+66     	; 0xcb0 <_ZN12Adafruit_GFX8drawLineEiiiij+0x90>
     c6e:	26 17       	cp	r18, r22
     c70:	37 07       	cpc	r19, r23
     c72:	2c f4       	brge	.+10     	; 0xc7e <_ZN12Adafruit_GFX8drawLineEiiiij+0x5e>
     c74:	96 2f       	mov	r25, r22
     c76:	87 2f       	mov	r24, r23
     c78:	b9 01       	movw	r22, r18
     c7a:	29 2f       	mov	r18, r25
     c7c:	38 2f       	mov	r19, r24
     c7e:	26 1b       	sub	r18, r22
     c80:	37 0b       	sbc	r19, r23
     c82:	2f 5f       	subi	r18, 0xFF	; 255
     c84:	3f 4f       	sbci	r19, 0xFF	; 255
     c86:	06 8c       	ldd	r0, Z+30	; 0x1e
     c88:	f7 8d       	ldd	r31, Z+31	; 0x1f
     c8a:	e0 2d       	mov	r30, r0
     c8c:	87 01       	movw	r16, r14
     c8e:	c6 01       	movw	r24, r12
     c90:	19 95       	eicall
     c92:	26 96       	adiw	r28, 0x06	; 6
     c94:	0f b6       	in	r0, 0x3f	; 63
     c96:	f8 94       	cli
     c98:	de bf       	out	0x3e, r29	; 62
     c9a:	0f be       	out	0x3f, r0	; 63
     c9c:	cd bf       	out	0x3d, r28	; 61
     c9e:	df 91       	pop	r29
     ca0:	cf 91       	pop	r28
     ca2:	1f 91       	pop	r17
     ca4:	0f 91       	pop	r16
     ca6:	ff 90       	pop	r15
     ca8:	ef 90       	pop	r14
     caa:	df 90       	pop	r13
     cac:	cf 90       	pop	r12
     cae:	08 95       	ret
     cb0:	02 84       	ldd	r0, Z+10	; 0x0a
     cb2:	f3 85       	ldd	r31, Z+11	; 0x0b
     cb4:	e0 2d       	mov	r30, r0
     cb6:	2d 83       	std	Y+5, r18	; 0x05
     cb8:	3e 83       	std	Y+6, r19	; 0x06
     cba:	4b 83       	std	Y+3, r20	; 0x03
     cbc:	5c 83       	std	Y+4, r21	; 0x04
     cbe:	69 83       	std	Y+1, r22	; 0x01
     cc0:	7a 83       	std	Y+2, r23	; 0x02
     cc2:	19 95       	eicall
     cc4:	d6 01       	movw	r26, r12
     cc6:	ed 91       	ld	r30, X+
     cc8:	fc 91       	ld	r31, X
     cca:	04 88       	ldd	r0, Z+20	; 0x14
     ccc:	f5 89       	ldd	r31, Z+21	; 0x15
     cce:	e0 2d       	mov	r30, r0
     cd0:	2d 81       	ldd	r18, Y+5	; 0x05
     cd2:	3e 81       	ldd	r19, Y+6	; 0x06
     cd4:	4b 81       	ldd	r20, Y+3	; 0x03
     cd6:	5c 81       	ldd	r21, Y+4	; 0x04
     cd8:	69 81       	ldd	r22, Y+1	; 0x01
     cda:	7a 81       	ldd	r23, Y+2	; 0x02
     cdc:	c6 01       	movw	r24, r12
     cde:	19 95       	eicall
     ce0:	d6 01       	movw	r26, r12
     ce2:	ed 91       	ld	r30, X+
     ce4:	fc 91       	ld	r31, X
     ce6:	06 88       	ldd	r0, Z+22	; 0x16
     ce8:	f7 89       	ldd	r31, Z+23	; 0x17
     cea:	e0 2d       	mov	r30, r0
     cec:	c6 01       	movw	r24, r12
     cee:	26 96       	adiw	r28, 0x06	; 6
     cf0:	0f b6       	in	r0, 0x3f	; 63
     cf2:	f8 94       	cli
     cf4:	de bf       	out	0x3e, r29	; 62
     cf6:	0f be       	out	0x3f, r0	; 63
     cf8:	cd bf       	out	0x3d, r28	; 61
     cfa:	df 91       	pop	r29
     cfc:	cf 91       	pop	r28
     cfe:	1f 91       	pop	r17
     d00:	0f 91       	pop	r16
     d02:	ff 90       	pop	r15
     d04:	ef 90       	pop	r14
     d06:	df 90       	pop	r13
     d08:	cf 90       	pop	r12
     d0a:	19 94       	eijmp

00000d0c <_ZN12Adafruit_GFX8drawRectEiiiij>:
     d0c:	6f 92       	push	r6
     d0e:	7f 92       	push	r7
     d10:	8f 92       	push	r8
     d12:	9f 92       	push	r9
     d14:	af 92       	push	r10
     d16:	bf 92       	push	r11
     d18:	cf 92       	push	r12
     d1a:	df 92       	push	r13
     d1c:	ef 92       	push	r14
     d1e:	ff 92       	push	r15
     d20:	0f 93       	push	r16
     d22:	1f 93       	push	r17
     d24:	cf 93       	push	r28
     d26:	df 93       	push	r29
     d28:	ec 01       	movw	r28, r24
     d2a:	4b 01       	movw	r8, r22
     d2c:	5a 01       	movw	r10, r20
     d2e:	69 01       	movw	r12, r18
     d30:	38 01       	movw	r6, r16
     d32:	e8 81       	ld	r30, Y
     d34:	f9 81       	ldd	r31, Y+1	; 0x01
     d36:	02 84       	ldd	r0, Z+10	; 0x0a
     d38:	f3 85       	ldd	r31, Z+11	; 0x0b
     d3a:	e0 2d       	mov	r30, r0
     d3c:	19 95       	eicall
     d3e:	e8 81       	ld	r30, Y
     d40:	f9 81       	ldd	r31, Y+1	; 0x01
     d42:	02 88       	ldd	r0, Z+18	; 0x12
     d44:	f3 89       	ldd	r31, Z+19	; 0x13
     d46:	e0 2d       	mov	r30, r0
     d48:	87 01       	movw	r16, r14
     d4a:	96 01       	movw	r18, r12
     d4c:	a5 01       	movw	r20, r10
     d4e:	b4 01       	movw	r22, r8
     d50:	ce 01       	movw	r24, r28
     d52:	19 95       	eicall
     d54:	e8 81       	ld	r30, Y
     d56:	f9 81       	ldd	r31, Y+1	; 0x01
     d58:	a5 01       	movw	r20, r10
     d5a:	46 0d       	add	r20, r6
     d5c:	57 1d       	adc	r21, r7
     d5e:	41 50       	subi	r20, 0x01	; 1
     d60:	51 09       	sbc	r21, r1
     d62:	02 88       	ldd	r0, Z+18	; 0x12
     d64:	f3 89       	ldd	r31, Z+19	; 0x13
     d66:	e0 2d       	mov	r30, r0
     d68:	96 01       	movw	r18, r12
     d6a:	b4 01       	movw	r22, r8
     d6c:	ce 01       	movw	r24, r28
     d6e:	19 95       	eicall
     d70:	e8 81       	ld	r30, Y
     d72:	f9 81       	ldd	r31, Y+1	; 0x01
     d74:	00 88       	ldd	r0, Z+16	; 0x10
     d76:	f1 89       	ldd	r31, Z+17	; 0x11
     d78:	e0 2d       	mov	r30, r0
     d7a:	93 01       	movw	r18, r6
     d7c:	a5 01       	movw	r20, r10
     d7e:	b4 01       	movw	r22, r8
     d80:	ce 01       	movw	r24, r28
     d82:	19 95       	eicall
     d84:	e8 81       	ld	r30, Y
     d86:	f9 81       	ldd	r31, Y+1	; 0x01
     d88:	c8 0c       	add	r12, r8
     d8a:	d9 1c       	adc	r13, r9
     d8c:	b6 01       	movw	r22, r12
     d8e:	61 50       	subi	r22, 0x01	; 1
     d90:	71 09       	sbc	r23, r1
     d92:	00 88       	ldd	r0, Z+16	; 0x10
     d94:	f1 89       	ldd	r31, Z+17	; 0x11
     d96:	e0 2d       	mov	r30, r0
     d98:	93 01       	movw	r18, r6
     d9a:	a5 01       	movw	r20, r10
     d9c:	ce 01       	movw	r24, r28
     d9e:	19 95       	eicall
     da0:	e8 81       	ld	r30, Y
     da2:	f9 81       	ldd	r31, Y+1	; 0x01
     da4:	06 88       	ldd	r0, Z+22	; 0x16
     da6:	f7 89       	ldd	r31, Z+23	; 0x17
     da8:	e0 2d       	mov	r30, r0
     daa:	ce 01       	movw	r24, r28
     dac:	df 91       	pop	r29
     dae:	cf 91       	pop	r28
     db0:	1f 91       	pop	r17
     db2:	0f 91       	pop	r16
     db4:	ff 90       	pop	r15
     db6:	ef 90       	pop	r14
     db8:	df 90       	pop	r13
     dba:	cf 90       	pop	r12
     dbc:	bf 90       	pop	r11
     dbe:	af 90       	pop	r10
     dc0:	9f 90       	pop	r9
     dc2:	8f 90       	pop	r8
     dc4:	7f 90       	pop	r7
     dc6:	6f 90       	pop	r6
     dc8:	19 94       	eijmp

00000dca <_ZN12Adafruit_GFX13invertDisplayEb>:
     dca:	08 95       	ret

00000dcc <_ZN12Adafruit_GFX11setRotationEh>:
     dcc:	fc 01       	movw	r30, r24
     dce:	63 70       	andi	r22, 0x03	; 3
     dd0:	65 8b       	std	Z+21, r22	; 0x15
     dd2:	84 81       	ldd	r24, Z+4	; 0x04
     dd4:	95 81       	ldd	r25, Z+5	; 0x05
     dd6:	26 81       	ldd	r18, Z+6	; 0x06
     dd8:	37 81       	ldd	r19, Z+7	; 0x07
     dda:	61 30       	cpi	r22, 0x01	; 1
     ddc:	39 f0       	breq	.+14     	; 0xdec <_ZN12Adafruit_GFX11setRotationEh+0x20>
     dde:	63 30       	cpi	r22, 0x03	; 3
     de0:	29 f0       	breq	.+10     	; 0xdec <_ZN12Adafruit_GFX11setRotationEh+0x20>
     de2:	91 87       	std	Z+9, r25	; 0x09
     de4:	80 87       	std	Z+8, r24	; 0x08
     de6:	33 87       	std	Z+11, r19	; 0x0b
     de8:	22 87       	std	Z+10, r18	; 0x0a
     dea:	08 95       	ret
     dec:	31 87       	std	Z+9, r19	; 0x09
     dee:	20 87       	std	Z+8, r18	; 0x08
     df0:	93 87       	std	Z+11, r25	; 0x0b
     df2:	82 87       	std	Z+10, r24	; 0x0a
     df4:	08 95       	ret

00000df6 <_ZN12Adafruit_GFXC1Eii>:
     df6:	fc 01       	movw	r30, r24
     df8:	13 82       	std	Z+3, r1	; 0x03
     dfa:	12 82       	std	Z+2, r1	; 0x02
     dfc:	8b e5       	ldi	r24, 0x5B	; 91
     dfe:	96 e0       	ldi	r25, 0x06	; 6
     e00:	91 83       	std	Z+1, r25	; 0x01
     e02:	80 83       	st	Z, r24
     e04:	75 83       	std	Z+5, r23	; 0x05
     e06:	64 83       	std	Z+4, r22	; 0x04
     e08:	57 83       	std	Z+7, r21	; 0x07
     e0a:	46 83       	std	Z+6, r20	; 0x06
     e0c:	71 87       	std	Z+9, r23	; 0x09
     e0e:	60 87       	std	Z+8, r22	; 0x08
     e10:	53 87       	std	Z+11, r21	; 0x0b
     e12:	42 87       	std	Z+10, r20	; 0x0a
     e14:	15 8a       	std	Z+21, r1	; 0x15
     e16:	15 86       	std	Z+13, r1	; 0x0d
     e18:	14 86       	std	Z+12, r1	; 0x0c
     e1a:	17 86       	std	Z+15, r1	; 0x0f
     e1c:	16 86       	std	Z+14, r1	; 0x0e
     e1e:	81 e0       	ldi	r24, 0x01	; 1
     e20:	84 8b       	std	Z+20, r24	; 0x14
     e22:	2f ef       	ldi	r18, 0xFF	; 255
     e24:	3f ef       	ldi	r19, 0xFF	; 255
     e26:	33 8b       	std	Z+19, r19	; 0x13
     e28:	22 8b       	std	Z+18, r18	; 0x12
     e2a:	31 8b       	std	Z+17, r19	; 0x11
     e2c:	20 8b       	std	Z+16, r18	; 0x10
     e2e:	86 8b       	std	Z+22, r24	; 0x16
     e30:	17 8a       	std	Z+23, r1	; 0x17
     e32:	11 8e       	std	Z+25, r1	; 0x19
     e34:	10 8e       	std	Z+24, r1	; 0x18
     e36:	08 95       	ret

00000e38 <_ZN12Adafruit_GFX8drawCharEiihjjh>:
     e38:	2f 92       	push	r2
     e3a:	3f 92       	push	r3
     e3c:	4f 92       	push	r4
     e3e:	5f 92       	push	r5
     e40:	6f 92       	push	r6
     e42:	7f 92       	push	r7
     e44:	8f 92       	push	r8
     e46:	9f 92       	push	r9
     e48:	af 92       	push	r10
     e4a:	bf 92       	push	r11
     e4c:	cf 92       	push	r12
     e4e:	df 92       	push	r13
     e50:	ef 92       	push	r14
     e52:	ff 92       	push	r15
     e54:	0f 93       	push	r16
     e56:	1f 93       	push	r17
     e58:	cf 93       	push	r28
     e5a:	df 93       	push	r29
     e5c:	cd b7       	in	r28, 0x3d	; 61
     e5e:	de b7       	in	r29, 0x3e	; 62
     e60:	6c 97       	sbiw	r28, 0x1c	; 28
     e62:	0f b6       	in	r0, 0x3f	; 63
     e64:	f8 94       	cli
     e66:	de bf       	out	0x3e, r29	; 62
     e68:	0f be       	out	0x3f, r0	; 63
     e6a:	cd bf       	out	0x3d, r28	; 61
     e6c:	9c 8f       	std	Y+28, r25	; 0x1c
     e6e:	8b 8f       	std	Y+27, r24	; 0x1b
     e70:	5b 01       	movw	r10, r22
     e72:	1a 01       	movw	r2, r20
     e74:	1f 83       	std	Y+7, r17	; 0x07
     e76:	0e 83       	std	Y+6, r16	; 0x06
     e78:	37 01       	movw	r6, r14
     e7a:	c9 82       	std	Y+1, r12	; 0x01
     e7c:	dc 01       	movw	r26, r24
     e7e:	58 96       	adiw	r26, 0x18	; 24
     e80:	4d 91       	ld	r20, X+
     e82:	5c 91       	ld	r21, X
     e84:	59 97       	sbiw	r26, 0x19	; 25
     e86:	41 15       	cp	r20, r1
     e88:	51 05       	cpc	r21, r1
     e8a:	09 f0       	breq	.+2      	; 0xe8e <_ZN12Adafruit_GFX8drawCharEiihjjh+0x56>
     e8c:	e5 c0       	rjmp	.+458    	; 0x1058 <_ZN12Adafruit_GFX8drawCharEiihjjh+0x220>
     e8e:	18 96       	adiw	r26, 0x08	; 8
     e90:	8d 91       	ld	r24, X+
     e92:	9c 91       	ld	r25, X
     e94:	19 97       	sbiw	r26, 0x09	; 9
     e96:	68 17       	cp	r22, r24
     e98:	79 07       	cpc	r23, r25
     e9a:	0c f0       	brlt	.+2      	; 0xe9e <_ZN12Adafruit_GFX8drawCharEiihjjh+0x66>
     e9c:	ca c1       	rjmp	.+916    	; 0x1232 <_ZN12Adafruit_GFX8drawCharEiihjjh+0x3fa>
     e9e:	1a 96       	adiw	r26, 0x0a	; 10
     ea0:	8d 91       	ld	r24, X+
     ea2:	9c 91       	ld	r25, X
     ea4:	1b 97       	sbiw	r26, 0x0b	; 11
     ea6:	28 16       	cp	r2, r24
     ea8:	39 06       	cpc	r3, r25
     eaa:	0c f0       	brlt	.+2      	; 0xeae <_ZN12Adafruit_GFX8drawCharEiihjjh+0x76>
     eac:	c2 c1       	rjmp	.+900    	; 0x1232 <_ZN12Adafruit_GFX8drawCharEiihjjh+0x3fa>
     eae:	8c 2c       	mov	r8, r12
     eb0:	91 2c       	mov	r9, r1
     eb2:	fb 01       	movw	r30, r22
     eb4:	36 e0       	ldi	r19, 0x06	; 6
     eb6:	c3 9e       	mul	r12, r19
     eb8:	e0 0d       	add	r30, r0
     eba:	f1 1d       	adc	r31, r1
     ebc:	11 24       	eor	r1, r1
     ebe:	fb 87       	std	Y+11, r31	; 0x0b
     ec0:	ea 87       	std	Y+10, r30	; 0x0a
     ec2:	1e 16       	cp	r1, r30
     ec4:	1f 06       	cpc	r1, r31
     ec6:	0c f0       	brlt	.+2      	; 0xeca <_ZN12Adafruit_GFX8drawCharEiihjjh+0x92>
     ec8:	b4 c1       	rjmp	.+872    	; 0x1232 <_ZN12Adafruit_GFX8drawCharEiihjjh+0x3fa>
     eca:	c4 01       	movw	r24, r8
     ecc:	33 e0       	ldi	r19, 0x03	; 3
     ece:	88 0f       	add	r24, r24
     ed0:	99 1f       	adc	r25, r25
     ed2:	3a 95       	dec	r19
     ed4:	e1 f7       	brne	.-8      	; 0xece <_ZN12Adafruit_GFX8drawCharEiihjjh+0x96>
     ed6:	9d 87       	std	Y+13, r25	; 0x0d
     ed8:	8c 87       	std	Y+12, r24	; 0x0c
     eda:	82 0d       	add	r24, r2
     edc:	93 1d       	adc	r25, r3
     ede:	18 16       	cp	r1, r24
     ee0:	19 06       	cpc	r1, r25
     ee2:	0c f0       	brlt	.+2      	; 0xee6 <_ZN12Adafruit_GFX8drawCharEiihjjh+0xae>
     ee4:	a6 c1       	rjmp	.+844    	; 0x1232 <_ZN12Adafruit_GFX8drawCharEiihjjh+0x3fa>
     ee6:	57 96       	adiw	r26, 0x17	; 23
     ee8:	8c 91       	ld	r24, X
     eea:	81 11       	cpse	r24, r1
     eec:	03 c0       	rjmp	.+6      	; 0xef4 <_ZN12Adafruit_GFX8drawCharEiihjjh+0xbc>
     eee:	20 3b       	cpi	r18, 0xB0	; 176
     ef0:	08 f0       	brcs	.+2      	; 0xef4 <_ZN12Adafruit_GFX8drawCharEiihjjh+0xbc>
     ef2:	2f 5f       	subi	r18, 0xFF	; 255
     ef4:	ab 8d       	ldd	r26, Y+27	; 0x1b
     ef6:	bc 8d       	ldd	r27, Y+28	; 0x1c
     ef8:	ed 91       	ld	r30, X+
     efa:	fc 91       	ld	r31, X
     efc:	11 97       	sbiw	r26, 0x01	; 1
     efe:	02 84       	ldd	r0, Z+10	; 0x0a
     f00:	f3 85       	ldd	r31, Z+11	; 0x0b
     f02:	e0 2d       	mov	r30, r0
     f04:	cd 01       	movw	r24, r26
     f06:	2a 8f       	std	Y+26, r18	; 0x1a
     f08:	19 95       	eicall
     f0a:	2a 8d       	ldd	r18, Y+26	; 0x1a
     f0c:	b5 e0       	ldi	r27, 0x05	; 5
     f0e:	2b 9f       	mul	r18, r27
     f10:	90 01       	movw	r18, r0
     f12:	11 24       	eor	r1, r1
     f14:	f5 01       	movw	r30, r10
     f16:	35 96       	adiw	r30, 0x05	; 5
     f18:	ff 87       	std	Y+15, r31	; 0x0f
     f1a:	ee 87       	std	Y+14, r30	; 0x0e
     f1c:	25 01       	movw	r4, r10
     f1e:	bb 82       	std	Y+3, r11	; 0x03
     f20:	aa 82       	std	Y+2, r10	; 0x02
     f22:	a9 01       	movw	r20, r18
     f24:	4a 19       	sub	r20, r10
     f26:	5b 09       	sbc	r21, r11
     f28:	59 8b       	std	Y+17, r21	; 0x11
     f2a:	48 8b       	std	Y+16, r20	; 0x10
     f2c:	c1 01       	movw	r24, r2
     f2e:	08 96       	adiw	r24, 0x08	; 8
     f30:	9b 8b       	std	Y+19, r25	; 0x13
     f32:	8a 8b       	std	Y+18, r24	; 0x12
     f34:	e8 89       	ldd	r30, Y+16	; 0x10
     f36:	f9 89       	ldd	r31, Y+17	; 0x11
     f38:	e4 0d       	add	r30, r4
     f3a:	f5 1d       	adc	r31, r5
     f3c:	ec 51       	subi	r30, 0x1C	; 28
     f3e:	fe 4f       	sbci	r31, 0xFE	; 254
     f40:	94 91       	lpm	r25, Z
     f42:	98 87       	std	Y+8, r25	; 0x08
     f44:	3d 82       	std	Y+5, r3	; 0x05
     f46:	2c 82       	std	Y+4, r2	; 0x04
     f48:	61 01       	movw	r12, r2
     f4a:	a8 85       	ldd	r26, Y+8	; 0x08
     f4c:	a0 ff       	sbrs	r26, 0
     f4e:	13 c0       	rjmp	.+38     	; 0xf76 <_ZN12Adafruit_GFX8drawCharEiihjjh+0x13e>
     f50:	ab 8d       	ldd	r26, Y+27	; 0x1b
     f52:	bc 8d       	ldd	r27, Y+28	; 0x1c
     f54:	ed 91       	ld	r30, X+
     f56:	fc 91       	ld	r31, X
     f58:	b9 81       	ldd	r27, Y+1	; 0x01
     f5a:	b1 30       	cpi	r27, 0x01	; 1
     f5c:	31 f4       	brne	.+12     	; 0xf6a <_ZN12Adafruit_GFX8drawCharEiihjjh+0x132>
     f5e:	04 84       	ldd	r0, Z+12	; 0x0c
     f60:	f5 85       	ldd	r31, Z+13	; 0x0d
     f62:	e0 2d       	mov	r30, r0
     f64:	2e 81       	ldd	r18, Y+6	; 0x06
     f66:	3f 81       	ldd	r19, Y+7	; 0x07
     f68:	16 c0       	rjmp	.+44     	; 0xf96 <_ZN12Adafruit_GFX8drawCharEiihjjh+0x15e>
     f6a:	06 84       	ldd	r0, Z+14	; 0x0e
     f6c:	f7 85       	ldd	r31, Z+15	; 0x0f
     f6e:	e0 2d       	mov	r30, r0
     f70:	ee 80       	ldd	r14, Y+6	; 0x06
     f72:	ff 80       	ldd	r15, Y+7	; 0x07
     f74:	1a c0       	rjmp	.+52     	; 0xfaa <_ZN12Adafruit_GFX8drawCharEiihjjh+0x172>
     f76:	ee 81       	ldd	r30, Y+6	; 0x06
     f78:	ff 81       	ldd	r31, Y+7	; 0x07
     f7a:	6e 16       	cp	r6, r30
     f7c:	7f 06       	cpc	r7, r31
     f7e:	f1 f0       	breq	.+60     	; 0xfbc <_ZN12Adafruit_GFX8drawCharEiihjjh+0x184>
     f80:	ab 8d       	ldd	r26, Y+27	; 0x1b
     f82:	bc 8d       	ldd	r27, Y+28	; 0x1c
     f84:	ed 91       	ld	r30, X+
     f86:	fc 91       	ld	r31, X
     f88:	b9 81       	ldd	r27, Y+1	; 0x01
     f8a:	b1 30       	cpi	r27, 0x01	; 1
     f8c:	51 f4       	brne	.+20     	; 0xfa2 <_ZN12Adafruit_GFX8drawCharEiihjjh+0x16a>
     f8e:	04 84       	ldd	r0, Z+12	; 0x0c
     f90:	f5 85       	ldd	r31, Z+13	; 0x0d
     f92:	e0 2d       	mov	r30, r0
     f94:	93 01       	movw	r18, r6
     f96:	a6 01       	movw	r20, r12
     f98:	b2 01       	movw	r22, r4
     f9a:	8b 8d       	ldd	r24, Y+27	; 0x1b
     f9c:	9c 8d       	ldd	r25, Y+28	; 0x1c
     f9e:	19 95       	eicall
     fa0:	0d c0       	rjmp	.+26     	; 0xfbc <_ZN12Adafruit_GFX8drawCharEiihjjh+0x184>
     fa2:	06 84       	ldd	r0, Z+14	; 0x0e
     fa4:	f7 85       	ldd	r31, Z+15	; 0x0f
     fa6:	e0 2d       	mov	r30, r0
     fa8:	73 01       	movw	r14, r6
     faa:	84 01       	movw	r16, r8
     fac:	94 01       	movw	r18, r8
     fae:	4c 81       	ldd	r20, Y+4	; 0x04
     fb0:	5d 81       	ldd	r21, Y+5	; 0x05
     fb2:	6a 81       	ldd	r22, Y+2	; 0x02
     fb4:	7b 81       	ldd	r23, Y+3	; 0x03
     fb6:	8b 8d       	ldd	r24, Y+27	; 0x1b
     fb8:	9c 8d       	ldd	r25, Y+28	; 0x1c
     fba:	19 95       	eicall
     fbc:	e8 85       	ldd	r30, Y+8	; 0x08
     fbe:	e6 95       	lsr	r30
     fc0:	e8 87       	std	Y+8, r30	; 0x08
     fc2:	2c 81       	ldd	r18, Y+4	; 0x04
     fc4:	3d 81       	ldd	r19, Y+5	; 0x05
     fc6:	28 0d       	add	r18, r8
     fc8:	39 1d       	adc	r19, r9
     fca:	3d 83       	std	Y+5, r19	; 0x05
     fcc:	2c 83       	std	Y+4, r18	; 0x04
     fce:	3f ef       	ldi	r19, 0xFF	; 255
     fd0:	c3 1a       	sub	r12, r19
     fd2:	d3 0a       	sbc	r13, r19
     fd4:	4a 89       	ldd	r20, Y+18	; 0x12
     fd6:	5b 89       	ldd	r21, Y+19	; 0x13
     fd8:	c4 16       	cp	r12, r20
     fda:	d5 06       	cpc	r13, r21
     fdc:	09 f0       	breq	.+2      	; 0xfe0 <_ZN12Adafruit_GFX8drawCharEiihjjh+0x1a8>
     fde:	b5 cf       	rjmp	.-150    	; 0xf4a <_ZN12Adafruit_GFX8drawCharEiihjjh+0x112>
     fe0:	8a 81       	ldd	r24, Y+2	; 0x02
     fe2:	9b 81       	ldd	r25, Y+3	; 0x03
     fe4:	88 0d       	add	r24, r8
     fe6:	99 1d       	adc	r25, r9
     fe8:	9b 83       	std	Y+3, r25	; 0x03
     fea:	8a 83       	std	Y+2, r24	; 0x02
     fec:	9f ef       	ldi	r25, 0xFF	; 255
     fee:	49 1a       	sub	r4, r25
     ff0:	59 0a       	sbc	r5, r25
     ff2:	ae 85       	ldd	r26, Y+14	; 0x0e
     ff4:	bf 85       	ldd	r27, Y+15	; 0x0f
     ff6:	4a 16       	cp	r4, r26
     ff8:	5b 06       	cpc	r5, r27
     ffa:	09 f0       	breq	.+2      	; 0xffe <_ZN12Adafruit_GFX8drawCharEiihjjh+0x1c6>
     ffc:	9b cf       	rjmp	.-202    	; 0xf34 <_ZN12Adafruit_GFX8drawCharEiihjjh+0xfc>
     ffe:	ee 81       	ldd	r30, Y+6	; 0x06
    1000:	ff 81       	ldd	r31, Y+7	; 0x07
    1002:	6e 16       	cp	r6, r30
    1004:	7f 06       	cpc	r7, r31
    1006:	09 f4       	brne	.+2      	; 0x100a <_ZN12Adafruit_GFX8drawCharEiihjjh+0x1d2>
    1008:	f2 c0       	rjmp	.+484    	; 0x11ee <_ZN12Adafruit_GFX8drawCharEiihjjh+0x3b6>
    100a:	eb 8d       	ldd	r30, Y+27	; 0x1b
    100c:	fc 8d       	ldd	r31, Y+28	; 0x1c
    100e:	a0 81       	ld	r26, Z
    1010:	b1 81       	ldd	r27, Z+1	; 0x01
    1012:	f9 81       	ldd	r31, Y+1	; 0x01
    1014:	f1 30       	cpi	r31, 0x01	; 1
    1016:	79 f4       	brne	.+30     	; 0x1036 <_ZN12Adafruit_GFX8drawCharEiihjjh+0x1fe>
    1018:	b5 01       	movw	r22, r10
    101a:	6b 5f       	subi	r22, 0xFB	; 251
    101c:	7f 4f       	sbci	r23, 0xFF	; 255
    101e:	50 96       	adiw	r26, 0x10	; 16
    1020:	ed 91       	ld	r30, X+
    1022:	fc 91       	ld	r31, X
    1024:	51 97       	sbiw	r26, 0x11	; 17
    1026:	83 01       	movw	r16, r6
    1028:	28 e0       	ldi	r18, 0x08	; 8
    102a:	30 e0       	ldi	r19, 0x00	; 0
    102c:	a1 01       	movw	r20, r2
    102e:	8b 8d       	ldd	r24, Y+27	; 0x1b
    1030:	9c 8d       	ldd	r25, Y+28	; 0x1c
    1032:	19 95       	eicall
    1034:	dc c0       	rjmp	.+440    	; 0x11ee <_ZN12Adafruit_GFX8drawCharEiihjjh+0x3b6>
    1036:	6a 85       	ldd	r22, Y+10	; 0x0a
    1038:	7b 85       	ldd	r23, Y+11	; 0x0b
    103a:	68 19       	sub	r22, r8
    103c:	79 09       	sbc	r23, r9
    103e:	1e 96       	adiw	r26, 0x0e	; 14
    1040:	ed 91       	ld	r30, X+
    1042:	fc 91       	ld	r31, X
    1044:	1f 97       	sbiw	r26, 0x0f	; 15
    1046:	73 01       	movw	r14, r6
    1048:	0c 85       	ldd	r16, Y+12	; 0x0c
    104a:	1d 85       	ldd	r17, Y+13	; 0x0d
    104c:	94 01       	movw	r18, r8
    104e:	a1 01       	movw	r20, r2
    1050:	8b 8d       	ldd	r24, Y+27	; 0x1b
    1052:	9c 8d       	ldd	r25, Y+28	; 0x1c
    1054:	19 95       	eicall
    1056:	cb c0       	rjmp	.+406    	; 0x11ee <_ZN12Adafruit_GFX8drawCharEiihjjh+0x3b6>
    1058:	fa 01       	movw	r30, r20
    105a:	34 96       	adiw	r30, 0x04	; 4
    105c:	94 91       	lpm	r25, Z
    105e:	32 97       	sbiw	r30, 0x02	; 2
    1060:	65 91       	lpm	r22, Z+
    1062:	74 91       	lpm	r23, Z
    1064:	29 1b       	sub	r18, r25
    1066:	cb 01       	movw	r24, r22
    1068:	b7 e0       	ldi	r27, 0x07	; 7
    106a:	2b 9f       	mul	r18, r27
    106c:	80 0d       	add	r24, r0
    106e:	91 1d       	adc	r25, r1
    1070:	11 24       	eor	r1, r1
    1072:	fa 01       	movw	r30, r20
    1074:	25 91       	lpm	r18, Z+
    1076:	34 91       	lpm	r19, Z
    1078:	3b 8b       	std	Y+19, r19	; 0x13
    107a:	2a 8b       	std	Y+18, r18	; 0x12
    107c:	fc 01       	movw	r30, r24
    107e:	45 91       	lpm	r20, Z+
    1080:	54 91       	lpm	r21, Z
    1082:	5b 83       	std	Y+3, r21	; 0x03
    1084:	4a 83       	std	Y+2, r20	; 0x02
    1086:	fc 01       	movw	r30, r24
    1088:	32 96       	adiw	r30, 0x02	; 2
    108a:	c4 90       	lpm	r12, Z
    108c:	31 96       	adiw	r30, 0x01	; 1
    108e:	54 91       	lpm	r21, Z
    1090:	5c 87       	std	Y+12, r21	; 0x0c
    1092:	32 96       	adiw	r30, 0x02	; 2
    1094:	14 91       	lpm	r17, Z
    1096:	31 96       	adiw	r30, 0x01	; 1
    1098:	d4 90       	lpm	r13, Z
    109a:	89 81       	ldd	r24, Y+1	; 0x01
    109c:	82 30       	cpi	r24, 0x02	; 2
    109e:	58 f0       	brcs	.+22     	; 0x10b6 <_ZN12Adafruit_GFX8drawCharEiihjjh+0x27e>
    10a0:	61 2e       	mov	r6, r17
    10a2:	01 2e       	mov	r0, r17
    10a4:	00 0c       	add	r0, r0
    10a6:	77 08       	sbc	r7, r7
    10a8:	ad 2d       	mov	r26, r13
    10aa:	0d 2c       	mov	r0, r13
    10ac:	00 0c       	add	r0, r0
    10ae:	bb 0b       	sbc	r27, r27
    10b0:	b9 87       	std	Y+9, r27	; 0x09
    10b2:	a8 87       	std	Y+8, r26	; 0x08
    10b4:	04 c0       	rjmp	.+8      	; 0x10be <_ZN12Adafruit_GFX8drawCharEiihjjh+0x286>
    10b6:	19 86       	std	Y+9, r1	; 0x09
    10b8:	18 86       	std	Y+8, r1	; 0x08
    10ba:	61 2c       	mov	r6, r1
    10bc:	71 2c       	mov	r7, r1
    10be:	ab 8d       	ldd	r26, Y+27	; 0x1b
    10c0:	bc 8d       	ldd	r27, Y+28	; 0x1c
    10c2:	ed 91       	ld	r30, X+
    10c4:	fc 91       	ld	r31, X
    10c6:	11 97       	sbiw	r26, 0x01	; 1
    10c8:	02 84       	ldd	r0, Z+10	; 0x0a
    10ca:	f3 85       	ldd	r31, Z+11	; 0x0b
    10cc:	e0 2d       	mov	r30, r0
    10ce:	cd 01       	movw	r24, r26
    10d0:	19 95       	eicall
    10d2:	b9 81       	ldd	r27, Y+1	; 0x01
    10d4:	8b 2e       	mov	r8, r27
    10d6:	91 2c       	mov	r9, r1
    10d8:	68 9c       	mul	r6, r8
    10da:	c0 01       	movw	r24, r0
    10dc:	69 9c       	mul	r6, r9
    10de:	90 0d       	add	r25, r0
    10e0:	78 9c       	mul	r7, r8
    10e2:	90 0d       	add	r25, r0
    10e4:	11 24       	eor	r1, r1
    10e6:	fc 01       	movw	r30, r24
    10e8:	ea 0d       	add	r30, r10
    10ea:	fb 1d       	adc	r31, r11
    10ec:	f9 8b       	std	Y+17, r31	; 0x11
    10ee:	e8 8b       	std	Y+16, r30	; 0x10
    10f0:	1c 82       	std	Y+4, r1	; 0x04
    10f2:	71 2c       	mov	r7, r1
    10f4:	61 2c       	mov	r6, r1
    10f6:	e1 2f       	mov	r30, r17
    10f8:	11 0f       	add	r17, r17
    10fa:	ff 0b       	sbc	r31, r31
    10fc:	95 01       	movw	r18, r10
    10fe:	2e 0f       	add	r18, r30
    1100:	3f 1f       	adc	r19, r31
    1102:	3b 87       	std	Y+11, r19	; 0x0b
    1104:	2a 87       	std	Y+10, r18	; 0x0a
    1106:	ac 0c       	add	r10, r12
    1108:	b1 1c       	adc	r11, r1
    110a:	a5 01       	movw	r20, r10
    110c:	4e 0f       	add	r20, r30
    110e:	5f 1f       	adc	r21, r31
    1110:	5f 8b       	std	Y+23, r21	; 0x17
    1112:	4e 8b       	std	Y+22, r20	; 0x16
    1114:	c1 01       	movw	r24, r2
    1116:	8d 0d       	add	r24, r13
    1118:	91 1d       	adc	r25, r1
    111a:	d7 fc       	sbrc	r13, 7
    111c:	9a 95       	dec	r25
    111e:	99 8f       	std	Y+25, r25	; 0x19
    1120:	88 8f       	std	Y+24, r24	; 0x18
    1122:	4c 85       	ldd	r20, Y+12	; 0x0c
    1124:	64 16       	cp	r6, r20
    1126:	08 f0       	brcs	.+2      	; 0x112a <_ZN12Adafruit_GFX8drawCharEiihjjh+0x2f2>
    1128:	62 c0       	rjmp	.+196    	; 0x11ee <_ZN12Adafruit_GFX8drawCharEiihjjh+0x3b6>
    112a:	86 2d       	mov	r24, r6
    112c:	90 e0       	ldi	r25, 0x00	; 0
    112e:	48 85       	ldd	r20, Y+8	; 0x08
    1130:	59 85       	ldd	r21, Y+9	; 0x09
    1132:	48 0f       	add	r20, r24
    1134:	59 1f       	adc	r21, r25
    1136:	48 9d       	mul	r20, r8
    1138:	90 01       	movw	r18, r0
    113a:	49 9d       	mul	r20, r9
    113c:	30 0d       	add	r19, r0
    113e:	58 9d       	mul	r21, r8
    1140:	30 0d       	add	r19, r0
    1142:	11 24       	eor	r1, r1
    1144:	d9 01       	movw	r26, r18
    1146:	a2 0d       	add	r26, r2
    1148:	b3 1d       	adc	r27, r3
    114a:	bf 87       	std	Y+15, r27	; 0x0f
    114c:	ae 87       	std	Y+14, r26	; 0x0e
    114e:	aa 84       	ldd	r10, Y+10	; 0x0a
    1150:	bb 84       	ldd	r11, Y+11	; 0x0b
    1152:	48 88       	ldd	r4, Y+16	; 0x10
    1154:	59 88       	ldd	r5, Y+17	; 0x11
    1156:	dc 80       	ldd	r13, Y+4	; 0x04
    1158:	ba 85       	ldd	r27, Y+10	; 0x0a
    115a:	db 1a       	sub	r13, r27
    115c:	e8 8d       	ldd	r30, Y+24	; 0x18
    115e:	f9 8d       	ldd	r31, Y+25	; 0x19
    1160:	e8 0f       	add	r30, r24
    1162:	f9 1f       	adc	r31, r25
    1164:	fd 8b       	std	Y+21, r31	; 0x15
    1166:	ec 8b       	std	Y+20, r30	; 0x14
    1168:	8d 2d       	mov	r24, r13
    116a:	8a 0d       	add	r24, r10
    116c:	2e 89       	ldd	r18, Y+22	; 0x16
    116e:	3f 89       	ldd	r19, Y+23	; 0x17
    1170:	a2 16       	cp	r10, r18
    1172:	b3 06       	cpc	r11, r19
    1174:	b9 f1       	breq	.+110    	; 0x11e4 <_ZN12Adafruit_GFX8drawCharEiihjjh+0x3ac>
    1176:	87 70       	andi	r24, 0x07	; 7
    1178:	61 f4       	brne	.+24     	; 0x1192 <_ZN12Adafruit_GFX8drawCharEiihjjh+0x35a>
    117a:	8a 81       	ldd	r24, Y+2	; 0x02
    117c:	9b 81       	ldd	r25, Y+3	; 0x03
    117e:	01 96       	adiw	r24, 0x01	; 1
    1180:	ea 89       	ldd	r30, Y+18	; 0x12
    1182:	fb 89       	ldd	r31, Y+19	; 0x13
    1184:	aa 81       	ldd	r26, Y+2	; 0x02
    1186:	bb 81       	ldd	r27, Y+3	; 0x03
    1188:	ea 0f       	add	r30, r26
    118a:	fb 1f       	adc	r31, r27
    118c:	74 90       	lpm	r7, Z
    118e:	9b 83       	std	Y+3, r25	; 0x03
    1190:	8a 83       	std	Y+2, r24	; 0x02
    1192:	77 fe       	sbrs	r7, 7
    1194:	20 c0       	rjmp	.+64     	; 0x11d6 <_ZN12Adafruit_GFX8drawCharEiihjjh+0x39e>
    1196:	ab 8d       	ldd	r26, Y+27	; 0x1b
    1198:	bc 8d       	ldd	r27, Y+28	; 0x1c
    119a:	ed 91       	ld	r30, X+
    119c:	fc 91       	ld	r31, X
    119e:	b9 81       	ldd	r27, Y+1	; 0x01
    11a0:	b1 30       	cpi	r27, 0x01	; 1
    11a2:	61 f4       	brne	.+24     	; 0x11bc <_ZN12Adafruit_GFX8drawCharEiihjjh+0x384>
    11a4:	04 84       	ldd	r0, Z+12	; 0x0c
    11a6:	f5 85       	ldd	r31, Z+13	; 0x0d
    11a8:	e0 2d       	mov	r30, r0
    11aa:	2e 81       	ldd	r18, Y+6	; 0x06
    11ac:	3f 81       	ldd	r19, Y+7	; 0x07
    11ae:	4c 89       	ldd	r20, Y+20	; 0x14
    11b0:	5d 89       	ldd	r21, Y+21	; 0x15
    11b2:	b5 01       	movw	r22, r10
    11b4:	8b 8d       	ldd	r24, Y+27	; 0x1b
    11b6:	9c 8d       	ldd	r25, Y+28	; 0x1c
    11b8:	19 95       	eicall
    11ba:	0d c0       	rjmp	.+26     	; 0x11d6 <_ZN12Adafruit_GFX8drawCharEiihjjh+0x39e>
    11bc:	06 84       	ldd	r0, Z+14	; 0x0e
    11be:	f7 85       	ldd	r31, Z+15	; 0x0f
    11c0:	e0 2d       	mov	r30, r0
    11c2:	ee 80       	ldd	r14, Y+6	; 0x06
    11c4:	ff 80       	ldd	r15, Y+7	; 0x07
    11c6:	84 01       	movw	r16, r8
    11c8:	94 01       	movw	r18, r8
    11ca:	4e 85       	ldd	r20, Y+14	; 0x0e
    11cc:	5f 85       	ldd	r21, Y+15	; 0x0f
    11ce:	b2 01       	movw	r22, r4
    11d0:	8b 8d       	ldd	r24, Y+27	; 0x1b
    11d2:	9c 8d       	ldd	r25, Y+28	; 0x1c
    11d4:	19 95       	eicall
    11d6:	77 0c       	add	r7, r7
    11d8:	48 0c       	add	r4, r8
    11da:	59 1c       	adc	r5, r9
    11dc:	ef ef       	ldi	r30, 0xFF	; 255
    11de:	ae 1a       	sub	r10, r30
    11e0:	be 0a       	sbc	r11, r30
    11e2:	c2 cf       	rjmp	.-124    	; 0x1168 <_ZN12Adafruit_GFX8drawCharEiihjjh+0x330>
    11e4:	3c 81       	ldd	r19, Y+4	; 0x04
    11e6:	3c 0d       	add	r19, r12
    11e8:	3c 83       	std	Y+4, r19	; 0x04
    11ea:	63 94       	inc	r6
    11ec:	9a cf       	rjmp	.-204    	; 0x1122 <_ZN12Adafruit_GFX8drawCharEiihjjh+0x2ea>
    11ee:	ab 8d       	ldd	r26, Y+27	; 0x1b
    11f0:	bc 8d       	ldd	r27, Y+28	; 0x1c
    11f2:	ed 91       	ld	r30, X+
    11f4:	fc 91       	ld	r31, X
    11f6:	11 97       	sbiw	r26, 0x01	; 1
    11f8:	06 88       	ldd	r0, Z+22	; 0x16
    11fa:	f7 89       	ldd	r31, Z+23	; 0x17
    11fc:	e0 2d       	mov	r30, r0
    11fe:	cd 01       	movw	r24, r26
    1200:	6c 96       	adiw	r28, 0x1c	; 28
    1202:	0f b6       	in	r0, 0x3f	; 63
    1204:	f8 94       	cli
    1206:	de bf       	out	0x3e, r29	; 62
    1208:	0f be       	out	0x3f, r0	; 63
    120a:	cd bf       	out	0x3d, r28	; 61
    120c:	df 91       	pop	r29
    120e:	cf 91       	pop	r28
    1210:	1f 91       	pop	r17
    1212:	0f 91       	pop	r16
    1214:	ff 90       	pop	r15
    1216:	ef 90       	pop	r14
    1218:	df 90       	pop	r13
    121a:	cf 90       	pop	r12
    121c:	bf 90       	pop	r11
    121e:	af 90       	pop	r10
    1220:	9f 90       	pop	r9
    1222:	8f 90       	pop	r8
    1224:	7f 90       	pop	r7
    1226:	6f 90       	pop	r6
    1228:	5f 90       	pop	r5
    122a:	4f 90       	pop	r4
    122c:	3f 90       	pop	r3
    122e:	2f 90       	pop	r2
    1230:	19 94       	eijmp
    1232:	6c 96       	adiw	r28, 0x1c	; 28
    1234:	0f b6       	in	r0, 0x3f	; 63
    1236:	f8 94       	cli
    1238:	de bf       	out	0x3e, r29	; 62
    123a:	0f be       	out	0x3f, r0	; 63
    123c:	cd bf       	out	0x3d, r28	; 61
    123e:	df 91       	pop	r29
    1240:	cf 91       	pop	r28
    1242:	1f 91       	pop	r17
    1244:	0f 91       	pop	r16
    1246:	ff 90       	pop	r15
    1248:	ef 90       	pop	r14
    124a:	df 90       	pop	r13
    124c:	cf 90       	pop	r12
    124e:	bf 90       	pop	r11
    1250:	af 90       	pop	r10
    1252:	9f 90       	pop	r9
    1254:	8f 90       	pop	r8
    1256:	7f 90       	pop	r7
    1258:	6f 90       	pop	r6
    125a:	5f 90       	pop	r5
    125c:	4f 90       	pop	r4
    125e:	3f 90       	pop	r3
    1260:	2f 90       	pop	r2
    1262:	08 95       	ret

00001264 <_ZN12Adafruit_GFX5writeEh>:
    1264:	af 92       	push	r10
    1266:	bf 92       	push	r11
    1268:	cf 92       	push	r12
    126a:	ef 92       	push	r14
    126c:	ff 92       	push	r15
    126e:	0f 93       	push	r16
    1270:	1f 93       	push	r17
    1272:	cf 93       	push	r28
    1274:	df 93       	push	r29
    1276:	ec 01       	movw	r28, r24
    1278:	26 2f       	mov	r18, r22
    127a:	88 8d       	ldd	r24, Y+24	; 0x18
    127c:	99 8d       	ldd	r25, Y+25	; 0x19
    127e:	00 97       	sbiw	r24, 0x00	; 0
    1280:	09 f0       	breq	.+2      	; 0x1284 <_ZN12Adafruit_GFX5writeEh+0x20>
    1282:	3f c0       	rjmp	.+126    	; 0x1302 <_ZN12Adafruit_GFX5writeEh+0x9e>
    1284:	6a 30       	cpi	r22, 0x0A	; 10
    1286:	59 f4       	brne	.+22     	; 0x129e <_ZN12Adafruit_GFX5writeEh+0x3a>
    1288:	1d 86       	std	Y+13, r1	; 0x0d
    128a:	1c 86       	std	Y+12, r1	; 0x0c
    128c:	2c 89       	ldd	r18, Y+20	; 0x14
    128e:	8e 85       	ldd	r24, Y+14	; 0x0e
    1290:	9f 85       	ldd	r25, Y+15	; 0x0f
    1292:	38 e0       	ldi	r19, 0x08	; 8
    1294:	23 9f       	mul	r18, r19
    1296:	80 0d       	add	r24, r0
    1298:	91 1d       	adc	r25, r1
    129a:	11 24       	eor	r1, r1
    129c:	40 c0       	rjmp	.+128    	; 0x131e <_ZN12Adafruit_GFX5writeEh+0xba>
    129e:	6d 30       	cpi	r22, 0x0D	; 13
    12a0:	09 f4       	brne	.+2      	; 0x12a4 <_ZN12Adafruit_GFX5writeEh+0x40>
    12a2:	a8 c0       	rjmp	.+336    	; 0x13f4 <_ZN12Adafruit_GFX5writeEh+0x190>
    12a4:	8e 89       	ldd	r24, Y+22	; 0x16
    12a6:	88 23       	and	r24, r24
    12a8:	c1 f0       	breq	.+48     	; 0x12da <_ZN12Adafruit_GFX5writeEh+0x76>
    12aa:	3c 89       	ldd	r19, Y+20	; 0x14
    12ac:	8c 85       	ldd	r24, Y+12	; 0x0c
    12ae:	9d 85       	ldd	r25, Y+13	; 0x0d
    12b0:	46 e0       	ldi	r20, 0x06	; 6
    12b2:	34 9f       	mul	r19, r20
    12b4:	80 0d       	add	r24, r0
    12b6:	91 1d       	adc	r25, r1
    12b8:	11 24       	eor	r1, r1
    12ba:	48 85       	ldd	r20, Y+8	; 0x08
    12bc:	59 85       	ldd	r21, Y+9	; 0x09
    12be:	48 17       	cp	r20, r24
    12c0:	59 07       	cpc	r21, r25
    12c2:	5c f4       	brge	.+22     	; 0x12da <_ZN12Adafruit_GFX5writeEh+0x76>
    12c4:	1d 86       	std	Y+13, r1	; 0x0d
    12c6:	1c 86       	std	Y+12, r1	; 0x0c
    12c8:	8e 85       	ldd	r24, Y+14	; 0x0e
    12ca:	9f 85       	ldd	r25, Y+15	; 0x0f
    12cc:	48 e0       	ldi	r20, 0x08	; 8
    12ce:	34 9f       	mul	r19, r20
    12d0:	80 0d       	add	r24, r0
    12d2:	91 1d       	adc	r25, r1
    12d4:	11 24       	eor	r1, r1
    12d6:	9f 87       	std	Y+15, r25	; 0x0f
    12d8:	8e 87       	std	Y+14, r24	; 0x0e
    12da:	ea 88       	ldd	r14, Y+18	; 0x12
    12dc:	fb 88       	ldd	r15, Y+19	; 0x13
    12de:	08 89       	ldd	r16, Y+16	; 0x10
    12e0:	19 89       	ldd	r17, Y+17	; 0x11
    12e2:	4e 85       	ldd	r20, Y+14	; 0x0e
    12e4:	5f 85       	ldd	r21, Y+15	; 0x0f
    12e6:	6c 85       	ldd	r22, Y+12	; 0x0c
    12e8:	7d 85       	ldd	r23, Y+13	; 0x0d
    12ea:	cc 88       	ldd	r12, Y+20	; 0x14
    12ec:	ce 01       	movw	r24, r28
    12ee:	a4 dd       	rcall	.-1208   	; 0xe38 <_ZN12Adafruit_GFX8drawCharEiihjjh>
    12f0:	2c 89       	ldd	r18, Y+20	; 0x14
    12f2:	8c 85       	ldd	r24, Y+12	; 0x0c
    12f4:	9d 85       	ldd	r25, Y+13	; 0x0d
    12f6:	36 e0       	ldi	r19, 0x06	; 6
    12f8:	23 9f       	mul	r18, r19
    12fa:	80 0d       	add	r24, r0
    12fc:	91 1d       	adc	r25, r1
    12fe:	11 24       	eor	r1, r1
    1300:	42 c0       	rjmp	.+132    	; 0x1386 <_ZN12Adafruit_GFX5writeEh+0x122>
    1302:	6a 30       	cpi	r22, 0x0A	; 10
    1304:	79 f4       	brne	.+30     	; 0x1324 <_ZN12Adafruit_GFX5writeEh+0xc0>
    1306:	1d 86       	std	Y+13, r1	; 0x0d
    1308:	1c 86       	std	Y+12, r1	; 0x0c
    130a:	2c 89       	ldd	r18, Y+20	; 0x14
    130c:	fc 01       	movw	r30, r24
    130e:	36 96       	adiw	r30, 0x06	; 6
    1310:	e4 91       	lpm	r30, Z
    1312:	8e 85       	ldd	r24, Y+14	; 0x0e
    1314:	9f 85       	ldd	r25, Y+15	; 0x0f
    1316:	2e 9f       	mul	r18, r30
    1318:	80 0d       	add	r24, r0
    131a:	91 1d       	adc	r25, r1
    131c:	11 24       	eor	r1, r1
    131e:	9f 87       	std	Y+15, r25	; 0x0f
    1320:	8e 87       	std	Y+14, r24	; 0x0e
    1322:	68 c0       	rjmp	.+208    	; 0x13f4 <_ZN12Adafruit_GFX5writeEh+0x190>
    1324:	6d 30       	cpi	r22, 0x0D	; 13
    1326:	09 f4       	brne	.+2      	; 0x132a <_ZN12Adafruit_GFX5writeEh+0xc6>
    1328:	65 c0       	rjmp	.+202    	; 0x13f4 <_ZN12Adafruit_GFX5writeEh+0x190>
    132a:	fc 01       	movw	r30, r24
    132c:	34 96       	adiw	r30, 0x04	; 4
    132e:	34 91       	lpm	r19, Z
    1330:	63 17       	cp	r22, r19
    1332:	08 f4       	brcc	.+2      	; 0x1336 <_ZN12Adafruit_GFX5writeEh+0xd2>
    1334:	5f c0       	rjmp	.+190    	; 0x13f4 <_ZN12Adafruit_GFX5writeEh+0x190>
    1336:	31 96       	adiw	r30, 0x01	; 1
    1338:	e4 91       	lpm	r30, Z
    133a:	e6 17       	cp	r30, r22
    133c:	08 f4       	brcc	.+2      	; 0x1340 <_ZN12Adafruit_GFX5writeEh+0xdc>
    133e:	5a c0       	rjmp	.+180    	; 0x13f4 <_ZN12Adafruit_GFX5writeEh+0x190>
    1340:	fc 01       	movw	r30, r24
    1342:	32 96       	adiw	r30, 0x02	; 2
    1344:	a5 90       	lpm	r10, Z+
    1346:	b4 90       	lpm	r11, Z
    1348:	46 2f       	mov	r20, r22
    134a:	50 e0       	ldi	r21, 0x00	; 0
    134c:	43 1b       	sub	r20, r19
    134e:	51 09       	sbc	r21, r1
    1350:	37 e0       	ldi	r19, 0x07	; 7
    1352:	34 9f       	mul	r19, r20
    1354:	b0 01       	movw	r22, r0
    1356:	35 9f       	mul	r19, r21
    1358:	70 0d       	add	r23, r0
    135a:	11 24       	eor	r1, r1
    135c:	a6 0e       	add	r10, r22
    135e:	b7 1e       	adc	r11, r23
    1360:	f5 01       	movw	r30, r10
    1362:	32 96       	adiw	r30, 0x02	; 2
    1364:	34 91       	lpm	r19, Z
    1366:	31 96       	adiw	r30, 0x01	; 1
    1368:	e4 91       	lpm	r30, Z
    136a:	33 23       	and	r19, r19
    136c:	11 f0       	breq	.+4      	; 0x1372 <_ZN12Adafruit_GFX5writeEh+0x10e>
    136e:	e1 11       	cpse	r30, r1
    1370:	0d c0       	rjmp	.+26     	; 0x138c <_ZN12Adafruit_GFX5writeEh+0x128>
    1372:	f5 01       	movw	r30, r10
    1374:	34 96       	adiw	r30, 0x04	; 4
    1376:	e4 91       	lpm	r30, Z
    1378:	2c 89       	ldd	r18, Y+20	; 0x14
    137a:	8c 85       	ldd	r24, Y+12	; 0x0c
    137c:	9d 85       	ldd	r25, Y+13	; 0x0d
    137e:	e2 9f       	mul	r30, r18
    1380:	80 0d       	add	r24, r0
    1382:	91 1d       	adc	r25, r1
    1384:	11 24       	eor	r1, r1
    1386:	9d 87       	std	Y+13, r25	; 0x0d
    1388:	8c 87       	std	Y+12, r24	; 0x0c
    138a:	34 c0       	rjmp	.+104    	; 0x13f4 <_ZN12Adafruit_GFX5writeEh+0x190>
    138c:	f5 01       	movw	r30, r10
    138e:	35 96       	adiw	r30, 0x05	; 5
    1390:	44 91       	lpm	r20, Z
    1392:	5e 89       	ldd	r21, Y+22	; 0x16
    1394:	55 23       	and	r21, r21
    1396:	11 f1       	breq	.+68     	; 0x13dc <_ZN12Adafruit_GFX5writeEh+0x178>
    1398:	6c 89       	ldd	r22, Y+20	; 0x14
    139a:	e3 2f       	mov	r30, r19
    139c:	f0 e0       	ldi	r31, 0x00	; 0
    139e:	e4 0f       	add	r30, r20
    13a0:	f1 1d       	adc	r31, r1
    13a2:	47 fd       	sbrc	r20, 7
    13a4:	fa 95       	dec	r31
    13a6:	6e 9f       	mul	r22, r30
    13a8:	d0 01       	movw	r26, r0
    13aa:	6f 9f       	mul	r22, r31
    13ac:	b0 0d       	add	r27, r0
    13ae:	11 24       	eor	r1, r1
    13b0:	4c 85       	ldd	r20, Y+12	; 0x0c
    13b2:	5d 85       	ldd	r21, Y+13	; 0x0d
    13b4:	4a 0f       	add	r20, r26
    13b6:	5b 1f       	adc	r21, r27
    13b8:	e8 85       	ldd	r30, Y+8	; 0x08
    13ba:	f9 85       	ldd	r31, Y+9	; 0x09
    13bc:	e4 17       	cp	r30, r20
    13be:	f5 07       	cpc	r31, r21
    13c0:	6c f4       	brge	.+26     	; 0x13dc <_ZN12Adafruit_GFX5writeEh+0x178>
    13c2:	1d 86       	std	Y+13, r1	; 0x0d
    13c4:	1c 86       	std	Y+12, r1	; 0x0c
    13c6:	fc 01       	movw	r30, r24
    13c8:	36 96       	adiw	r30, 0x06	; 6
    13ca:	e4 91       	lpm	r30, Z
    13cc:	8e 85       	ldd	r24, Y+14	; 0x0e
    13ce:	9f 85       	ldd	r25, Y+15	; 0x0f
    13d0:	6e 9f       	mul	r22, r30
    13d2:	80 0d       	add	r24, r0
    13d4:	91 1d       	adc	r25, r1
    13d6:	11 24       	eor	r1, r1
    13d8:	9f 87       	std	Y+15, r25	; 0x0f
    13da:	8e 87       	std	Y+14, r24	; 0x0e
    13dc:	ea 88       	ldd	r14, Y+18	; 0x12
    13de:	fb 88       	ldd	r15, Y+19	; 0x13
    13e0:	08 89       	ldd	r16, Y+16	; 0x10
    13e2:	19 89       	ldd	r17, Y+17	; 0x11
    13e4:	4e 85       	ldd	r20, Y+14	; 0x0e
    13e6:	5f 85       	ldd	r21, Y+15	; 0x0f
    13e8:	6c 85       	ldd	r22, Y+12	; 0x0c
    13ea:	7d 85       	ldd	r23, Y+13	; 0x0d
    13ec:	cc 88       	ldd	r12, Y+20	; 0x14
    13ee:	ce 01       	movw	r24, r28
    13f0:	23 dd       	rcall	.-1466   	; 0xe38 <_ZN12Adafruit_GFX8drawCharEiihjjh>
    13f2:	bf cf       	rjmp	.-130    	; 0x1372 <_ZN12Adafruit_GFX5writeEh+0x10e>
    13f4:	81 e0       	ldi	r24, 0x01	; 1
    13f6:	90 e0       	ldi	r25, 0x00	; 0
    13f8:	df 91       	pop	r29
    13fa:	cf 91       	pop	r28
    13fc:	1f 91       	pop	r17
    13fe:	0f 91       	pop	r16
    1400:	ff 90       	pop	r15
    1402:	ef 90       	pop	r14
    1404:	cf 90       	pop	r12
    1406:	bf 90       	pop	r11
    1408:	af 90       	pop	r10
    140a:	08 95       	ret

0000140c <_ZN12Adafruit_GFX9setCursorEii>:
    140c:	fc 01       	movw	r30, r24
    140e:	75 87       	std	Z+13, r23	; 0x0d
    1410:	64 87       	std	Z+12, r22	; 0x0c
    1412:	57 87       	std	Z+15, r21	; 0x0f
    1414:	46 87       	std	Z+14, r20	; 0x0e
    1416:	08 95       	ret

00001418 <_ZN12Adafruit_GFX11setTextSizeEh>:
    1418:	61 11       	cpse	r22, r1
    141a:	01 c0       	rjmp	.+2      	; 0x141e <_ZN12Adafruit_GFX11setTextSizeEh+0x6>
    141c:	61 e0       	ldi	r22, 0x01	; 1
    141e:	fc 01       	movw	r30, r24
    1420:	64 8b       	std	Z+20, r22	; 0x14
    1422:	08 95       	ret

00001424 <_ZN12Adafruit_GFX12setTextColorEj>:
    1424:	fc 01       	movw	r30, r24
    1426:	73 8b       	std	Z+19, r23	; 0x13
    1428:	62 8b       	std	Z+18, r22	; 0x12
    142a:	71 8b       	std	Z+17, r23	; 0x11
    142c:	60 8b       	std	Z+16, r22	; 0x10
    142e:	08 95       	ret

00001430 <_ZNK12Adafruit_GFX11getRotationEv>:
    1430:	fc 01       	movw	r30, r24
    1432:	85 89       	ldd	r24, Z+21	; 0x15
    1434:	08 95       	ret

00001436 <_ZNK12Adafruit_GFX5widthEv>:
    @returns    Width in pixels
*/
/**************************************************************************/
int16_t Adafruit_GFX::width(void) const {
    return _width;
}
    1436:	fc 01       	movw	r30, r24
    1438:	80 85       	ldd	r24, Z+8	; 0x08
    143a:	91 85       	ldd	r25, Z+9	; 0x09
    143c:	08 95       	ret

0000143e <_ZNK12Adafruit_GFX6heightEv>:
    @returns    Height in pixels
*/
/**************************************************************************/
int16_t Adafruit_GFX::height(void) const {
    return _height;
}
    143e:	fc 01       	movw	r30, r24
    1440:	82 85       	ldd	r24, Z+10	; 0x0a
    1442:	93 85       	ldd	r25, Z+11	; 0x0b
    1444:	08 95       	ret

00001446 <_ZN16Adafruit_SSD130613drawFastHLineEiiij>:
    }
  }
  // the range of contrast to too small to be really useful
  // it is useful to dim the display
  ssd1306_command(SSD1306_SETCONTRAST);
  ssd1306_command(contrast);
    1446:	0f 93       	push	r16
    1448:	1f 93       	push	r17
    144a:	cf 93       	push	r28
    144c:	df 93       	push	r29
    144e:	dc 01       	movw	r26, r24
    1450:	fb 01       	movw	r30, r22
    1452:	55 96       	adiw	r26, 0x15	; 21
    1454:	8c 91       	ld	r24, X
    1456:	55 97       	sbiw	r26, 0x15	; 21
    1458:	82 30       	cpi	r24, 0x02	; 2
    145a:	89 f0       	breq	.+34     	; 0x147e <_ZN16Adafruit_SSD130613drawFastHLineEiiij+0x38>
    145c:	83 30       	cpi	r24, 0x03	; 3
    145e:	21 f1       	breq	.+72     	; 0x14a8 <_ZN16Adafruit_SSD130613drawFastHLineEiiij+0x62>
    1460:	81 30       	cpi	r24, 0x01	; 1
    1462:	09 f0       	breq	.+2      	; 0x1466 <_ZN16Adafruit_SSD130613drawFastHLineEiiij+0x20>
    1464:	e6 c0       	rjmp	.+460    	; 0x1632 <_ZN16Adafruit_SSD130613drawFastHLineEiiij+0x1ec>
    1466:	14 96       	adiw	r26, 0x04	; 4
    1468:	8d 91       	ld	r24, X+
    146a:	9c 91       	ld	r25, X
    146c:	15 97       	sbiw	r26, 0x05	; 5
    146e:	bc 01       	movw	r22, r24
    1470:	64 1b       	sub	r22, r20
    1472:	75 0b       	sbc	r23, r21
    1474:	ab 01       	movw	r20, r22
    1476:	41 50       	subi	r20, 0x01	; 1
    1478:	51 09       	sbc	r21, r1
    147a:	bf 01       	movw	r22, r30
    147c:	1d c0       	rjmp	.+58     	; 0x14b8 <_ZN16Adafruit_SSD130613drawFastHLineEiiij+0x72>
    147e:	14 96       	adiw	r26, 0x04	; 4
    1480:	6d 91       	ld	r22, X+
    1482:	7c 91       	ld	r23, X
    1484:	15 97       	sbiw	r26, 0x05	; 5
    1486:	cb 01       	movw	r24, r22
    1488:	8e 1b       	sub	r24, r30
    148a:	9f 0b       	sbc	r25, r31
    148c:	fc 01       	movw	r30, r24
    148e:	16 96       	adiw	r26, 0x06	; 6
    1490:	8d 91       	ld	r24, X+
    1492:	9c 91       	ld	r25, X
    1494:	17 97       	sbiw	r26, 0x07	; 7
    1496:	bc 01       	movw	r22, r24
    1498:	64 1b       	sub	r22, r20
    149a:	75 0b       	sbc	r23, r21
    149c:	ab 01       	movw	r20, r22
    149e:	41 50       	subi	r20, 0x01	; 1
    14a0:	51 09       	sbc	r21, r1
    14a2:	e2 1b       	sub	r30, r18
    14a4:	f3 0b       	sbc	r31, r19
    14a6:	c5 c0       	rjmp	.+394    	; 0x1632 <_ZN16Adafruit_SSD130613drawFastHLineEiiij+0x1ec>
    14a8:	16 96       	adiw	r26, 0x06	; 6
    14aa:	6d 91       	ld	r22, X+
    14ac:	7c 91       	ld	r23, X
    14ae:	17 97       	sbiw	r26, 0x07	; 7
    14b0:	6e 1b       	sub	r22, r30
    14b2:	7f 0b       	sbc	r23, r31
    14b4:	62 1b       	sub	r22, r18
    14b6:	73 0b       	sbc	r23, r19
    14b8:	57 fd       	sbrc	r21, 7
    14ba:	1a c1       	rjmp	.+564    	; 0x16f0 <_ZN16Adafruit_SSD130613drawFastHLineEiiij+0x2aa>
    14bc:	14 96       	adiw	r26, 0x04	; 4
    14be:	8d 91       	ld	r24, X+
    14c0:	9c 91       	ld	r25, X
    14c2:	15 97       	sbiw	r26, 0x05	; 5
    14c4:	48 17       	cp	r20, r24
    14c6:	59 07       	cpc	r21, r25
    14c8:	0c f0       	brlt	.+2      	; 0x14cc <_ZN16Adafruit_SSD130613drawFastHLineEiiij+0x86>
    14ca:	12 c1       	rjmp	.+548    	; 0x16f0 <_ZN16Adafruit_SSD130613drawFastHLineEiiij+0x2aa>
    14cc:	77 ff       	sbrs	r23, 7
    14ce:	04 c0       	rjmp	.+8      	; 0x14d8 <_ZN16Adafruit_SSD130613drawFastHLineEiiij+0x92>
    14d0:	26 0f       	add	r18, r22
    14d2:	37 1f       	adc	r19, r23
    14d4:	60 e0       	ldi	r22, 0x00	; 0
    14d6:	70 e0       	ldi	r23, 0x00	; 0
    14d8:	16 96       	adiw	r26, 0x06	; 6
    14da:	8d 91       	ld	r24, X+
    14dc:	9c 91       	ld	r25, X
    14de:	17 97       	sbiw	r26, 0x07	; 7
    14e0:	fb 01       	movw	r30, r22
    14e2:	e2 0f       	add	r30, r18
    14e4:	f3 1f       	adc	r31, r19
    14e6:	8e 17       	cp	r24, r30
    14e8:	9f 07       	cpc	r25, r31
    14ea:	1c f4       	brge	.+6      	; 0x14f2 <_ZN16Adafruit_SSD130613drawFastHLineEiiij+0xac>
    14ec:	9c 01       	movw	r18, r24
    14ee:	26 1b       	sub	r18, r22
    14f0:	37 0b       	sbc	r19, r23
    14f2:	12 16       	cp	r1, r18
    14f4:	13 06       	cpc	r1, r19
    14f6:	0c f0       	brlt	.+2      	; 0x14fa <_ZN16Adafruit_SSD130613drawFastHLineEiiij+0xb4>
    14f8:	fb c0       	rjmp	.+502    	; 0x16f0 <_ZN16Adafruit_SSD130613drawFastHLineEiiij+0x2aa>
    14fa:	a2 2f       	mov	r26, r18
    14fc:	86 2f       	mov	r24, r22
    14fe:	86 95       	lsr	r24
    1500:	86 95       	lsr	r24
    1502:	86 95       	lsr	r24
    1504:	90 e8       	ldi	r25, 0x80	; 128
    1506:	89 9f       	mul	r24, r25
    1508:	40 0d       	add	r20, r0
    150a:	51 1d       	adc	r21, r1
    150c:	11 24       	eor	r1, r1
    150e:	fa 01       	movw	r30, r20
    1510:	ea 5e       	subi	r30, 0xEA	; 234
    1512:	fd 4f       	sbci	r31, 0xFD	; 253
    1514:	67 70       	andi	r22, 0x07	; 7
    1516:	a9 f1       	breq	.+106    	; 0x1582 <_ZN16Adafruit_SSD130613drawFastHLineEiiij+0x13c>
    1518:	98 e0       	ldi	r25, 0x08	; 8
    151a:	96 1b       	sub	r25, r22
    151c:	49 2f       	mov	r20, r25
    151e:	50 e0       	ldi	r21, 0x00	; 0
    1520:	ea 01       	movw	r28, r20
    1522:	c2 5f       	subi	r28, 0xF2	; 242
    1524:	dd 4f       	sbci	r29, 0xFD	; 253
    1526:	88 81       	ld	r24, Y
    1528:	29 17       	cp	r18, r25
    152a:	90 f4       	brcc	.+36     	; 0x1550 <_ZN16Adafruit_SSD130613drawFastHLineEiiij+0x10a>
    152c:	42 1b       	sub	r20, r18
    152e:	51 09       	sbc	r21, r1
    1530:	2f ef       	ldi	r18, 0xFF	; 255
    1532:	30 e0       	ldi	r19, 0x00	; 0
    1534:	02 c0       	rjmp	.+4      	; 0x153a <_ZN16Adafruit_SSD130613drawFastHLineEiiij+0xf4>
    1536:	35 95       	asr	r19
    1538:	27 95       	ror	r18
    153a:	4a 95       	dec	r20
    153c:	e2 f7       	brpl	.-8      	; 0x1536 <_ZN16Adafruit_SSD130613drawFastHLineEiiij+0xf0>
    153e:	82 23       	and	r24, r18
    1540:	01 30       	cpi	r16, 0x01	; 1
    1542:	11 05       	cpc	r17, r1
    1544:	41 f0       	breq	.+16     	; 0x1556 <_ZN16Adafruit_SSD130613drawFastHLineEiiij+0x110>
    1546:	68 f0       	brcs	.+26     	; 0x1562 <_ZN16Adafruit_SSD130613drawFastHLineEiiij+0x11c>
    1548:	02 30       	cpi	r16, 0x02	; 2
    154a:	11 05       	cpc	r17, r1
    154c:	89 f0       	breq	.+34     	; 0x1570 <_ZN16Adafruit_SSD130613drawFastHLineEiiij+0x12a>
    154e:	d0 c0       	rjmp	.+416    	; 0x16f0 <_ZN16Adafruit_SSD130613drawFastHLineEiiij+0x2aa>
    1550:	01 30       	cpi	r16, 0x01	; 1
    1552:	11 05       	cpc	r17, r1
    1554:	19 f4       	brne	.+6      	; 0x155c <_ZN16Adafruit_SSD130613drawFastHLineEiiij+0x116>
    1556:	20 81       	ld	r18, Z
    1558:	82 2b       	or	r24, r18
    155a:	0c c0       	rjmp	.+24     	; 0x1574 <_ZN16Adafruit_SSD130613drawFastHLineEiiij+0x12e>
    155c:	01 30       	cpi	r16, 0x01	; 1
    155e:	11 05       	cpc	r17, r1
    1560:	20 f4       	brcc	.+8      	; 0x156a <_ZN16Adafruit_SSD130613drawFastHLineEiiij+0x124>
    1562:	80 95       	com	r24
    1564:	20 81       	ld	r18, Z
    1566:	82 23       	and	r24, r18
    1568:	05 c0       	rjmp	.+10     	; 0x1574 <_ZN16Adafruit_SSD130613drawFastHLineEiiij+0x12e>
    156a:	02 30       	cpi	r16, 0x02	; 2
    156c:	11 05       	cpc	r17, r1
    156e:	31 f4       	brne	.+12     	; 0x157c <_ZN16Adafruit_SSD130613drawFastHLineEiiij+0x136>
    1570:	20 81       	ld	r18, Z
    1572:	82 27       	eor	r24, r18
    1574:	80 83       	st	Z, r24
    1576:	a9 17       	cp	r26, r25
    1578:	08 f4       	brcc	.+2      	; 0x157c <_ZN16Adafruit_SSD130613drawFastHLineEiiij+0x136>
    157a:	ba c0       	rjmp	.+372    	; 0x16f0 <_ZN16Adafruit_SSD130613drawFastHLineEiiij+0x2aa>
    157c:	a9 1b       	sub	r26, r25
    157e:	e0 58       	subi	r30, 0x80	; 128
    1580:	ff 4f       	sbci	r31, 0xFF	; 255
    1582:	a8 30       	cpi	r26, 0x08	; 8
    1584:	48 f1       	brcs	.+82     	; 0x15d8 <_ZN16Adafruit_SSD130613drawFastHLineEiiij+0x192>
    1586:	02 30       	cpi	r16, 0x02	; 2
    1588:	11 05       	cpc	r17, r1
    158a:	59 f4       	brne	.+22     	; 0x15a2 <_ZN16Adafruit_SSD130613drawFastHLineEiiij+0x15c>
    158c:	ef 01       	movw	r28, r30
    158e:	8a 2f       	mov	r24, r26
    1590:	98 81       	ld	r25, Y
    1592:	90 95       	com	r25
    1594:	98 83       	st	Y, r25
    1596:	c0 58       	subi	r28, 0x80	; 128
    1598:	df 4f       	sbci	r29, 0xFF	; 255
    159a:	88 50       	subi	r24, 0x08	; 8
    159c:	88 30       	cpi	r24, 0x08	; 8
    159e:	c0 f7       	brcc	.-16     	; 0x1590 <_ZN16Adafruit_SSD130613drawFastHLineEiiij+0x14a>
    15a0:	32 c0       	rjmp	.+100    	; 0x1606 <_ZN16Adafruit_SSD130613drawFastHLineEiiij+0x1c0>
    15a2:	81 e0       	ldi	r24, 0x01	; 1
    15a4:	01 30       	cpi	r16, 0x01	; 1
    15a6:	11 05       	cpc	r17, r1
    15a8:	09 f0       	breq	.+2      	; 0x15ac <_ZN16Adafruit_SSD130613drawFastHLineEiiij+0x166>
    15aa:	80 e0       	ldi	r24, 0x00	; 0
    15ac:	81 95       	neg	r24
    15ae:	ef 01       	movw	r28, r30
    15b0:	9a 2f       	mov	r25, r26
    15b2:	88 83       	st	Y, r24
    15b4:	c0 58       	subi	r28, 0x80	; 128
    15b6:	df 4f       	sbci	r29, 0xFF	; 255
    15b8:	98 50       	subi	r25, 0x08	; 8
    15ba:	98 30       	cpi	r25, 0x08	; 8
    15bc:	d0 f7       	brcc	.-12     	; 0x15b2 <_ZN16Adafruit_SSD130613drawFastHLineEiiij+0x16c>
    15be:	88 ef       	ldi	r24, 0xF8	; 248
    15c0:	8a 0f       	add	r24, r26
    15c2:	86 95       	lsr	r24
    15c4:	86 95       	lsr	r24
    15c6:	86 95       	lsr	r24
    15c8:	60 e8       	ldi	r22, 0x80	; 128
    15ca:	86 9f       	mul	r24, r22
    15cc:	e0 0d       	add	r30, r0
    15ce:	f1 1d       	adc	r31, r1
    15d0:	11 24       	eor	r1, r1
    15d2:	e0 58       	subi	r30, 0x80	; 128
    15d4:	ff 4f       	sbci	r31, 0xFF	; 255
    15d6:	a7 70       	andi	r26, 0x07	; 7
    15d8:	aa 23       	and	r26, r26
    15da:	09 f4       	brne	.+2      	; 0x15de <_ZN16Adafruit_SSD130613drawFastHLineEiiij+0x198>
    15dc:	89 c0       	rjmp	.+274    	; 0x16f0 <_ZN16Adafruit_SSD130613drawFastHLineEiiij+0x2aa>
    15de:	b0 e0       	ldi	r27, 0x00	; 0
    15e0:	aa 5f       	subi	r26, 0xFA	; 250
    15e2:	bd 4f       	sbci	r27, 0xFD	; 253
    15e4:	8c 91       	ld	r24, X
    15e6:	01 30       	cpi	r16, 0x01	; 1
    15e8:	11 05       	cpc	r17, r1
    15ea:	29 f0       	breq	.+10     	; 0x15f6 <_ZN16Adafruit_SSD130613drawFastHLineEiiij+0x1b0>
    15ec:	38 f0       	brcs	.+14     	; 0x15fc <_ZN16Adafruit_SSD130613drawFastHLineEiiij+0x1b6>
    15ee:	02 30       	cpi	r16, 0x02	; 2
    15f0:	11 05       	cpc	r17, r1
    15f2:	e1 f0       	breq	.+56     	; 0x162c <_ZN16Adafruit_SSD130613drawFastHLineEiiij+0x1e6>
    15f4:	7d c0       	rjmp	.+250    	; 0x16f0 <_ZN16Adafruit_SSD130613drawFastHLineEiiij+0x2aa>
    15f6:	90 81       	ld	r25, Z
    15f8:	89 2b       	or	r24, r25
    15fa:	03 c0       	rjmp	.+6      	; 0x1602 <_ZN16Adafruit_SSD130613drawFastHLineEiiij+0x1bc>
    15fc:	80 95       	com	r24
    15fe:	90 81       	ld	r25, Z
    1600:	89 23       	and	r24, r25
    1602:	80 83       	st	Z, r24
    1604:	75 c0       	rjmp	.+234    	; 0x16f0 <_ZN16Adafruit_SSD130613drawFastHLineEiiij+0x2aa>
    1606:	88 ef       	ldi	r24, 0xF8	; 248
    1608:	8a 0f       	add	r24, r26
    160a:	86 95       	lsr	r24
    160c:	86 95       	lsr	r24
    160e:	86 95       	lsr	r24
    1610:	70 e8       	ldi	r23, 0x80	; 128
    1612:	87 9f       	mul	r24, r23
    1614:	e0 0d       	add	r30, r0
    1616:	f1 1d       	adc	r31, r1
    1618:	11 24       	eor	r1, r1
    161a:	e0 58       	subi	r30, 0x80	; 128
    161c:	ff 4f       	sbci	r31, 0xFF	; 255
    161e:	a7 70       	andi	r26, 0x07	; 7
    1620:	09 f4       	brne	.+2      	; 0x1624 <_ZN16Adafruit_SSD130613drawFastHLineEiiij+0x1de>
    1622:	66 c0       	rjmp	.+204    	; 0x16f0 <_ZN16Adafruit_SSD130613drawFastHLineEiiij+0x2aa>
    1624:	b0 e0       	ldi	r27, 0x00	; 0
    1626:	aa 5f       	subi	r26, 0xFA	; 250
    1628:	bd 4f       	sbci	r27, 0xFD	; 253
    162a:	8c 91       	ld	r24, X
    162c:	90 81       	ld	r25, Z
    162e:	89 27       	eor	r24, r25
    1630:	e8 cf       	rjmp	.-48     	; 0x1602 <_ZN16Adafruit_SSD130613drawFastHLineEiiij+0x1bc>
    1632:	57 fd       	sbrc	r21, 7
    1634:	5d c0       	rjmp	.+186    	; 0x16f0 <_ZN16Adafruit_SSD130613drawFastHLineEiiij+0x2aa>
    1636:	16 96       	adiw	r26, 0x06	; 6
    1638:	8d 91       	ld	r24, X+
    163a:	9c 91       	ld	r25, X
    163c:	17 97       	sbiw	r26, 0x07	; 7
    163e:	48 17       	cp	r20, r24
    1640:	59 07       	cpc	r21, r25
    1642:	0c f0       	brlt	.+2      	; 0x1646 <_ZN16Adafruit_SSD130613drawFastHLineEiiij+0x200>
    1644:	55 c0       	rjmp	.+170    	; 0x16f0 <_ZN16Adafruit_SSD130613drawFastHLineEiiij+0x2aa>
    1646:	f7 ff       	sbrs	r31, 7
    1648:	04 c0       	rjmp	.+8      	; 0x1652 <_ZN16Adafruit_SSD130613drawFastHLineEiiij+0x20c>
    164a:	2e 0f       	add	r18, r30
    164c:	3f 1f       	adc	r19, r31
    164e:	e0 e0       	ldi	r30, 0x00	; 0
    1650:	f0 e0       	ldi	r31, 0x00	; 0
    1652:	14 96       	adiw	r26, 0x04	; 4
    1654:	8d 91       	ld	r24, X+
    1656:	9c 91       	ld	r25, X
    1658:	15 97       	sbiw	r26, 0x05	; 5
    165a:	bf 01       	movw	r22, r30
    165c:	62 0f       	add	r22, r18
    165e:	73 1f       	adc	r23, r19
    1660:	86 17       	cp	r24, r22
    1662:	97 07       	cpc	r25, r23
    1664:	1c f4       	brge	.+6      	; 0x166c <_ZN16Adafruit_SSD130613drawFastHLineEiiij+0x226>
    1666:	9c 01       	movw	r18, r24
    1668:	2e 1b       	sub	r18, r30
    166a:	3f 0b       	sbc	r19, r31
    166c:	12 16       	cp	r1, r18
    166e:	13 06       	cpc	r1, r19
    1670:	0c f0       	brlt	.+2      	; 0x1674 <_ZN16Adafruit_SSD130613drawFastHLineEiiij+0x22e>
    1672:	3e c0       	rjmp	.+124    	; 0x16f0 <_ZN16Adafruit_SSD130613drawFastHLineEiiij+0x2aa>
    1674:	ca 01       	movw	r24, r20
    1676:	57 fd       	sbrc	r21, 7
    1678:	07 96       	adiw	r24, 0x07	; 7
    167a:	63 e0       	ldi	r22, 0x03	; 3
    167c:	95 95       	asr	r25
    167e:	87 95       	ror	r24
    1680:	6a 95       	dec	r22
    1682:	e1 f7       	brne	.-8      	; 0x167c <_ZN16Adafruit_SSD130613drawFastHLineEiiij+0x236>
    1684:	96 95       	lsr	r25
    1686:	98 2f       	mov	r25, r24
    1688:	88 27       	eor	r24, r24
    168a:	97 95       	ror	r25
    168c:	87 95       	ror	r24
    168e:	e8 0f       	add	r30, r24
    1690:	f9 1f       	adc	r31, r25
    1692:	ea 5e       	subi	r30, 0xEA	; 234
    1694:	fd 4f       	sbci	r31, 0xFD	; 253
    1696:	47 70       	andi	r20, 0x07	; 7
    1698:	55 27       	eor	r21, r21
    169a:	81 e0       	ldi	r24, 0x01	; 1
    169c:	90 e0       	ldi	r25, 0x00	; 0
    169e:	01 c0       	rjmp	.+2      	; 0x16a2 <_ZN16Adafruit_SSD130613drawFastHLineEiiij+0x25c>
    16a0:	88 0f       	add	r24, r24
    16a2:	4a 95       	dec	r20
    16a4:	ea f7       	brpl	.-6      	; 0x16a0 <_ZN16Adafruit_SSD130613drawFastHLineEiiij+0x25a>
    16a6:	48 2f       	mov	r20, r24
    16a8:	01 30       	cpi	r16, 0x01	; 1
    16aa:	11 05       	cpc	r17, r1
    16ac:	39 f0       	breq	.+14     	; 0x16bc <_ZN16Adafruit_SSD130613drawFastHLineEiiij+0x276>
    16ae:	78 f0       	brcs	.+30     	; 0x16ce <_ZN16Adafruit_SSD130613drawFastHLineEiiij+0x288>
    16b0:	02 30       	cpi	r16, 0x02	; 2
    16b2:	11 05       	cpc	r17, r1
    16b4:	e9 f4       	brne	.+58     	; 0x16f0 <_ZN16Adafruit_SSD130613drawFastHLineEiiij+0x2aa>
    16b6:	2e 0f       	add	r18, r30
    16b8:	3f 1f       	adc	r19, r31
    16ba:	13 c0       	rjmp	.+38     	; 0x16e2 <_ZN16Adafruit_SSD130613drawFastHLineEiiij+0x29c>
    16bc:	2e 0f       	add	r18, r30
    16be:	3f 1f       	adc	r19, r31
    16c0:	e2 17       	cp	r30, r18
    16c2:	f3 07       	cpc	r31, r19
    16c4:	a9 f0       	breq	.+42     	; 0x16f0 <_ZN16Adafruit_SSD130613drawFastHLineEiiij+0x2aa>
    16c6:	80 81       	ld	r24, Z
    16c8:	84 2b       	or	r24, r20
    16ca:	81 93       	st	Z+, r24
    16cc:	f9 cf       	rjmp	.-14     	; 0x16c0 <_ZN16Adafruit_SSD130613drawFastHLineEiiij+0x27a>
    16ce:	80 95       	com	r24
    16d0:	2e 0f       	add	r18, r30
    16d2:	3f 1f       	adc	r19, r31
    16d4:	e2 17       	cp	r30, r18
    16d6:	f3 07       	cpc	r31, r19
    16d8:	59 f0       	breq	.+22     	; 0x16f0 <_ZN16Adafruit_SSD130613drawFastHLineEiiij+0x2aa>
    16da:	90 81       	ld	r25, Z
    16dc:	98 23       	and	r25, r24
    16de:	91 93       	st	Z+, r25
    16e0:	f9 cf       	rjmp	.-14     	; 0x16d4 <_ZN16Adafruit_SSD130613drawFastHLineEiiij+0x28e>
    16e2:	e2 17       	cp	r30, r18
    16e4:	f3 07       	cpc	r31, r19
    16e6:	21 f0       	breq	.+8      	; 0x16f0 <_ZN16Adafruit_SSD130613drawFastHLineEiiij+0x2aa>
    16e8:	80 81       	ld	r24, Z
    16ea:	84 27       	eor	r24, r20
    16ec:	81 93       	st	Z+, r24
    16ee:	f9 cf       	rjmp	.-14     	; 0x16e2 <_ZN16Adafruit_SSD130613drawFastHLineEiiij+0x29c>
    16f0:	df 91       	pop	r29
    16f2:	cf 91       	pop	r28
    16f4:	1f 91       	pop	r17
    16f6:	0f 91       	pop	r16
    16f8:	08 95       	ret

000016fa <_ZN16Adafruit_SSD130613drawFastVLineEiiij>:
    16fa:	0f 93       	push	r16
    16fc:	1f 93       	push	r17
    16fe:	cf 93       	push	r28
    1700:	df 93       	push	r29
    1702:	dc 01       	movw	r26, r24
    1704:	55 96       	adiw	r26, 0x15	; 21
    1706:	8c 91       	ld	r24, X
    1708:	55 97       	sbiw	r26, 0x15	; 21
    170a:	82 30       	cpi	r24, 0x02	; 2
    170c:	71 f0       	breq	.+28     	; 0x172a <_ZN16Adafruit_SSD130613drawFastVLineEiiij+0x30>
    170e:	83 30       	cpi	r24, 0x03	; 3
    1710:	09 f1       	breq	.+66     	; 0x1754 <_ZN16Adafruit_SSD130613drawFastVLineEiiij+0x5a>
    1712:	81 30       	cpi	r24, 0x01	; 1
    1714:	09 f0       	breq	.+2      	; 0x1718 <_ZN16Adafruit_SSD130613drawFastVLineEiiij+0x1e>
    1716:	8c c0       	rjmp	.+280    	; 0x1830 <_ZN16Adafruit_SSD130613drawFastVLineEiiij+0x136>
    1718:	14 96       	adiw	r26, 0x04	; 4
    171a:	ed 91       	ld	r30, X+
    171c:	fc 91       	ld	r31, X
    171e:	15 97       	sbiw	r26, 0x05	; 5
    1720:	e4 1b       	sub	r30, r20
    1722:	f5 0b       	sbc	r31, r21
    1724:	e2 1b       	sub	r30, r18
    1726:	f3 0b       	sbc	r31, r19
    1728:	20 c0       	rjmp	.+64     	; 0x176a <_ZN16Adafruit_SSD130613drawFastVLineEiiij+0x70>
    172a:	14 96       	adiw	r26, 0x04	; 4
    172c:	ed 91       	ld	r30, X+
    172e:	fc 91       	ld	r31, X
    1730:	15 97       	sbiw	r26, 0x05	; 5
    1732:	cf 01       	movw	r24, r30
    1734:	86 1b       	sub	r24, r22
    1736:	97 0b       	sbc	r25, r23
    1738:	bc 01       	movw	r22, r24
    173a:	61 50       	subi	r22, 0x01	; 1
    173c:	71 09       	sbc	r23, r1
    173e:	16 96       	adiw	r26, 0x06	; 6
    1740:	ed 91       	ld	r30, X+
    1742:	fc 91       	ld	r31, X
    1744:	17 97       	sbiw	r26, 0x07	; 7
    1746:	cf 01       	movw	r24, r30
    1748:	84 1b       	sub	r24, r20
    174a:	95 0b       	sbc	r25, r21
    174c:	ac 01       	movw	r20, r24
    174e:	42 1b       	sub	r20, r18
    1750:	53 0b       	sbc	r21, r19
    1752:	6e c0       	rjmp	.+220    	; 0x1830 <_ZN16Adafruit_SSD130613drawFastVLineEiiij+0x136>
    1754:	16 96       	adiw	r26, 0x06	; 6
    1756:	ed 91       	ld	r30, X+
    1758:	fc 91       	ld	r31, X
    175a:	17 97       	sbiw	r26, 0x07	; 7
    175c:	cf 01       	movw	r24, r30
    175e:	86 1b       	sub	r24, r22
    1760:	97 0b       	sbc	r25, r23
    1762:	bc 01       	movw	r22, r24
    1764:	61 50       	subi	r22, 0x01	; 1
    1766:	71 09       	sbc	r23, r1
    1768:	fa 01       	movw	r30, r20
    176a:	77 fd       	sbrc	r23, 7
    176c:	1b c1       	rjmp	.+566    	; 0x19a4 <_ZN16Adafruit_SSD130613drawFastVLineEiiij+0x2aa>
    176e:	16 96       	adiw	r26, 0x06	; 6
    1770:	8d 91       	ld	r24, X+
    1772:	9c 91       	ld	r25, X
    1774:	17 97       	sbiw	r26, 0x07	; 7
    1776:	68 17       	cp	r22, r24
    1778:	79 07       	cpc	r23, r25
    177a:	0c f0       	brlt	.+2      	; 0x177e <_ZN16Adafruit_SSD130613drawFastVLineEiiij+0x84>
    177c:	13 c1       	rjmp	.+550    	; 0x19a4 <_ZN16Adafruit_SSD130613drawFastVLineEiiij+0x2aa>
    177e:	f7 ff       	sbrs	r31, 7
    1780:	04 c0       	rjmp	.+8      	; 0x178a <_ZN16Adafruit_SSD130613drawFastVLineEiiij+0x90>
    1782:	2e 0f       	add	r18, r30
    1784:	3f 1f       	adc	r19, r31
    1786:	e0 e0       	ldi	r30, 0x00	; 0
    1788:	f0 e0       	ldi	r31, 0x00	; 0
    178a:	14 96       	adiw	r26, 0x04	; 4
    178c:	8d 91       	ld	r24, X+
    178e:	9c 91       	ld	r25, X
    1790:	15 97       	sbiw	r26, 0x05	; 5
    1792:	af 01       	movw	r20, r30
    1794:	42 0f       	add	r20, r18
    1796:	53 1f       	adc	r21, r19
    1798:	84 17       	cp	r24, r20
    179a:	95 07       	cpc	r25, r21
    179c:	1c f4       	brge	.+6      	; 0x17a4 <_ZN16Adafruit_SSD130613drawFastVLineEiiij+0xaa>
    179e:	9c 01       	movw	r18, r24
    17a0:	2e 1b       	sub	r18, r30
    17a2:	3f 0b       	sbc	r19, r31
    17a4:	12 16       	cp	r1, r18
    17a6:	13 06       	cpc	r1, r19
    17a8:	0c f0       	brlt	.+2      	; 0x17ac <_ZN16Adafruit_SSD130613drawFastVLineEiiij+0xb2>
    17aa:	fc c0       	rjmp	.+504    	; 0x19a4 <_ZN16Adafruit_SSD130613drawFastVLineEiiij+0x2aa>
    17ac:	cb 01       	movw	r24, r22
    17ae:	77 fd       	sbrc	r23, 7
    17b0:	07 96       	adiw	r24, 0x07	; 7
    17b2:	43 e0       	ldi	r20, 0x03	; 3
    17b4:	95 95       	asr	r25
    17b6:	87 95       	ror	r24
    17b8:	4a 95       	dec	r20
    17ba:	e1 f7       	brne	.-8      	; 0x17b4 <_ZN16Adafruit_SSD130613drawFastVLineEiiij+0xba>
    17bc:	96 95       	lsr	r25
    17be:	98 2f       	mov	r25, r24
    17c0:	88 27       	eor	r24, r24
    17c2:	97 95       	ror	r25
    17c4:	87 95       	ror	r24
    17c6:	e8 0f       	add	r30, r24
    17c8:	f9 1f       	adc	r31, r25
    17ca:	ea 5e       	subi	r30, 0xEA	; 234
    17cc:	fd 4f       	sbci	r31, 0xFD	; 253
    17ce:	67 70       	andi	r22, 0x07	; 7
    17d0:	77 27       	eor	r23, r23
    17d2:	81 e0       	ldi	r24, 0x01	; 1
    17d4:	90 e0       	ldi	r25, 0x00	; 0
    17d6:	01 c0       	rjmp	.+2      	; 0x17da <_ZN16Adafruit_SSD130613drawFastVLineEiiij+0xe0>
    17d8:	88 0f       	add	r24, r24
    17da:	6a 95       	dec	r22
    17dc:	ea f7       	brpl	.-6      	; 0x17d8 <_ZN16Adafruit_SSD130613drawFastVLineEiiij+0xde>
    17de:	48 2f       	mov	r20, r24
    17e0:	01 30       	cpi	r16, 0x01	; 1
    17e2:	11 05       	cpc	r17, r1
    17e4:	41 f0       	breq	.+16     	; 0x17f6 <_ZN16Adafruit_SSD130613drawFastVLineEiiij+0xfc>
    17e6:	88 f0       	brcs	.+34     	; 0x180a <_ZN16Adafruit_SSD130613drawFastVLineEiiij+0x110>
    17e8:	02 30       	cpi	r16, 0x02	; 2
    17ea:	11 05       	cpc	r17, r1
    17ec:	09 f0       	breq	.+2      	; 0x17f0 <_ZN16Adafruit_SSD130613drawFastVLineEiiij+0xf6>
    17ee:	da c0       	rjmp	.+436    	; 0x19a4 <_ZN16Adafruit_SSD130613drawFastVLineEiiij+0x2aa>
    17f0:	2e 0f       	add	r18, r30
    17f2:	3f 1f       	adc	r19, r31
    17f4:	15 c0       	rjmp	.+42     	; 0x1820 <_ZN16Adafruit_SSD130613drawFastVLineEiiij+0x126>
    17f6:	2e 0f       	add	r18, r30
    17f8:	3f 1f       	adc	r19, r31
    17fa:	e2 17       	cp	r30, r18
    17fc:	f3 07       	cpc	r31, r19
    17fe:	09 f4       	brne	.+2      	; 0x1802 <_ZN16Adafruit_SSD130613drawFastVLineEiiij+0x108>
    1800:	d1 c0       	rjmp	.+418    	; 0x19a4 <_ZN16Adafruit_SSD130613drawFastVLineEiiij+0x2aa>
    1802:	80 81       	ld	r24, Z
    1804:	84 2b       	or	r24, r20
    1806:	81 93       	st	Z+, r24
    1808:	f8 cf       	rjmp	.-16     	; 0x17fa <_ZN16Adafruit_SSD130613drawFastVLineEiiij+0x100>
    180a:	80 95       	com	r24
    180c:	2e 0f       	add	r18, r30
    180e:	3f 1f       	adc	r19, r31
    1810:	e2 17       	cp	r30, r18
    1812:	f3 07       	cpc	r31, r19
    1814:	09 f4       	brne	.+2      	; 0x1818 <_ZN16Adafruit_SSD130613drawFastVLineEiiij+0x11e>
    1816:	c6 c0       	rjmp	.+396    	; 0x19a4 <_ZN16Adafruit_SSD130613drawFastVLineEiiij+0x2aa>
    1818:	90 81       	ld	r25, Z
    181a:	98 23       	and	r25, r24
    181c:	91 93       	st	Z+, r25
    181e:	f8 cf       	rjmp	.-16     	; 0x1810 <_ZN16Adafruit_SSD130613drawFastVLineEiiij+0x116>
    1820:	e2 17       	cp	r30, r18
    1822:	f3 07       	cpc	r31, r19
    1824:	09 f4       	brne	.+2      	; 0x1828 <_ZN16Adafruit_SSD130613drawFastVLineEiiij+0x12e>
    1826:	be c0       	rjmp	.+380    	; 0x19a4 <_ZN16Adafruit_SSD130613drawFastVLineEiiij+0x2aa>
    1828:	80 81       	ld	r24, Z
    182a:	84 27       	eor	r24, r20
    182c:	81 93       	st	Z+, r24
    182e:	f8 cf       	rjmp	.-16     	; 0x1820 <_ZN16Adafruit_SSD130613drawFastVLineEiiij+0x126>
    1830:	77 fd       	sbrc	r23, 7
    1832:	b8 c0       	rjmp	.+368    	; 0x19a4 <_ZN16Adafruit_SSD130613drawFastVLineEiiij+0x2aa>
    1834:	14 96       	adiw	r26, 0x04	; 4
    1836:	8d 91       	ld	r24, X+
    1838:	9c 91       	ld	r25, X
    183a:	15 97       	sbiw	r26, 0x05	; 5
    183c:	68 17       	cp	r22, r24
    183e:	79 07       	cpc	r23, r25
    1840:	0c f0       	brlt	.+2      	; 0x1844 <_ZN16Adafruit_SSD130613drawFastVLineEiiij+0x14a>
    1842:	b0 c0       	rjmp	.+352    	; 0x19a4 <_ZN16Adafruit_SSD130613drawFastVLineEiiij+0x2aa>
    1844:	57 ff       	sbrs	r21, 7
    1846:	04 c0       	rjmp	.+8      	; 0x1850 <_ZN16Adafruit_SSD130613drawFastVLineEiiij+0x156>
    1848:	24 0f       	add	r18, r20
    184a:	35 1f       	adc	r19, r21
    184c:	40 e0       	ldi	r20, 0x00	; 0
    184e:	50 e0       	ldi	r21, 0x00	; 0
    1850:	16 96       	adiw	r26, 0x06	; 6
    1852:	8d 91       	ld	r24, X+
    1854:	9c 91       	ld	r25, X
    1856:	17 97       	sbiw	r26, 0x07	; 7
    1858:	fa 01       	movw	r30, r20
    185a:	e2 0f       	add	r30, r18
    185c:	f3 1f       	adc	r31, r19
    185e:	8e 17       	cp	r24, r30
    1860:	9f 07       	cpc	r25, r31
    1862:	1c f4       	brge	.+6      	; 0x186a <_ZN16Adafruit_SSD130613drawFastVLineEiiij+0x170>
    1864:	9c 01       	movw	r18, r24
    1866:	24 1b       	sub	r18, r20
    1868:	35 0b       	sbc	r19, r21
    186a:	12 16       	cp	r1, r18
    186c:	13 06       	cpc	r1, r19
    186e:	0c f0       	brlt	.+2      	; 0x1872 <_ZN16Adafruit_SSD130613drawFastVLineEiiij+0x178>
    1870:	99 c0       	rjmp	.+306    	; 0x19a4 <_ZN16Adafruit_SSD130613drawFastVLineEiiij+0x2aa>
    1872:	a2 2f       	mov	r26, r18
    1874:	84 2f       	mov	r24, r20
    1876:	86 95       	lsr	r24
    1878:	86 95       	lsr	r24
    187a:	86 95       	lsr	r24
    187c:	90 e8       	ldi	r25, 0x80	; 128
    187e:	89 9f       	mul	r24, r25
    1880:	60 0d       	add	r22, r0
    1882:	71 1d       	adc	r23, r1
    1884:	11 24       	eor	r1, r1
    1886:	fb 01       	movw	r30, r22
    1888:	ea 5e       	subi	r30, 0xEA	; 234
    188a:	fd 4f       	sbci	r31, 0xFD	; 253
    188c:	47 70       	andi	r20, 0x07	; 7
    188e:	a9 f1       	breq	.+106    	; 0x18fa <_ZN16Adafruit_SSD130613drawFastVLineEiiij+0x200>
    1890:	98 e0       	ldi	r25, 0x08	; 8
    1892:	94 1b       	sub	r25, r20
    1894:	49 2f       	mov	r20, r25
    1896:	50 e0       	ldi	r21, 0x00	; 0
    1898:	ea 01       	movw	r28, r20
    189a:	c2 5f       	subi	r28, 0xF2	; 242
    189c:	dd 4f       	sbci	r29, 0xFD	; 253
    189e:	88 81       	ld	r24, Y
    18a0:	29 17       	cp	r18, r25
    18a2:	90 f4       	brcc	.+36     	; 0x18c8 <_ZN16Adafruit_SSD130613drawFastVLineEiiij+0x1ce>
    18a4:	42 1b       	sub	r20, r18
    18a6:	51 09       	sbc	r21, r1
    18a8:	2f ef       	ldi	r18, 0xFF	; 255
    18aa:	30 e0       	ldi	r19, 0x00	; 0
    18ac:	02 c0       	rjmp	.+4      	; 0x18b2 <_ZN16Adafruit_SSD130613drawFastVLineEiiij+0x1b8>
    18ae:	35 95       	asr	r19
    18b0:	27 95       	ror	r18
    18b2:	4a 95       	dec	r20
    18b4:	e2 f7       	brpl	.-8      	; 0x18ae <_ZN16Adafruit_SSD130613drawFastVLineEiiij+0x1b4>
    18b6:	82 23       	and	r24, r18
    18b8:	01 30       	cpi	r16, 0x01	; 1
    18ba:	11 05       	cpc	r17, r1
    18bc:	41 f0       	breq	.+16     	; 0x18ce <_ZN16Adafruit_SSD130613drawFastVLineEiiij+0x1d4>
    18be:	68 f0       	brcs	.+26     	; 0x18da <_ZN16Adafruit_SSD130613drawFastVLineEiiij+0x1e0>
    18c0:	02 30       	cpi	r16, 0x02	; 2
    18c2:	11 05       	cpc	r17, r1
    18c4:	89 f0       	breq	.+34     	; 0x18e8 <_ZN16Adafruit_SSD130613drawFastVLineEiiij+0x1ee>
    18c6:	6e c0       	rjmp	.+220    	; 0x19a4 <_ZN16Adafruit_SSD130613drawFastVLineEiiij+0x2aa>
    18c8:	01 30       	cpi	r16, 0x01	; 1
    18ca:	11 05       	cpc	r17, r1
    18cc:	19 f4       	brne	.+6      	; 0x18d4 <_ZN16Adafruit_SSD130613drawFastVLineEiiij+0x1da>
    18ce:	20 81       	ld	r18, Z
    18d0:	82 2b       	or	r24, r18
    18d2:	0c c0       	rjmp	.+24     	; 0x18ec <_ZN16Adafruit_SSD130613drawFastVLineEiiij+0x1f2>
    18d4:	01 30       	cpi	r16, 0x01	; 1
    18d6:	11 05       	cpc	r17, r1
    18d8:	20 f4       	brcc	.+8      	; 0x18e2 <_ZN16Adafruit_SSD130613drawFastVLineEiiij+0x1e8>
    18da:	80 95       	com	r24
    18dc:	20 81       	ld	r18, Z
    18de:	82 23       	and	r24, r18
    18e0:	05 c0       	rjmp	.+10     	; 0x18ec <_ZN16Adafruit_SSD130613drawFastVLineEiiij+0x1f2>
    18e2:	02 30       	cpi	r16, 0x02	; 2
    18e4:	11 05       	cpc	r17, r1
    18e6:	31 f4       	brne	.+12     	; 0x18f4 <_ZN16Adafruit_SSD130613drawFastVLineEiiij+0x1fa>
    18e8:	20 81       	ld	r18, Z
    18ea:	82 27       	eor	r24, r18
    18ec:	80 83       	st	Z, r24
    18ee:	a9 17       	cp	r26, r25
    18f0:	08 f4       	brcc	.+2      	; 0x18f4 <_ZN16Adafruit_SSD130613drawFastVLineEiiij+0x1fa>
    18f2:	58 c0       	rjmp	.+176    	; 0x19a4 <_ZN16Adafruit_SSD130613drawFastVLineEiiij+0x2aa>
    18f4:	a9 1b       	sub	r26, r25
    18f6:	e0 58       	subi	r30, 0x80	; 128
    18f8:	ff 4f       	sbci	r31, 0xFF	; 255
    18fa:	a8 30       	cpi	r26, 0x08	; 8
    18fc:	48 f1       	brcs	.+82     	; 0x1950 <_ZN16Adafruit_SSD130613drawFastVLineEiiij+0x256>
    18fe:	02 30       	cpi	r16, 0x02	; 2
    1900:	11 05       	cpc	r17, r1
    1902:	59 f4       	brne	.+22     	; 0x191a <_ZN16Adafruit_SSD130613drawFastVLineEiiij+0x220>
    1904:	ef 01       	movw	r28, r30
    1906:	8a 2f       	mov	r24, r26
    1908:	98 81       	ld	r25, Y
    190a:	90 95       	com	r25
    190c:	98 83       	st	Y, r25
    190e:	c0 58       	subi	r28, 0x80	; 128
    1910:	df 4f       	sbci	r29, 0xFF	; 255
    1912:	88 50       	subi	r24, 0x08	; 8
    1914:	88 30       	cpi	r24, 0x08	; 8
    1916:	c0 f7       	brcc	.-16     	; 0x1908 <_ZN16Adafruit_SSD130613drawFastVLineEiiij+0x20e>
    1918:	30 c0       	rjmp	.+96     	; 0x197a <_ZN16Adafruit_SSD130613drawFastVLineEiiij+0x280>
    191a:	81 e0       	ldi	r24, 0x01	; 1
    191c:	01 30       	cpi	r16, 0x01	; 1
    191e:	11 05       	cpc	r17, r1
    1920:	09 f0       	breq	.+2      	; 0x1924 <_ZN16Adafruit_SSD130613drawFastVLineEiiij+0x22a>
    1922:	80 e0       	ldi	r24, 0x00	; 0
    1924:	81 95       	neg	r24
    1926:	ef 01       	movw	r28, r30
    1928:	9a 2f       	mov	r25, r26
    192a:	88 83       	st	Y, r24
    192c:	c0 58       	subi	r28, 0x80	; 128
    192e:	df 4f       	sbci	r29, 0xFF	; 255
    1930:	98 50       	subi	r25, 0x08	; 8
    1932:	98 30       	cpi	r25, 0x08	; 8
    1934:	d0 f7       	brcc	.-12     	; 0x192a <_ZN16Adafruit_SSD130613drawFastVLineEiiij+0x230>
    1936:	88 ef       	ldi	r24, 0xF8	; 248
    1938:	8a 0f       	add	r24, r26
    193a:	86 95       	lsr	r24
    193c:	86 95       	lsr	r24
    193e:	86 95       	lsr	r24
    1940:	90 e8       	ldi	r25, 0x80	; 128
    1942:	89 9f       	mul	r24, r25
    1944:	e0 0d       	add	r30, r0
    1946:	f1 1d       	adc	r31, r1
    1948:	11 24       	eor	r1, r1
    194a:	e0 58       	subi	r30, 0x80	; 128
    194c:	ff 4f       	sbci	r31, 0xFF	; 255
    194e:	a7 70       	andi	r26, 0x07	; 7
    1950:	aa 23       	and	r26, r26
    1952:	41 f1       	breq	.+80     	; 0x19a4 <_ZN16Adafruit_SSD130613drawFastVLineEiiij+0x2aa>
    1954:	b0 e0       	ldi	r27, 0x00	; 0
    1956:	aa 5f       	subi	r26, 0xFA	; 250
    1958:	bd 4f       	sbci	r27, 0xFD	; 253
    195a:	8c 91       	ld	r24, X
    195c:	01 30       	cpi	r16, 0x01	; 1
    195e:	11 05       	cpc	r17, r1
    1960:	29 f0       	breq	.+10     	; 0x196c <_ZN16Adafruit_SSD130613drawFastVLineEiiij+0x272>
    1962:	38 f0       	brcs	.+14     	; 0x1972 <_ZN16Adafruit_SSD130613drawFastVLineEiiij+0x278>
    1964:	02 30       	cpi	r16, 0x02	; 2
    1966:	11 05       	cpc	r17, r1
    1968:	d1 f0       	breq	.+52     	; 0x199e <_ZN16Adafruit_SSD130613drawFastVLineEiiij+0x2a4>
    196a:	1c c0       	rjmp	.+56     	; 0x19a4 <_ZN16Adafruit_SSD130613drawFastVLineEiiij+0x2aa>
    196c:	90 81       	ld	r25, Z
    196e:	89 2b       	or	r24, r25
    1970:	18 c0       	rjmp	.+48     	; 0x19a2 <_ZN16Adafruit_SSD130613drawFastVLineEiiij+0x2a8>
    1972:	80 95       	com	r24
    1974:	90 81       	ld	r25, Z
    1976:	89 23       	and	r24, r25
    1978:	14 c0       	rjmp	.+40     	; 0x19a2 <_ZN16Adafruit_SSD130613drawFastVLineEiiij+0x2a8>
    197a:	88 ef       	ldi	r24, 0xF8	; 248
    197c:	8a 0f       	add	r24, r26
    197e:	86 95       	lsr	r24
    1980:	86 95       	lsr	r24
    1982:	86 95       	lsr	r24
    1984:	90 e8       	ldi	r25, 0x80	; 128
    1986:	89 9f       	mul	r24, r25
    1988:	e0 0d       	add	r30, r0
    198a:	f1 1d       	adc	r31, r1
    198c:	11 24       	eor	r1, r1
    198e:	e0 58       	subi	r30, 0x80	; 128
    1990:	ff 4f       	sbci	r31, 0xFF	; 255
    1992:	a7 70       	andi	r26, 0x07	; 7
    1994:	39 f0       	breq	.+14     	; 0x19a4 <_ZN16Adafruit_SSD130613drawFastVLineEiiij+0x2aa>
    1996:	b0 e0       	ldi	r27, 0x00	; 0
    1998:	aa 5f       	subi	r26, 0xFA	; 250
    199a:	bd 4f       	sbci	r27, 0xFD	; 253
    199c:	8c 91       	ld	r24, X
    199e:	90 81       	ld	r25, Z
    19a0:	89 27       	eor	r24, r25
    19a2:	80 83       	st	Z, r24
    19a4:	df 91       	pop	r29
    19a6:	cf 91       	pop	r28
    19a8:	1f 91       	pop	r17
    19aa:	0f 91       	pop	r16
    19ac:	08 95       	ret

000019ae <_ZN16Adafruit_SSD13069drawPixelEiij>:
    19ae:	cf 92       	push	r12
    19b0:	df 92       	push	r13
    19b2:	ef 92       	push	r14
    19b4:	ff 92       	push	r15
    19b6:	0f 93       	push	r16
    19b8:	1f 93       	push	r17
    19ba:	cf 93       	push	r28
    19bc:	df 93       	push	r29
    19be:	7c 01       	movw	r14, r24
    19c0:	8b 01       	movw	r16, r22
    19c2:	ea 01       	movw	r28, r20
    19c4:	69 01       	movw	r12, r18
    19c6:	77 fd       	sbrc	r23, 7
    19c8:	9d c0       	rjmp	.+314    	; 0x1b04 <_ZN16Adafruit_SSD13069drawPixelEiij+0x156>
    19ca:	35 dd       	rcall	.-1430   	; 0x1436 <_ZNK12Adafruit_GFX5widthEv>
    19cc:	08 17       	cp	r16, r24
    19ce:	19 07       	cpc	r17, r25
    19d0:	0c f0       	brlt	.+2      	; 0x19d4 <_ZN16Adafruit_SSD13069drawPixelEiij+0x26>
    19d2:	98 c0       	rjmp	.+304    	; 0x1b04 <_ZN16Adafruit_SSD13069drawPixelEiij+0x156>
    19d4:	d7 fd       	sbrc	r29, 7
    19d6:	96 c0       	rjmp	.+300    	; 0x1b04 <_ZN16Adafruit_SSD13069drawPixelEiij+0x156>
    19d8:	c7 01       	movw	r24, r14
    19da:	31 dd       	rcall	.-1438   	; 0x143e <_ZNK12Adafruit_GFX6heightEv>
    19dc:	c8 17       	cp	r28, r24
    19de:	d9 07       	cpc	r29, r25
    19e0:	0c f0       	brlt	.+2      	; 0x19e4 <_ZN16Adafruit_SSD13069drawPixelEiij+0x36>
    19e2:	90 c0       	rjmp	.+288    	; 0x1b04 <_ZN16Adafruit_SSD13069drawPixelEiij+0x156>
    19e4:	c7 01       	movw	r24, r14
    19e6:	24 dd       	rcall	.-1464   	; 0x1430 <_ZNK12Adafruit_GFX11getRotationEv>
    19e8:	82 30       	cpi	r24, 0x02	; 2
    19ea:	09 f0       	breq	.+2      	; 0x19ee <_ZN16Adafruit_SSD13069drawPixelEiij+0x40>
    19ec:	7f c0       	rjmp	.+254    	; 0x1aec <_ZN16Adafruit_SSD13069drawPixelEiij+0x13e>
    19ee:	f7 01       	movw	r30, r14
    19f0:	64 81       	ldd	r22, Z+4	; 0x04
    19f2:	75 81       	ldd	r23, Z+5	; 0x05
    19f4:	cb 01       	movw	r24, r22
    19f6:	80 1b       	sub	r24, r16
    19f8:	91 0b       	sbc	r25, r17
    19fa:	8c 01       	movw	r16, r24
    19fc:	01 50       	subi	r16, 0x01	; 1
    19fe:	11 09       	sbc	r17, r1
    1a00:	46 81       	ldd	r20, Z+6	; 0x06
    1a02:	57 81       	ldd	r21, Z+7	; 0x07
    1a04:	fa 01       	movw	r30, r20
    1a06:	ec 1b       	sub	r30, r28
    1a08:	fd 0b       	sbc	r31, r29
    1a0a:	ef 01       	movw	r28, r30
    1a0c:	21 97       	sbiw	r28, 0x01	; 1
    1a0e:	0b c0       	rjmp	.+22     	; 0x1a26 <_ZN16Adafruit_SSD13069drawPixelEiij+0x78>
    1a10:	81 30       	cpi	r24, 0x01	; 1
    1a12:	49 f4       	brne	.+18     	; 0x1a26 <_ZN16Adafruit_SSD13069drawPixelEiij+0x78>
    1a14:	f7 01       	movw	r30, r14
    1a16:	84 81       	ldd	r24, Z+4	; 0x04
    1a18:	95 81       	ldd	r25, Z+5	; 0x05
    1a1a:	8c 1b       	sub	r24, r28
    1a1c:	9d 0b       	sbc	r25, r29
    1a1e:	e8 01       	movw	r28, r16
    1a20:	8c 01       	movw	r16, r24
    1a22:	01 50       	subi	r16, 0x01	; 1
    1a24:	11 09       	sbc	r17, r1
    1a26:	f1 e0       	ldi	r31, 0x01	; 1
    1a28:	cf 16       	cp	r12, r31
    1a2a:	d1 04       	cpc	r13, r1
    1a2c:	31 f0       	breq	.+12     	; 0x1a3a <_ZN16Adafruit_SSD13069drawPixelEiij+0x8c>
    1a2e:	10 f1       	brcs	.+68     	; 0x1a74 <_ZN16Adafruit_SSD13069drawPixelEiij+0xc6>
    1a30:	82 e0       	ldi	r24, 0x02	; 2
    1a32:	c8 16       	cp	r12, r24
    1a34:	d1 04       	cpc	r13, r1
    1a36:	e1 f1       	breq	.+120    	; 0x1ab0 <_ZN16Adafruit_SSD13069drawPixelEiij+0x102>
    1a38:	65 c0       	rjmp	.+202    	; 0x1b04 <_ZN16Adafruit_SSD13069drawPixelEiij+0x156>
    1a3a:	fe 01       	movw	r30, r28
    1a3c:	d7 fd       	sbrc	r29, 7
    1a3e:	37 96       	adiw	r30, 0x07	; 7
    1a40:	43 e0       	ldi	r20, 0x03	; 3
    1a42:	f5 95       	asr	r31
    1a44:	e7 95       	ror	r30
    1a46:	4a 95       	dec	r20
    1a48:	e1 f7       	brne	.-8      	; 0x1a42 <_ZN16Adafruit_SSD13069drawPixelEiij+0x94>
    1a4a:	f6 95       	lsr	r31
    1a4c:	fe 2f       	mov	r31, r30
    1a4e:	ee 27       	eor	r30, r30
    1a50:	f7 95       	ror	r31
    1a52:	e7 95       	ror	r30
    1a54:	0e 0f       	add	r16, r30
    1a56:	1f 1f       	adc	r17, r31
    1a58:	f8 01       	movw	r30, r16
    1a5a:	ea 5e       	subi	r30, 0xEA	; 234
    1a5c:	fd 4f       	sbci	r31, 0xFD	; 253
    1a5e:	c7 70       	andi	r28, 0x07	; 7
    1a60:	dd 27       	eor	r29, r29
    1a62:	81 e0       	ldi	r24, 0x01	; 1
    1a64:	90 e0       	ldi	r25, 0x00	; 0
    1a66:	01 c0       	rjmp	.+2      	; 0x1a6a <_ZN16Adafruit_SSD13069drawPixelEiij+0xbc>
    1a68:	88 0f       	add	r24, r24
    1a6a:	ca 95       	dec	r28
    1a6c:	ea f7       	brpl	.-6      	; 0x1a68 <_ZN16Adafruit_SSD13069drawPixelEiij+0xba>
    1a6e:	90 81       	ld	r25, Z
    1a70:	89 2b       	or	r24, r25
    1a72:	3a c0       	rjmp	.+116    	; 0x1ae8 <_ZN16Adafruit_SSD13069drawPixelEiij+0x13a>
    1a74:	fe 01       	movw	r30, r28
    1a76:	d7 fd       	sbrc	r29, 7
    1a78:	37 96       	adiw	r30, 0x07	; 7
    1a7a:	23 e0       	ldi	r18, 0x03	; 3
    1a7c:	f5 95       	asr	r31
    1a7e:	e7 95       	ror	r30
    1a80:	2a 95       	dec	r18
    1a82:	e1 f7       	brne	.-8      	; 0x1a7c <_ZN16Adafruit_SSD13069drawPixelEiij+0xce>
    1a84:	f6 95       	lsr	r31
    1a86:	fe 2f       	mov	r31, r30
    1a88:	ee 27       	eor	r30, r30
    1a8a:	f7 95       	ror	r31
    1a8c:	e7 95       	ror	r30
    1a8e:	0e 0f       	add	r16, r30
    1a90:	1f 1f       	adc	r17, r31
    1a92:	f8 01       	movw	r30, r16
    1a94:	ea 5e       	subi	r30, 0xEA	; 234
    1a96:	fd 4f       	sbci	r31, 0xFD	; 253
    1a98:	c7 70       	andi	r28, 0x07	; 7
    1a9a:	dd 27       	eor	r29, r29
    1a9c:	81 e0       	ldi	r24, 0x01	; 1
    1a9e:	90 e0       	ldi	r25, 0x00	; 0
    1aa0:	01 c0       	rjmp	.+2      	; 0x1aa4 <_ZN16Adafruit_SSD13069drawPixelEiij+0xf6>
    1aa2:	88 0f       	add	r24, r24
    1aa4:	ca 95       	dec	r28
    1aa6:	ea f7       	brpl	.-6      	; 0x1aa2 <_ZN16Adafruit_SSD13069drawPixelEiij+0xf4>
    1aa8:	80 95       	com	r24
    1aaa:	90 81       	ld	r25, Z
    1aac:	89 23       	and	r24, r25
    1aae:	1c c0       	rjmp	.+56     	; 0x1ae8 <_ZN16Adafruit_SSD13069drawPixelEiij+0x13a>
    1ab0:	fe 01       	movw	r30, r28
    1ab2:	d7 fd       	sbrc	r29, 7
    1ab4:	37 96       	adiw	r30, 0x07	; 7
    1ab6:	83 e0       	ldi	r24, 0x03	; 3
    1ab8:	f5 95       	asr	r31
    1aba:	e7 95       	ror	r30
    1abc:	8a 95       	dec	r24
    1abe:	e1 f7       	brne	.-8      	; 0x1ab8 <_ZN16Adafruit_SSD13069drawPixelEiij+0x10a>
    1ac0:	f6 95       	lsr	r31
    1ac2:	fe 2f       	mov	r31, r30
    1ac4:	ee 27       	eor	r30, r30
    1ac6:	f7 95       	ror	r31
    1ac8:	e7 95       	ror	r30
    1aca:	0e 0f       	add	r16, r30
    1acc:	1f 1f       	adc	r17, r31
    1ace:	f8 01       	movw	r30, r16
    1ad0:	ea 5e       	subi	r30, 0xEA	; 234
    1ad2:	fd 4f       	sbci	r31, 0xFD	; 253
    1ad4:	c7 70       	andi	r28, 0x07	; 7
    1ad6:	dd 27       	eor	r29, r29
    1ad8:	81 e0       	ldi	r24, 0x01	; 1
    1ada:	90 e0       	ldi	r25, 0x00	; 0
    1adc:	01 c0       	rjmp	.+2      	; 0x1ae0 <_ZN16Adafruit_SSD13069drawPixelEiij+0x132>
    1ade:	88 0f       	add	r24, r24
    1ae0:	ca 95       	dec	r28
    1ae2:	ea f7       	brpl	.-6      	; 0x1ade <_ZN16Adafruit_SSD13069drawPixelEiij+0x130>
    1ae4:	90 81       	ld	r25, Z
    1ae6:	89 27       	eor	r24, r25
    1ae8:	80 83       	st	Z, r24
    1aea:	0c c0       	rjmp	.+24     	; 0x1b04 <_ZN16Adafruit_SSD13069drawPixelEiij+0x156>
    1aec:	83 30       	cpi	r24, 0x03	; 3
    1aee:	09 f0       	breq	.+2      	; 0x1af2 <_ZN16Adafruit_SSD13069drawPixelEiij+0x144>
    1af0:	8f cf       	rjmp	.-226    	; 0x1a10 <_ZN16Adafruit_SSD13069drawPixelEiij+0x62>
    1af2:	f7 01       	movw	r30, r14
    1af4:	86 81       	ldd	r24, Z+6	; 0x06
    1af6:	97 81       	ldd	r25, Z+7	; 0x07
    1af8:	80 1b       	sub	r24, r16
    1afa:	91 0b       	sbc	r25, r17
    1afc:	8e 01       	movw	r16, r28
    1afe:	ec 01       	movw	r28, r24
    1b00:	21 97       	sbiw	r28, 0x01	; 1
    1b02:	91 cf       	rjmp	.-222    	; 0x1a26 <_ZN16Adafruit_SSD13069drawPixelEiij+0x78>
    1b04:	df 91       	pop	r29
    1b06:	cf 91       	pop	r28
    1b08:	1f 91       	pop	r17
    1b0a:	0f 91       	pop	r16
    1b0c:	ff 90       	pop	r15
    1b0e:	ef 90       	pop	r14
    1b10:	df 90       	pop	r13
    1b12:	cf 90       	pop	r12
    1b14:	08 95       	ret

00001b16 <_ZN16Adafruit_SSD1306C1Ea>:
    1b16:	1f 93       	push	r17
    1b18:	cf 93       	push	r28
    1b1a:	df 93       	push	r29
    1b1c:	ec 01       	movw	r28, r24
    1b1e:	16 2f       	mov	r17, r22
    1b20:	40 e4       	ldi	r20, 0x40	; 64
    1b22:	50 e0       	ldi	r21, 0x00	; 0
    1b24:	60 e8       	ldi	r22, 0x80	; 128
    1b26:	70 e0       	ldi	r23, 0x00	; 0
    1b28:	66 d9       	rcall	.-3380   	; 0xdf6 <_ZN12Adafruit_GFXC1Eii>
    1b2a:	87 e8       	ldi	r24, 0x87	; 135
    1b2c:	96 e0       	ldi	r25, 0x06	; 6
    1b2e:	99 83       	std	Y+1, r25	; 0x01
    1b30:	88 83       	st	Y, r24
    1b32:	8f ef       	ldi	r24, 0xFF	; 255
    1b34:	8c 8f       	std	Y+28, r24	; 0x1c
    1b36:	88 a3       	std	Y+32, r24	; 0x20
    1b38:	8e 8f       	std	Y+30, r24	; 0x1e
    1b3a:	8d 8f       	std	Y+29, r24	; 0x1d
    1b3c:	1f 8f       	std	Y+31, r17	; 0x1f
    1b3e:	df 91       	pop	r29
    1b40:	cf 91       	pop	r28
    1b42:	1f 91       	pop	r17
    1b44:	08 95       	ret

00001b46 <_ZN16Adafruit_SSD130612clearDisplayEv>:
    1b46:	80 e0       	ldi	r24, 0x00	; 0
    1b48:	94 e0       	ldi	r25, 0x04	; 4
    1b4a:	e6 e1       	ldi	r30, 0x16	; 22
    1b4c:	f2 e0       	ldi	r31, 0x02	; 2
    1b4e:	df 01       	movw	r26, r30
    1b50:	9c 01       	movw	r18, r24
    1b52:	1d 92       	st	X+, r1
    1b54:	21 50       	subi	r18, 0x01	; 1
    1b56:	30 40       	sbci	r19, 0x00	; 0
    1b58:	e1 f7       	brne	.-8      	; 0x1b52 <_ZN16Adafruit_SSD130612clearDisplayEv+0xc>
    1b5a:	08 95       	ret

00001b5c <_ZN16Adafruit_SSD130612fastSPIwriteEh>:
    1b5c:	fc 01       	movw	r30, r24
    1b5e:	81 a1       	ldd	r24, Z+33	; 0x21
    1b60:	88 23       	and	r24, r24
    1b62:	39 f0       	breq	.+14     	; 0x1b72 <_ZN16Adafruit_SSD130612fastSPIwriteEh+0x16>
    1b64:	6e bd       	out	0x2e, r22	; 46
    1b66:	00 00       	nop
    1b68:	0d b4       	in	r0, 0x2d	; 45
    1b6a:	07 fe       	sbrs	r0, 7
    1b6c:	fd cf       	rjmp	.-6      	; 0x1b68 <_ZN16Adafruit_SSD130612fastSPIwriteEh+0xc>
    1b6e:	8e b5       	in	r24, 0x2e	; 46
    1b70:	08 95       	ret
    1b72:	28 e0       	ldi	r18, 0x08	; 8
    1b74:	30 e0       	ldi	r19, 0x00	; 0
    1b76:	90 e8       	ldi	r25, 0x80	; 128
    1b78:	a4 a1       	ldd	r26, Z+36	; 0x24
    1b7a:	b5 a1       	ldd	r27, Z+37	; 0x25
    1b7c:	4c 91       	ld	r20, X
    1b7e:	83 a5       	ldd	r24, Z+43	; 0x2b
    1b80:	80 95       	com	r24
    1b82:	84 23       	and	r24, r20
    1b84:	8c 93       	st	X, r24
    1b86:	a2 a1       	ldd	r26, Z+34	; 0x22
    1b88:	b3 a1       	ldd	r27, Z+35	; 0x23
    1b8a:	82 a5       	ldd	r24, Z+42	; 0x2a
    1b8c:	49 2f       	mov	r20, r25
    1b8e:	46 23       	and	r20, r22
    1b90:	19 f0       	breq	.+6      	; 0x1b98 <_ZN16Adafruit_SSD130612fastSPIwriteEh+0x3c>
    1b92:	4c 91       	ld	r20, X
    1b94:	84 2b       	or	r24, r20
    1b96:	03 c0       	rjmp	.+6      	; 0x1b9e <_ZN16Adafruit_SSD130612fastSPIwriteEh+0x42>
    1b98:	4c 91       	ld	r20, X
    1b9a:	80 95       	com	r24
    1b9c:	84 23       	and	r24, r20
    1b9e:	8c 93       	st	X, r24
    1ba0:	a4 a1       	ldd	r26, Z+36	; 0x24
    1ba2:	b5 a1       	ldd	r27, Z+37	; 0x25
    1ba4:	4c 91       	ld	r20, X
    1ba6:	83 a5       	ldd	r24, Z+43	; 0x2b
    1ba8:	84 2b       	or	r24, r20
    1baa:	8c 93       	st	X, r24
    1bac:	96 95       	lsr	r25
    1bae:	21 50       	subi	r18, 0x01	; 1
    1bb0:	31 09       	sbc	r19, r1
    1bb2:	11 f7       	brne	.-60     	; 0x1b78 <_ZN16Adafruit_SSD130612fastSPIwriteEh+0x1c>
    1bb4:	08 95       	ret

00001bb6 <_ZN16Adafruit_SSD130615ssd1306_commandEh>:
    1bb6:	1f 93       	push	r17
    1bb8:	cf 93       	push	r28
    1bba:	df 93       	push	r29
    1bbc:	ec 01       	movw	r28, r24
    1bbe:	16 2f       	mov	r17, r22
    1bc0:	8c 8d       	ldd	r24, Y+28	; 0x1c
    1bc2:	8f 3f       	cpi	r24, 0xFF	; 255
    1bc4:	01 f1       	breq	.+64     	; 0x1c06 <_ZN16Adafruit_SSD130615ssd1306_commandEh+0x50>
    1bc6:	ee a1       	ldd	r30, Y+38	; 0x26
    1bc8:	ff a1       	ldd	r31, Y+39	; 0x27
    1bca:	90 81       	ld	r25, Z
    1bcc:	8c a5       	ldd	r24, Y+44	; 0x2c
    1bce:	89 2b       	or	r24, r25
    1bd0:	80 83       	st	Z, r24
    1bd2:	e8 a5       	ldd	r30, Y+40	; 0x28
    1bd4:	f9 a5       	ldd	r31, Y+41	; 0x29
    1bd6:	90 81       	ld	r25, Z
    1bd8:	8d a5       	ldd	r24, Y+45	; 0x2d
    1bda:	80 95       	com	r24
    1bdc:	89 23       	and	r24, r25
    1bde:	80 83       	st	Z, r24
    1be0:	ee a1       	ldd	r30, Y+38	; 0x26
    1be2:	ff a1       	ldd	r31, Y+39	; 0x27
    1be4:	90 81       	ld	r25, Z
    1be6:	8c a5       	ldd	r24, Y+44	; 0x2c
    1be8:	80 95       	com	r24
    1bea:	89 23       	and	r24, r25
    1bec:	80 83       	st	Z, r24
    1bee:	ce 01       	movw	r24, r28
    1bf0:	b5 df       	rcall	.-150    	; 0x1b5c <_ZN16Adafruit_SSD130612fastSPIwriteEh>
    1bf2:	ee a1       	ldd	r30, Y+38	; 0x26
    1bf4:	ff a1       	ldd	r31, Y+39	; 0x27
    1bf6:	90 81       	ld	r25, Z
    1bf8:	8c a5       	ldd	r24, Y+44	; 0x2c
    1bfa:	89 2b       	or	r24, r25
    1bfc:	80 83       	st	Z, r24
    1bfe:	df 91       	pop	r29
    1c00:	cf 91       	pop	r28
    1c02:	1f 91       	pop	r17
    1c04:	08 95       	ret
    1c06:	8a 8d       	ldd	r24, Y+26	; 0x1a
    1c08:	68 2f       	mov	r22, r24
    1c0a:	88 0f       	add	r24, r24
    1c0c:	77 0b       	sbc	r23, r23
    1c0e:	81 e8       	ldi	r24, 0x81	; 129
    1c10:	9e e0       	ldi	r25, 0x0E	; 14
    1c12:	0e 94 48 26 	call	0x4c90	; 0x4c90 <_ZN7TwoWire17beginTransmissionEi>
    1c16:	60 e0       	ldi	r22, 0x00	; 0
    1c18:	81 e8       	ldi	r24, 0x81	; 129
    1c1a:	9e e0       	ldi	r25, 0x0E	; 14
    1c1c:	0e 94 f7 25 	call	0x4bee	; 0x4bee <_ZN7TwoWire5writeEh>
    1c20:	61 2f       	mov	r22, r17
    1c22:	81 e8       	ldi	r24, 0x81	; 129
    1c24:	9e e0       	ldi	r25, 0x0E	; 14
    1c26:	0e 94 f7 25 	call	0x4bee	; 0x4bee <_ZN7TwoWire5writeEh>
    1c2a:	81 e8       	ldi	r24, 0x81	; 129
    1c2c:	9e e0       	ldi	r25, 0x0E	; 14
    1c2e:	df 91       	pop	r29
    1c30:	cf 91       	pop	r28
    1c32:	1f 91       	pop	r17
    1c34:	0c 94 bd 26 	jmp	0x4d7a	; 0x4d7a <_ZN7TwoWire15endTransmissionEv>

00001c38 <_ZN16Adafruit_SSD13065beginEhhb>:
    1c38:	0f 93       	push	r16
    1c3a:	1f 93       	push	r17
    1c3c:	cf 93       	push	r28
    1c3e:	df 93       	push	r29
    1c40:	ec 01       	movw	r28, r24
    1c42:	16 2f       	mov	r17, r22
    1c44:	02 2f       	mov	r16, r18
    1c46:	6b 8f       	std	Y+27, r22	; 0x1b
    1c48:	4a 8f       	std	Y+26, r20	; 0x1a
    1c4a:	8c 8d       	ldd	r24, Y+28	; 0x1c
    1c4c:	8f 3f       	cpi	r24, 0xFF	; 255
    1c4e:	09 f4       	brne	.+2      	; 0x1c52 <_ZN16Adafruit_SSD13065beginEhhb+0x1a>
    1c50:	8c c0       	rjmp	.+280    	; 0x1d6a <_ZN16Adafruit_SSD13065beginEhhb+0x132>
    1c52:	61 e0       	ldi	r22, 0x01	; 1
    1c54:	8e 8d       	ldd	r24, Y+30	; 0x1e
    1c56:	0e 94 c3 34 	call	0x6986	; 0x6986 <pinMode>
    1c5a:	61 e0       	ldi	r22, 0x01	; 1
    1c5c:	88 a1       	ldd	r24, Y+32	; 0x20
    1c5e:	0e 94 c3 34 	call	0x6986	; 0x6986 <pinMode>
    1c62:	88 a1       	ldd	r24, Y+32	; 0x20
    1c64:	08 2e       	mov	r0, r24
    1c66:	00 0c       	add	r0, r0
    1c68:	99 0b       	sbc	r25, r25
    1c6a:	fc 01       	movw	r30, r24
    1c6c:	e0 59       	subi	r30, 0x90	; 144
    1c6e:	f8 4f       	sbci	r31, 0xF8	; 248
    1c70:	e4 91       	lpm	r30, Z
    1c72:	f0 e0       	ldi	r31, 0x00	; 0
    1c74:	ee 0f       	add	r30, r30
    1c76:	ff 1f       	adc	r31, r31
    1c78:	e0 53       	subi	r30, 0x30	; 48
    1c7a:	f8 4f       	sbci	r31, 0xF8	; 248
    1c7c:	25 91       	lpm	r18, Z+
    1c7e:	34 91       	lpm	r19, Z
    1c80:	3f a3       	std	Y+39, r19	; 0x27
    1c82:	2e a3       	std	Y+38, r18	; 0x26
    1c84:	fc 01       	movw	r30, r24
    1c86:	e6 5d       	subi	r30, 0xD6	; 214
    1c88:	f8 4f       	sbci	r31, 0xF8	; 248
    1c8a:	e4 91       	lpm	r30, Z
    1c8c:	ec a7       	std	Y+44, r30	; 0x2c
    1c8e:	8e 8d       	ldd	r24, Y+30	; 0x1e
    1c90:	08 2e       	mov	r0, r24
    1c92:	00 0c       	add	r0, r0
    1c94:	99 0b       	sbc	r25, r25
    1c96:	fc 01       	movw	r30, r24
    1c98:	e0 59       	subi	r30, 0x90	; 144
    1c9a:	f8 4f       	sbci	r31, 0xF8	; 248
    1c9c:	e4 91       	lpm	r30, Z
    1c9e:	f0 e0       	ldi	r31, 0x00	; 0
    1ca0:	ee 0f       	add	r30, r30
    1ca2:	ff 1f       	adc	r31, r31
    1ca4:	e0 53       	subi	r30, 0x30	; 48
    1ca6:	f8 4f       	sbci	r31, 0xF8	; 248
    1ca8:	25 91       	lpm	r18, Z+
    1caa:	34 91       	lpm	r19, Z
    1cac:	39 a7       	std	Y+41, r19	; 0x29
    1cae:	28 a7       	std	Y+40, r18	; 0x28
    1cb0:	fc 01       	movw	r30, r24
    1cb2:	e6 5d       	subi	r30, 0xD6	; 214
    1cb4:	f8 4f       	sbci	r31, 0xF8	; 248
    1cb6:	e4 91       	lpm	r30, Z
    1cb8:	ed a7       	std	Y+45, r30	; 0x2d
    1cba:	89 a1       	ldd	r24, Y+33	; 0x21
    1cbc:	81 11       	cpse	r24, r1
    1cbe:	34 c0       	rjmp	.+104    	; 0x1d28 <_ZN16Adafruit_SSD13065beginEhhb+0xf0>
    1cc0:	61 e0       	ldi	r22, 0x01	; 1
    1cc2:	8c 8d       	ldd	r24, Y+28	; 0x1c
    1cc4:	0e 94 c3 34 	call	0x6986	; 0x6986 <pinMode>
    1cc8:	61 e0       	ldi	r22, 0x01	; 1
    1cca:	8d 8d       	ldd	r24, Y+29	; 0x1d
    1ccc:	0e 94 c3 34 	call	0x6986	; 0x6986 <pinMode>
    1cd0:	8d 8d       	ldd	r24, Y+29	; 0x1d
    1cd2:	08 2e       	mov	r0, r24
    1cd4:	00 0c       	add	r0, r0
    1cd6:	99 0b       	sbc	r25, r25
    1cd8:	fc 01       	movw	r30, r24
    1cda:	e0 59       	subi	r30, 0x90	; 144
    1cdc:	f8 4f       	sbci	r31, 0xF8	; 248
    1cde:	e4 91       	lpm	r30, Z
    1ce0:	f0 e0       	ldi	r31, 0x00	; 0
    1ce2:	ee 0f       	add	r30, r30
    1ce4:	ff 1f       	adc	r31, r31
    1ce6:	e0 53       	subi	r30, 0x30	; 48
    1ce8:	f8 4f       	sbci	r31, 0xF8	; 248
    1cea:	25 91       	lpm	r18, Z+
    1cec:	34 91       	lpm	r19, Z
    1cee:	3d a3       	std	Y+37, r19	; 0x25
    1cf0:	2c a3       	std	Y+36, r18	; 0x24
    1cf2:	fc 01       	movw	r30, r24
    1cf4:	e6 5d       	subi	r30, 0xD6	; 214
    1cf6:	f8 4f       	sbci	r31, 0xF8	; 248
    1cf8:	e4 91       	lpm	r30, Z
    1cfa:	eb a7       	std	Y+43, r30	; 0x2b
    1cfc:	8c 8d       	ldd	r24, Y+28	; 0x1c
    1cfe:	08 2e       	mov	r0, r24
    1d00:	00 0c       	add	r0, r0
    1d02:	99 0b       	sbc	r25, r25
    1d04:	fc 01       	movw	r30, r24
    1d06:	e0 59       	subi	r30, 0x90	; 144
    1d08:	f8 4f       	sbci	r31, 0xF8	; 248
    1d0a:	e4 91       	lpm	r30, Z
    1d0c:	f0 e0       	ldi	r31, 0x00	; 0
    1d0e:	ee 0f       	add	r30, r30
    1d10:	ff 1f       	adc	r31, r31
    1d12:	e0 53       	subi	r30, 0x30	; 48
    1d14:	f8 4f       	sbci	r31, 0xF8	; 248
    1d16:	25 91       	lpm	r18, Z+
    1d18:	34 91       	lpm	r19, Z
    1d1a:	3b a3       	std	Y+35, r19	; 0x23
    1d1c:	2a a3       	std	Y+34, r18	; 0x22
    1d1e:	fc 01       	movw	r30, r24
    1d20:	e6 5d       	subi	r30, 0xD6	; 214
    1d22:	f8 4f       	sbci	r31, 0xF8	; 248
    1d24:	e4 91       	lpm	r30, Z
    1d26:	ea a7       	std	Y+42, r30	; 0x2a
    1d28:	89 a1       	ldd	r24, Y+33	; 0x21
    1d2a:	88 23       	and	r24, r24
    1d2c:	11 f1       	breq	.+68     	; 0x1d72 <_ZN16Adafruit_SSD13065beginEhhb+0x13a>
    1d2e:	0e 94 44 23 	call	0x4688	; 0x4688 <_ZN8SPIClass5beginEv>
    1d32:	80 91 11 0e 	lds	r24, 0x0E11	; 0x800e11 <_ZN8SPIClass13interruptModeE>
    1d36:	88 23       	and	r24, r24
    1d38:	99 f0       	breq	.+38     	; 0x1d60 <_ZN16Adafruit_SSD13065beginEhhb+0x128>
    1d3a:	2f b7       	in	r18, 0x3f	; 63
    1d3c:	f8 94       	cli
    1d3e:	80 91 11 0e 	lds	r24, 0x0E11	; 0x800e11 <_ZN8SPIClass13interruptModeE>
    1d42:	81 30       	cpi	r24, 0x01	; 1
    1d44:	59 f4       	brne	.+22     	; 0x1d5c <_ZN16Adafruit_SSD13065beginEhhb+0x124>
    1d46:	8d b3       	in	r24, 0x1d	; 29
    1d48:	80 93 0f 0e 	sts	0x0E0F, r24	; 0x800e0f <_ZN8SPIClass13interruptSaveE>
    1d4c:	9d b3       	in	r25, 0x1d	; 29
    1d4e:	80 91 10 0e 	lds	r24, 0x0E10	; 0x800e10 <_ZN8SPIClass13interruptMaskE>
    1d52:	80 95       	com	r24
    1d54:	89 23       	and	r24, r25
    1d56:	8d bb       	out	0x1d, r24	; 29
    1d58:	2f bf       	out	0x3f, r18	; 63
    1d5a:	02 c0       	rjmp	.+4      	; 0x1d60 <_ZN16Adafruit_SSD13065beginEhhb+0x128>
    1d5c:	20 93 0f 0e 	sts	0x0E0F, r18	; 0x800e0f <_ZN8SPIClass13interruptSaveE>
    1d60:	80 e5       	ldi	r24, 0x50	; 80
    1d62:	8c bd       	out	0x2c, r24	; 44
    1d64:	81 e0       	ldi	r24, 0x01	; 1
    1d66:	8d bd       	out	0x2d, r24	; 45
    1d68:	04 c0       	rjmp	.+8      	; 0x1d72 <_ZN16Adafruit_SSD13065beginEhhb+0x13a>
    1d6a:	81 e8       	ldi	r24, 0x81	; 129
    1d6c:	9e e0       	ldi	r25, 0x0E	; 14
    1d6e:	0e 94 35 26 	call	0x4c6a	; 0x4c6a <_ZN7TwoWire5beginEv>
    1d72:	00 23       	and	r16, r16
    1d74:	f1 f0       	breq	.+60     	; 0x1db2 <_ZN16Adafruit_SSD13065beginEhhb+0x17a>
    1d76:	8f 8d       	ldd	r24, Y+31	; 0x1f
    1d78:	87 fd       	sbrc	r24, 7
    1d7a:	1b c0       	rjmp	.+54     	; 0x1db2 <_ZN16Adafruit_SSD13065beginEhhb+0x17a>
    1d7c:	61 e0       	ldi	r22, 0x01	; 1
    1d7e:	0e 94 c3 34 	call	0x6986	; 0x6986 <pinMode>
    1d82:	61 e0       	ldi	r22, 0x01	; 1
    1d84:	8f 8d       	ldd	r24, Y+31	; 0x1f
    1d86:	0e 94 ff 34 	call	0x69fe	; 0x69fe <digitalWrite>
    1d8a:	61 e0       	ldi	r22, 0x01	; 1
    1d8c:	70 e0       	ldi	r23, 0x00	; 0
    1d8e:	80 e0       	ldi	r24, 0x00	; 0
    1d90:	90 e0       	ldi	r25, 0x00	; 0
    1d92:	0e 94 c8 33 	call	0x6790	; 0x6790 <delay>
    1d96:	60 e0       	ldi	r22, 0x00	; 0
    1d98:	8f 8d       	ldd	r24, Y+31	; 0x1f
    1d9a:	0e 94 ff 34 	call	0x69fe	; 0x69fe <digitalWrite>
    1d9e:	6a e0       	ldi	r22, 0x0A	; 10
    1da0:	70 e0       	ldi	r23, 0x00	; 0
    1da2:	80 e0       	ldi	r24, 0x00	; 0
    1da4:	90 e0       	ldi	r25, 0x00	; 0
    1da6:	0e 94 c8 33 	call	0x6790	; 0x6790 <delay>
    1daa:	61 e0       	ldi	r22, 0x01	; 1
    1dac:	8f 8d       	ldd	r24, Y+31	; 0x1f
    1dae:	0e 94 ff 34 	call	0x69fe	; 0x69fe <digitalWrite>
    1db2:	6e ea       	ldi	r22, 0xAE	; 174
    1db4:	ce 01       	movw	r24, r28
    1db6:	ff de       	rcall	.-514    	; 0x1bb6 <_ZN16Adafruit_SSD130615ssd1306_commandEh>
    1db8:	65 ed       	ldi	r22, 0xD5	; 213
    1dba:	ce 01       	movw	r24, r28
    1dbc:	fc de       	rcall	.-520    	; 0x1bb6 <_ZN16Adafruit_SSD130615ssd1306_commandEh>
    1dbe:	60 e8       	ldi	r22, 0x80	; 128
    1dc0:	ce 01       	movw	r24, r28
    1dc2:	f9 de       	rcall	.-526    	; 0x1bb6 <_ZN16Adafruit_SSD130615ssd1306_commandEh>
    1dc4:	68 ea       	ldi	r22, 0xA8	; 168
    1dc6:	ce 01       	movw	r24, r28
    1dc8:	f6 de       	rcall	.-532    	; 0x1bb6 <_ZN16Adafruit_SSD130615ssd1306_commandEh>
    1dca:	6f e3       	ldi	r22, 0x3F	; 63
    1dcc:	ce 01       	movw	r24, r28
    1dce:	f3 de       	rcall	.-538    	; 0x1bb6 <_ZN16Adafruit_SSD130615ssd1306_commandEh>
    1dd0:	63 ed       	ldi	r22, 0xD3	; 211
    1dd2:	ce 01       	movw	r24, r28
    1dd4:	f0 de       	rcall	.-544    	; 0x1bb6 <_ZN16Adafruit_SSD130615ssd1306_commandEh>
    1dd6:	60 e0       	ldi	r22, 0x00	; 0
    1dd8:	ce 01       	movw	r24, r28
    1dda:	ed de       	rcall	.-550    	; 0x1bb6 <_ZN16Adafruit_SSD130615ssd1306_commandEh>
    1ddc:	60 e4       	ldi	r22, 0x40	; 64
    1dde:	ce 01       	movw	r24, r28
    1de0:	ea de       	rcall	.-556    	; 0x1bb6 <_ZN16Adafruit_SSD130615ssd1306_commandEh>
    1de2:	6d e8       	ldi	r22, 0x8D	; 141
    1de4:	ce 01       	movw	r24, r28
    1de6:	e7 de       	rcall	.-562    	; 0x1bb6 <_ZN16Adafruit_SSD130615ssd1306_commandEh>
    1de8:	11 30       	cpi	r17, 0x01	; 1
    1dea:	11 f4       	brne	.+4      	; 0x1df0 <_ZN16Adafruit_SSD13065beginEhhb+0x1b8>
    1dec:	60 e1       	ldi	r22, 0x10	; 16
    1dee:	01 c0       	rjmp	.+2      	; 0x1df2 <_ZN16Adafruit_SSD13065beginEhhb+0x1ba>
    1df0:	64 e1       	ldi	r22, 0x14	; 20
    1df2:	ce 01       	movw	r24, r28
    1df4:	e0 de       	rcall	.-576    	; 0x1bb6 <_ZN16Adafruit_SSD130615ssd1306_commandEh>
    1df6:	60 e2       	ldi	r22, 0x20	; 32
    1df8:	ce 01       	movw	r24, r28
    1dfa:	dd de       	rcall	.-582    	; 0x1bb6 <_ZN16Adafruit_SSD130615ssd1306_commandEh>
    1dfc:	60 e0       	ldi	r22, 0x00	; 0
    1dfe:	ce 01       	movw	r24, r28
    1e00:	da de       	rcall	.-588    	; 0x1bb6 <_ZN16Adafruit_SSD130615ssd1306_commandEh>
    1e02:	61 ea       	ldi	r22, 0xA1	; 161
    1e04:	ce 01       	movw	r24, r28
    1e06:	d7 de       	rcall	.-594    	; 0x1bb6 <_ZN16Adafruit_SSD130615ssd1306_commandEh>
    1e08:	68 ec       	ldi	r22, 0xC8	; 200
    1e0a:	ce 01       	movw	r24, r28
    1e0c:	d4 de       	rcall	.-600    	; 0x1bb6 <_ZN16Adafruit_SSD130615ssd1306_commandEh>
    1e0e:	6a ed       	ldi	r22, 0xDA	; 218
    1e10:	ce 01       	movw	r24, r28
    1e12:	d1 de       	rcall	.-606    	; 0x1bb6 <_ZN16Adafruit_SSD130615ssd1306_commandEh>
    1e14:	62 e1       	ldi	r22, 0x12	; 18
    1e16:	ce 01       	movw	r24, r28
    1e18:	ce de       	rcall	.-612    	; 0x1bb6 <_ZN16Adafruit_SSD130615ssd1306_commandEh>
    1e1a:	61 e8       	ldi	r22, 0x81	; 129
    1e1c:	ce 01       	movw	r24, r28
    1e1e:	cb de       	rcall	.-618    	; 0x1bb6 <_ZN16Adafruit_SSD130615ssd1306_commandEh>
    1e20:	11 30       	cpi	r17, 0x01	; 1
    1e22:	11 f4       	brne	.+4      	; 0x1e28 <_ZN16Adafruit_SSD13065beginEhhb+0x1f0>
    1e24:	6f e9       	ldi	r22, 0x9F	; 159
    1e26:	01 c0       	rjmp	.+2      	; 0x1e2a <_ZN16Adafruit_SSD13065beginEhhb+0x1f2>
    1e28:	6f ec       	ldi	r22, 0xCF	; 207
    1e2a:	ce 01       	movw	r24, r28
    1e2c:	c4 de       	rcall	.-632    	; 0x1bb6 <_ZN16Adafruit_SSD130615ssd1306_commandEh>
    1e2e:	69 ed       	ldi	r22, 0xD9	; 217
    1e30:	ce 01       	movw	r24, r28
    1e32:	c1 de       	rcall	.-638    	; 0x1bb6 <_ZN16Adafruit_SSD130615ssd1306_commandEh>
    1e34:	11 30       	cpi	r17, 0x01	; 1
    1e36:	11 f4       	brne	.+4      	; 0x1e3c <_ZN16Adafruit_SSD13065beginEhhb+0x204>
    1e38:	62 e2       	ldi	r22, 0x22	; 34
    1e3a:	01 c0       	rjmp	.+2      	; 0x1e3e <_ZN16Adafruit_SSD13065beginEhhb+0x206>
    1e3c:	61 ef       	ldi	r22, 0xF1	; 241
    1e3e:	ce 01       	movw	r24, r28
    1e40:	ba de       	rcall	.-652    	; 0x1bb6 <_ZN16Adafruit_SSD130615ssd1306_commandEh>
    1e42:	6b ed       	ldi	r22, 0xDB	; 219
    1e44:	ce 01       	movw	r24, r28
    1e46:	b7 de       	rcall	.-658    	; 0x1bb6 <_ZN16Adafruit_SSD130615ssd1306_commandEh>
    1e48:	60 e4       	ldi	r22, 0x40	; 64
    1e4a:	ce 01       	movw	r24, r28
    1e4c:	b4 de       	rcall	.-664    	; 0x1bb6 <_ZN16Adafruit_SSD130615ssd1306_commandEh>
    1e4e:	64 ea       	ldi	r22, 0xA4	; 164
    1e50:	ce 01       	movw	r24, r28
    1e52:	b1 de       	rcall	.-670    	; 0x1bb6 <_ZN16Adafruit_SSD130615ssd1306_commandEh>
    1e54:	66 ea       	ldi	r22, 0xA6	; 166
    1e56:	ce 01       	movw	r24, r28
    1e58:	ae de       	rcall	.-676    	; 0x1bb6 <_ZN16Adafruit_SSD130615ssd1306_commandEh>
    1e5a:	6e e2       	ldi	r22, 0x2E	; 46
    1e5c:	ce 01       	movw	r24, r28
    1e5e:	ab de       	rcall	.-682    	; 0x1bb6 <_ZN16Adafruit_SSD130615ssd1306_commandEh>
    1e60:	6f ea       	ldi	r22, 0xAF	; 175
    1e62:	ce 01       	movw	r24, r28
    1e64:	df 91       	pop	r29
    1e66:	cf 91       	pop	r28
    1e68:	1f 91       	pop	r17
    1e6a:	0f 91       	pop	r16
    1e6c:	a4 ce       	rjmp	.-696    	; 0x1bb6 <_ZN16Adafruit_SSD130615ssd1306_commandEh>

00001e6e <_ZN16Adafruit_SSD13067displayEv>:
}

void Adafruit_SSD1306::display(void) {
    1e6e:	df 92       	push	r13
    1e70:	ef 92       	push	r14
    1e72:	ff 92       	push	r15
    1e74:	0f 93       	push	r16
    1e76:	1f 93       	push	r17
    1e78:	cf 93       	push	r28
    1e7a:	df 93       	push	r29
    1e7c:	ec 01       	movw	r28, r24
  ssd1306_command(SSD1306_COLUMNADDR);
    1e7e:	61 e2       	ldi	r22, 0x21	; 33
    1e80:	9a de       	rcall	.-716    	; 0x1bb6 <_ZN16Adafruit_SSD130615ssd1306_commandEh>
  ssd1306_command(0);   // Column start address (0 = reset)
    1e82:	60 e0       	ldi	r22, 0x00	; 0
    1e84:	ce 01       	movw	r24, r28
    1e86:	97 de       	rcall	.-722    	; 0x1bb6 <_ZN16Adafruit_SSD130615ssd1306_commandEh>
  ssd1306_command(SSD1306_LCDWIDTH-1); // Column end address (127 = reset)
    1e88:	6f e7       	ldi	r22, 0x7F	; 127
    1e8a:	ce 01       	movw	r24, r28
    1e8c:	94 de       	rcall	.-728    	; 0x1bb6 <_ZN16Adafruit_SSD130615ssd1306_commandEh>

  ssd1306_command(SSD1306_PAGEADDR);
    1e8e:	62 e2       	ldi	r22, 0x22	; 34
    1e90:	ce 01       	movw	r24, r28
    1e92:	91 de       	rcall	.-734    	; 0x1bb6 <_ZN16Adafruit_SSD130615ssd1306_commandEh>
  ssd1306_command(0); // Page start address (0 = reset)
    1e94:	60 e0       	ldi	r22, 0x00	; 0
    1e96:	ce 01       	movw	r24, r28
    1e98:	8e de       	rcall	.-740    	; 0x1bb6 <_ZN16Adafruit_SSD130615ssd1306_commandEh>
  #if SSD1306_LCDHEIGHT == 64
    ssd1306_command(7); // Page end address
    1e9a:	67 e0       	ldi	r22, 0x07	; 7
    1e9c:	ce 01       	movw	r24, r28
    1e9e:	8b de       	rcall	.-746    	; 0x1bb6 <_ZN16Adafruit_SSD130615ssd1306_commandEh>
  #endif
  #if SSD1306_LCDHEIGHT == 16
    ssd1306_command(1); // Page end address
  #endif

  if (sid != -1)
    1ea0:	8c 8d       	ldd	r24, Y+28	; 0x1c
    1ea2:	8f 3f       	cpi	r24, 0xFF	; 255
    1ea4:	29 f1       	breq	.+74     	; 0x1ef0 <_ZN16Adafruit_SSD13067displayEv+0x82>
  {
    // SPI
#ifdef HAVE_PORTREG
    *csport |= cspinmask;
    1ea6:	ee a1       	ldd	r30, Y+38	; 0x26
    1ea8:	ff a1       	ldd	r31, Y+39	; 0x27
    1eaa:	90 81       	ld	r25, Z
    1eac:	8c a5       	ldd	r24, Y+44	; 0x2c
    1eae:	89 2b       	or	r24, r25
    1eb0:	80 83       	st	Z, r24
    *dcport |= dcpinmask;
    1eb2:	e8 a5       	ldd	r30, Y+40	; 0x28
    1eb4:	f9 a5       	ldd	r31, Y+41	; 0x29
    1eb6:	90 81       	ld	r25, Z
    1eb8:	8d a5       	ldd	r24, Y+45	; 0x2d
    1eba:	89 2b       	or	r24, r25
    1ebc:	80 83       	st	Z, r24
    *csport &= ~cspinmask;
    1ebe:	ee a1       	ldd	r30, Y+38	; 0x26
    1ec0:	ff a1       	ldd	r31, Y+39	; 0x27
    1ec2:	90 81       	ld	r25, Z
    1ec4:	8c a5       	ldd	r24, Y+44	; 0x2c
    1ec6:	80 95       	com	r24
    1ec8:	89 23       	and	r24, r25
    1eca:	80 83       	st	Z, r24
    1ecc:	06 e1       	ldi	r16, 0x16	; 22
    1ece:	12 e0       	ldi	r17, 0x02	; 2
    digitalWrite(dc, HIGH);
    digitalWrite(cs, LOW);
#endif

    for (uint16_t i=0; i<(SSD1306_LCDWIDTH*SSD1306_LCDHEIGHT/8); i++) {
      fastSPIwrite(buffer[i]);
    1ed0:	f8 01       	movw	r30, r16
    1ed2:	61 91       	ld	r22, Z+
    1ed4:	8f 01       	movw	r16, r30
    1ed6:	ce 01       	movw	r24, r28
    1ed8:	41 de       	rcall	.-894    	; 0x1b5c <_ZN16Adafruit_SSD130612fastSPIwriteEh>
    digitalWrite(cs, HIGH);
    digitalWrite(dc, HIGH);
    digitalWrite(cs, LOW);
#endif

    for (uint16_t i=0; i<(SSD1306_LCDWIDTH*SSD1306_LCDHEIGHT/8); i++) {
    1eda:	f6 e0       	ldi	r31, 0x06	; 6
    1edc:	06 31       	cpi	r16, 0x16	; 22
    1ede:	1f 07       	cpc	r17, r31
    1ee0:	b9 f7       	brne	.-18     	; 0x1ed0 <_ZN16Adafruit_SSD13067displayEv+0x62>
      fastSPIwrite(buffer[i]);
    }
#ifdef HAVE_PORTREG
    *csport |= cspinmask;
    1ee2:	ee a1       	ldd	r30, Y+38	; 0x26
    1ee4:	ff a1       	ldd	r31, Y+39	; 0x27
    1ee6:	90 81       	ld	r25, Z
    1ee8:	8c a5       	ldd	r24, Y+44	; 0x2c
    1eea:	89 2b       	or	r24, r25
    1eec:	80 83       	st	Z, r24
    1eee:	31 c0       	rjmp	.+98     	; 0x1f52 <_ZN16Adafruit_SSD13067displayEv+0xe4>
  }
  else
  {
    // save I2C bitrate
#ifdef TWBR
    uint8_t twbrbackup = TWBR;
    1ef0:	d0 90 b8 00 	lds	r13, 0x00B8	; 0x8000b8 <__TEXT_REGION_LENGTH__+0x7000b8>
    TWBR = 12; // upgrade to 400KHz!
    1ef4:	8c e0       	ldi	r24, 0x0C	; 12
    1ef6:	80 93 b8 00 	sts	0x00B8, r24	; 0x8000b8 <__TEXT_REGION_LENGTH__+0x7000b8>
    1efa:	06 e1       	ldi	r16, 0x16	; 22
    1efc:	12 e0       	ldi	r17, 0x02	; 2
    //Serial.println(TWSR & 0x3, DEC);

    // I2C
    for (uint16_t i=0; i<(SSD1306_LCDWIDTH*SSD1306_LCDHEIGHT/8); i++) {
      // send a bunch of data in one xmission
      Wire.beginTransmission(_i2caddr);
    1efe:	6a 8d       	ldd	r22, Y+26	; 0x1a
    1f00:	06 2e       	mov	r0, r22
    1f02:	00 0c       	add	r0, r0
    1f04:	77 0b       	sbc	r23, r23
    1f06:	81 e8       	ldi	r24, 0x81	; 129
    1f08:	9e e0       	ldi	r25, 0x0E	; 14
    1f0a:	0e 94 48 26 	call	0x4c90	; 0x4c90 <_ZN7TwoWire17beginTransmissionEi>
    void onRequest( void (*)(void) );

    inline size_t write(unsigned long n) { return write((uint8_t)n); }
    inline size_t write(long n) { return write((uint8_t)n); }
    inline size_t write(unsigned int n) { return write((uint8_t)n); }
    inline size_t write(int n) { return write((uint8_t)n); }
    1f0e:	60 e4       	ldi	r22, 0x40	; 64
    1f10:	81 e8       	ldi	r24, 0x81	; 129
    1f12:	9e e0       	ldi	r25, 0x0E	; 14
    1f14:	0e 94 f7 25 	call	0x4bee	; 0x4bee <_ZN7TwoWire5writeEh>
    1f18:	e1 2c       	mov	r14, r1
    1f1a:	f1 2c       	mov	r15, r1
    1f1c:	f8 01       	movw	r30, r16
    1f1e:	ee 0d       	add	r30, r14
    1f20:	ff 1d       	adc	r31, r15
      WIRE_WRITE(0x40);
      for (uint8_t x=0; x<16; x++) {
        WIRE_WRITE(buffer[i]);
    1f22:	60 81       	ld	r22, Z
    1f24:	81 e8       	ldi	r24, 0x81	; 129
    1f26:	9e e0       	ldi	r25, 0x0E	; 14
    1f28:	0e 94 f7 25 	call	0x4bee	; 0x4bee <_ZN7TwoWire5writeEh>
    1f2c:	8f ef       	ldi	r24, 0xFF	; 255
    1f2e:	e8 1a       	sub	r14, r24
    1f30:	f8 0a       	sbc	r15, r24
    // I2C
    for (uint16_t i=0; i<(SSD1306_LCDWIDTH*SSD1306_LCDHEIGHT/8); i++) {
      // send a bunch of data in one xmission
      Wire.beginTransmission(_i2caddr);
      WIRE_WRITE(0x40);
      for (uint8_t x=0; x<16; x++) {
    1f32:	e0 e1       	ldi	r30, 0x10	; 16
    1f34:	ee 16       	cp	r14, r30
    1f36:	f1 04       	cpc	r15, r1
    1f38:	89 f7       	brne	.-30     	; 0x1f1c <_ZN16Adafruit_SSD13067displayEv+0xae>
        WIRE_WRITE(buffer[i]);
        i++;
      }
      i--;
      Wire.endTransmission();
    1f3a:	81 e8       	ldi	r24, 0x81	; 129
    1f3c:	9e e0       	ldi	r25, 0x0E	; 14
    1f3e:	0e 94 bd 26 	call	0x4d7a	; 0x4d7a <_ZN7TwoWire15endTransmissionEv>
    1f42:	00 5f       	subi	r16, 0xF0	; 240
    1f44:	1f 4f       	sbci	r17, 0xFF	; 255

    //Serial.println(TWBR, DEC);
    //Serial.println(TWSR & 0x3, DEC);

    // I2C
    for (uint16_t i=0; i<(SSD1306_LCDWIDTH*SSD1306_LCDHEIGHT/8); i++) {
    1f46:	f6 e0       	ldi	r31, 0x06	; 6
    1f48:	06 31       	cpi	r16, 0x16	; 22
    1f4a:	1f 07       	cpc	r17, r31
    1f4c:	c1 f6       	brne	.-80     	; 0x1efe <_ZN16Adafruit_SSD13067displayEv+0x90>
      }
      i--;
      Wire.endTransmission();
    }
#ifdef TWBR
    TWBR = twbrbackup;
    1f4e:	d0 92 b8 00 	sts	0x00B8, r13	; 0x8000b8 <__TEXT_REGION_LENGTH__+0x7000b8>
#endif
  }
}
    1f52:	df 91       	pop	r29
    1f54:	cf 91       	pop	r28
    1f56:	1f 91       	pop	r17
    1f58:	0f 91       	pop	r16
    1f5a:	ff 90       	pop	r15
    1f5c:	ef 90       	pop	r14
    1f5e:	df 90       	pop	r13
    1f60:	08 95       	ret

00001f62 <_ZN12ComwithMotorC1Ev>:
	Wire.println();
	Wire.endTransmission();
}

void ComwithMotor::getK()
{
    1f62:	cf 93       	push	r28
    1f64:	df 93       	push	r29
    1f66:	fc 01       	movw	r30, r24
    1f68:	88 e0       	ldi	r24, 0x08	; 8
    1f6a:	df 01       	movw	r26, r30
    1f6c:	c8 2f       	mov	r28, r24
    1f6e:	1d 92       	st	X+, r1
    1f70:	ca 95       	dec	r28
    1f72:	e9 f7       	brne	.-6      	; 0x1f6e <_ZN12ComwithMotorC1Ev+0xc>
    1f74:	df 01       	movw	r26, r30
    1f76:	18 96       	adiw	r26, 0x08	; 8
    1f78:	ed 01       	movw	r28, r26
    1f7a:	19 92       	st	Y+, r1
    1f7c:	8a 95       	dec	r24
    1f7e:	e9 f7       	brne	.-6      	; 0x1f7a <_ZN12ComwithMotorC1Ev+0x18>
    1f80:	14 8e       	std	Z+28, r1	; 0x1c
    1f82:	15 8e       	std	Z+29, r1	; 0x1d
    1f84:	16 8e       	std	Z+30, r1	; 0x1e
    1f86:	17 8e       	std	Z+31, r1	; 0x1f
    1f88:	10 a2       	std	Z+32, r1	; 0x20
    1f8a:	80 e0       	ldi	r24, 0x00	; 0
    1f8c:	90 e0       	ldi	r25, 0x00	; 0
    1f8e:	a0 e8       	ldi	r26, 0x80	; 128
    1f90:	bf e3       	ldi	r27, 0x3F	; 63
    1f92:	80 8b       	std	Z+16, r24	; 0x10
    1f94:	91 8b       	std	Z+17, r25	; 0x11
    1f96:	a2 8b       	std	Z+18, r26	; 0x12
    1f98:	b3 8b       	std	Z+19, r27	; 0x13
    1f9a:	84 8b       	std	Z+20, r24	; 0x14
    1f9c:	95 8b       	std	Z+21, r25	; 0x15
    1f9e:	a6 8b       	std	Z+22, r26	; 0x16
    1fa0:	b7 8b       	std	Z+23, r27	; 0x17
    1fa2:	80 8f       	std	Z+24, r24	; 0x18
    1fa4:	91 8f       	std	Z+25, r25	; 0x19
    1fa6:	a2 8f       	std	Z+26, r26	; 0x1a
    1fa8:	b3 8f       	std	Z+27, r27	; 0x1b
    1faa:	df 91       	pop	r29
    1fac:	cf 91       	pop	r28
    1fae:	08 95       	ret

00001fb0 <_ZN12ComwithMotor7SendAtoENS_5MotorEi>:
    1fb0:	cf 93       	push	r28
    1fb2:	df 93       	push	r29
    1fb4:	ea 01       	movw	r28, r20
    1fb6:	70 e0       	ldi	r23, 0x00	; 0
    1fb8:	81 e8       	ldi	r24, 0x81	; 129
    1fba:	9e e0       	ldi	r25, 0x0E	; 14
    1fbc:	0e 94 48 26 	call	0x4c90	; 0x4c90 <_ZN7TwoWire17beginTransmissionEi>
    1fc0:	6f ea       	ldi	r22, 0xAF	; 175
    1fc2:	76 e0       	ldi	r23, 0x06	; 6
    1fc4:	81 e8       	ldi	r24, 0x81	; 129
    1fc6:	9e e0       	ldi	r25, 0x0E	; 14
    1fc8:	0e 94 98 2f 	call	0x5f30	; 0x5f30 <_ZN5Print5printEPKc>
    1fcc:	4a e0       	ldi	r20, 0x0A	; 10
    1fce:	50 e0       	ldi	r21, 0x00	; 0
    1fd0:	be 01       	movw	r22, r28
    1fd2:	81 e8       	ldi	r24, 0x81	; 129
    1fd4:	9e e0       	ldi	r25, 0x0E	; 14
    1fd6:	0e 94 62 30 	call	0x60c4	; 0x60c4 <_ZN5Print7printlnEii>
    1fda:	81 e8       	ldi	r24, 0x81	; 129
    1fdc:	9e e0       	ldi	r25, 0x0E	; 14
    1fde:	df 91       	pop	r29
    1fe0:	cf 91       	pop	r28
    1fe2:	0c 94 bd 26 	jmp	0x4d7a	; 0x4d7a <_ZN7TwoWire15endTransmissionEv>

00001fe6 <_ZN12ComwithMotor10SendAtoALLEiiii>:
    1fe6:	cf 92       	push	r12
    1fe8:	df 92       	push	r13
    1fea:	ef 92       	push	r14
    1fec:	ff 92       	push	r15
    1fee:	0f 93       	push	r16
    1ff0:	1f 93       	push	r17
    1ff2:	cf 93       	push	r28
    1ff4:	df 93       	push	r29
    1ff6:	ec 01       	movw	r28, r24
    1ff8:	6a 01       	movw	r12, r20
    1ffa:	79 01       	movw	r14, r18
    1ffc:	ab 01       	movw	r20, r22
    1ffe:	61 e0       	ldi	r22, 0x01	; 1
    2000:	d7 df       	rcall	.-82     	; 0x1fb0 <_ZN12ComwithMotor7SendAtoENS_5MotorEi>
    2002:	a6 01       	movw	r20, r12
    2004:	62 e0       	ldi	r22, 0x02	; 2
    2006:	ce 01       	movw	r24, r28
    2008:	d3 df       	rcall	.-90     	; 0x1fb0 <_ZN12ComwithMotor7SendAtoENS_5MotorEi>
    200a:	a7 01       	movw	r20, r14
    200c:	63 e0       	ldi	r22, 0x03	; 3
    200e:	ce 01       	movw	r24, r28
    2010:	cf df       	rcall	.-98     	; 0x1fb0 <_ZN12ComwithMotor7SendAtoENS_5MotorEi>
    2012:	a8 01       	movw	r20, r16
    2014:	64 e0       	ldi	r22, 0x04	; 4
    2016:	ce 01       	movw	r24, r28
    2018:	df 91       	pop	r29
    201a:	cf 91       	pop	r28
    201c:	1f 91       	pop	r17
    201e:	0f 91       	pop	r16
    2020:	ff 90       	pop	r15
    2022:	ef 90       	pop	r14
    2024:	df 90       	pop	r13
    2026:	cf 90       	pop	r12
    2028:	c3 cf       	rjmp	.-122    	; 0x1fb0 <_ZN12ComwithMotor7SendAtoENS_5MotorEi>

0000202a <_ZN12ComwithMotor7SendKtoENS_5MotorEddd>:
    202a:	4f 92       	push	r4
    202c:	5f 92       	push	r5
    202e:	6f 92       	push	r6
    2030:	7f 92       	push	r7
    2032:	af 92       	push	r10
    2034:	bf 92       	push	r11
    2036:	cf 92       	push	r12
    2038:	df 92       	push	r13
    203a:	ef 92       	push	r14
    203c:	ff 92       	push	r15
    203e:	0f 93       	push	r16
    2040:	1f 93       	push	r17
    2042:	cf 93       	push	r28
    2044:	df 93       	push	r29
    2046:	00 d0       	rcall	.+0      	; 0x2048 <_ZN12ComwithMotor7SendKtoENS_5MotorEddd+0x1e>
    2048:	1f 92       	push	r1
    204a:	cd b7       	in	r28, 0x3d	; 61
    204c:	de b7       	in	r29, 0x3e	; 62
    204e:	29 01       	movw	r4, r18
    2050:	3a 01       	movw	r6, r20
    2052:	e9 82       	std	Y+1, r14	; 0x01
    2054:	fa 82       	std	Y+2, r15	; 0x02
    2056:	0b 83       	std	Y+3, r16	; 0x03
    2058:	1c 83       	std	Y+4, r17	; 0x04
    205a:	70 e0       	ldi	r23, 0x00	; 0
    205c:	81 e8       	ldi	r24, 0x81	; 129
    205e:	9e e0       	ldi	r25, 0x0E	; 14
    2060:	0e 94 48 26 	call	0x4c90	; 0x4c90 <_ZN7TwoWire17beginTransmissionEi>
    2064:	62 eb       	ldi	r22, 0xB2	; 178
    2066:	76 e0       	ldi	r23, 0x06	; 6
    2068:	81 e8       	ldi	r24, 0x81	; 129
    206a:	9e e0       	ldi	r25, 0x0E	; 14
    206c:	0e 94 98 2f 	call	0x5f30	; 0x5f30 <_ZN5Print5printEPKc>
    2070:	22 e0       	ldi	r18, 0x02	; 2
    2072:	30 e0       	ldi	r19, 0x00	; 0
    2074:	b3 01       	movw	r22, r6
    2076:	a2 01       	movw	r20, r4
    2078:	81 e8       	ldi	r24, 0x81	; 129
    207a:	9e e0       	ldi	r25, 0x0E	; 14
    207c:	0e 94 70 31 	call	0x62e0	; 0x62e0 <_ZN5Print5printEdi>
    2080:	66 eb       	ldi	r22, 0xB6	; 182
    2082:	76 e0       	ldi	r23, 0x06	; 6
    2084:	81 e8       	ldi	r24, 0x81	; 129
    2086:	9e e0       	ldi	r25, 0x0E	; 14
    2088:	0e 94 98 2f 	call	0x5f30	; 0x5f30 <_ZN5Print5printEPKc>
    208c:	22 e0       	ldi	r18, 0x02	; 2
    208e:	30 e0       	ldi	r19, 0x00	; 0
    2090:	49 81       	ldd	r20, Y+1	; 0x01
    2092:	5a 81       	ldd	r21, Y+2	; 0x02
    2094:	6b 81       	ldd	r22, Y+3	; 0x03
    2096:	7c 81       	ldd	r23, Y+4	; 0x04
    2098:	81 e8       	ldi	r24, 0x81	; 129
    209a:	9e e0       	ldi	r25, 0x0E	; 14
    209c:	0e 94 70 31 	call	0x62e0	; 0x62e0 <_ZN5Print5printEdi>
    20a0:	6a eb       	ldi	r22, 0xBA	; 186
    20a2:	76 e0       	ldi	r23, 0x06	; 6
    20a4:	81 e8       	ldi	r24, 0x81	; 129
    20a6:	9e e0       	ldi	r25, 0x0E	; 14
    20a8:	0e 94 98 2f 	call	0x5f30	; 0x5f30 <_ZN5Print5printEPKc>
    20ac:	22 e0       	ldi	r18, 0x02	; 2
    20ae:	30 e0       	ldi	r19, 0x00	; 0
    20b0:	b6 01       	movw	r22, r12
    20b2:	a5 01       	movw	r20, r10
    20b4:	81 e8       	ldi	r24, 0x81	; 129
    20b6:	9e e0       	ldi	r25, 0x0E	; 14
    20b8:	0e 94 70 31 	call	0x62e0	; 0x62e0 <_ZN5Print5printEdi>
    20bc:	81 e8       	ldi	r24, 0x81	; 129
    20be:	9e e0       	ldi	r25, 0x0E	; 14
    20c0:	0e 94 a0 2f 	call	0x5f40	; 0x5f40 <_ZN5Print7printlnEv>
    20c4:	81 e8       	ldi	r24, 0x81	; 129
    20c6:	9e e0       	ldi	r25, 0x0E	; 14
    20c8:	0f 90       	pop	r0
    20ca:	0f 90       	pop	r0
    20cc:	0f 90       	pop	r0
    20ce:	0f 90       	pop	r0
    20d0:	df 91       	pop	r29
    20d2:	cf 91       	pop	r28
    20d4:	1f 91       	pop	r17
    20d6:	0f 91       	pop	r16
    20d8:	ff 90       	pop	r15
    20da:	ef 90       	pop	r14
    20dc:	df 90       	pop	r13
    20de:	cf 90       	pop	r12
    20e0:	bf 90       	pop	r11
    20e2:	af 90       	pop	r10
    20e4:	7f 90       	pop	r7
    20e6:	6f 90       	pop	r6
    20e8:	5f 90       	pop	r5
    20ea:	4f 90       	pop	r4
    20ec:	0c 94 bd 26 	jmp	0x4d7a	; 0x4d7a <_ZN7TwoWire15endTransmissionEv>

000020f0 <_ZN12ComwithMotor10SendKtoALLEddd>:
    20f0:	af 92       	push	r10
    20f2:	bf 92       	push	r11
    20f4:	cf 92       	push	r12
    20f6:	df 92       	push	r13
    20f8:	ef 92       	push	r14
    20fa:	ff 92       	push	r15
    20fc:	0f 93       	push	r16
    20fe:	1f 93       	push	r17
    2100:	cf 93       	push	r28
    2102:	df 93       	push	r29
    2104:	ec 01       	movw	r28, r24
    2106:	a8 8c       	ldd	r10, Y+24	; 0x18
    2108:	b9 8c       	ldd	r11, Y+25	; 0x19
    210a:	ca 8c       	ldd	r12, Y+26	; 0x1a
    210c:	db 8c       	ldd	r13, Y+27	; 0x1b
    210e:	ec 88       	ldd	r14, Y+20	; 0x14
    2110:	fd 88       	ldd	r15, Y+21	; 0x15
    2112:	0e 89       	ldd	r16, Y+22	; 0x16
    2114:	1f 89       	ldd	r17, Y+23	; 0x17
    2116:	28 89       	ldd	r18, Y+16	; 0x10
    2118:	39 89       	ldd	r19, Y+17	; 0x11
    211a:	4a 89       	ldd	r20, Y+18	; 0x12
    211c:	5b 89       	ldd	r21, Y+19	; 0x13
    211e:	61 e0       	ldi	r22, 0x01	; 1
    2120:	84 df       	rcall	.-248    	; 0x202a <_ZN12ComwithMotor7SendKtoENS_5MotorEddd>
    2122:	a8 8c       	ldd	r10, Y+24	; 0x18
    2124:	b9 8c       	ldd	r11, Y+25	; 0x19
    2126:	ca 8c       	ldd	r12, Y+26	; 0x1a
    2128:	db 8c       	ldd	r13, Y+27	; 0x1b
    212a:	ec 88       	ldd	r14, Y+20	; 0x14
    212c:	fd 88       	ldd	r15, Y+21	; 0x15
    212e:	0e 89       	ldd	r16, Y+22	; 0x16
    2130:	1f 89       	ldd	r17, Y+23	; 0x17
    2132:	28 89       	ldd	r18, Y+16	; 0x10
    2134:	39 89       	ldd	r19, Y+17	; 0x11
    2136:	4a 89       	ldd	r20, Y+18	; 0x12
    2138:	5b 89       	ldd	r21, Y+19	; 0x13
    213a:	62 e0       	ldi	r22, 0x02	; 2
    213c:	ce 01       	movw	r24, r28
    213e:	75 df       	rcall	.-278    	; 0x202a <_ZN12ComwithMotor7SendKtoENS_5MotorEddd>
    2140:	a8 8c       	ldd	r10, Y+24	; 0x18
    2142:	b9 8c       	ldd	r11, Y+25	; 0x19
    2144:	ca 8c       	ldd	r12, Y+26	; 0x1a
    2146:	db 8c       	ldd	r13, Y+27	; 0x1b
    2148:	ec 88       	ldd	r14, Y+20	; 0x14
    214a:	fd 88       	ldd	r15, Y+21	; 0x15
    214c:	0e 89       	ldd	r16, Y+22	; 0x16
    214e:	1f 89       	ldd	r17, Y+23	; 0x17
    2150:	28 89       	ldd	r18, Y+16	; 0x10
    2152:	39 89       	ldd	r19, Y+17	; 0x11
    2154:	4a 89       	ldd	r20, Y+18	; 0x12
    2156:	5b 89       	ldd	r21, Y+19	; 0x13
    2158:	63 e0       	ldi	r22, 0x03	; 3
    215a:	ce 01       	movw	r24, r28
    215c:	66 df       	rcall	.-308    	; 0x202a <_ZN12ComwithMotor7SendKtoENS_5MotorEddd>
    215e:	a8 8c       	ldd	r10, Y+24	; 0x18
    2160:	b9 8c       	ldd	r11, Y+25	; 0x19
    2162:	ca 8c       	ldd	r12, Y+26	; 0x1a
    2164:	db 8c       	ldd	r13, Y+27	; 0x1b
    2166:	ec 88       	ldd	r14, Y+20	; 0x14
    2168:	fd 88       	ldd	r15, Y+21	; 0x15
    216a:	0e 89       	ldd	r16, Y+22	; 0x16
    216c:	1f 89       	ldd	r17, Y+23	; 0x17
    216e:	28 89       	ldd	r18, Y+16	; 0x10
    2170:	39 89       	ldd	r19, Y+17	; 0x11
    2172:	4a 89       	ldd	r20, Y+18	; 0x12
    2174:	5b 89       	ldd	r21, Y+19	; 0x13
    2176:	64 e0       	ldi	r22, 0x04	; 4
    2178:	ce 01       	movw	r24, r28
    217a:	57 df       	rcall	.-338    	; 0x202a <_ZN12ComwithMotor7SendKtoENS_5MotorEddd>
    217c:	df 91       	pop	r29
    217e:	cf 91       	pop	r28
    2180:	1f 91       	pop	r17
    2182:	0f 91       	pop	r16
    2184:	ff 90       	pop	r15
    2186:	ef 90       	pop	r14
    2188:	df 90       	pop	r13
    218a:	cf 90       	pop	r12
    218c:	bf 90       	pop	r11
    218e:	af 90       	pop	r10
    2190:	08 95       	ret

00002192 <_ZN12ComwithMotor9ReadBfromENS_5MotorE>:
	if (c == R1){connectedR1 = true;}
	if (d == R2){connectedR2 = true;}
}

int ComwithMotor::ReadBfrom(Motor m)
{
    2192:	cf 93       	push	r28
    2194:	df 93       	push	r29
    2196:	1f 92       	push	r1
    2198:	cd b7       	in	r28, 0x3d	; 61
    219a:	de b7       	in	r29, 0x3e	; 62
	Wire.begin();
    219c:	81 e8       	ldi	r24, 0x81	; 129
    219e:	9e e0       	ldi	r25, 0x0E	; 14
    21a0:	69 83       	std	Y+1, r22	; 0x01
    21a2:	0e 94 35 26 	call	0x4c6a	; 0x4c6a <_ZN7TwoWire5beginEv>
	Wire.requestFrom(m,1);
    21a6:	69 81       	ldd	r22, Y+1	; 0x01
    21a8:	70 e0       	ldi	r23, 0x00	; 0
    21aa:	41 e0       	ldi	r20, 0x01	; 1
    21ac:	50 e0       	ldi	r21, 0x00	; 0
    21ae:	81 e8       	ldi	r24, 0x81	; 129
    21b0:	9e e0       	ldi	r25, 0x0E	; 14
    21b2:	0e 94 bb 26 	call	0x4d76	; 0x4d76 <_ZN7TwoWire11requestFromEii>
	if(Wire.available())
    21b6:	81 e8       	ldi	r24, 0x81	; 129
    21b8:	9e e0       	ldi	r25, 0x0E	; 14
    21ba:	0e 94 9c 25 	call	0x4b38	; 0x4b38 <_ZN7TwoWire9availableEv>
    21be:	89 2b       	or	r24, r25
    21c0:	39 f0       	breq	.+14     	; 0x21d0 <_ZN12ComwithMotor9ReadBfromENS_5MotorE+0x3e>
	{
		int c = Wire.read();
    21c2:	81 e8       	ldi	r24, 0x81	; 129
    21c4:	9e e0       	ldi	r25, 0x0E	; 14
		return c;
	}
}
    21c6:	0f 90       	pop	r0
    21c8:	df 91       	pop	r29
    21ca:	cf 91       	pop	r28
{
	Wire.begin();
	Wire.requestFrom(m,1);
	if(Wire.available())
	{
		int c = Wire.read();
    21cc:	0c 94 a4 25 	jmp	0x4b48	; 0x4b48 <_ZN7TwoWire4readEv>
		return c;
	}
}
    21d0:	0f 90       	pop	r0
    21d2:	df 91       	pop	r29
    21d4:	cf 91       	pop	r28
    21d6:	08 95       	ret

000021d8 <_ZN12ComwithMotor5beginEv>:
	ki = 1.0;
	kd = 1.0;//111111111
} //ComwithMotor

void ComwithMotor::begin()
{
    21d8:	af 92       	push	r10
    21da:	bf 92       	push	r11
    21dc:	cf 92       	push	r12
    21de:	df 92       	push	r13
    21e0:	ef 92       	push	r14
    21e2:	ff 92       	push	r15
    21e4:	0f 93       	push	r16
    21e6:	1f 93       	push	r17
    21e8:	cf 93       	push	r28
    21ea:	df 93       	push	r29
    21ec:	ec 01       	movw	r28, r24
	Wire.begin();
    21ee:	81 e8       	ldi	r24, 0x81	; 129
    21f0:	9e e0       	ldi	r25, 0x0E	; 14
    21f2:	0e 94 35 26 	call	0x4c6a	; 0x4c6a <_ZN7TwoWire5beginEv>
	Serial.println("IN");
    21f6:	6e eb       	ldi	r22, 0xBE	; 190
    21f8:	76 e0       	ldi	r23, 0x06	; 6
    21fa:	83 ed       	ldi	r24, 0xD3	; 211
    21fc:	9e e0       	ldi	r25, 0x0E	; 14
    21fe:	0e 94 b3 2f 	call	0x5f66	; 0x5f66 <_ZN5Print7printlnEPKc>
    2202:	86 e0       	ldi	r24, 0x06	; 6
    2204:	a8 2e       	mov	r10, r24
    2206:	b1 2c       	mov	r11, r1
	for (int i=0;i<=5;i++)
	{
			//K
			SendKtoALL(kp,ki,kd);
    2208:	c8 8c       	ldd	r12, Y+24	; 0x18
    220a:	d9 8c       	ldd	r13, Y+25	; 0x19
    220c:	ea 8c       	ldd	r14, Y+26	; 0x1a
    220e:	fb 8c       	ldd	r15, Y+27	; 0x1b
    2210:	0c 89       	ldd	r16, Y+20	; 0x14
    2212:	1d 89       	ldd	r17, Y+21	; 0x15
    2214:	2e 89       	ldd	r18, Y+22	; 0x16
    2216:	3f 89       	ldd	r19, Y+23	; 0x17
    2218:	48 89       	ldd	r20, Y+16	; 0x10
    221a:	59 89       	ldd	r21, Y+17	; 0x11
    221c:	6a 89       	ldd	r22, Y+18	; 0x12
    221e:	7b 89       	ldd	r23, Y+19	; 0x13
    2220:	ce 01       	movw	r24, r28
    2222:	66 df       	rcall	.-308    	; 0x20f0 <_ZN12ComwithMotor10SendKtoALLEddd>
			Serial.println("IN2");
    2224:	61 ec       	ldi	r22, 0xC1	; 193
    2226:	76 e0       	ldi	r23, 0x06	; 6
    2228:	83 ed       	ldi	r24, 0xD3	; 211
    222a:	9e e0       	ldi	r25, 0x0E	; 14
    222c:	0e 94 b3 2f 	call	0x5f66	; 0x5f66 <_ZN5Print7printlnEPKc>
			//
			int a = ReadBfrom(L1);
    2230:	61 e0       	ldi	r22, 0x01	; 1
    2232:	ce 01       	movw	r24, r28
    2234:	ae df       	rcall	.-164    	; 0x2192 <_ZN12ComwithMotor9ReadBfromENS_5MotorE>
    2236:	6c 01       	movw	r12, r24
			int b = ReadBfrom(L2);
    2238:	62 e0       	ldi	r22, 0x02	; 2
    223a:	ce 01       	movw	r24, r28
    223c:	aa df       	rcall	.-172    	; 0x2192 <_ZN12ComwithMotor9ReadBfromENS_5MotorE>
    223e:	7c 01       	movw	r14, r24
			int c = ReadBfrom(R1);
    2240:	63 e0       	ldi	r22, 0x03	; 3
    2242:	ce 01       	movw	r24, r28
    2244:	a6 df       	rcall	.-180    	; 0x2192 <_ZN12ComwithMotor9ReadBfromENS_5MotorE>
    2246:	8c 01       	movw	r16, r24
			int d = ReadBfrom(R2);
    2248:	64 e0       	ldi	r22, 0x04	; 4
    224a:	ce 01       	movw	r24, r28
    224c:	a2 df       	rcall	.-188    	; 0x2192 <_ZN12ComwithMotor9ReadBfromENS_5MotorE>
    224e:	9c 01       	movw	r18, r24
			if (a == L1 && b== L2 && c==R1 && d == R2)
    2250:	81 e0       	ldi	r24, 0x01	; 1
    2252:	c8 16       	cp	r12, r24
    2254:	d1 04       	cpc	r13, r1
    2256:	69 f4       	brne	.+26     	; 0x2272 <__stack+0x73>
    2258:	82 e0       	ldi	r24, 0x02	; 2
    225a:	e8 16       	cp	r14, r24
    225c:	f1 04       	cpc	r15, r1
    225e:	49 f4       	brne	.+18     	; 0x2272 <__stack+0x73>
    2260:	03 30       	cpi	r16, 0x03	; 3
    2262:	11 05       	cpc	r17, r1
    2264:	31 f4       	brne	.+12     	; 0x2272 <__stack+0x73>
    2266:	24 30       	cpi	r18, 0x04	; 4
    2268:	31 05       	cpc	r19, r1
    226a:	19 f4       	brne	.+6      	; 0x2272 <__stack+0x73>
			{
				connected = true;
    226c:	81 e0       	ldi	r24, 0x01	; 1
    226e:	8c 8f       	std	Y+28, r24	; 0x1c
    2270:	04 c0       	rjmp	.+8      	; 0x227a <__stack+0x7b>
			}
			else
			{
				connected = false;
    2272:	1c 8e       	std	Y+28, r1	; 0x1c
			}
			
			//
			if (a == L1){connectedL1 = true;}
    2274:	ca 94       	dec	r12
    2276:	cd 28       	or	r12, r13
    2278:	11 f4       	brne	.+4      	; 0x227e <__stack+0x7f>
    227a:	81 e0       	ldi	r24, 0x01	; 1
    227c:	8d 8f       	std	Y+29, r24	; 0x1d
			if (b == L2){connectedL2 = true;}
    227e:	82 e0       	ldi	r24, 0x02	; 2
    2280:	e8 16       	cp	r14, r24
    2282:	f1 04       	cpc	r15, r1
    2284:	11 f4       	brne	.+4      	; 0x228a <__stack+0x8b>
    2286:	81 e0       	ldi	r24, 0x01	; 1
    2288:	8e 8f       	std	Y+30, r24	; 0x1e
			if (c == R1){connectedR1 = true;}
    228a:	03 30       	cpi	r16, 0x03	; 3
    228c:	11 05       	cpc	r17, r1
    228e:	11 f4       	brne	.+4      	; 0x2294 <__stack+0x95>
    2290:	81 e0       	ldi	r24, 0x01	; 1
    2292:	8f 8f       	std	Y+31, r24	; 0x1f
			if (d == R2){connectedR2 = true;}
    2294:	24 30       	cpi	r18, 0x04	; 4
    2296:	31 05       	cpc	r19, r1
    2298:	11 f4       	brne	.+4      	; 0x229e <__stack+0x9f>
    229a:	81 e0       	ldi	r24, 0x01	; 1
    229c:	88 a3       	std	Y+32, r24	; 0x20
    229e:	81 e0       	ldi	r24, 0x01	; 1
    22a0:	a8 1a       	sub	r10, r24
    22a2:	b1 08       	sbc	r11, r1

void ComwithMotor::begin()
{
	Wire.begin();
	Serial.println("IN");
	for (int i=0;i<=5;i++)
    22a4:	09 f0       	breq	.+2      	; 0x22a8 <__stack+0xa9>
    22a6:	b0 cf       	rjmp	.-160    	; 0x2208 <__stack+0x9>
			if (a == L1){connectedL1 = true;}
			if (b == L2){connectedL2 = true;}
			if (c == R1){connectedR1 = true;}
			if (d == R2){connectedR2 = true;}
	}
	Serial.println("OUT");
    22a8:	65 ec       	ldi	r22, 0xC5	; 197
    22aa:	76 e0       	ldi	r23, 0x06	; 6
    22ac:	83 ed       	ldi	r24, 0xD3	; 211
    22ae:	9e e0       	ldi	r25, 0x0E	; 14
}
    22b0:	df 91       	pop	r29
    22b2:	cf 91       	pop	r28
    22b4:	1f 91       	pop	r17
    22b6:	0f 91       	pop	r16
    22b8:	ff 90       	pop	r15
    22ba:	ef 90       	pop	r14
    22bc:	df 90       	pop	r13
    22be:	cf 90       	pop	r12
    22c0:	bf 90       	pop	r11
    22c2:	af 90       	pop	r10
			if (a == L1){connectedL1 = true;}
			if (b == L2){connectedL2 = true;}
			if (c == R1){connectedR1 = true;}
			if (d == R2){connectedR2 = true;}
	}
	Serial.println("OUT");
    22c4:	0c 94 b3 2f 	jmp	0x5f66	; 0x5f66 <_ZN5Print7printlnEPKc>

000022c8 <_ZN9ComwithPCC1Ev>:

#include "ComwithPC.h"

#include "HardwareSerial.h"
// default constructor
ComwithPC::ComwithPC()
    22c8:	08 95       	ret

000022ca <_ZN9ComwithPC5beginEm>:
  public:
    inline HardwareSerial(
      volatile uint8_t *ubrrh, volatile uint8_t *ubrrl,
      volatile uint8_t *ucsra, volatile uint8_t *ucsrb,
      volatile uint8_t *ucsrc, volatile uint8_t *udr);
    void begin(unsigned long baud) { begin(baud, SERIAL_8N1); }
    22ca:	26 e0       	ldi	r18, 0x06	; 6
    22cc:	80 e7       	ldi	r24, 0x70	; 112
    22ce:	9f e0       	ldi	r25, 0x0F	; 15
    22d0:	0e 94 ae 2d 	call	0x5b5c	; 0x5b5c <_ZN14HardwareSerial5beginEmh>
} //ComwithPC

void ComwithPC::begin(unsigned long int baud)
{
	Serial2.begin(baud);
	Serial2.println("OK!");
    22d4:	69 ec       	ldi	r22, 0xC9	; 201
    22d6:	76 e0       	ldi	r23, 0x06	; 6
    22d8:	80 e7       	ldi	r24, 0x70	; 112
    22da:	9f e0       	ldi	r25, 0x0F	; 15
    22dc:	0c 94 b3 2f 	jmp	0x5f66	; 0x5f66 <_ZN5Print7printlnEPKc>

000022e0 <_ZN9ComwithPC10tellMotorsEiiii>:
}

void ComwithPC::tellMotors(int speed_L,int dir_L,int speed_R,int dir_R)
{
    22e0:	cf 92       	push	r12
    22e2:	df 92       	push	r13
    22e4:	ef 92       	push	r14
    22e6:	ff 92       	push	r15
    22e8:	0f 93       	push	r16
    22ea:	1f 93       	push	r17
    22ec:	cf 93       	push	r28
    22ee:	df 93       	push	r29
    22f0:	6b 01       	movw	r12, r22
    22f2:	7a 01       	movw	r14, r20
    22f4:	e9 01       	movw	r28, r18
	//
	Serial2.print("Motors:");
    22f6:	6d ec       	ldi	r22, 0xCD	; 205
    22f8:	76 e0       	ldi	r23, 0x06	; 6
    22fa:	80 e7       	ldi	r24, 0x70	; 112
    22fc:	9f e0       	ldi	r25, 0x0F	; 15
    22fe:	0e 94 98 2f 	call	0x5f30	; 0x5f30 <_ZN5Print5printEPKc>
	Serial2.print(speed_L);
    2302:	4a e0       	ldi	r20, 0x0A	; 10
    2304:	50 e0       	ldi	r21, 0x00	; 0
    2306:	b6 01       	movw	r22, r12
    2308:	80 e7       	ldi	r24, 0x70	; 112
    230a:	9f e0       	ldi	r25, 0x0F	; 15
    230c:	0e 94 5c 30 	call	0x60b8	; 0x60b8 <_ZN5Print5printEii>
	Serial2.print(',');
    2310:	6c e2       	ldi	r22, 0x2C	; 44
    2312:	80 e7       	ldi	r24, 0x70	; 112
    2314:	9f e0       	ldi	r25, 0x0F	; 15
    2316:	0e 94 99 2f 	call	0x5f32	; 0x5f32 <_ZN5Print5printEc>
	Serial2.print(dir_L);
    231a:	4a e0       	ldi	r20, 0x0A	; 10
    231c:	50 e0       	ldi	r21, 0x00	; 0
    231e:	b7 01       	movw	r22, r14
    2320:	80 e7       	ldi	r24, 0x70	; 112
    2322:	9f e0       	ldi	r25, 0x0F	; 15
    2324:	0e 94 5c 30 	call	0x60b8	; 0x60b8 <_ZN5Print5printEii>
	Serial2.print(',');
    2328:	6c e2       	ldi	r22, 0x2C	; 44
    232a:	80 e7       	ldi	r24, 0x70	; 112
    232c:	9f e0       	ldi	r25, 0x0F	; 15
    232e:	0e 94 99 2f 	call	0x5f32	; 0x5f32 <_ZN5Print5printEc>
	Serial2.print(speed_R);
    2332:	4a e0       	ldi	r20, 0x0A	; 10
    2334:	50 e0       	ldi	r21, 0x00	; 0
    2336:	be 01       	movw	r22, r28
    2338:	80 e7       	ldi	r24, 0x70	; 112
    233a:	9f e0       	ldi	r25, 0x0F	; 15
    233c:	0e 94 5c 30 	call	0x60b8	; 0x60b8 <_ZN5Print5printEii>
	Serial2.print(',');
    2340:	6c e2       	ldi	r22, 0x2C	; 44
    2342:	80 e7       	ldi	r24, 0x70	; 112
    2344:	9f e0       	ldi	r25, 0x0F	; 15
    2346:	0e 94 99 2f 	call	0x5f32	; 0x5f32 <_ZN5Print5printEc>
	Serial2.println(dir_R);
    234a:	4a e0       	ldi	r20, 0x0A	; 10
    234c:	50 e0       	ldi	r21, 0x00	; 0
    234e:	b8 01       	movw	r22, r16
    2350:	80 e7       	ldi	r24, 0x70	; 112
    2352:	9f e0       	ldi	r25, 0x0F	; 15
}
    2354:	df 91       	pop	r29
    2356:	cf 91       	pop	r28
    2358:	1f 91       	pop	r17
    235a:	0f 91       	pop	r16
    235c:	ff 90       	pop	r15
    235e:	ef 90       	pop	r14
    2360:	df 90       	pop	r13
    2362:	cf 90       	pop	r12
	Serial2.print(',');
	Serial2.print(dir_L);
	Serial2.print(',');
	Serial2.print(speed_R);
	Serial2.print(',');
	Serial2.println(dir_R);
    2364:	0c 94 62 30 	jmp	0x60c4	; 0x60c4 <_ZN5Print7printlnEii>

00002368 <_ZN9ComwithPC7tellXYPEddd>:
}

void ComwithPC::tellXYP(double x,double y,double p)
{
    2368:	4f 92       	push	r4
    236a:	5f 92       	push	r5
    236c:	6f 92       	push	r6
    236e:	7f 92       	push	r7
    2370:	8f 92       	push	r8
    2372:	9f 92       	push	r9
    2374:	af 92       	push	r10
    2376:	bf 92       	push	r11
    2378:	cf 92       	push	r12
    237a:	df 92       	push	r13
    237c:	ef 92       	push	r14
    237e:	ff 92       	push	r15
    2380:	0f 93       	push	r16
    2382:	1f 93       	push	r17
    2384:	2a 01       	movw	r4, r20
    2386:	3b 01       	movw	r6, r22
    2388:	48 01       	movw	r8, r16
    238a:	59 01       	movw	r10, r18
	Serial2.print("A:");
    238c:	6f ea       	ldi	r22, 0xAF	; 175
    238e:	76 e0       	ldi	r23, 0x06	; 6
    2390:	80 e7       	ldi	r24, 0x70	; 112
    2392:	9f e0       	ldi	r25, 0x0F	; 15
    2394:	0e 94 98 2f 	call	0x5f30	; 0x5f30 <_ZN5Print5printEPKc>
	Serial2.print(0);
    2398:	4a e0       	ldi	r20, 0x0A	; 10
    239a:	50 e0       	ldi	r21, 0x00	; 0
    239c:	60 e0       	ldi	r22, 0x00	; 0
    239e:	70 e0       	ldi	r23, 0x00	; 0
    23a0:	80 e7       	ldi	r24, 0x70	; 112
    23a2:	9f e0       	ldi	r25, 0x0F	; 15
    23a4:	0e 94 5c 30 	call	0x60b8	; 0x60b8 <_ZN5Print5printEii>
	Serial2.print("B:");
    23a8:	65 ed       	ldi	r22, 0xD5	; 213
    23aa:	76 e0       	ldi	r23, 0x06	; 6
    23ac:	80 e7       	ldi	r24, 0x70	; 112
    23ae:	9f e0       	ldi	r25, 0x0F	; 15
    23b0:	0e 94 98 2f 	call	0x5f30	; 0x5f30 <_ZN5Print5printEPKc>
	Serial2.print(0);
    23b4:	4a e0       	ldi	r20, 0x0A	; 10
    23b6:	50 e0       	ldi	r21, 0x00	; 0
    23b8:	60 e0       	ldi	r22, 0x00	; 0
    23ba:	70 e0       	ldi	r23, 0x00	; 0
    23bc:	80 e7       	ldi	r24, 0x70	; 112
    23be:	9f e0       	ldi	r25, 0x0F	; 15
    23c0:	0e 94 5c 30 	call	0x60b8	; 0x60b8 <_ZN5Print5printEii>
	Serial2.print("x:");
    23c4:	68 ed       	ldi	r22, 0xD8	; 216
    23c6:	76 e0       	ldi	r23, 0x06	; 6
    23c8:	80 e7       	ldi	r24, 0x70	; 112
    23ca:	9f e0       	ldi	r25, 0x0F	; 15
    23cc:	0e 94 98 2f 	call	0x5f30	; 0x5f30 <_ZN5Print5printEPKc>
	Serial2.print(x);
    23d0:	22 e0       	ldi	r18, 0x02	; 2
    23d2:	30 e0       	ldi	r19, 0x00	; 0
    23d4:	b3 01       	movw	r22, r6
    23d6:	a2 01       	movw	r20, r4
    23d8:	80 e7       	ldi	r24, 0x70	; 112
    23da:	9f e0       	ldi	r25, 0x0F	; 15
    23dc:	0e 94 70 31 	call	0x62e0	; 0x62e0 <_ZN5Print5printEdi>
	Serial2.print("y:");
    23e0:	6b ed       	ldi	r22, 0xDB	; 219
    23e2:	76 e0       	ldi	r23, 0x06	; 6
    23e4:	80 e7       	ldi	r24, 0x70	; 112
    23e6:	9f e0       	ldi	r25, 0x0F	; 15
    23e8:	0e 94 98 2f 	call	0x5f30	; 0x5f30 <_ZN5Print5printEPKc>
	Serial2.print(y);
    23ec:	22 e0       	ldi	r18, 0x02	; 2
    23ee:	30 e0       	ldi	r19, 0x00	; 0
    23f0:	b5 01       	movw	r22, r10
    23f2:	a4 01       	movw	r20, r8
    23f4:	80 e7       	ldi	r24, 0x70	; 112
    23f6:	9f e0       	ldi	r25, 0x0F	; 15
    23f8:	0e 94 70 31 	call	0x62e0	; 0x62e0 <_ZN5Print5printEdi>
	Serial2.print("p:");
    23fc:	63 eb       	ldi	r22, 0xB3	; 179
    23fe:	76 e0       	ldi	r23, 0x06	; 6
    2400:	80 e7       	ldi	r24, 0x70	; 112
    2402:	9f e0       	ldi	r25, 0x0F	; 15
    2404:	0e 94 98 2f 	call	0x5f30	; 0x5f30 <_ZN5Print5printEPKc>
	Serial2.println(p);
    2408:	22 e0       	ldi	r18, 0x02	; 2
    240a:	30 e0       	ldi	r19, 0x00	; 0
    240c:	b7 01       	movw	r22, r14
    240e:	a6 01       	movw	r20, r12
    2410:	80 e7       	ldi	r24, 0x70	; 112
    2412:	9f e0       	ldi	r25, 0x0F	; 15
// 	 	Serial2.print(x);
// 	 	Serial2.print(',');
// 	 	Serial2.print(y);
// 	 	Serial2.print(',');
// 	 	Serial2.println(p);
}
    2414:	1f 91       	pop	r17
    2416:	0f 91       	pop	r16
    2418:	ff 90       	pop	r15
    241a:	ef 90       	pop	r14
    241c:	df 90       	pop	r13
    241e:	cf 90       	pop	r12
    2420:	bf 90       	pop	r11
    2422:	af 90       	pop	r10
    2424:	9f 90       	pop	r9
    2426:	8f 90       	pop	r8
    2428:	7f 90       	pop	r7
    242a:	6f 90       	pop	r6
    242c:	5f 90       	pop	r5
    242e:	4f 90       	pop	r4
	Serial2.print("x:");
	Serial2.print(x);
	Serial2.print("y:");
	Serial2.print(y);
	Serial2.print("p:");
	Serial2.println(p);
    2430:	0c 94 71 31 	jmp	0x62e2	; 0x62e2 <_ZN5Print7printlnEdi>

00002434 <_ZN9ComwithPC9tellStateE6String>:
// 	 	Serial2.print(',');
// 	 	Serial2.println(p);
}

void ComwithPC::tellState(String state)
{
    2434:	cf 93       	push	r28
    2436:	df 93       	push	r29
    2438:	eb 01       	movw	r28, r22
	Serial2.print("State:");
    243a:	6e ed       	ldi	r22, 0xDE	; 222
    243c:	76 e0       	ldi	r23, 0x06	; 6
    243e:	80 e7       	ldi	r24, 0x70	; 112
    2440:	9f e0       	ldi	r25, 0x0F	; 15
    2442:	0e 94 98 2f 	call	0x5f30	; 0x5f30 <_ZN5Print5printEPKc>
	Serial2.println(state);
    2446:	be 01       	movw	r22, r28
    2448:	80 e7       	ldi	r24, 0x70	; 112
    244a:	9f e0       	ldi	r25, 0x0F	; 15
}
    244c:	df 91       	pop	r29
    244e:	cf 91       	pop	r28
}

void ComwithPC::tellState(String state)
{
	Serial2.print("State:");
	Serial2.println(state);
    2450:	0c 94 a3 2f 	jmp	0x5f46	; 0x5f46 <_ZN5Print7printlnERK6String>

00002454 <_ZN11ComwithShotC1Ev>:
	Wire.begin();
	Serial.println("ComwithShot begin!");
	
	Wire.beginTransmission(address);
	Wire.println("begin:");//  
	Wire.endTransmission();
    2454:	25 e0       	ldi	r18, 0x05	; 5
    2456:	30 e0       	ldi	r19, 0x00	; 0
    2458:	fc 01       	movw	r30, r24
    245a:	31 83       	std	Z+1, r19	; 0x01
    245c:	20 83       	st	Z, r18
    245e:	12 82       	std	Z+2, r1	; 0x02
    2460:	08 95       	ret

00002462 <_ZN11ComwithShot14SendXYPandSHOTEddd>:
		connected = false;
	}
}

void ComwithShot::SendXYPandSHOT(double x,double y,double p)
{
    2462:	4f 92       	push	r4
    2464:	5f 92       	push	r5
    2466:	6f 92       	push	r6
    2468:	7f 92       	push	r7
    246a:	8f 92       	push	r8
    246c:	9f 92       	push	r9
    246e:	af 92       	push	r10
    2470:	bf 92       	push	r11
    2472:	cf 92       	push	r12
    2474:	df 92       	push	r13
    2476:	ef 92       	push	r14
    2478:	ff 92       	push	r15
    247a:	0f 93       	push	r16
    247c:	1f 93       	push	r17
    247e:	cf 93       	push	r28
    2480:	df 93       	push	r29
    2482:	ec 01       	movw	r28, r24
    2484:	2a 01       	movw	r4, r20
    2486:	3b 01       	movw	r6, r22
    2488:	48 01       	movw	r8, r16
    248a:	59 01       	movw	r10, r18
	Serial.print("ComwithShot");
    248c:	6f ef       	ldi	r22, 0xFF	; 255
    248e:	76 e0       	ldi	r23, 0x06	; 6
    2490:	83 ed       	ldi	r24, 0xD3	; 211
    2492:	9e e0       	ldi	r25, 0x0E	; 14
    2494:	0e 94 98 2f 	call	0x5f30	; 0x5f30 <_ZN5Print5printEPKc>
	Serial.print("X:");
    2498:	6b e0       	ldi	r22, 0x0B	; 11
    249a:	77 e0       	ldi	r23, 0x07	; 7
    249c:	83 ed       	ldi	r24, 0xD3	; 211
    249e:	9e e0       	ldi	r25, 0x0E	; 14
    24a0:	0e 94 98 2f 	call	0x5f30	; 0x5f30 <_ZN5Print5printEPKc>
	Serial.print(x);
    24a4:	22 e0       	ldi	r18, 0x02	; 2
    24a6:	30 e0       	ldi	r19, 0x00	; 0
    24a8:	b3 01       	movw	r22, r6
    24aa:	a2 01       	movw	r20, r4
    24ac:	83 ed       	ldi	r24, 0xD3	; 211
    24ae:	9e e0       	ldi	r25, 0x0E	; 14
    24b0:	0e 94 70 31 	call	0x62e0	; 0x62e0 <_ZN5Print5printEdi>
	Serial.print("Y:");
    24b4:	6e e0       	ldi	r22, 0x0E	; 14
    24b6:	77 e0       	ldi	r23, 0x07	; 7
    24b8:	83 ed       	ldi	r24, 0xD3	; 211
    24ba:	9e e0       	ldi	r25, 0x0E	; 14
    24bc:	0e 94 98 2f 	call	0x5f30	; 0x5f30 <_ZN5Print5printEPKc>
	Serial.print(y);
    24c0:	22 e0       	ldi	r18, 0x02	; 2
    24c2:	30 e0       	ldi	r19, 0x00	; 0
    24c4:	b5 01       	movw	r22, r10
    24c6:	a4 01       	movw	r20, r8
    24c8:	83 ed       	ldi	r24, 0xD3	; 211
    24ca:	9e e0       	ldi	r25, 0x0E	; 14
    24cc:	0e 94 70 31 	call	0x62e0	; 0x62e0 <_ZN5Print5printEdi>
	Serial.print("P:");
    24d0:	68 e1       	ldi	r22, 0x18	; 24
    24d2:	77 e0       	ldi	r23, 0x07	; 7
    24d4:	83 ed       	ldi	r24, 0xD3	; 211
    24d6:	9e e0       	ldi	r25, 0x0E	; 14
    24d8:	0e 94 98 2f 	call	0x5f30	; 0x5f30 <_ZN5Print5printEPKc>
	Serial.print(p);
    24dc:	22 e0       	ldi	r18, 0x02	; 2
    24de:	30 e0       	ldi	r19, 0x00	; 0
    24e0:	b7 01       	movw	r22, r14
    24e2:	a6 01       	movw	r20, r12
    24e4:	83 ed       	ldi	r24, 0xD3	; 211
    24e6:	9e e0       	ldi	r25, 0x0E	; 14
    24e8:	0e 94 70 31 	call	0x62e0	; 0x62e0 <_ZN5Print5printEdi>
	Serial.println("Fire");
    24ec:	61 e1       	ldi	r22, 0x11	; 17
    24ee:	77 e0       	ldi	r23, 0x07	; 7
    24f0:	83 ed       	ldi	r24, 0xD3	; 211
    24f2:	9e e0       	ldi	r25, 0x0E	; 14
    24f4:	0e 94 b3 2f 	call	0x5f66	; 0x5f66 <_ZN5Print7printlnEPKc>
	
	Wire.beginTransmission(address);
    24f8:	68 81       	ld	r22, Y
    24fa:	79 81       	ldd	r23, Y+1	; 0x01
    24fc:	81 e8       	ldi	r24, 0x81	; 129
    24fe:	9e e0       	ldi	r25, 0x0E	; 14
    2500:	0e 94 48 26 	call	0x4c90	; 0x4c90 <_ZN7TwoWire17beginTransmissionEi>
	Wire.print("XYP:");
    2504:	66 e1       	ldi	r22, 0x16	; 22
    2506:	77 e0       	ldi	r23, 0x07	; 7
    2508:	81 e8       	ldi	r24, 0x81	; 129
    250a:	9e e0       	ldi	r25, 0x0E	; 14
    250c:	0e 94 98 2f 	call	0x5f30	; 0x5f30 <_ZN5Print5printEPKc>
	Wire.print("X:");
    2510:	6b e0       	ldi	r22, 0x0B	; 11
    2512:	77 e0       	ldi	r23, 0x07	; 7
    2514:	81 e8       	ldi	r24, 0x81	; 129
    2516:	9e e0       	ldi	r25, 0x0E	; 14
    2518:	0e 94 98 2f 	call	0x5f30	; 0x5f30 <_ZN5Print5printEPKc>
	Wire.print(x);
    251c:	22 e0       	ldi	r18, 0x02	; 2
    251e:	30 e0       	ldi	r19, 0x00	; 0
    2520:	b3 01       	movw	r22, r6
    2522:	a2 01       	movw	r20, r4
    2524:	81 e8       	ldi	r24, 0x81	; 129
    2526:	9e e0       	ldi	r25, 0x0E	; 14
    2528:	0e 94 70 31 	call	0x62e0	; 0x62e0 <_ZN5Print5printEdi>
	Wire.print("Y:");
    252c:	6e e0       	ldi	r22, 0x0E	; 14
    252e:	77 e0       	ldi	r23, 0x07	; 7
    2530:	81 e8       	ldi	r24, 0x81	; 129
    2532:	9e e0       	ldi	r25, 0x0E	; 14
    2534:	0e 94 98 2f 	call	0x5f30	; 0x5f30 <_ZN5Print5printEPKc>
	Wire.print(y);
    2538:	22 e0       	ldi	r18, 0x02	; 2
    253a:	30 e0       	ldi	r19, 0x00	; 0
    253c:	b5 01       	movw	r22, r10
    253e:	a4 01       	movw	r20, r8
    2540:	81 e8       	ldi	r24, 0x81	; 129
    2542:	9e e0       	ldi	r25, 0x0E	; 14
    2544:	0e 94 70 31 	call	0x62e0	; 0x62e0 <_ZN5Print5printEdi>
	Wire.print("P:");
    2548:	68 e1       	ldi	r22, 0x18	; 24
    254a:	77 e0       	ldi	r23, 0x07	; 7
    254c:	81 e8       	ldi	r24, 0x81	; 129
    254e:	9e e0       	ldi	r25, 0x0E	; 14
    2550:	0e 94 98 2f 	call	0x5f30	; 0x5f30 <_ZN5Print5printEPKc>
	Wire.print(p);
    2554:	22 e0       	ldi	r18, 0x02	; 2
    2556:	30 e0       	ldi	r19, 0x00	; 0
    2558:	b7 01       	movw	r22, r14
    255a:	a6 01       	movw	r20, r12
    255c:	81 e8       	ldi	r24, 0x81	; 129
    255e:	9e e0       	ldi	r25, 0x0E	; 14
    2560:	0e 94 70 31 	call	0x62e0	; 0x62e0 <_ZN5Print5printEdi>
	Wire.println("SHOT");
    2564:	6b e1       	ldi	r22, 0x1B	; 27
    2566:	77 e0       	ldi	r23, 0x07	; 7
    2568:	81 e8       	ldi	r24, 0x81	; 129
    256a:	9e e0       	ldi	r25, 0x0E	; 14
    256c:	0e 94 b3 2f 	call	0x5f66	; 0x5f66 <_ZN5Print7printlnEPKc>
	Wire.endTransmission();
    2570:	81 e8       	ldi	r24, 0x81	; 129
    2572:	9e e0       	ldi	r25, 0x0E	; 14
}
    2574:	df 91       	pop	r29
    2576:	cf 91       	pop	r28
    2578:	1f 91       	pop	r17
    257a:	0f 91       	pop	r16
    257c:	ff 90       	pop	r15
    257e:	ef 90       	pop	r14
    2580:	df 90       	pop	r13
    2582:	cf 90       	pop	r12
    2584:	bf 90       	pop	r11
    2586:	af 90       	pop	r10
    2588:	9f 90       	pop	r9
    258a:	8f 90       	pop	r8
    258c:	7f 90       	pop	r7
    258e:	6f 90       	pop	r6
    2590:	5f 90       	pop	r5
    2592:	4f 90       	pop	r4
	Wire.print("Y:");
	Wire.print(y);
	Wire.print("P:");
	Wire.print(p);
	Wire.println("SHOT");
	Wire.endTransmission();
    2594:	0c 94 bd 26 	jmp	0x4d7a	; 0x4d7a <_ZN7TwoWire15endTransmissionEv>

00002598 <_ZN7DisplayC1Ev>:
	display.setTextColor(WHITE);
	display.setCursor(0,5);
	display.clearDisplay();
	display.print("Time:");
	display.println(str);
	display.display();
    2598:	fc 01       	movw	r30, r24
    259a:	11 82       	std	Z+1, r1	; 0x01
    259c:	10 82       	st	Z, r1
    259e:	13 82       	std	Z+3, r1	; 0x03
    25a0:	12 82       	std	Z+2, r1	; 0x02
    25a2:	15 82       	std	Z+5, r1	; 0x05
    25a4:	14 82       	std	Z+4, r1	; 0x04
    25a6:	2a e0       	ldi	r18, 0x0A	; 10
    25a8:	30 e0       	ldi	r19, 0x00	; 0
    25aa:	37 83       	std	Z+7, r19	; 0x07
    25ac:	26 83       	std	Z+6, r18	; 0x06
    25ae:	80 e4       	ldi	r24, 0x40	; 64
    25b0:	90 e0       	ldi	r25, 0x00	; 0
    25b2:	91 87       	std	Z+9, r25	; 0x09
    25b4:	80 87       	std	Z+8, r24	; 0x08
    25b6:	33 87       	std	Z+11, r19	; 0x0b
    25b8:	22 87       	std	Z+10, r18	; 0x0a
    25ba:	15 86       	std	Z+13, r1	; 0x0d
    25bc:	14 86       	std	Z+12, r1	; 0x0c
    25be:	22 e1       	ldi	r18, 0x12	; 18
    25c0:	30 e0       	ldi	r19, 0x00	; 0
    25c2:	37 87       	std	Z+15, r19	; 0x0f
    25c4:	26 87       	std	Z+14, r18	; 0x0e
    25c6:	91 8b       	std	Z+17, r25	; 0x11
    25c8:	80 8b       	std	Z+16, r24	; 0x10
    25ca:	33 8b       	std	Z+19, r19	; 0x13
    25cc:	22 8b       	std	Z+18, r18	; 0x12
    25ce:	15 8a       	std	Z+21, r1	; 0x15
    25d0:	14 8a       	std	Z+20, r1	; 0x14
    25d2:	2c e1       	ldi	r18, 0x1C	; 28
    25d4:	30 e0       	ldi	r19, 0x00	; 0
    25d6:	37 8b       	std	Z+23, r19	; 0x17
    25d8:	26 8b       	std	Z+22, r18	; 0x16
    25da:	91 8f       	std	Z+25, r25	; 0x19
    25dc:	80 8f       	std	Z+24, r24	; 0x18
    25de:	33 8f       	std	Z+27, r19	; 0x1b
    25e0:	22 8f       	std	Z+26, r18	; 0x1a
    25e2:	15 8e       	std	Z+29, r1	; 0x1d
    25e4:	14 8e       	std	Z+28, r1	; 0x1c
    25e6:	24 e2       	ldi	r18, 0x24	; 36
    25e8:	30 e0       	ldi	r19, 0x00	; 0
    25ea:	37 8f       	std	Z+31, r19	; 0x1f
    25ec:	26 8f       	std	Z+30, r18	; 0x1e
    25ee:	11 a2       	std	Z+33, r1	; 0x21
    25f0:	10 a2       	std	Z+32, r1	; 0x20
    25f2:	2e e2       	ldi	r18, 0x2E	; 46
    25f4:	30 e0       	ldi	r19, 0x00	; 0
    25f6:	33 a3       	std	Z+35, r19	; 0x23
    25f8:	22 a3       	std	Z+34, r18	; 0x22
    25fa:	95 a3       	std	Z+37, r25	; 0x25
    25fc:	84 a3       	std	Z+36, r24	; 0x24
    25fe:	37 a3       	std	Z+39, r19	; 0x27
    2600:	26 a3       	std	Z+38, r18	; 0x26
    2602:	11 a6       	std	Z+41, r1	; 0x29
    2604:	10 a6       	std	Z+40, r1	; 0x28
    2606:	86 e3       	ldi	r24, 0x36	; 54
    2608:	90 e0       	ldi	r25, 0x00	; 0
    260a:	93 a7       	std	Z+43, r25	; 0x2b
    260c:	82 a7       	std	Z+42, r24	; 0x2a
    260e:	08 95       	ret

00002610 <_ZN7Display5beginEv>:
    2610:	21 e0       	ldi	r18, 0x01	; 1
    2612:	4c e3       	ldi	r20, 0x3C	; 60
    2614:	62 e0       	ldi	r22, 0x02	; 2
    2616:	8a e4       	ldi	r24, 0x4A	; 74
    2618:	9c e0       	ldi	r25, 0x0C	; 12
    261a:	0e db       	rcall	.-2532   	; 0x1c38 <_ZN16Adafruit_SSD13065beginEhhb>
    261c:	8a e4       	ldi	r24, 0x4A	; 74
    261e:	9c e0       	ldi	r25, 0x0C	; 12
    2620:	26 dc       	rcall	.-1972   	; 0x1e6e <_ZN16Adafruit_SSD13067displayEv>
    2622:	68 ee       	ldi	r22, 0xE8	; 232
    2624:	73 e0       	ldi	r23, 0x03	; 3
    2626:	80 e0       	ldi	r24, 0x00	; 0
    2628:	90 e0       	ldi	r25, 0x00	; 0
    262a:	0e 94 c8 33 	call	0x6790	; 0x6790 <delay>
    262e:	8a e4       	ldi	r24, 0x4A	; 74
    2630:	9c e0       	ldi	r25, 0x0C	; 12
    2632:	89 ca       	rjmp	.-2798   	; 0x1b46 <_ZN16Adafruit_SSD130612clearDisplayEv>

00002634 <_ZN7Display7refreshEiiiiddd6String>:
}

void Display::refresh(int L1_speed,int L2_speed,int R1_speed,int R2_speed,double pos_x,double pos_y,double pos_p,String state)
{
    2634:	2f 92       	push	r2
    2636:	3f 92       	push	r3
    2638:	4f 92       	push	r4
    263a:	5f 92       	push	r5
    263c:	6f 92       	push	r6
    263e:	7f 92       	push	r7
    2640:	8f 92       	push	r8
    2642:	9f 92       	push	r9
    2644:	af 92       	push	r10
    2646:	bf 92       	push	r11
    2648:	cf 92       	push	r12
    264a:	df 92       	push	r13
    264c:	ef 92       	push	r14
    264e:	ff 92       	push	r15
    2650:	0f 93       	push	r16
    2652:	1f 93       	push	r17
    2654:	cf 93       	push	r28
    2656:	df 93       	push	r29
    2658:	cd b7       	in	r28, 0x3d	; 61
    265a:	de b7       	in	r29, 0x3e	; 62
    265c:	28 97       	sbiw	r28, 0x08	; 8
    265e:	0f b6       	in	r0, 0x3f	; 63
    2660:	f8 94       	cli
    2662:	de bf       	out	0x3e, r29	; 62
    2664:	0f be       	out	0x3f, r0	; 63
    2666:	cd bf       	out	0x3d, r28	; 61
    2668:	3c 01       	movw	r6, r24
    266a:	7a 83       	std	Y+2, r23	; 0x02
    266c:	69 83       	std	Y+1, r22	; 0x01
    266e:	2a 01       	movw	r4, r20
    2670:	19 01       	movw	r2, r18
    2672:	8e 8d       	ldd	r24, Y+30	; 0x1e
    2674:	9f 8d       	ldd	r25, Y+31	; 0x1f
    2676:	a8 a1       	ldd	r26, Y+32	; 0x20
    2678:	b9 a1       	ldd	r27, Y+33	; 0x21
    267a:	8b 83       	std	Y+3, r24	; 0x03
    267c:	9c 83       	std	Y+4, r25	; 0x04
    267e:	ad 83       	std	Y+5, r26	; 0x05
    2680:	be 83       	std	Y+6, r27	; 0x06
    2682:	aa a1       	ldd	r26, Y+34	; 0x22
    2684:	bb a1       	ldd	r27, Y+35	; 0x23
    2686:	b8 87       	std	Y+8, r27	; 0x08
    2688:	af 83       	std	Y+7, r26	; 0x07
	display.setTextSize(1);
    268a:	61 e0       	ldi	r22, 0x01	; 1
    268c:	8a e4       	ldi	r24, 0x4A	; 74
    268e:	9c e0       	ldi	r25, 0x0C	; 12
    2690:	0e 94 0c 0a 	call	0x1418	; 0x1418 <_ZN12Adafruit_GFX11setTextSizeEh>
	display.setTextColor(WHITE);
    2694:	61 e0       	ldi	r22, 0x01	; 1
    2696:	70 e0       	ldi	r23, 0x00	; 0
    2698:	8a e4       	ldi	r24, 0x4A	; 74
    269a:	9c e0       	ldi	r25, 0x0C	; 12
    269c:	0e 94 12 0a 	call	0x1424	; 0x1424 <_ZN12Adafruit_GFX12setTextColorEj>
	display.setCursor(0,0);
    26a0:	40 e0       	ldi	r20, 0x00	; 0
    26a2:	50 e0       	ldi	r21, 0x00	; 0
    26a4:	60 e0       	ldi	r22, 0x00	; 0
    26a6:	70 e0       	ldi	r23, 0x00	; 0
    26a8:	8a e4       	ldi	r24, 0x4A	; 74
    26aa:	9c e0       	ldi	r25, 0x0C	; 12
    26ac:	0e 94 06 0a 	call	0x140c	; 0x140c <_ZN12Adafruit_GFX9setCursorEii>
	display.clearDisplay();
    26b0:	8a e4       	ldi	r24, 0x4A	; 74
    26b2:	9c e0       	ldi	r25, 0x0C	; 12
    26b4:	48 da       	rcall	.-2928   	; 0x1b46 <_ZN16Adafruit_SSD130612clearDisplayEv>
	//
	display.print("Time:");
    26b6:	63 e3       	ldi	r22, 0x33	; 51
    26b8:	77 e0       	ldi	r23, 0x07	; 7
    26ba:	8a e4       	ldi	r24, 0x4A	; 74
    26bc:	9c e0       	ldi	r25, 0x0C	; 12
    26be:	0e 94 98 2f 	call	0x5f30	; 0x5f30 <_ZN5Print5printEPKc>
	display.print(millis());
    26c2:	0e 94 97 33 	call	0x672e	; 0x672e <millis>
    26c6:	ab 01       	movw	r20, r22
    26c8:	bc 01       	movw	r22, r24
    26ca:	2a e0       	ldi	r18, 0x0A	; 10
    26cc:	30 e0       	ldi	r19, 0x00	; 0
    26ce:	8a e4       	ldi	r24, 0x4A	; 74
    26d0:	9c e0       	ldi	r25, 0x0C	; 12
    26d2:	0e 94 77 30 	call	0x60ee	; 0x60ee <_ZN5Print5printEmi>
	
	//PWM
	display.setCursor(PWML1_x,PWML1_y);
    26d6:	f3 01       	movw	r30, r6
    26d8:	46 81       	ldd	r20, Z+6	; 0x06
    26da:	57 81       	ldd	r21, Z+7	; 0x07
    26dc:	64 81       	ldd	r22, Z+4	; 0x04
    26de:	75 81       	ldd	r23, Z+5	; 0x05
    26e0:	8a e4       	ldi	r24, 0x4A	; 74
    26e2:	9c e0       	ldi	r25, 0x0C	; 12
    26e4:	0e 94 06 0a 	call	0x140c	; 0x140c <_ZN12Adafruit_GFX9setCursorEii>
	display.print("L1:");
    26e8:	69 e3       	ldi	r22, 0x39	; 57
    26ea:	77 e0       	ldi	r23, 0x07	; 7
    26ec:	8a e4       	ldi	r24, 0x4A	; 74
    26ee:	9c e0       	ldi	r25, 0x0C	; 12
    26f0:	0e 94 98 2f 	call	0x5f30	; 0x5f30 <_ZN5Print5printEPKc>
	display.print(L1_speed);
    26f4:	4a e0       	ldi	r20, 0x0A	; 10
    26f6:	50 e0       	ldi	r21, 0x00	; 0
    26f8:	69 81       	ldd	r22, Y+1	; 0x01
    26fa:	7a 81       	ldd	r23, Y+2	; 0x02
    26fc:	8a e4       	ldi	r24, 0x4A	; 74
    26fe:	9c e0       	ldi	r25, 0x0C	; 12
    2700:	0e 94 5c 30 	call	0x60b8	; 0x60b8 <_ZN5Print5printEii>
	display.setCursor(PWMR1_x,PWMR1_y);
    2704:	d3 01       	movw	r26, r6
    2706:	1a 96       	adiw	r26, 0x0a	; 10
    2708:	4d 91       	ld	r20, X+
    270a:	5c 91       	ld	r21, X
    270c:	1b 97       	sbiw	r26, 0x0b	; 11
    270e:	18 96       	adiw	r26, 0x08	; 8
    2710:	6d 91       	ld	r22, X+
    2712:	7c 91       	ld	r23, X
    2714:	19 97       	sbiw	r26, 0x09	; 9
    2716:	8a e4       	ldi	r24, 0x4A	; 74
    2718:	9c e0       	ldi	r25, 0x0C	; 12
    271a:	0e 94 06 0a 	call	0x140c	; 0x140c <_ZN12Adafruit_GFX9setCursorEii>
	display.print("R1:");
    271e:	6d e3       	ldi	r22, 0x3D	; 61
    2720:	77 e0       	ldi	r23, 0x07	; 7
    2722:	8a e4       	ldi	r24, 0x4A	; 74
    2724:	9c e0       	ldi	r25, 0x0C	; 12
    2726:	0e 94 98 2f 	call	0x5f30	; 0x5f30 <_ZN5Print5printEPKc>
	display.print(R1_speed);
    272a:	4a e0       	ldi	r20, 0x0A	; 10
    272c:	50 e0       	ldi	r21, 0x00	; 0
    272e:	b1 01       	movw	r22, r2
    2730:	8a e4       	ldi	r24, 0x4A	; 74
    2732:	9c e0       	ldi	r25, 0x0C	; 12
    2734:	0e 94 5c 30 	call	0x60b8	; 0x60b8 <_ZN5Print5printEii>
	
	display.setCursor(PWML2_x,PWML2_y);
    2738:	f3 01       	movw	r30, r6
    273a:	46 85       	ldd	r20, Z+14	; 0x0e
    273c:	57 85       	ldd	r21, Z+15	; 0x0f
    273e:	64 85       	ldd	r22, Z+12	; 0x0c
    2740:	75 85       	ldd	r23, Z+13	; 0x0d
    2742:	8a e4       	ldi	r24, 0x4A	; 74
    2744:	9c e0       	ldi	r25, 0x0C	; 12
    2746:	0e 94 06 0a 	call	0x140c	; 0x140c <_ZN12Adafruit_GFX9setCursorEii>
	display.print("L2:");
    274a:	61 e4       	ldi	r22, 0x41	; 65
    274c:	77 e0       	ldi	r23, 0x07	; 7
    274e:	8a e4       	ldi	r24, 0x4A	; 74
    2750:	9c e0       	ldi	r25, 0x0C	; 12
    2752:	0e 94 98 2f 	call	0x5f30	; 0x5f30 <_ZN5Print5printEPKc>
	display.print(L2_speed);
    2756:	4a e0       	ldi	r20, 0x0A	; 10
    2758:	50 e0       	ldi	r21, 0x00	; 0
    275a:	b2 01       	movw	r22, r4
    275c:	8a e4       	ldi	r24, 0x4A	; 74
    275e:	9c e0       	ldi	r25, 0x0C	; 12
    2760:	0e 94 5c 30 	call	0x60b8	; 0x60b8 <_ZN5Print5printEii>
	display.setCursor(PWMR2_x,PWMR2_y);
    2764:	d3 01       	movw	r26, r6
    2766:	52 96       	adiw	r26, 0x12	; 18
    2768:	4d 91       	ld	r20, X+
    276a:	5c 91       	ld	r21, X
    276c:	53 97       	sbiw	r26, 0x13	; 19
    276e:	50 96       	adiw	r26, 0x10	; 16
    2770:	6d 91       	ld	r22, X+
    2772:	7c 91       	ld	r23, X
    2774:	51 97       	sbiw	r26, 0x11	; 17
    2776:	8a e4       	ldi	r24, 0x4A	; 74
    2778:	9c e0       	ldi	r25, 0x0C	; 12
    277a:	0e 94 06 0a 	call	0x140c	; 0x140c <_ZN12Adafruit_GFX9setCursorEii>
	display.print("R2:");
    277e:	65 e4       	ldi	r22, 0x45	; 69
    2780:	77 e0       	ldi	r23, 0x07	; 7
    2782:	8a e4       	ldi	r24, 0x4A	; 74
    2784:	9c e0       	ldi	r25, 0x0C	; 12
    2786:	0e 94 98 2f 	call	0x5f30	; 0x5f30 <_ZN5Print5printEPKc>
	display.print(R2_speed);
    278a:	4a e0       	ldi	r20, 0x0A	; 10
    278c:	50 e0       	ldi	r21, 0x00	; 0
    278e:	b8 01       	movw	r22, r16
    2790:	8a e4       	ldi	r24, 0x4A	; 74
    2792:	9c e0       	ldi	r25, 0x0C	; 12
    2794:	0e 94 5c 30 	call	0x60b8	; 0x60b8 <_ZN5Print5printEii>
	
	//
	display.setCursor(X_encode_x,X_encode_y);
    2798:	f3 01       	movw	r30, r6
    279a:	46 89       	ldd	r20, Z+22	; 0x16
    279c:	57 89       	ldd	r21, Z+23	; 0x17
    279e:	64 89       	ldd	r22, Z+20	; 0x14
    27a0:	75 89       	ldd	r23, Z+21	; 0x15
    27a2:	8a e4       	ldi	r24, 0x4A	; 74
    27a4:	9c e0       	ldi	r25, 0x0C	; 12
    27a6:	0e 94 06 0a 	call	0x140c	; 0x140c <_ZN12Adafruit_GFX9setCursorEii>
	display.print("X_mm:");
    27aa:	69 e4       	ldi	r22, 0x49	; 73
    27ac:	77 e0       	ldi	r23, 0x07	; 7
    27ae:	8a e4       	ldi	r24, 0x4A	; 74
    27b0:	9c e0       	ldi	r25, 0x0C	; 12
    27b2:	0e 94 98 2f 	call	0x5f30	; 0x5f30 <_ZN5Print5printEPKc>
	display.print(pos_x);
    27b6:	22 e0       	ldi	r18, 0x02	; 2
    27b8:	30 e0       	ldi	r19, 0x00	; 0
    27ba:	b7 01       	movw	r22, r14
    27bc:	a6 01       	movw	r20, r12
    27be:	8a e4       	ldi	r24, 0x4A	; 74
    27c0:	9c e0       	ldi	r25, 0x0C	; 12
    27c2:	0e 94 70 31 	call	0x62e0	; 0x62e0 <_ZN5Print5printEdi>
	display.setCursor(Y_encode_x,Y_encode_y);
    27c6:	d3 01       	movw	r26, r6
    27c8:	5a 96       	adiw	r26, 0x1a	; 26
    27ca:	4d 91       	ld	r20, X+
    27cc:	5c 91       	ld	r21, X
    27ce:	5b 97       	sbiw	r26, 0x1b	; 27
    27d0:	58 96       	adiw	r26, 0x18	; 24
    27d2:	6d 91       	ld	r22, X+
    27d4:	7c 91       	ld	r23, X
    27d6:	59 97       	sbiw	r26, 0x19	; 25
    27d8:	8a e4       	ldi	r24, 0x4A	; 74
    27da:	9c e0       	ldi	r25, 0x0C	; 12
    27dc:	0e 94 06 0a 	call	0x140c	; 0x140c <_ZN12Adafruit_GFX9setCursorEii>
	display.print("Y_mm:");
    27e0:	6f e4       	ldi	r22, 0x4F	; 79
    27e2:	77 e0       	ldi	r23, 0x07	; 7
    27e4:	8a e4       	ldi	r24, 0x4A	; 74
    27e6:	9c e0       	ldi	r25, 0x0C	; 12
    27e8:	0e 94 98 2f 	call	0x5f30	; 0x5f30 <_ZN5Print5printEPKc>
	display.print(pos_y);
    27ec:	22 e0       	ldi	r18, 0x02	; 2
    27ee:	30 e0       	ldi	r19, 0x00	; 0
    27f0:	b5 01       	movw	r22, r10
    27f2:	a4 01       	movw	r20, r8
    27f4:	8a e4       	ldi	r24, 0x4A	; 74
    27f6:	9c e0       	ldi	r25, 0x0C	; 12
    27f8:	0e 94 70 31 	call	0x62e0	; 0x62e0 <_ZN5Print5printEdi>
	display.setCursor(P_encode_x,P_encode_y);
    27fc:	f3 01       	movw	r30, r6
    27fe:	46 8d       	ldd	r20, Z+30	; 0x1e
    2800:	57 8d       	ldd	r21, Z+31	; 0x1f
    2802:	64 8d       	ldd	r22, Z+28	; 0x1c
    2804:	75 8d       	ldd	r23, Z+29	; 0x1d
    2806:	8a e4       	ldi	r24, 0x4A	; 74
    2808:	9c e0       	ldi	r25, 0x0C	; 12
    280a:	0e 94 06 0a 	call	0x140c	; 0x140c <_ZN12Adafruit_GFX9setCursorEii>
	display.print("P_mm:");
    280e:	65 e5       	ldi	r22, 0x55	; 85
    2810:	77 e0       	ldi	r23, 0x07	; 7
    2812:	8a e4       	ldi	r24, 0x4A	; 74
    2814:	9c e0       	ldi	r25, 0x0C	; 12
    2816:	0e 94 98 2f 	call	0x5f30	; 0x5f30 <_ZN5Print5printEPKc>
	display.print(pos_p);
    281a:	22 e0       	ldi	r18, 0x02	; 2
    281c:	30 e0       	ldi	r19, 0x00	; 0
    281e:	4b 81       	ldd	r20, Y+3	; 0x03
    2820:	5c 81       	ldd	r21, Y+4	; 0x04
    2822:	6d 81       	ldd	r22, Y+5	; 0x05
    2824:	7e 81       	ldd	r23, Y+6	; 0x06
    2826:	8a e4       	ldi	r24, 0x4A	; 74
    2828:	9c e0       	ldi	r25, 0x0C	; 12
    282a:	0e 94 70 31 	call	0x62e0	; 0x62e0 <_ZN5Print5printEdi>
	
	//
	display.setCursor(X_real_x,X_encode_y);
    282e:	d3 01       	movw	r26, r6
    2830:	56 96       	adiw	r26, 0x16	; 22
    2832:	4d 91       	ld	r20, X+
    2834:	5c 91       	ld	r21, X
    2836:	57 97       	sbiw	r26, 0x17	; 23
    2838:	90 96       	adiw	r26, 0x20	; 32
    283a:	6d 91       	ld	r22, X+
    283c:	7c 91       	ld	r23, X
    283e:	91 97       	sbiw	r26, 0x21	; 33
    2840:	8a e4       	ldi	r24, 0x4A	; 74
    2842:	9c e0       	ldi	r25, 0x0C	; 12
    2844:	0e 94 06 0a 	call	0x140c	; 0x140c <_ZN12Adafruit_GFX9setCursorEii>
	display.print("PS2:");
    2848:	6b e5       	ldi	r22, 0x5B	; 91
    284a:	77 e0       	ldi	r23, 0x07	; 7
    284c:	8a e4       	ldi	r24, 0x4A	; 74
    284e:	9c e0       	ldi	r25, 0x0C	; 12
    2850:	0e 94 98 2f 	call	0x5f30	; 0x5f30 <_ZN5Print5printEPKc>
	display.print(state);
    2854:	6f 81       	ldd	r22, Y+7	; 0x07
    2856:	78 85       	ldd	r23, Y+8	; 0x08
    2858:	8a e4       	ldi	r24, 0x4A	; 74
    285a:	9c e0       	ldi	r25, 0x0C	; 12
    285c:	0e 94 8a 2f 	call	0x5f14	; 0x5f14 <_ZN5Print5printERK6String>
	
	display.display();
    2860:	8a e4       	ldi	r24, 0x4A	; 74
    2862:	9c e0       	ldi	r25, 0x0C	; 12
}
    2864:	28 96       	adiw	r28, 0x08	; 8
    2866:	0f b6       	in	r0, 0x3f	; 63
    2868:	f8 94       	cli
    286a:	de bf       	out	0x3e, r29	; 62
    286c:	0f be       	out	0x3f, r0	; 63
    286e:	cd bf       	out	0x3d, r28	; 61
    2870:	df 91       	pop	r29
    2872:	cf 91       	pop	r28
    2874:	1f 91       	pop	r17
    2876:	0f 91       	pop	r16
    2878:	ff 90       	pop	r15
    287a:	ef 90       	pop	r14
    287c:	df 90       	pop	r13
    287e:	cf 90       	pop	r12
    2880:	bf 90       	pop	r11
    2882:	af 90       	pop	r10
    2884:	9f 90       	pop	r9
    2886:	8f 90       	pop	r8
    2888:	7f 90       	pop	r7
    288a:	6f 90       	pop	r6
    288c:	5f 90       	pop	r5
    288e:	4f 90       	pop	r4
    2890:	3f 90       	pop	r3
    2892:	2f 90       	pop	r2
	//
	display.setCursor(X_real_x,X_encode_y);
	display.print("PS2:");
	display.print(state);
	
	display.display();
    2894:	ec ca       	rjmp	.-2600   	; 0x1e6e <_ZN16Adafruit_SSD13067displayEv>

00002896 <_GLOBAL__sub_I_display>:

#include "Display.h"
#include <Wire.h>
#include "Adafruit_SSD1306.h"
#define OLED_RESET 4
Adafruit_SSD1306 display(OLED_RESET);
    2896:	64 e0       	ldi	r22, 0x04	; 4
    2898:	8a e4       	ldi	r24, 0x4A	; 74
    289a:	9c e0       	ldi	r25, 0x0C	; 12
    289c:	3c c9       	rjmp	.-3464   	; 0x1b16 <_ZN16Adafruit_SSD1306C1Ea>

0000289e <_ZN10KinematicsC1Eiffi>:
	//convert revolutions per minute to revolutions per second
	double average_rps_a = average_rpm_a / 60;
	vel.angular_z =  (average_rps_a * (wheel_diameter_ * PI)) / base_width_;

	return vel;
}
    289e:	4f 92       	push	r4
    28a0:	5f 92       	push	r5
    28a2:	6f 92       	push	r6
    28a4:	7f 92       	push	r7
    28a6:	af 92       	push	r10
    28a8:	bf 92       	push	r11
    28aa:	cf 92       	push	r12
    28ac:	df 92       	push	r13
    28ae:	ef 92       	push	r14
    28b0:	ff 92       	push	r15
    28b2:	0f 93       	push	r16
    28b4:	1f 93       	push	r17
    28b6:	cf 93       	push	r28
    28b8:	df 93       	push	r29
    28ba:	ec 01       	movw	r28, r24
    28bc:	5b 01       	movw	r10, r22
    28be:	ca 01       	movw	r24, r20
    28c0:	b9 01       	movw	r22, r18
    28c2:	2a a3       	std	Y+34, r18	; 0x22
    28c4:	3b a3       	std	Y+35, r19	; 0x23
    28c6:	4c a3       	std	Y+36, r20	; 0x24
    28c8:	5d a3       	std	Y+37, r21	; 0x25
    28ca:	2b ed       	ldi	r18, 0xDB	; 219
    28cc:	3f e0       	ldi	r19, 0x0F	; 15
    28ce:	49 e4       	ldi	r20, 0x49	; 73
    28d0:	50 e4       	ldi	r21, 0x40	; 64
    28d2:	0e 94 bb 2a 	call	0x5576	; 0x5576 <__mulsf3>
    28d6:	6c 87       	std	Y+12, r22	; 0x0c
    28d8:	7d 87       	std	Y+13, r23	; 0x0d
    28da:	8e 87       	std	Y+14, r24	; 0x0e
    28dc:	9f 87       	std	Y+15, r25	; 0x0f
    28de:	b9 a2       	std	Y+33, r11	; 0x21
    28e0:	a8 a2       	std	Y+32, r10	; 0x20
    28e2:	ee a2       	std	Y+38, r14	; 0x26
    28e4:	ff a2       	std	Y+39, r15	; 0x27
    28e6:	08 a7       	std	Y+40, r16	; 0x28
    28e8:	19 a7       	std	Y+41, r17	; 0x29
    28ea:	b6 01       	movw	r22, r12
    28ec:	dd 0c       	add	r13, r13
    28ee:	88 0b       	sbc	r24, r24
    28f0:	99 0b       	sbc	r25, r25
    28f2:	0e 94 46 29 	call	0x528c	; 0x528c <__floatsisf>
    28f6:	9b 01       	movw	r18, r22
    28f8:	ac 01       	movw	r20, r24
    28fa:	60 e0       	ldi	r22, 0x00	; 0
    28fc:	70 e0       	ldi	r23, 0x00	; 0
    28fe:	80 e0       	ldi	r24, 0x00	; 0
    2900:	90 e4       	ldi	r25, 0x40	; 64
    2902:	0e 94 1e 2b 	call	0x563c	; 0x563c <pow>
    2906:	20 e0       	ldi	r18, 0x00	; 0
    2908:	30 e0       	ldi	r19, 0x00	; 0
    290a:	40 e8       	ldi	r20, 0x80	; 128
    290c:	5f e3       	ldi	r21, 0x3F	; 63
    290e:	0e 94 dd 27 	call	0x4fba	; 0x4fba <__subsf3>
    2912:	6a a7       	std	Y+42, r22	; 0x2a
    2914:	7b a7       	std	Y+43, r23	; 0x2b
    2916:	8c a7       	std	Y+44, r24	; 0x2c
    2918:	9d a7       	std	Y+45, r25	; 0x2d
    291a:	df 91       	pop	r29
    291c:	cf 91       	pop	r28
    291e:	1f 91       	pop	r17
    2920:	0f 91       	pop	r16
    2922:	ff 90       	pop	r15
    2924:	ef 90       	pop	r14
    2926:	df 90       	pop	r13
    2928:	cf 90       	pop	r12
    292a:	bf 90       	pop	r11
    292c:	af 90       	pop	r10
    292e:	7f 90       	pop	r7
    2930:	6f 90       	pop	r6
    2932:	5f 90       	pop	r5
    2934:	4f 90       	pop	r4
    2936:	08 95       	ret

00002938 <_ZN10Kinematics6getRPMEfff>:
    2938:	2f 92       	push	r2
    293a:	3f 92       	push	r3
    293c:	4f 92       	push	r4
    293e:	5f 92       	push	r5
    2940:	6f 92       	push	r6
    2942:	7f 92       	push	r7
    2944:	8f 92       	push	r8
    2946:	9f 92       	push	r9
    2948:	af 92       	push	r10
    294a:	bf 92       	push	r11
    294c:	cf 92       	push	r12
    294e:	df 92       	push	r13
    2950:	ef 92       	push	r14
    2952:	ff 92       	push	r15
    2954:	0f 93       	push	r16
    2956:	1f 93       	push	r17
    2958:	cf 93       	push	r28
    295a:	df 93       	push	r29
    295c:	cd b7       	in	r28, 0x3d	; 61
    295e:	de b7       	in	r29, 0x3e	; 62
    2960:	60 97       	sbiw	r28, 0x10	; 16
    2962:	0f b6       	in	r0, 0x3f	; 63
    2964:	f8 94       	cli
    2966:	de bf       	out	0x3e, r29	; 62
    2968:	0f be       	out	0x3f, r0	; 63
    296a:	cd bf       	out	0x3d, r28	; 61
    296c:	1c 01       	movw	r2, r24
    296e:	cb 01       	movw	r24, r22
    2970:	ba 01       	movw	r22, r20
    2972:	48 01       	movw	r8, r16
    2974:	59 01       	movw	r10, r18
    2976:	20 e0       	ldi	r18, 0x00	; 0
    2978:	30 e0       	ldi	r19, 0x00	; 0
    297a:	40 e7       	ldi	r20, 0x70	; 112
    297c:	52 e4       	ldi	r21, 0x42	; 66
    297e:	0e 94 bb 2a 	call	0x5576	; 0x5576 <__mulsf3>
    2982:	69 87       	std	Y+9, r22	; 0x09
    2984:	7a 87       	std	Y+10, r23	; 0x0a
    2986:	8b 87       	std	Y+11, r24	; 0x0b
    2988:	9c 87       	std	Y+12, r25	; 0x0c
    298a:	d1 01       	movw	r26, r2
    298c:	6d 93       	st	X+, r22
    298e:	7d 93       	st	X+, r23
    2990:	8d 93       	st	X+, r24
    2992:	9c 93       	st	X, r25
    2994:	13 97       	sbiw	r26, 0x03	; 3
    2996:	20 e0       	ldi	r18, 0x00	; 0
    2998:	30 e0       	ldi	r19, 0x00	; 0
    299a:	40 e7       	ldi	r20, 0x70	; 112
    299c:	52 e4       	ldi	r21, 0x42	; 66
    299e:	c5 01       	movw	r24, r10
    29a0:	b4 01       	movw	r22, r8
    29a2:	0e 94 bb 2a 	call	0x5576	; 0x5576 <__mulsf3>
    29a6:	2b 01       	movw	r4, r22
    29a8:	3c 01       	movw	r6, r24
    29aa:	f1 01       	movw	r30, r2
    29ac:	64 83       	std	Z+4, r22	; 0x04
    29ae:	75 83       	std	Z+5, r23	; 0x05
    29b0:	86 83       	std	Z+6, r24	; 0x06
    29b2:	97 83       	std	Z+7, r25	; 0x07
    29b4:	20 e0       	ldi	r18, 0x00	; 0
    29b6:	30 e0       	ldi	r19, 0x00	; 0
    29b8:	40 e7       	ldi	r20, 0x70	; 112
    29ba:	52 e4       	ldi	r21, 0x42	; 66
    29bc:	c7 01       	movw	r24, r14
    29be:	b6 01       	movw	r22, r12
    29c0:	0e 94 bb 2a 	call	0x5576	; 0x5576 <__mulsf3>
    29c4:	d1 01       	movw	r26, r2
    29c6:	18 96       	adiw	r26, 0x08	; 8
    29c8:	6d 93       	st	X+, r22
    29ca:	7d 93       	st	X+, r23
    29cc:	8d 93       	st	X+, r24
    29ce:	9c 93       	st	X, r25
    29d0:	1b 97       	sbiw	r26, 0x0b	; 11
    29d2:	96 96       	adiw	r26, 0x26	; 38
    29d4:	2d 91       	ld	r18, X+
    29d6:	3d 91       	ld	r19, X+
    29d8:	4d 91       	ld	r20, X+
    29da:	5c 91       	ld	r21, X
    29dc:	99 97       	sbiw	r26, 0x29	; 41
    29de:	0e 94 bb 2a 	call	0x5576	; 0x5576 <__mulsf3>
    29e2:	6d 87       	std	Y+13, r22	; 0x0d
    29e4:	7e 87       	std	Y+14, r23	; 0x0e
    29e6:	8f 87       	std	Y+15, r24	; 0x0f
    29e8:	98 8b       	std	Y+16, r25	; 0x10
    29ea:	f1 01       	movw	r30, r2
    29ec:	60 8b       	std	Z+16, r22	; 0x10
    29ee:	71 8b       	std	Z+17, r23	; 0x11
    29f0:	82 8b       	std	Z+18, r24	; 0x12
    29f2:	93 8b       	std	Z+19, r25	; 0x13
    29f4:	84 84       	ldd	r8, Z+12	; 0x0c
    29f6:	95 84       	ldd	r9, Z+13	; 0x0d
    29f8:	a6 84       	ldd	r10, Z+14	; 0x0e
    29fa:	b7 84       	ldd	r11, Z+15	; 0x0f
    29fc:	a5 01       	movw	r20, r10
    29fe:	94 01       	movw	r18, r8
    2a00:	69 85       	ldd	r22, Y+9	; 0x09
    2a02:	7a 85       	ldd	r23, Y+10	; 0x0a
    2a04:	8b 85       	ldd	r24, Y+11	; 0x0b
    2a06:	9c 85       	ldd	r25, Y+12	; 0x0c
    2a08:	0e 94 ab 28 	call	0x5156	; 0x5156 <__divsf3>
    2a0c:	6b 01       	movw	r12, r22
    2a0e:	7c 01       	movw	r14, r24
    2a10:	d1 01       	movw	r26, r2
    2a12:	54 96       	adiw	r26, 0x14	; 20
    2a14:	6d 93       	st	X+, r22
    2a16:	7d 93       	st	X+, r23
    2a18:	8d 93       	st	X+, r24
    2a1a:	9c 93       	st	X, r25
    2a1c:	57 97       	sbiw	r26, 0x17	; 23
    2a1e:	a5 01       	movw	r20, r10
    2a20:	94 01       	movw	r18, r8
    2a22:	c3 01       	movw	r24, r6
    2a24:	b2 01       	movw	r22, r4
    2a26:	0e 94 ab 28 	call	0x5156	; 0x5156 <__divsf3>
    2a2a:	2b 01       	movw	r4, r22
    2a2c:	3c 01       	movw	r6, r24
    2a2e:	f1 01       	movw	r30, r2
    2a30:	60 8f       	std	Z+24, r22	; 0x18
    2a32:	71 8f       	std	Z+25, r23	; 0x19
    2a34:	82 8f       	std	Z+26, r24	; 0x1a
    2a36:	93 8f       	std	Z+27, r25	; 0x1b
    2a38:	a5 01       	movw	r20, r10
    2a3a:	94 01       	movw	r18, r8
    2a3c:	6d 85       	ldd	r22, Y+13	; 0x0d
    2a3e:	7e 85       	ldd	r23, Y+14	; 0x0e
    2a40:	8f 85       	ldd	r24, Y+15	; 0x0f
    2a42:	98 89       	ldd	r25, Y+16	; 0x10
    2a44:	0e 94 ab 28 	call	0x5156	; 0x5156 <__divsf3>
    2a48:	4b 01       	movw	r8, r22
    2a4a:	5c 01       	movw	r10, r24
    2a4c:	d1 01       	movw	r26, r2
    2a4e:	5c 96       	adiw	r26, 0x1c	; 28
    2a50:	6d 93       	st	X+, r22
    2a52:	7d 93       	st	X+, r23
    2a54:	8d 93       	st	X+, r24
    2a56:	9c 93       	st	X, r25
    2a58:	5f 97       	sbiw	r26, 0x1f	; 31
    2a5a:	a3 01       	movw	r20, r6
    2a5c:	92 01       	movw	r18, r4
    2a5e:	c7 01       	movw	r24, r14
    2a60:	b6 01       	movw	r22, r12
    2a62:	0e 94 dd 27 	call	0x4fba	; 0x4fba <__subsf3>
    2a66:	69 87       	std	Y+9, r22	; 0x09
    2a68:	7a 87       	std	Y+10, r23	; 0x0a
    2a6a:	8b 87       	std	Y+11, r24	; 0x0b
    2a6c:	9c 87       	std	Y+12, r25	; 0x0c
    2a6e:	a3 01       	movw	r20, r6
    2a70:	92 01       	movw	r18, r4
    2a72:	c7 01       	movw	r24, r14
    2a74:	b6 01       	movw	r22, r12
    2a76:	0e 94 de 27 	call	0x4fbc	; 0x4fbc <__addsf3>
    2a7a:	6b 01       	movw	r12, r22
    2a7c:	7c 01       	movw	r14, r24
    2a7e:	a5 01       	movw	r20, r10
    2a80:	94 01       	movw	r18, r8
    2a82:	69 85       	ldd	r22, Y+9	; 0x09
    2a84:	7a 85       	ldd	r23, Y+10	; 0x0a
    2a86:	8b 85       	ldd	r24, Y+11	; 0x0b
    2a88:	9c 85       	ldd	r25, Y+12	; 0x0c
    2a8a:	0e 94 dd 27 	call	0x4fba	; 0x4fba <__subsf3>
    2a8e:	0e 94 13 29 	call	0x5226	; 0x5226 <__fixsfsi>
    2a92:	66 2e       	mov	r6, r22
    2a94:	7a 83       	std	Y+2, r23	; 0x02
    2a96:	69 83       	std	Y+1, r22	; 0x01
    2a98:	a5 01       	movw	r20, r10
    2a9a:	94 01       	movw	r18, r8
    2a9c:	c7 01       	movw	r24, r14
    2a9e:	b6 01       	movw	r22, r12
    2aa0:	0e 94 dd 27 	call	0x4fba	; 0x4fba <__subsf3>
    2aa4:	0e 94 13 29 	call	0x5226	; 0x5226 <__fixsfsi>
    2aa8:	76 2e       	mov	r7, r22
    2aaa:	7c 83       	std	Y+4, r23	; 0x04
    2aac:	6b 83       	std	Y+3, r22	; 0x03
    2aae:	a5 01       	movw	r20, r10
    2ab0:	94 01       	movw	r18, r8
    2ab2:	c7 01       	movw	r24, r14
    2ab4:	b6 01       	movw	r22, r12
    2ab6:	0e 94 de 27 	call	0x4fbc	; 0x4fbc <__addsf3>
    2aba:	0e 94 13 29 	call	0x5226	; 0x5226 <__fixsfsi>
    2abe:	f6 2e       	mov	r15, r22
    2ac0:	7e 83       	std	Y+6, r23	; 0x06
    2ac2:	6d 83       	std	Y+5, r22	; 0x05
    2ac4:	a5 01       	movw	r20, r10
    2ac6:	94 01       	movw	r18, r8
    2ac8:	69 85       	ldd	r22, Y+9	; 0x09
    2aca:	7a 85       	ldd	r23, Y+10	; 0x0a
    2acc:	8b 85       	ldd	r24, Y+11	; 0x0b
    2ace:	9c 85       	ldd	r25, Y+12	; 0x0c
    2ad0:	0e 94 de 27 	call	0x4fbc	; 0x4fbc <__addsf3>
    2ad4:	0e 94 13 29 	call	0x5226	; 0x5226 <__fixsfsi>
    2ad8:	86 2f       	mov	r24, r22
    2ada:	26 2f       	mov	r18, r22
    2adc:	37 2f       	mov	r19, r23
    2ade:	38 87       	std	Y+8, r19	; 0x08
    2ae0:	2f 83       	std	Y+7, r18	; 0x07
    2ae2:	26 2d       	mov	r18, r6
    2ae4:	3a 81       	ldd	r19, Y+2	; 0x02
    2ae6:	47 2d       	mov	r20, r7
    2ae8:	5c 81       	ldd	r21, Y+4	; 0x04
    2aea:	6f 2d       	mov	r22, r15
    2aec:	7e 81       	ldd	r23, Y+6	; 0x06
    2aee:	98 85       	ldd	r25, Y+8	; 0x08
    2af0:	60 96       	adiw	r28, 0x10	; 16
    2af2:	0f b6       	in	r0, 0x3f	; 63
    2af4:	f8 94       	cli
    2af6:	de bf       	out	0x3e, r29	; 62
    2af8:	0f be       	out	0x3f, r0	; 63
    2afa:	cd bf       	out	0x3d, r28	; 61
    2afc:	df 91       	pop	r29
    2afe:	cf 91       	pop	r28
    2b00:	1f 91       	pop	r17
    2b02:	0f 91       	pop	r16
    2b04:	ff 90       	pop	r15
    2b06:	ef 90       	pop	r14
    2b08:	df 90       	pop	r13
    2b0a:	cf 90       	pop	r12
    2b0c:	bf 90       	pop	r11
    2b0e:	af 90       	pop	r10
    2b10:	9f 90       	pop	r9
    2b12:	8f 90       	pop	r8
    2b14:	7f 90       	pop	r7
    2b16:	6f 90       	pop	r6
    2b18:	5f 90       	pop	r5
    2b1a:	4f 90       	pop	r4
    2b1c:	3f 90       	pop	r3
    2b1e:	2f 90       	pop	r2
    2b20:	08 95       	ret

00002b22 <_ZN10Kinematics8rpmToPWMEi>:

int Kinematics::rpmToPWM(int rpm)
{
    2b22:	cf 92       	push	r12
    2b24:	df 92       	push	r13
    2b26:	ef 92       	push	r14
    2b28:	ff 92       	push	r15
    2b2a:	cf 93       	push	r28
    2b2c:	df 93       	push	r29
    2b2e:	ec 01       	movw	r28, r24
	//remap scale of target RPM vs MAX_RPM to PWM
	return (((double) rpm / (double) max_rpm_) * pwm_res_);
    2b30:	07 2e       	mov	r0, r23
    2b32:	00 0c       	add	r0, r0
    2b34:	88 0b       	sbc	r24, r24
    2b36:	99 0b       	sbc	r25, r25
    2b38:	0e 94 46 29 	call	0x528c	; 0x528c <__floatsisf>
    2b3c:	6b 01       	movw	r12, r22
    2b3e:	7c 01       	movw	r14, r24
    2b40:	48 a1       	ldd	r20, Y+32	; 0x20
    2b42:	59 a1       	ldd	r21, Y+33	; 0x21
    2b44:	ba 01       	movw	r22, r20
    2b46:	55 0f       	add	r21, r21
    2b48:	88 0b       	sbc	r24, r24
    2b4a:	99 0b       	sbc	r25, r25
    2b4c:	0e 94 46 29 	call	0x528c	; 0x528c <__floatsisf>
    2b50:	9b 01       	movw	r18, r22
    2b52:	ac 01       	movw	r20, r24
    2b54:	c7 01       	movw	r24, r14
    2b56:	b6 01       	movw	r22, r12
    2b58:	0e 94 ab 28 	call	0x5156	; 0x5156 <__divsf3>
    2b5c:	2a a5       	ldd	r18, Y+42	; 0x2a
    2b5e:	3b a5       	ldd	r19, Y+43	; 0x2b
    2b60:	4c a5       	ldd	r20, Y+44	; 0x2c
    2b62:	5d a5       	ldd	r21, Y+45	; 0x2d
    2b64:	0e 94 bb 2a 	call	0x5576	; 0x5576 <__mulsf3>
    2b68:	0e 94 13 29 	call	0x5226	; 0x5226 <__fixsfsi>
}
    2b6c:	cb 01       	movw	r24, r22
    2b6e:	df 91       	pop	r29
    2b70:	cf 91       	pop	r28
    2b72:	ff 90       	pop	r15
    2b74:	ef 90       	pop	r14
    2b76:	df 90       	pop	r13
    2b78:	cf 90       	pop	r12
    2b7a:	08 95       	ret

00002b7c <_ZN10Kinematics6getPWMEfff>:
	
	return rpm;
}

Kinematics::output Kinematics::getPWM(float linear_x, float linear_y, float angular_z)
{
    2b7c:	4f 92       	push	r4
    2b7e:	5f 92       	push	r5
    2b80:	6f 92       	push	r6
    2b82:	7f 92       	push	r7
    2b84:	8f 92       	push	r8
    2b86:	9f 92       	push	r9
    2b88:	af 92       	push	r10
    2b8a:	bf 92       	push	r11
    2b8c:	cf 92       	push	r12
    2b8e:	df 92       	push	r13
    2b90:	ef 92       	push	r14
    2b92:	ff 92       	push	r15
    2b94:	0f 93       	push	r16
    2b96:	1f 93       	push	r17
    2b98:	cf 93       	push	r28
    2b9a:	df 93       	push	r29
    2b9c:	cd b7       	in	r28, 0x3d	; 61
    2b9e:	de b7       	in	r29, 0x3e	; 62
    2ba0:	60 97       	sbiw	r28, 0x10	; 16
    2ba2:	0f b6       	in	r0, 0x3f	; 63
    2ba4:	f8 94       	cli
    2ba6:	de bf       	out	0x3e, r29	; 62
    2ba8:	0f be       	out	0x3f, r0	; 63
    2baa:	cd bf       	out	0x3d, r28	; 61
    2bac:	5c 01       	movw	r10, r24
	Kinematics::output rpm;
	Kinematics::output pwm;

	rpm = getRPM(linear_x, linear_y, angular_z);
    2bae:	c4 de       	rcall	.-632    	; 0x2938 <_ZN10Kinematics6getRPMEfff>
    2bb0:	29 87       	std	Y+9, r18	; 0x09
    2bb2:	3a 87       	std	Y+10, r19	; 0x0a
    2bb4:	4b 87       	std	Y+11, r20	; 0x0b
    2bb6:	5c 87       	std	Y+12, r21	; 0x0c
    2bb8:	6d 87       	std	Y+13, r22	; 0x0d
    2bba:	7e 87       	std	Y+14, r23	; 0x0e
    2bbc:	8f 87       	std	Y+15, r24	; 0x0f
    2bbe:	98 8b       	std	Y+16, r25	; 0x10

	//convert from RPM to PWM
	//front-left motor
	pwm.motor1 = rpmToPWM(rpm.motor1);
    2bc0:	69 85       	ldd	r22, Y+9	; 0x09
    2bc2:	7a 85       	ldd	r23, Y+10	; 0x0a
    2bc4:	c5 01       	movw	r24, r10
    2bc6:	ad df       	rcall	.-166    	; 0x2b22 <_ZN10Kinematics8rpmToPWMEi>
    2bc8:	4c 01       	movw	r8, r24
	//rear-left motor
	pwm.motor2 = rpmToPWM(rpm.motor2);
    2bca:	6b 85       	ldd	r22, Y+11	; 0x0b
    2bcc:	7c 85       	ldd	r23, Y+12	; 0x0c
    2bce:	c5 01       	movw	r24, r10
    2bd0:	a8 df       	rcall	.-176    	; 0x2b22 <_ZN10Kinematics8rpmToPWMEi>
    2bd2:	6c 01       	movw	r12, r24

	//front-right motor
	pwm.motor3 = rpmToPWM(rpm.motor3);
    2bd4:	6d 85       	ldd	r22, Y+13	; 0x0d
    2bd6:	7e 85       	ldd	r23, Y+14	; 0x0e
    2bd8:	c5 01       	movw	r24, r10
    2bda:	a3 df       	rcall	.-186    	; 0x2b22 <_ZN10Kinematics8rpmToPWMEi>
    2bdc:	8c 01       	movw	r16, r24
	//rear-right motor
	pwm.motor4 = rpmToPWM(rpm.motor4);
    2bde:	6f 85       	ldd	r22, Y+15	; 0x0f
    2be0:	78 89       	ldd	r23, Y+16	; 0x10
    2be2:	c5 01       	movw	r24, r10
    2be4:	9e df       	rcall	.-196    	; 0x2b22 <_ZN10Kinematics8rpmToPWMEi>
    2be6:	7c 01       	movw	r14, r24

	if (abs(pwm.motor1)>255||abs(pwm.motor2)>255||abs(pwm.motor3)>255||abs(pwm.motor4)>255)
    2be8:	b4 01       	movw	r22, r8
    2bea:	97 fe       	sbrs	r9, 7
    2bec:	04 c0       	rjmp	.+8      	; 0x2bf6 <_ZN10Kinematics6getPWMEfff+0x7a>
    2bee:	66 27       	eor	r22, r22
    2bf0:	77 27       	eor	r23, r23
    2bf2:	68 19       	sub	r22, r8
    2bf4:	79 09       	sbc	r23, r9
    2bf6:	6f 3f       	cpi	r22, 0xFF	; 255
    2bf8:	71 05       	cpc	r23, r1
    2bfa:	09 f0       	breq	.+2      	; 0x2bfe <_ZN10Kinematics6getPWMEfff+0x82>
    2bfc:	24 f5       	brge	.+72     	; 0x2c46 <_ZN10Kinematics6getPWMEfff+0xca>
    2bfe:	c6 01       	movw	r24, r12
    2c00:	d7 fe       	sbrs	r13, 7
    2c02:	04 c0       	rjmp	.+8      	; 0x2c0c <_ZN10Kinematics6getPWMEfff+0x90>
    2c04:	88 27       	eor	r24, r24
    2c06:	99 27       	eor	r25, r25
    2c08:	8c 19       	sub	r24, r12
    2c0a:	9d 09       	sbc	r25, r13
    2c0c:	8f 3f       	cpi	r24, 0xFF	; 255
    2c0e:	91 05       	cpc	r25, r1
    2c10:	09 f0       	breq	.+2      	; 0x2c14 <_ZN10Kinematics6getPWMEfff+0x98>
    2c12:	cc f4       	brge	.+50     	; 0x2c46 <_ZN10Kinematics6getPWMEfff+0xca>
    2c14:	c8 01       	movw	r24, r16
    2c16:	17 ff       	sbrs	r17, 7
    2c18:	04 c0       	rjmp	.+8      	; 0x2c22 <_ZN10Kinematics6getPWMEfff+0xa6>
    2c1a:	88 27       	eor	r24, r24
    2c1c:	99 27       	eor	r25, r25
    2c1e:	80 1b       	sub	r24, r16
    2c20:	91 0b       	sbc	r25, r17
    2c22:	8f 3f       	cpi	r24, 0xFF	; 255
    2c24:	91 05       	cpc	r25, r1
    2c26:	11 f0       	breq	.+4      	; 0x2c2c <_ZN10Kinematics6getPWMEfff+0xb0>
    2c28:	0c f0       	brlt	.+2      	; 0x2c2c <_ZN10Kinematics6getPWMEfff+0xb0>
    2c2a:	51 c0       	rjmp	.+162    	; 0x2cce <_ZN10Kinematics6getPWMEfff+0x152>
    2c2c:	c7 01       	movw	r24, r14
    2c2e:	f7 fe       	sbrs	r15, 7
    2c30:	04 c0       	rjmp	.+8      	; 0x2c3a <_ZN10Kinematics6getPWMEfff+0xbe>
    2c32:	88 27       	eor	r24, r24
    2c34:	99 27       	eor	r25, r25
    2c36:	8e 19       	sub	r24, r14
    2c38:	9f 09       	sbc	r25, r15
    2c3a:	8f 3f       	cpi	r24, 0xFF	; 255
    2c3c:	91 05       	cpc	r25, r1
    2c3e:	11 f0       	breq	.+4      	; 0x2c44 <_ZN10Kinematics6getPWMEfff+0xc8>
    2c40:	0c f0       	brlt	.+2      	; 0x2c44 <_ZN10Kinematics6getPWMEfff+0xc8>
    2c42:	45 c0       	rjmp	.+138    	; 0x2cce <_ZN10Kinematics6getPWMEfff+0x152>
    2c44:	9f c0       	rjmp	.+318    	; 0x2d84 <_ZN10Kinematics6getPWMEfff+0x208>
	{
		if (abs(pwm.motor1)>255||abs(pwm.motor2)>255)
		{
			float n = 255.0/abs(pwm.motor1); //
    2c46:	07 2e       	mov	r0, r23
    2c48:	00 0c       	add	r0, r0
    2c4a:	88 0b       	sbc	r24, r24
    2c4c:	99 0b       	sbc	r25, r25
    2c4e:	0e 94 46 29 	call	0x528c	; 0x528c <__floatsisf>
    2c52:	9b 01       	movw	r18, r22
    2c54:	ac 01       	movw	r20, r24
    2c56:	60 e0       	ldi	r22, 0x00	; 0
    2c58:	70 e0       	ldi	r23, 0x00	; 0
    2c5a:	8f e7       	ldi	r24, 0x7F	; 127
    2c5c:	93 e4       	ldi	r25, 0x43	; 67
    2c5e:	0e 94 ab 28 	call	0x5156	; 0x5156 <__divsf3>
    2c62:	2b 01       	movw	r4, r22
    2c64:	3c 01       	movw	r6, r24
			pwm.motor3 *= n;
    2c66:	b8 01       	movw	r22, r16
    2c68:	11 0f       	add	r17, r17
    2c6a:	88 0b       	sbc	r24, r24
    2c6c:	99 0b       	sbc	r25, r25
    2c6e:	0e 94 46 29 	call	0x528c	; 0x528c <__floatsisf>
    2c72:	a3 01       	movw	r20, r6
    2c74:	92 01       	movw	r18, r4
    2c76:	0e 94 bb 2a 	call	0x5576	; 0x5576 <__mulsf3>
    2c7a:	0e 94 13 29 	call	0x5226	; 0x5226 <__fixsfsi>
    2c7e:	8b 01       	movw	r16, r22
			pwm.motor4 *= n;
    2c80:	b7 01       	movw	r22, r14
    2c82:	ff 0c       	add	r15, r15
    2c84:	88 0b       	sbc	r24, r24
    2c86:	99 0b       	sbc	r25, r25
    2c88:	0e 94 46 29 	call	0x528c	; 0x528c <__floatsisf>
    2c8c:	a3 01       	movw	r20, r6
    2c8e:	92 01       	movw	r18, r4
    2c90:	0e 94 bb 2a 	call	0x5576	; 0x5576 <__mulsf3>
    2c94:	0e 94 13 29 	call	0x5226	; 0x5226 <__fixsfsi>
    2c98:	7b 01       	movw	r14, r22
			pwm.motor1 *= n;
    2c9a:	b4 01       	movw	r22, r8
    2c9c:	99 0c       	add	r9, r9
    2c9e:	88 0b       	sbc	r24, r24
    2ca0:	99 0b       	sbc	r25, r25
    2ca2:	0e 94 46 29 	call	0x528c	; 0x528c <__floatsisf>
    2ca6:	a3 01       	movw	r20, r6
    2ca8:	92 01       	movw	r18, r4
    2caa:	0e 94 bb 2a 	call	0x5576	; 0x5576 <__mulsf3>
    2cae:	0e 94 13 29 	call	0x5226	; 0x5226 <__fixsfsi>
    2cb2:	4b 01       	movw	r8, r22
			pwm.motor2 *= n;
    2cb4:	b6 01       	movw	r22, r12
    2cb6:	dd 0c       	add	r13, r13
    2cb8:	88 0b       	sbc	r24, r24
    2cba:	99 0b       	sbc	r25, r25
    2cbc:	0e 94 46 29 	call	0x528c	; 0x528c <__floatsisf>
    2cc0:	a3 01       	movw	r20, r6
    2cc2:	92 01       	movw	r18, r4
    2cc4:	0e 94 bb 2a 	call	0x5576	; 0x5576 <__mulsf3>
    2cc8:	0e 94 13 29 	call	0x5226	; 0x5226 <__fixsfsi>
    2ccc:	6b 01       	movw	r12, r22
		}
		if (abs(pwm.motor3)>255||abs(pwm.motor4)>255)
    2cce:	b8 01       	movw	r22, r16
    2cd0:	17 ff       	sbrs	r17, 7
    2cd2:	04 c0       	rjmp	.+8      	; 0x2cdc <_ZN10Kinematics6getPWMEfff+0x160>
    2cd4:	66 27       	eor	r22, r22
    2cd6:	77 27       	eor	r23, r23
    2cd8:	60 1b       	sub	r22, r16
    2cda:	71 0b       	sbc	r23, r17
    2cdc:	6f 3f       	cpi	r22, 0xFF	; 255
    2cde:	71 05       	cpc	r23, r1
    2ce0:	09 f0       	breq	.+2      	; 0x2ce4 <_ZN10Kinematics6getPWMEfff+0x168>
    2ce2:	64 f4       	brge	.+24     	; 0x2cfc <_ZN10Kinematics6getPWMEfff+0x180>
    2ce4:	c7 01       	movw	r24, r14
    2ce6:	f7 fe       	sbrs	r15, 7
    2ce8:	04 c0       	rjmp	.+8      	; 0x2cf2 <_ZN10Kinematics6getPWMEfff+0x176>
    2cea:	88 27       	eor	r24, r24
    2cec:	99 27       	eor	r25, r25
    2cee:	8e 19       	sub	r24, r14
    2cf0:	9f 09       	sbc	r25, r15
    2cf2:	8f 3f       	cpi	r24, 0xFF	; 255
    2cf4:	91 05       	cpc	r25, r1
    2cf6:	09 f0       	breq	.+2      	; 0x2cfa <_ZN10Kinematics6getPWMEfff+0x17e>
    2cf8:	0c f4       	brge	.+2      	; 0x2cfc <_ZN10Kinematics6getPWMEfff+0x180>
    2cfa:	44 c0       	rjmp	.+136    	; 0x2d84 <_ZN10Kinematics6getPWMEfff+0x208>
		{
			float n = 255.0/abs(pwm.motor3); //
    2cfc:	07 2e       	mov	r0, r23
    2cfe:	00 0c       	add	r0, r0
    2d00:	88 0b       	sbc	r24, r24
    2d02:	99 0b       	sbc	r25, r25
    2d04:	0e 94 46 29 	call	0x528c	; 0x528c <__floatsisf>
    2d08:	9b 01       	movw	r18, r22
    2d0a:	ac 01       	movw	r20, r24
    2d0c:	60 e0       	ldi	r22, 0x00	; 0
    2d0e:	70 e0       	ldi	r23, 0x00	; 0
    2d10:	8f e7       	ldi	r24, 0x7F	; 127
    2d12:	93 e4       	ldi	r25, 0x43	; 67
    2d14:	0e 94 ab 28 	call	0x5156	; 0x5156 <__divsf3>
    2d18:	2b 01       	movw	r4, r22
    2d1a:	3c 01       	movw	r6, r24
			pwm.motor3 *= n;
    2d1c:	b8 01       	movw	r22, r16
    2d1e:	11 0f       	add	r17, r17
    2d20:	88 0b       	sbc	r24, r24
    2d22:	99 0b       	sbc	r25, r25
    2d24:	0e 94 46 29 	call	0x528c	; 0x528c <__floatsisf>
    2d28:	a3 01       	movw	r20, r6
    2d2a:	92 01       	movw	r18, r4
    2d2c:	0e 94 bb 2a 	call	0x5576	; 0x5576 <__mulsf3>
    2d30:	0e 94 13 29 	call	0x5226	; 0x5226 <__fixsfsi>
    2d34:	8b 01       	movw	r16, r22
			pwm.motor4 *= n;
    2d36:	b7 01       	movw	r22, r14
    2d38:	ff 0c       	add	r15, r15
    2d3a:	88 0b       	sbc	r24, r24
    2d3c:	99 0b       	sbc	r25, r25
    2d3e:	0e 94 46 29 	call	0x528c	; 0x528c <__floatsisf>
    2d42:	a3 01       	movw	r20, r6
    2d44:	92 01       	movw	r18, r4
    2d46:	0e 94 bb 2a 	call	0x5576	; 0x5576 <__mulsf3>
    2d4a:	0e 94 13 29 	call	0x5226	; 0x5226 <__fixsfsi>
    2d4e:	7b 01       	movw	r14, r22
			pwm.motor1 *= n;
    2d50:	b4 01       	movw	r22, r8
    2d52:	99 0c       	add	r9, r9
    2d54:	88 0b       	sbc	r24, r24
    2d56:	99 0b       	sbc	r25, r25
    2d58:	0e 94 46 29 	call	0x528c	; 0x528c <__floatsisf>
    2d5c:	a3 01       	movw	r20, r6
    2d5e:	92 01       	movw	r18, r4
    2d60:	0e 94 bb 2a 	call	0x5576	; 0x5576 <__mulsf3>
    2d64:	0e 94 13 29 	call	0x5226	; 0x5226 <__fixsfsi>
    2d68:	4b 01       	movw	r8, r22
			pwm.motor2 *= n;
    2d6a:	b6 01       	movw	r22, r12
    2d6c:	dd 0c       	add	r13, r13
    2d6e:	88 0b       	sbc	r24, r24
    2d70:	99 0b       	sbc	r25, r25
    2d72:	0e 94 46 29 	call	0x528c	; 0x528c <__floatsisf>
    2d76:	a3 01       	movw	r20, r6
    2d78:	92 01       	movw	r18, r4
    2d7a:	0e 94 bb 2a 	call	0x5576	; 0x5576 <__mulsf3>
    2d7e:	0e 94 13 29 	call	0x5226	; 0x5226 <__fixsfsi>
    2d82:	6b 01       	movw	r12, r22
		}
	}
	return pwm;
    2d84:	9a 82       	std	Y+2, r9	; 0x02
    2d86:	89 82       	std	Y+1, r8	; 0x01
    2d88:	dc 82       	std	Y+4, r13	; 0x04
    2d8a:	cb 82       	std	Y+3, r12	; 0x03
    2d8c:	1e 83       	std	Y+6, r17	; 0x06
    2d8e:	0d 83       	std	Y+5, r16	; 0x05
    2d90:	f8 86       	std	Y+8, r15	; 0x08
    2d92:	ef 82       	std	Y+7, r14	; 0x07
    2d94:	28 2d       	mov	r18, r8
    2d96:	3a 81       	ldd	r19, Y+2	; 0x02
    2d98:	4c 2d       	mov	r20, r12
    2d9a:	5c 81       	ldd	r21, Y+4	; 0x04
    2d9c:	60 2f       	mov	r22, r16
    2d9e:	7e 81       	ldd	r23, Y+6	; 0x06
}
    2da0:	8e 2d       	mov	r24, r14
    2da2:	98 85       	ldd	r25, Y+8	; 0x08
    2da4:	60 96       	adiw	r28, 0x10	; 16
    2da6:	0f b6       	in	r0, 0x3f	; 63
    2da8:	f8 94       	cli
    2daa:	de bf       	out	0x3e, r29	; 62
    2dac:	0f be       	out	0x3f, r0	; 63
    2dae:	cd bf       	out	0x3d, r28	; 61
    2db0:	df 91       	pop	r29
    2db2:	cf 91       	pop	r28
    2db4:	1f 91       	pop	r17
    2db6:	0f 91       	pop	r16
    2db8:	ff 90       	pop	r15
    2dba:	ef 90       	pop	r14
    2dbc:	df 90       	pop	r13
    2dbe:	cf 90       	pop	r12
    2dc0:	bf 90       	pop	r11
    2dc2:	af 90       	pop	r10
    2dc4:	9f 90       	pop	r9
    2dc6:	8f 90       	pop	r8
    2dc8:	7f 90       	pop	r7
    2dca:	6f 90       	pop	r6
    2dcc:	5f 90       	pop	r5
    2dce:	4f 90       	pop	r4
    2dd0:	08 95       	ret

00002dd2 <_ZN6mMotorC1Ev>:


#include "mMotor.h"

// default constructor
mMotor::mMotor()
    2dd2:	fc 01       	movw	r30, r24
    2dd4:	82 e0       	ldi	r24, 0x02	; 2
    2dd6:	80 83       	st	Z, r24
    2dd8:	83 e0       	ldi	r24, 0x03	; 3
    2dda:	81 83       	std	Z+1, r24	; 0x01
    2ddc:	84 e0       	ldi	r24, 0x04	; 4
    2dde:	82 83       	std	Z+2, r24	; 0x02
    2de0:	85 e0       	ldi	r24, 0x05	; 5
    2de2:	83 83       	std	Z+3, r24	; 0x03
    2de4:	15 82       	std	Z+5, r1	; 0x05
    2de6:	14 82       	std	Z+4, r1	; 0x04
    2de8:	81 e0       	ldi	r24, 0x01	; 1
    2dea:	90 e0       	ldi	r25, 0x00	; 0
    2dec:	97 83       	std	Z+7, r25	; 0x07
    2dee:	86 83       	std	Z+6, r24	; 0x06
    2df0:	11 86       	std	Z+9, r1	; 0x09
    2df2:	10 86       	std	Z+8, r1	; 0x08
    2df4:	93 87       	std	Z+11, r25	; 0x0b
    2df6:	82 87       	std	Z+10, r24	; 0x0a
    2df8:	08 95       	ret

00002dfa <_ZN4mPS2C1Ev>:
//right now, the library does NOT support hot pluggable controllers, meaning
//you must always either restart your Arduino after you connect the controller,
//or call config_gamepad(pins) again after connecting the controller.
// default constructor

mPS2::mPS2()
    2dfa:	cf 93       	push	r28
    2dfc:	df 93       	push	r29
    2dfe:	ec 01       	movw	r28, r24
    2e00:	19 82       	std	Y+1, r1	; 0x01
    2e02:	18 82       	st	Y, r1
    2e04:	1a 82       	std	Y+2, r1	; 0x02
    2e06:	1b 82       	std	Y+3, r1	; 0x03
    2e08:	1c 82       	std	Y+4, r1	; 0x04
    2e0a:	1d 82       	std	Y+5, r1	; 0x05
    2e0c:	1e 82       	std	Y+6, r1	; 0x06
    2e0e:	1f 82       	std	Y+7, r1	; 0x07
    2e10:	18 86       	std	Y+8, r1	; 0x08
    2e12:	19 86       	std	Y+9, r1	; 0x09
    2e14:	1a 86       	std	Y+10, r1	; 0x0a
    2e16:	8f e7       	ldi	r24, 0x7F	; 127
    2e18:	90 e0       	ldi	r25, 0x00	; 0
    2e1a:	9c 87       	std	Y+12, r25	; 0x0c
    2e1c:	8b 87       	std	Y+11, r24	; 0x0b
    2e1e:	9e 87       	std	Y+14, r25	; 0x0e
    2e20:	8d 87       	std	Y+13, r24	; 0x0d
    2e22:	98 8b       	std	Y+16, r25	; 0x10
    2e24:	8f 87       	std	Y+15, r24	; 0x0f
    2e26:	9a 8b       	std	Y+18, r25	; 0x12
    2e28:	89 8b       	std	Y+17, r24	; 0x11
    2e2a:	6d e3       	ldi	r22, 0x3D	; 61
    2e2c:	7c e0       	ldi	r23, 0x0C	; 12
    2e2e:	ce 01       	movw	r24, r28
    2e30:	43 96       	adiw	r24, 0x13	; 19
    2e32:	0e 94 fc 35 	call	0x6bf8	; 0x6bf8 <_ZN6StringC1EPKc>
    2e36:	81 e0       	ldi	r24, 0x01	; 1
    2e38:	89 8f       	std	Y+25, r24	; 0x19
{
} //mPS2
    2e3a:	df 91       	pop	r29
    2e3c:	cf 91       	pop	r28
    2e3e:	08 95       	ret

00002e40 <_ZN4mPS25beginEv>:

void mPS2::begin()
{
    2e40:	cf 92       	push	r12
    2e42:	ef 92       	push	r14
    2e44:	0f 93       	push	r16
    2e46:	cf 93       	push	r28
    2e48:	df 93       	push	r29
    2e4a:	ec 01       	movw	r28, r24
    2e4c:	26 e0       	ldi	r18, 0x06	; 6
    2e4e:	40 e0       	ldi	r20, 0x00	; 0
    2e50:	52 ec       	ldi	r21, 0xC2	; 194
    2e52:	61 e0       	ldi	r22, 0x01	; 1
    2e54:	70 e0       	ldi	r23, 0x00	; 0
    2e56:	83 ed       	ldi	r24, 0xD3	; 211
    2e58:	9e e0       	ldi	r25, 0x0E	; 14
    2e5a:	0e 94 ae 2d 	call	0x5b5c	; 0x5b5c <_ZN14HardwareSerial5beginEmh>
	Serial.begin(115200);
	
	delay(300);  //added delay to give wireless ps2 module some time to startup, before configuring it
    2e5e:	6c e2       	ldi	r22, 0x2C	; 44
    2e60:	71 e0       	ldi	r23, 0x01	; 1
    2e62:	80 e0       	ldi	r24, 0x00	; 0
    2e64:	90 e0       	ldi	r25, 0x00	; 0
    2e66:	0e 94 c8 33 	call	0x6790	; 0x6790 <delay>
	
	//CHANGES for v1.6 HERE!!! **************PAY ATTENTION*************
	
	//setup pins and settings: GamePad(clock, command, attention, data, Pressures?, Rumble?) check for error
	error = ps2x.config_gamepad(PS2_CLK, PS2_CMD, PS2_SEL, PS2_DAT, pressures, rumble);
    2e6a:	c1 2c       	mov	r12, r1
    2e6c:	e1 2c       	mov	r14, r1
    2e6e:	0d e0       	ldi	r16, 0x0D	; 13
    2e70:	2a e0       	ldi	r18, 0x0A	; 10
    2e72:	4b e0       	ldi	r20, 0x0B	; 11
    2e74:	6c e0       	ldi	r22, 0x0C	; 12
    2e76:	88 e7       	ldi	r24, 0x78	; 120
    2e78:	9c e0       	ldi	r25, 0x0C	; 12
    2e7a:	3f d6       	rcall	.+3198   	; 0x3afa <_ZN4PS2X14config_gamepadEhhhhbb>
    2e7c:	28 2f       	mov	r18, r24
    2e7e:	30 e0       	ldi	r19, 0x00	; 0
    2e80:	39 83       	std	Y+1, r19	; 0x01
    2e82:	28 83       	st	Y, r18
	
	if(error == 0){
    2e84:	21 15       	cp	r18, r1
    2e86:	31 05       	cpc	r19, r1
    2e88:	69 f5       	brne	.+90     	; 0x2ee4 <_ZN4mPS25beginEv+0xa4>
		Serial.print("Found Controller, configured successful ");
    2e8a:	60 e6       	ldi	r22, 0x60	; 96
    2e8c:	77 e0       	ldi	r23, 0x07	; 7
    2e8e:	83 ed       	ldi	r24, 0xD3	; 211
    2e90:	9e e0       	ldi	r25, 0x0E	; 14
    2e92:	0e 94 98 2f 	call	0x5f30	; 0x5f30 <_ZN5Print5printEPKc>
		Serial.print("pressures = ");
    2e96:	69 e8       	ldi	r22, 0x89	; 137
    2e98:	77 e0       	ldi	r23, 0x07	; 7
    2e9a:	83 ed       	ldi	r24, 0xD3	; 211
    2e9c:	9e e0       	ldi	r25, 0x0E	; 14
    2e9e:	0e 94 98 2f 	call	0x5f30	; 0x5f30 <_ZN5Print5printEPKc>
		if (pressures)
		Serial.println("true ");
		else
		Serial.println("false");
    2ea2:	66 e9       	ldi	r22, 0x96	; 150
    2ea4:	77 e0       	ldi	r23, 0x07	; 7
    2ea6:	83 ed       	ldi	r24, 0xD3	; 211
    2ea8:	9e e0       	ldi	r25, 0x0E	; 14
    2eaa:	0e 94 b3 2f 	call	0x5f66	; 0x5f66 <_ZN5Print7printlnEPKc>
		Serial.print("rumble = ");
    2eae:	6c e9       	ldi	r22, 0x9C	; 156
    2eb0:	77 e0       	ldi	r23, 0x07	; 7
    2eb2:	83 ed       	ldi	r24, 0xD3	; 211
    2eb4:	9e e0       	ldi	r25, 0x0E	; 14
    2eb6:	0e 94 98 2f 	call	0x5f30	; 0x5f30 <_ZN5Print5printEPKc>
		if (rumble)
		Serial.println("true)");
		else
		Serial.println("false");
    2eba:	66 e9       	ldi	r22, 0x96	; 150
    2ebc:	77 e0       	ldi	r23, 0x07	; 7
    2ebe:	83 ed       	ldi	r24, 0xD3	; 211
    2ec0:	9e e0       	ldi	r25, 0x0E	; 14
    2ec2:	0e 94 b3 2f 	call	0x5f66	; 0x5f66 <_ZN5Print7printlnEPKc>
		Serial.println("Try out all the buttons, X will vibrate the controller, faster as you press harder;");
    2ec6:	66 ea       	ldi	r22, 0xA6	; 166
    2ec8:	77 e0       	ldi	r23, 0x07	; 7
    2eca:	83 ed       	ldi	r24, 0xD3	; 211
    2ecc:	9e e0       	ldi	r25, 0x0E	; 14
    2ece:	0e 94 b3 2f 	call	0x5f66	; 0x5f66 <_ZN5Print7printlnEPKc>
		Serial.println("holding L1 or R1 will print out the analog stick values.");
    2ed2:	6a ef       	ldi	r22, 0xFA	; 250
    2ed4:	77 e0       	ldi	r23, 0x07	; 7
    2ed6:	83 ed       	ldi	r24, 0xD3	; 211
    2ed8:	9e e0       	ldi	r25, 0x0E	; 14
    2eda:	0e 94 b3 2f 	call	0x5f66	; 0x5f66 <_ZN5Print7printlnEPKc>
		Serial.println("Note: Go to www.billporter.info for updates and to report bugs.");
    2ede:	63 e3       	ldi	r22, 0x33	; 51
    2ee0:	78 e0       	ldi	r23, 0x08	; 8
    2ee2:	11 c0       	rjmp	.+34     	; 0x2f06 <_ZN4mPS25beginEv+0xc6>
	}
	else if(error == 1)
    2ee4:	21 30       	cpi	r18, 0x01	; 1
    2ee6:	31 05       	cpc	r19, r1
    2ee8:	19 f4       	brne	.+6      	; 0x2ef0 <_ZN4mPS25beginEv+0xb0>
	Serial.println("No controller found, check wiring, see readme.txt to enable debug. visit www.billporter.info for troubleshooting tips");
    2eea:	63 e7       	ldi	r22, 0x73	; 115
    2eec:	78 e0       	ldi	r23, 0x08	; 8
    2eee:	0b c0       	rjmp	.+22     	; 0x2f06 <_ZN4mPS25beginEv+0xc6>
	
	else if(error == 2)
    2ef0:	22 30       	cpi	r18, 0x02	; 2
    2ef2:	31 05       	cpc	r19, r1
    2ef4:	19 f4       	brne	.+6      	; 0x2efc <_ZN4mPS25beginEv+0xbc>
	Serial.println("Controller found but not accepting commands. see readme.txt to enable debug. Visit www.billporter.info for troubleshooting tips");
    2ef6:	69 ee       	ldi	r22, 0xE9	; 233
    2ef8:	78 e0       	ldi	r23, 0x08	; 8
    2efa:	05 c0       	rjmp	.+10     	; 0x2f06 <_ZN4mPS25beginEv+0xc6>

	else if(error == 3)
    2efc:	23 30       	cpi	r18, 0x03	; 3
    2efe:	31 05       	cpc	r19, r1
    2f00:	31 f4       	brne	.+12     	; 0x2f0e <_ZN4mPS25beginEv+0xce>
	Serial.println("Controller refusing to enter Pressures mode, may not support it. ");
    2f02:	69 e6       	ldi	r22, 0x69	; 105
    2f04:	79 e0       	ldi	r23, 0x09	; 9
    2f06:	83 ed       	ldi	r24, 0xD3	; 211
    2f08:	9e e0       	ldi	r25, 0x0E	; 14
    2f0a:	0e 94 b3 2f 	call	0x5f66	; 0x5f66 <_ZN5Print7printlnEPKc>
	
	//  Serial.print(ps2x.Analog(1), HEX);
	
	type = ps2x.readType();
    2f0e:	88 e7       	ldi	r24, 0x78	; 120
    2f10:	9c e0       	ldi	r25, 0x0C	; 12
    2f12:	f5 d3       	rcall	.+2026   	; 0x36fe <_ZN4PS2X8readTypeEv>
    2f14:	8a 83       	std	Y+2, r24	; 0x02
	switch(type) {
    2f16:	81 30       	cpi	r24, 0x01	; 1
    2f18:	59 f0       	breq	.+22     	; 0x2f30 <_ZN4mPS25beginEv+0xf0>
    2f1a:	38 f0       	brcs	.+14     	; 0x2f2a <_ZN4mPS25beginEv+0xea>
    2f1c:	82 30       	cpi	r24, 0x02	; 2
    2f1e:	59 f0       	breq	.+22     	; 0x2f36 <_ZN4mPS25beginEv+0xf6>
    2f20:	83 30       	cpi	r24, 0x03	; 3
    2f22:	a1 f4       	brne	.+40     	; 0x2f4c <_ZN4mPS25beginEv+0x10c>
		break;
		case 2:
		Serial.print("GuitarHero Controller found ");
		break;
		case 3:
		Serial.print("Wireless Sony DualShock Controller found ");
    2f24:	67 ee       	ldi	r22, 0xE7	; 231
    2f26:	79 e0       	ldi	r23, 0x09	; 9
    2f28:	08 c0       	rjmp	.+16     	; 0x2f3a <_ZN4mPS25beginEv+0xfa>
	//  Serial.print(ps2x.Analog(1), HEX);
	
	type = ps2x.readType();
	switch(type) {
		case 0:
		Serial.print("Unknown Controller type found ");
    2f2a:	6b ea       	ldi	r22, 0xAB	; 171
    2f2c:	79 e0       	ldi	r23, 0x09	; 9
    2f2e:	05 c0       	rjmp	.+10     	; 0x2f3a <_ZN4mPS25beginEv+0xfa>
		break;
		case 1:
		Serial.print("DualShock Controller found ");
    2f30:	65 ef       	ldi	r22, 0xF5	; 245
    2f32:	79 e0       	ldi	r23, 0x09	; 9
    2f34:	02 c0       	rjmp	.+4      	; 0x2f3a <_ZN4mPS25beginEv+0xfa>
		break;
		case 2:
		Serial.print("GuitarHero Controller found ");
    2f36:	6a ec       	ldi	r22, 0xCA	; 202
    2f38:	79 e0       	ldi	r23, 0x09	; 9
		break;
		case 3:
		Serial.print("Wireless Sony DualShock Controller found ");
    2f3a:	83 ed       	ldi	r24, 0xD3	; 211
    2f3c:	9e e0       	ldi	r25, 0x0E	; 14
		break;
	}
}
    2f3e:	df 91       	pop	r29
    2f40:	cf 91       	pop	r28
    2f42:	0f 91       	pop	r16
    2f44:	ef 90       	pop	r14
    2f46:	cf 90       	pop	r12
		break;
		case 2:
		Serial.print("GuitarHero Controller found ");
		break;
		case 3:
		Serial.print("Wireless Sony DualShock Controller found ");
    2f48:	0c 94 98 2f 	jmp	0x5f30	; 0x5f30 <_ZN5Print5printEPKc>
		break;
	}
}
    2f4c:	df 91       	pop	r29
    2f4e:	cf 91       	pop	r28
    2f50:	0f 91       	pop	r16
    2f52:	ef 90       	pop	r14
    2f54:	cf 90       	pop	r12
    2f56:	08 95       	ret

00002f58 <_ZN4mPS27refreshEv>:

void mPS2::refresh()
{
    2f58:	1f 93       	push	r17
    2f5a:	cf 93       	push	r28
    2f5c:	df 93       	push	r29
	if(type == 2){ //Guitar Hero Controller
    2f5e:	fc 01       	movw	r30, r24
    2f60:	22 81       	ldd	r18, Z+2	; 0x02
    2f62:	22 30       	cpi	r18, 0x02	; 2
    2f64:	09 f4       	brne	.+2      	; 0x2f68 <_ZN4mPS27refreshEv+0x10>
    2f66:	73 c1       	rjmp	.+742    	; 0x324e <_ZN4mPS27refreshEv+0x2f6>
    2f68:	ec 01       	movw	r28, r24
	}
	else { //DualShock Controller
		ps2x.read_gamepad(false, vibrate); //read controller and set large motor to spin at 'vibrate' speed
    2f6a:	43 81       	ldd	r20, Z+3	; 0x03
    2f6c:	60 e0       	ldi	r22, 0x00	; 0
    2f6e:	88 e7       	ldi	r24, 0x78	; 120
    2f70:	9c e0       	ldi	r25, 0x0C	; 12
    2f72:	c2 d4       	rcall	.+2436   	; 0x38f8 <_ZN4PS2X12read_gamepadEbh>
		
		if(ps2x.Button(PSB_START))
    2f74:	68 e0       	ldi	r22, 0x08	; 8
    2f76:	70 e0       	ldi	r23, 0x00	; 0
    2f78:	88 e7       	ldi	r24, 0x78	; 120
    2f7a:	9c e0       	ldi	r25, 0x0C	; 12
    2f7c:	af d3       	rcall	.+1886   	; 0x36dc <_ZN4PS2X6ButtonEj>
    2f7e:	88 23       	and	r24, r24
    2f80:	61 f0       	breq	.+24     	; 0x2f9a <_ZN4mPS27refreshEv+0x42>
		{
			Serial.println("Start is being held");
    2f82:	61 e1       	ldi	r22, 0x11	; 17
    2f84:	7a e0       	ldi	r23, 0x0A	; 10
    2f86:	83 ed       	ldi	r24, 0xD3	; 211
    2f88:	9e e0       	ldi	r25, 0x0E	; 14
    2f8a:	0e 94 b3 2f 	call	0x5f66	; 0x5f66 <_ZN5Print7printlnEPKc>
			state = "Start is being held";
    2f8e:	61 e1       	ldi	r22, 0x11	; 17
    2f90:	7a e0       	ldi	r23, 0x0A	; 10
    2f92:	ce 01       	movw	r24, r28
    2f94:	43 96       	adiw	r24, 0x13	; 19
    2f96:	0e 94 2d 36 	call	0x6c5a	; 0x6c5a <_ZN6StringaSEPKc>
		}
		//will be TRUE as long as button is pressed

		
		if(ps2x.Button(PSB_SELECT)){Serial.println("Select is being held");state="Select is being held";}
    2f9a:	61 e0       	ldi	r22, 0x01	; 1
    2f9c:	70 e0       	ldi	r23, 0x00	; 0
    2f9e:	88 e7       	ldi	r24, 0x78	; 120
    2fa0:	9c e0       	ldi	r25, 0x0C	; 12
    2fa2:	9c d3       	rcall	.+1848   	; 0x36dc <_ZN4PS2X6ButtonEj>
    2fa4:	88 23       	and	r24, r24
    2fa6:	61 f0       	breq	.+24     	; 0x2fc0 <_ZN4mPS27refreshEv+0x68>
    2fa8:	65 e2       	ldi	r22, 0x25	; 37
    2faa:	7a e0       	ldi	r23, 0x0A	; 10
    2fac:	83 ed       	ldi	r24, 0xD3	; 211
    2fae:	9e e0       	ldi	r25, 0x0E	; 14
    2fb0:	0e 94 b3 2f 	call	0x5f66	; 0x5f66 <_ZN5Print7printlnEPKc>
    2fb4:	65 e2       	ldi	r22, 0x25	; 37
    2fb6:	7a e0       	ldi	r23, 0x0A	; 10
    2fb8:	ce 01       	movw	r24, r28
    2fba:	43 96       	adiw	r24, 0x13	; 19
    2fbc:	0e 94 2d 36 	call	0x6c5a	; 0x6c5a <_ZN6StringaSEPKc>
		
		if(ps2x.Button(PSB_PAD_UP)) {      //will be TRUE as long as button is pressed
    2fc0:	60 e1       	ldi	r22, 0x10	; 16
    2fc2:	70 e0       	ldi	r23, 0x00	; 0
    2fc4:	88 e7       	ldi	r24, 0x78	; 120
    2fc6:	9c e0       	ldi	r25, 0x0C	; 12
    2fc8:	89 d3       	rcall	.+1810   	; 0x36dc <_ZN4PS2X6ButtonEj>
    2fca:	88 23       	and	r24, r24
    2fcc:	c9 f0       	breq	.+50     	; 0x3000 <_ZN4mPS27refreshEv+0xa8>
			Serial.print("Up held this hard: ");
    2fce:	6a e3       	ldi	r22, 0x3A	; 58
    2fd0:	7a e0       	ldi	r23, 0x0A	; 10
    2fd2:	83 ed       	ldi	r24, 0xD3	; 211
    2fd4:	9e e0       	ldi	r25, 0x0E	; 14
    2fd6:	0e 94 98 2f 	call	0x5f30	; 0x5f30 <_ZN5Print5printEPKc>
			Serial.println(ps2x.Analog(PSAB_PAD_UP), DEC);
    2fda:	6b e0       	ldi	r22, 0x0B	; 11
    2fdc:	88 e7       	ldi	r24, 0x78	; 120
    2fde:	9c e0       	ldi	r25, 0x0C	; 12
    2fe0:	89 d3       	rcall	.+1810   	; 0x36f4 <_ZN4PS2X6AnalogEh>
    2fe2:	4a e0       	ldi	r20, 0x0A	; 10
    2fe4:	50 e0       	ldi	r21, 0x00	; 0
    2fe6:	68 2f       	mov	r22, r24
    2fe8:	83 ed       	ldi	r24, 0xD3	; 211
    2fea:	9e e0       	ldi	r25, 0x0E	; 14
    2fec:	0e 94 83 30 	call	0x6106	; 0x6106 <_ZN5Print7printlnEhi>
			up = true;
    2ff0:	81 e0       	ldi	r24, 0x01	; 1
    2ff2:	8c 83       	std	Y+4, r24	; 0x04
			state = "up is being held";
    2ff4:	6e e4       	ldi	r22, 0x4E	; 78
    2ff6:	7a e0       	ldi	r23, 0x0A	; 10
    2ff8:	ce 01       	movw	r24, r28
    2ffa:	43 96       	adiw	r24, 0x13	; 19
    2ffc:	0e 94 2d 36 	call	0x6c5a	; 0x6c5a <_ZN6StringaSEPKc>
		}
		if(ps2x.Button(PSB_PAD_RIGHT)){
    3000:	60 e2       	ldi	r22, 0x20	; 32
    3002:	70 e0       	ldi	r23, 0x00	; 0
    3004:	88 e7       	ldi	r24, 0x78	; 120
    3006:	9c e0       	ldi	r25, 0x0C	; 12
    3008:	69 d3       	rcall	.+1746   	; 0x36dc <_ZN4PS2X6ButtonEj>
    300a:	88 23       	and	r24, r24
    300c:	c9 f0       	breq	.+50     	; 0x3040 <_ZN4mPS27refreshEv+0xe8>
			Serial.print("Right held this hard: ");
    300e:	6f e5       	ldi	r22, 0x5F	; 95
    3010:	7a e0       	ldi	r23, 0x0A	; 10
    3012:	83 ed       	ldi	r24, 0xD3	; 211
    3014:	9e e0       	ldi	r25, 0x0E	; 14
    3016:	0e 94 98 2f 	call	0x5f30	; 0x5f30 <_ZN5Print5printEPKc>
			Serial.println(ps2x.Analog(PSAB_PAD_RIGHT), DEC);
    301a:	69 e0       	ldi	r22, 0x09	; 9
    301c:	88 e7       	ldi	r24, 0x78	; 120
    301e:	9c e0       	ldi	r25, 0x0C	; 12
    3020:	69 d3       	rcall	.+1746   	; 0x36f4 <_ZN4PS2X6AnalogEh>
    3022:	4a e0       	ldi	r20, 0x0A	; 10
    3024:	50 e0       	ldi	r21, 0x00	; 0
    3026:	68 2f       	mov	r22, r24
    3028:	83 ed       	ldi	r24, 0xD3	; 211
    302a:	9e e0       	ldi	r25, 0x0E	; 14
    302c:	0e 94 83 30 	call	0x6106	; 0x6106 <_ZN5Print7printlnEhi>
			right = true;
    3030:	81 e0       	ldi	r24, 0x01	; 1
    3032:	8f 83       	std	Y+7, r24	; 0x07
			state = "Right is being held";
    3034:	66 e7       	ldi	r22, 0x76	; 118
    3036:	7a e0       	ldi	r23, 0x0A	; 10
    3038:	ce 01       	movw	r24, r28
    303a:	43 96       	adiw	r24, 0x13	; 19
    303c:	0e 94 2d 36 	call	0x6c5a	; 0x6c5a <_ZN6StringaSEPKc>
		}
		if(ps2x.Button(PSB_PAD_LEFT)){
    3040:	60 e8       	ldi	r22, 0x80	; 128
    3042:	70 e0       	ldi	r23, 0x00	; 0
    3044:	88 e7       	ldi	r24, 0x78	; 120
    3046:	9c e0       	ldi	r25, 0x0C	; 12
    3048:	49 d3       	rcall	.+1682   	; 0x36dc <_ZN4PS2X6ButtonEj>
    304a:	88 23       	and	r24, r24
    304c:	c9 f0       	breq	.+50     	; 0x3080 <_ZN4mPS27refreshEv+0x128>
			Serial.print("LEFT held this hard: ");
    304e:	6a e8       	ldi	r22, 0x8A	; 138
    3050:	7a e0       	ldi	r23, 0x0A	; 10
    3052:	83 ed       	ldi	r24, 0xD3	; 211
    3054:	9e e0       	ldi	r25, 0x0E	; 14
    3056:	0e 94 98 2f 	call	0x5f30	; 0x5f30 <_ZN5Print5printEPKc>
			Serial.println(ps2x.Analog(PSAB_PAD_LEFT), DEC);
    305a:	6a e0       	ldi	r22, 0x0A	; 10
    305c:	88 e7       	ldi	r24, 0x78	; 120
    305e:	9c e0       	ldi	r25, 0x0C	; 12
    3060:	49 d3       	rcall	.+1682   	; 0x36f4 <_ZN4PS2X6AnalogEh>
    3062:	4a e0       	ldi	r20, 0x0A	; 10
    3064:	50 e0       	ldi	r21, 0x00	; 0
    3066:	68 2f       	mov	r22, r24
    3068:	83 ed       	ldi	r24, 0xD3	; 211
    306a:	9e e0       	ldi	r25, 0x0E	; 14
    306c:	0e 94 83 30 	call	0x6106	; 0x6106 <_ZN5Print7printlnEhi>
			left = true;
    3070:	81 e0       	ldi	r24, 0x01	; 1
    3072:	8e 83       	std	Y+6, r24	; 0x06
			state = "LEFT is being held";
    3074:	60 ea       	ldi	r22, 0xA0	; 160
    3076:	7a e0       	ldi	r23, 0x0A	; 10
    3078:	ce 01       	movw	r24, r28
    307a:	43 96       	adiw	r24, 0x13	; 19
    307c:	0e 94 2d 36 	call	0x6c5a	; 0x6c5a <_ZN6StringaSEPKc>
		}
		if(ps2x.Button(PSB_PAD_DOWN)){
    3080:	60 e4       	ldi	r22, 0x40	; 64
    3082:	70 e0       	ldi	r23, 0x00	; 0
    3084:	88 e7       	ldi	r24, 0x78	; 120
    3086:	9c e0       	ldi	r25, 0x0C	; 12
    3088:	29 d3       	rcall	.+1618   	; 0x36dc <_ZN4PS2X6ButtonEj>
    308a:	88 23       	and	r24, r24
    308c:	c9 f0       	breq	.+50     	; 0x30c0 <_ZN4mPS27refreshEv+0x168>
			Serial.print("DOWN held this hard: ");
    308e:	63 eb       	ldi	r22, 0xB3	; 179
    3090:	7a e0       	ldi	r23, 0x0A	; 10
    3092:	83 ed       	ldi	r24, 0xD3	; 211
    3094:	9e e0       	ldi	r25, 0x0E	; 14
    3096:	0e 94 98 2f 	call	0x5f30	; 0x5f30 <_ZN5Print5printEPKc>
			Serial.println(ps2x.Analog(PSAB_PAD_DOWN), DEC);
    309a:	6c e0       	ldi	r22, 0x0C	; 12
    309c:	88 e7       	ldi	r24, 0x78	; 120
    309e:	9c e0       	ldi	r25, 0x0C	; 12
    30a0:	29 d3       	rcall	.+1618   	; 0x36f4 <_ZN4PS2X6AnalogEh>
    30a2:	4a e0       	ldi	r20, 0x0A	; 10
    30a4:	50 e0       	ldi	r21, 0x00	; 0
    30a6:	68 2f       	mov	r22, r24
    30a8:	83 ed       	ldi	r24, 0xD3	; 211
    30aa:	9e e0       	ldi	r25, 0x0E	; 14
    30ac:	0e 94 83 30 	call	0x6106	; 0x6106 <_ZN5Print7printlnEhi>
			down = true;
    30b0:	81 e0       	ldi	r24, 0x01	; 1
    30b2:	8d 83       	std	Y+5, r24	; 0x05
			state = "DOWN is being held";
    30b4:	69 ec       	ldi	r22, 0xC9	; 201
    30b6:	7a e0       	ldi	r23, 0x0A	; 10
    30b8:	ce 01       	movw	r24, r28
    30ba:	43 96       	adiw	r24, 0x13	; 19
    30bc:	0e 94 2d 36 	call	0x6c5a	; 0x6c5a <_ZN6StringaSEPKc>
		}

		vibrate = ps2x.Analog(PSAB_CROSS);  //this will set the large motor vibrate speed based on how hard you press the blue (X) button
    30c0:	6f e0       	ldi	r22, 0x0F	; 15
    30c2:	88 e7       	ldi	r24, 0x78	; 120
    30c4:	9c e0       	ldi	r25, 0x0C	; 12
    30c6:	16 d3       	rcall	.+1580   	; 0x36f4 <_ZN4PS2X6AnalogEh>
    30c8:	8b 83       	std	Y+3, r24	; 0x03
		if (ps2x.NewButtonState()) {        //will be TRUE if any button changes state (on to off, or off to on)
    30ca:	88 e7       	ldi	r24, 0x78	; 120
    30cc:	9c e0       	ldi	r25, 0x0C	; 12
    30ce:	b5 d2       	rcall	.+1386   	; 0x363a <_ZN4PS2X14NewButtonStateEv>
    30d0:	88 23       	and	r24, r24
    30d2:	09 f4       	brne	.+2      	; 0x30d6 <_ZN4mPS27refreshEv+0x17e>
    30d4:	5f c0       	rjmp	.+190    	; 0x3194 <_ZN4mPS27refreshEv+0x23c>
			if(ps2x.Button(PSB_L3)){Serial.println("L3 pressed");state = "L3 is being held";}
    30d6:	62 e0       	ldi	r22, 0x02	; 2
    30d8:	70 e0       	ldi	r23, 0x00	; 0
    30da:	88 e7       	ldi	r24, 0x78	; 120
    30dc:	9c e0       	ldi	r25, 0x0C	; 12
    30de:	fe d2       	rcall	.+1532   	; 0x36dc <_ZN4PS2X6ButtonEj>
    30e0:	88 23       	and	r24, r24
    30e2:	61 f0       	breq	.+24     	; 0x30fc <_ZN4mPS27refreshEv+0x1a4>
    30e4:	6c ed       	ldi	r22, 0xDC	; 220
    30e6:	7a e0       	ldi	r23, 0x0A	; 10
    30e8:	83 ed       	ldi	r24, 0xD3	; 211
    30ea:	9e e0       	ldi	r25, 0x0E	; 14
    30ec:	0e 94 b3 2f 	call	0x5f66	; 0x5f66 <_ZN5Print7printlnEPKc>
    30f0:	67 ee       	ldi	r22, 0xE7	; 231
    30f2:	7a e0       	ldi	r23, 0x0A	; 10
    30f4:	ce 01       	movw	r24, r28
    30f6:	43 96       	adiw	r24, 0x13	; 19
    30f8:	0e 94 2d 36 	call	0x6c5a	; 0x6c5a <_ZN6StringaSEPKc>
			
			if(ps2x.Button(PSB_R3)){Serial.println("R3 pressed");state = "R3 is being held";}
    30fc:	64 e0       	ldi	r22, 0x04	; 4
    30fe:	70 e0       	ldi	r23, 0x00	; 0
    3100:	88 e7       	ldi	r24, 0x78	; 120
    3102:	9c e0       	ldi	r25, 0x0C	; 12
    3104:	eb d2       	rcall	.+1494   	; 0x36dc <_ZN4PS2X6ButtonEj>
    3106:	88 23       	and	r24, r24
    3108:	61 f0       	breq	.+24     	; 0x3122 <_ZN4mPS27refreshEv+0x1ca>
    310a:	68 ef       	ldi	r22, 0xF8	; 248
    310c:	7a e0       	ldi	r23, 0x0A	; 10
    310e:	83 ed       	ldi	r24, 0xD3	; 211
    3110:	9e e0       	ldi	r25, 0x0E	; 14
    3112:	0e 94 b3 2f 	call	0x5f66	; 0x5f66 <_ZN5Print7printlnEPKc>
    3116:	63 e0       	ldi	r22, 0x03	; 3
    3118:	7b e0       	ldi	r23, 0x0B	; 11
    311a:	ce 01       	movw	r24, r28
    311c:	43 96       	adiw	r24, 0x13	; 19
    311e:	0e 94 2d 36 	call	0x6c5a	; 0x6c5a <_ZN6StringaSEPKc>

			if(ps2x.Button(PSB_L2)){Serial.println("L2 pressed");state = "L2 is being held";}
    3122:	60 e0       	ldi	r22, 0x00	; 0
    3124:	71 e0       	ldi	r23, 0x01	; 1
    3126:	88 e7       	ldi	r24, 0x78	; 120
    3128:	9c e0       	ldi	r25, 0x0C	; 12
    312a:	d8 d2       	rcall	.+1456   	; 0x36dc <_ZN4PS2X6ButtonEj>
    312c:	88 23       	and	r24, r24
    312e:	61 f0       	breq	.+24     	; 0x3148 <_ZN4mPS27refreshEv+0x1f0>
    3130:	64 e1       	ldi	r22, 0x14	; 20
    3132:	7b e0       	ldi	r23, 0x0B	; 11
    3134:	83 ed       	ldi	r24, 0xD3	; 211
    3136:	9e e0       	ldi	r25, 0x0E	; 14
    3138:	0e 94 b3 2f 	call	0x5f66	; 0x5f66 <_ZN5Print7printlnEPKc>
    313c:	6f e1       	ldi	r22, 0x1F	; 31
    313e:	7b e0       	ldi	r23, 0x0B	; 11
    3140:	ce 01       	movw	r24, r28
    3142:	43 96       	adiw	r24, 0x13	; 19
    3144:	0e 94 2d 36 	call	0x6c5a	; 0x6c5a <_ZN6StringaSEPKc>
			
			if(ps2x.Button(PSB_R2)){Serial.println("R2 pressed");state = "R2 is being held";}
    3148:	60 e0       	ldi	r22, 0x00	; 0
    314a:	72 e0       	ldi	r23, 0x02	; 2
    314c:	88 e7       	ldi	r24, 0x78	; 120
    314e:	9c e0       	ldi	r25, 0x0C	; 12
    3150:	c5 d2       	rcall	.+1418   	; 0x36dc <_ZN4PS2X6ButtonEj>
    3152:	88 23       	and	r24, r24
    3154:	61 f0       	breq	.+24     	; 0x316e <_ZN4mPS27refreshEv+0x216>
    3156:	60 e3       	ldi	r22, 0x30	; 48
    3158:	7b e0       	ldi	r23, 0x0B	; 11
    315a:	83 ed       	ldi	r24, 0xD3	; 211
    315c:	9e e0       	ldi	r25, 0x0E	; 14
    315e:	0e 94 b3 2f 	call	0x5f66	; 0x5f66 <_ZN5Print7printlnEPKc>
    3162:	6b e3       	ldi	r22, 0x3B	; 59
    3164:	7b e0       	ldi	r23, 0x0B	; 11
    3166:	ce 01       	movw	r24, r28
    3168:	43 96       	adiw	r24, 0x13	; 19
    316a:	0e 94 2d 36 	call	0x6c5a	; 0x6c5a <_ZN6StringaSEPKc>

			if(ps2x.Button(PSB_TRIANGLE)){Serial.println("Triangle pressed");state = "Triangle is being held";}
    316e:	60 e0       	ldi	r22, 0x00	; 0
    3170:	70 e1       	ldi	r23, 0x10	; 16
    3172:	88 e7       	ldi	r24, 0x78	; 120
    3174:	9c e0       	ldi	r25, 0x0C	; 12
    3176:	b2 d2       	rcall	.+1380   	; 0x36dc <_ZN4PS2X6ButtonEj>
    3178:	88 23       	and	r24, r24
    317a:	61 f0       	breq	.+24     	; 0x3194 <_ZN4mPS27refreshEv+0x23c>
    317c:	6c e4       	ldi	r22, 0x4C	; 76
    317e:	7b e0       	ldi	r23, 0x0B	; 11
    3180:	83 ed       	ldi	r24, 0xD3	; 211
    3182:	9e e0       	ldi	r25, 0x0E	; 14
    3184:	0e 94 b3 2f 	call	0x5f66	; 0x5f66 <_ZN5Print7printlnEPKc>
    3188:	6d e5       	ldi	r22, 0x5D	; 93
    318a:	7b e0       	ldi	r23, 0x0B	; 11
    318c:	ce 01       	movw	r24, r28
    318e:	43 96       	adiw	r24, 0x13	; 19
    3190:	0e 94 2d 36 	call	0x6c5a	; 0x6c5a <_ZN6StringaSEPKc>

		}

		if(ps2x.ButtonPressed(PSB_CIRCLE)){Serial.println("Circle just pressed");shot_left = true;state = "Circle is being held";isRC = true;}//
    3194:	60 e0       	ldi	r22, 0x00	; 0
    3196:	70 e2       	ldi	r23, 0x20	; 32
    3198:	88 e7       	ldi	r24, 0x78	; 120
    319a:	9c e0       	ldi	r25, 0x0C	; 12
    319c:	67 d2       	rcall	.+1230   	; 0x366c <_ZN4PS2X13ButtonPressedEj>
    319e:	88 23       	and	r24, r24
    31a0:	79 f0       	breq	.+30     	; 0x31c0 <_ZN4mPS27refreshEv+0x268>
    31a2:	64 e7       	ldi	r22, 0x74	; 116
    31a4:	7b e0       	ldi	r23, 0x0B	; 11
    31a6:	83 ed       	ldi	r24, 0xD3	; 211
    31a8:	9e e0       	ldi	r25, 0x0E	; 14
    31aa:	0e 94 b3 2f 	call	0x5f66	; 0x5f66 <_ZN5Print7printlnEPKc>
    31ae:	11 e0       	ldi	r17, 0x01	; 1
    31b0:	19 87       	std	Y+9, r17	; 0x09
    31b2:	68 e8       	ldi	r22, 0x88	; 136
    31b4:	7b e0       	ldi	r23, 0x0B	; 11
    31b6:	ce 01       	movw	r24, r28
    31b8:	43 96       	adiw	r24, 0x13	; 19
    31ba:	0e 94 2d 36 	call	0x6c5a	; 0x6c5a <_ZN6StringaSEPKc>
    31be:	19 8f       	std	Y+25, r17	; 0x19
		
		if(ps2x.NewButtonState(PSB_CROSS)){Serial.println("X just changed");shot = true;state = "X is being held";}
    31c0:	60 e0       	ldi	r22, 0x00	; 0
    31c2:	70 e4       	ldi	r23, 0x40	; 64
    31c4:	88 e7       	ldi	r24, 0x78	; 120
    31c6:	9c e0       	ldi	r25, 0x0C	; 12
    31c8:	43 d2       	rcall	.+1158   	; 0x3650 <_ZN4PS2X14NewButtonStateEj>
    31ca:	88 23       	and	r24, r24
    31cc:	71 f0       	breq	.+28     	; 0x31ea <_ZN4mPS27refreshEv+0x292>
    31ce:	6d e9       	ldi	r22, 0x9D	; 157
    31d0:	7b e0       	ldi	r23, 0x0B	; 11
    31d2:	83 ed       	ldi	r24, 0xD3	; 211
    31d4:	9e e0       	ldi	r25, 0x0E	; 14
    31d6:	0e 94 b3 2f 	call	0x5f66	; 0x5f66 <_ZN5Print7printlnEPKc>
    31da:	81 e0       	ldi	r24, 0x01	; 1
    31dc:	8a 87       	std	Y+10, r24	; 0x0a
    31de:	6c ea       	ldi	r22, 0xAC	; 172
    31e0:	7b e0       	ldi	r23, 0x0B	; 11
    31e2:	ce 01       	movw	r24, r28
    31e4:	43 96       	adiw	r24, 0x13	; 19
    31e6:	0e 94 2d 36 	call	0x6c5a	; 0x6c5a <_ZN6StringaSEPKc>
		
		if(ps2x.ButtonReleased(PSB_SQUARE)){Serial.println("Square just released");shot_left = true;state = "Square is being held";isRC = false;}              //will be TRUE if button was JUST released
    31ea:	60 e0       	ldi	r22, 0x00	; 0
    31ec:	70 e8       	ldi	r23, 0x80	; 128
    31ee:	88 e7       	ldi	r24, 0x78	; 120
    31f0:	9c e0       	ldi	r25, 0x0C	; 12
    31f2:	58 d2       	rcall	.+1200   	; 0x36a4 <_ZN4PS2X14ButtonReleasedEj>
    31f4:	88 23       	and	r24, r24
    31f6:	79 f0       	breq	.+30     	; 0x3216 <_ZN4mPS27refreshEv+0x2be>
    31f8:	6c eb       	ldi	r22, 0xBC	; 188
    31fa:	7b e0       	ldi	r23, 0x0B	; 11
    31fc:	83 ed       	ldi	r24, 0xD3	; 211
    31fe:	9e e0       	ldi	r25, 0x0E	; 14
    3200:	0e 94 b3 2f 	call	0x5f66	; 0x5f66 <_ZN5Print7printlnEPKc>
    3204:	81 e0       	ldi	r24, 0x01	; 1
    3206:	89 87       	std	Y+9, r24	; 0x09
    3208:	61 ed       	ldi	r22, 0xD1	; 209
    320a:	7b e0       	ldi	r23, 0x0B	; 11
    320c:	ce 01       	movw	r24, r28
    320e:	43 96       	adiw	r24, 0x13	; 19
    3210:	0e 94 2d 36 	call	0x6c5a	; 0x6c5a <_ZN6StringaSEPKc>
    3214:	19 8e       	std	Y+25, r1	; 0x19
		
		if(1) { //print stick values if either is TRUE
			analog_LY = ps2x.Analog(PSS_LY);
    3216:	68 e0       	ldi	r22, 0x08	; 8
    3218:	88 e7       	ldi	r24, 0x78	; 120
    321a:	9c e0       	ldi	r25, 0x0C	; 12
    321c:	6b d2       	rcall	.+1238   	; 0x36f4 <_ZN4PS2X6AnalogEh>
    321e:	90 e0       	ldi	r25, 0x00	; 0
    3220:	9c 87       	std	Y+12, r25	; 0x0c
    3222:	8b 87       	std	Y+11, r24	; 0x0b
			analog_LX = ps2x.Analog(PSS_LX);
    3224:	67 e0       	ldi	r22, 0x07	; 7
    3226:	88 e7       	ldi	r24, 0x78	; 120
    3228:	9c e0       	ldi	r25, 0x0C	; 12
    322a:	64 d2       	rcall	.+1224   	; 0x36f4 <_ZN4PS2X6AnalogEh>
    322c:	90 e0       	ldi	r25, 0x00	; 0
    322e:	9e 87       	std	Y+14, r25	; 0x0e
    3230:	8d 87       	std	Y+13, r24	; 0x0d
			analog_RY = ps2x.Analog(PSS_RY);
    3232:	66 e0       	ldi	r22, 0x06	; 6
    3234:	88 e7       	ldi	r24, 0x78	; 120
    3236:	9c e0       	ldi	r25, 0x0C	; 12
    3238:	5d d2       	rcall	.+1210   	; 0x36f4 <_ZN4PS2X6AnalogEh>
    323a:	90 e0       	ldi	r25, 0x00	; 0
    323c:	98 8b       	std	Y+16, r25	; 0x10
    323e:	8f 87       	std	Y+15, r24	; 0x0f
			analog_RX = ps2x.Analog(PSS_RX);
    3240:	65 e0       	ldi	r22, 0x05	; 5
    3242:	88 e7       	ldi	r24, 0x78	; 120
    3244:	9c e0       	ldi	r25, 0x0C	; 12
    3246:	56 d2       	rcall	.+1196   	; 0x36f4 <_ZN4PS2X6AnalogEh>
    3248:	90 e0       	ldi	r25, 0x00	; 0
    324a:	9a 8b       	std	Y+18, r25	; 0x12
    324c:	89 8b       	std	Y+17, r24	; 0x11
			
			#endif

		}
	}
    324e:	df 91       	pop	r29
    3250:	cf 91       	pop	r28
    3252:	1f 91       	pop	r17
    3254:	08 95       	ret

00003256 <_ZN4PathC1Ev>:
#include "Path.h"
#include <math.h>
#include "Arduino.h"
#define Path_DEBUG
// default constructor
Path::Path()
    3256:	cf 93       	push	r28
    3258:	df 93       	push	r29
    325a:	fc 01       	movw	r30, r24
    325c:	80 e5       	ldi	r24, 0x50	; 80
    325e:	df 01       	movw	r26, r30
    3260:	1d 92       	st	X+, r1
    3262:	8a 95       	dec	r24
    3264:	e9 f7       	brne	.-6      	; 0x3260 <_ZN4PathC1Ev+0xa>
    3266:	6e e7       	ldi	r22, 0x7E	; 126
    3268:	74 e0       	ldi	r23, 0x04	; 4
    326a:	75 83       	std	Z+5, r23	; 0x05
    326c:	64 83       	std	Z+4, r22	; 0x04
    326e:	8c ef       	ldi	r24, 0xFC	; 252
    3270:	98 e0       	ldi	r25, 0x08	; 8
    3272:	91 87       	std	Z+9, r25	; 0x09
    3274:	80 87       	std	Z+8, r24	; 0x08
    3276:	95 87       	std	Z+13, r25	; 0x0d
    3278:	84 87       	std	Z+12, r24	; 0x0c
    327a:	77 87       	std	Z+15, r23	; 0x0f
    327c:	66 87       	std	Z+14, r22	; 0x0e
    327e:	91 8b       	std	Z+17, r25	; 0x11
    3280:	80 8b       	std	Z+16, r24	; 0x10
    3282:	93 8b       	std	Z+19, r25	; 0x13
    3284:	82 8b       	std	Z+18, r24	; 0x12
    3286:	95 8b       	std	Z+21, r25	; 0x15
    3288:	84 8b       	std	Z+20, r24	; 0x14
    328a:	ca e7       	ldi	r28, 0x7A	; 122
    328c:	dd e0       	ldi	r29, 0x0D	; 13
    328e:	d7 8b       	std	Z+23, r29	; 0x17
    3290:	c6 8b       	std	Z+22, r28	; 0x16
    3292:	91 8f       	std	Z+25, r25	; 0x19
    3294:	80 8f       	std	Z+24, r24	; 0x18
    3296:	48 ef       	ldi	r20, 0xF8	; 248
    3298:	51 e1       	ldi	r21, 0x11	; 17
    329a:	53 8f       	std	Z+27, r21	; 0x1b
    329c:	42 8f       	std	Z+26, r20	; 0x1a
    329e:	75 8f       	std	Z+29, r23	; 0x1d
    32a0:	64 8f       	std	Z+28, r22	; 0x1c
    32a2:	57 8f       	std	Z+31, r21	; 0x1f
    32a4:	46 8f       	std	Z+30, r20	; 0x1e
    32a6:	53 a3       	std	Z+35, r21	; 0x23
    32a8:	42 a3       	std	Z+34, r20	; 0x22
    32aa:	a2 e8       	ldi	r26, 0x82	; 130
    32ac:	bb ef       	ldi	r27, 0xFB	; 251
    32ae:	b5 a3       	std	Z+37, r27	; 0x25
    32b0:	a4 a3       	std	Z+36, r26	; 0x24
    32b2:	57 a3       	std	Z+39, r21	; 0x27
    32b4:	46 a3       	std	Z+38, r20	; 0x26
    32b6:	24 e0       	ldi	r18, 0x04	; 4
    32b8:	37 ef       	ldi	r19, 0xF7	; 247
    32ba:	31 a7       	std	Z+41, r19	; 0x29
    32bc:	20 a7       	std	Z+40, r18	; 0x28
    32be:	53 a7       	std	Z+43, r21	; 0x2b
    32c0:	42 a7       	std	Z+42, r20	; 0x2a
    32c2:	35 a7       	std	Z+45, r19	; 0x2d
    32c4:	24 a7       	std	Z+44, r18	; 0x2c
    32c6:	d7 a7       	std	Z+47, r29	; 0x2f
    32c8:	c6 a7       	std	Z+46, r28	; 0x2e
    32ca:	31 ab       	std	Z+49, r19	; 0x31
    32cc:	20 ab       	std	Z+48, r18	; 0x30
    32ce:	93 ab       	std	Z+51, r25	; 0x33
    32d0:	82 ab       	std	Z+50, r24	; 0x32
    32d2:	35 ab       	std	Z+53, r19	; 0x35
    32d4:	24 ab       	std	Z+52, r18	; 0x34
    32d6:	77 ab       	std	Z+55, r23	; 0x37
    32d8:	66 ab       	std	Z+54, r22	; 0x36
    32da:	31 af       	std	Z+57, r19	; 0x39
    32dc:	20 af       	std	Z+56, r18	; 0x38
    32de:	b5 af       	std	Z+61, r27	; 0x3d
    32e0:	a4 af       	std	Z+60, r26	; 0x3c
    32e2:	ef 01       	movw	r28, r30
    32e4:	c0 5b       	subi	r28, 0xB0	; 176
    32e6:	df 4f       	sbci	r29, 0xFF	; 255
    32e8:	8d ec       	ldi	r24, 0xCD	; 205
    32ea:	9c ec       	ldi	r25, 0xCC	; 204
    32ec:	ac ec       	ldi	r26, 0xCC	; 204
    32ee:	bd eb       	ldi	r27, 0xBD	; 189
    32f0:	88 83       	st	Y, r24
    32f2:	99 83       	std	Y+1, r25	; 0x01
    32f4:	aa 83       	std	Y+2, r26	; 0x02
    32f6:	bb 83       	std	Y+3, r27	; 0x03
    32f8:	24 96       	adiw	r28, 0x04	; 4
    32fa:	88 83       	st	Y, r24
    32fc:	99 83       	std	Y+1, r25	; 0x01
    32fe:	aa 83       	std	Y+2, r26	; 0x02
    3300:	bb 83       	std	Y+3, r27	; 0x03
    3302:	df 01       	movw	r26, r30
    3304:	a8 5a       	subi	r26, 0xA8	; 168
    3306:	bf 4f       	sbci	r27, 0xFF	; 255
    3308:	4f e6       	ldi	r20, 0x6F	; 111
    330a:	52 e1       	ldi	r21, 0x12	; 18
    330c:	63 e8       	ldi	r22, 0x83	; 131
    330e:	7a e3       	ldi	r23, 0x3A	; 58
    3310:	4d 93       	st	X+, r20
    3312:	5d 93       	st	X+, r21
    3314:	6d 93       	st	X+, r22
    3316:	7c 93       	st	X, r23
    3318:	13 97       	sbiw	r26, 0x03	; 3
    331a:	14 96       	adiw	r26, 0x04	; 4
    331c:	1d 92       	st	X+, r1
    331e:	1d 92       	st	X+, r1
    3320:	1d 92       	st	X+, r1
    3322:	1c 92       	st	X, r1
    3324:	13 97       	sbiw	r26, 0x03	; 3
    3326:	14 96       	adiw	r26, 0x04	; 4
    3328:	1d 92       	st	X+, r1
    332a:	1d 92       	st	X+, r1
    332c:	1d 92       	st	X+, r1
    332e:	1c 92       	st	X, r1
    3330:	13 97       	sbiw	r26, 0x03	; 3
    3332:	14 96       	adiw	r26, 0x04	; 4
    3334:	1d 92       	st	X+, r1
    3336:	1d 92       	st	X+, r1
    3338:	1d 92       	st	X+, r1
    333a:	1c 92       	st	X, r1
    333c:	13 97       	sbiw	r26, 0x03	; 3
    333e:	14 96       	adiw	r26, 0x04	; 4
    3340:	1d 92       	st	X+, r1
    3342:	1d 92       	st	X+, r1
    3344:	1d 92       	st	X+, r1
    3346:	1c 92       	st	X, r1
    3348:	13 97       	sbiw	r26, 0x03	; 3
    334a:	14 96       	adiw	r26, 0x04	; 4
    334c:	1d 92       	st	X+, r1
    334e:	1d 92       	st	X+, r1
    3350:	1d 92       	st	X+, r1
    3352:	1c 92       	st	X, r1
    3354:	13 97       	sbiw	r26, 0x03	; 3
    3356:	14 96       	adiw	r26, 0x04	; 4
    3358:	4d ec       	ldi	r20, 0xCD	; 205
    335a:	5c ec       	ldi	r21, 0xCC	; 204
    335c:	6c e4       	ldi	r22, 0x4C	; 76
    335e:	7e e3       	ldi	r23, 0x3E	; 62
    3360:	4d 93       	st	X+, r20
    3362:	5d 93       	st	X+, r21
    3364:	6d 93       	st	X+, r22
    3366:	7c 93       	st	X, r23
    3368:	13 97       	sbiw	r26, 0x03	; 3
    336a:	ec 58       	subi	r30, 0x8C	; 140
    336c:	ff 4f       	sbci	r31, 0xFF	; 255
    336e:	81 e0       	ldi	r24, 0x01	; 1
    3370:	90 e0       	ldi	r25, 0x00	; 0
    3372:	91 83       	std	Z+1, r25	; 0x01
    3374:	80 83       	st	Z, r24
{
} //Path
    3376:	df 91       	pop	r29
    3378:	cf 91       	pop	r28
    337a:	08 95       	ret

0000337c <_ZN4Path12CcltAngleSubEdd>:
	

}

double Path::CcltAngleSub(double minuend, double subtrahend)
{
    337c:	cf 92       	push	r12
    337e:	df 92       	push	r13
    3380:	ef 92       	push	r14
    3382:	ff 92       	push	r15
    3384:	0f 93       	push	r16
    3386:	1f 93       	push	r17
    3388:	cb 01       	movw	r24, r22
    338a:	ba 01       	movw	r22, r20
	double result = 0.0f;
	result = minuend - subtrahend;
    338c:	a9 01       	movw	r20, r18
    338e:	98 01       	movw	r18, r16
    3390:	0e 94 dd 27 	call	0x4fba	; 0x4fba <__subsf3>
    3394:	6b 01       	movw	r12, r22
    3396:	7c 01       	movw	r14, r24
	if (result >  180.0f)  result -= 360.0f;
    3398:	20 e0       	ldi	r18, 0x00	; 0
    339a:	30 e0       	ldi	r19, 0x00	; 0
    339c:	44 e3       	ldi	r20, 0x34	; 52
    339e:	53 e4       	ldi	r21, 0x43	; 67
    33a0:	0e 94 b0 2a 	call	0x5560	; 0x5560 <__gesf2>
    33a4:	18 16       	cp	r1, r24
    33a6:	54 f4       	brge	.+20     	; 0x33bc <_ZN4Path12CcltAngleSubEdd+0x40>
    33a8:	20 e0       	ldi	r18, 0x00	; 0
    33aa:	30 e0       	ldi	r19, 0x00	; 0
    33ac:	44 eb       	ldi	r20, 0xB4	; 180
    33ae:	53 e4       	ldi	r21, 0x43	; 67
    33b0:	c7 01       	movw	r24, r14
    33b2:	b6 01       	movw	r22, r12
    33b4:	0e 94 dd 27 	call	0x4fba	; 0x4fba <__subsf3>
    33b8:	6b 01       	movw	r12, r22
    33ba:	7c 01       	movw	r14, r24
	if (result < -180.0f)  result += 360.0f;
    33bc:	20 e0       	ldi	r18, 0x00	; 0
    33be:	30 e0       	ldi	r19, 0x00	; 0
    33c0:	44 e3       	ldi	r20, 0x34	; 52
    33c2:	53 ec       	ldi	r21, 0xC3	; 195
    33c4:	c7 01       	movw	r24, r14
    33c6:	b6 01       	movw	r22, r12
    33c8:	0e 94 a4 28 	call	0x5148	; 0x5148 <__cmpsf2>
    33cc:	87 ff       	sbrs	r24, 7
    33ce:	0a c0       	rjmp	.+20     	; 0x33e4 <_ZN4Path12CcltAngleSubEdd+0x68>
    33d0:	20 e0       	ldi	r18, 0x00	; 0
    33d2:	30 e0       	ldi	r19, 0x00	; 0
    33d4:	44 eb       	ldi	r20, 0xB4	; 180
    33d6:	53 e4       	ldi	r21, 0x43	; 67
    33d8:	c7 01       	movw	r24, r14
    33da:	b6 01       	movw	r22, r12
    33dc:	0e 94 de 27 	call	0x4fbc	; 0x4fbc <__addsf3>
    33e0:	6b 01       	movw	r12, r22
    33e2:	7c 01       	movw	r14, r24
	return result;
}
    33e4:	c7 01       	movw	r24, r14
    33e6:	b6 01       	movw	r22, r12
    33e8:	1f 91       	pop	r17
    33ea:	0f 91       	pop	r16
    33ec:	ff 90       	pop	r15
    33ee:	ef 90       	pop	r14
    33f0:	df 90       	pop	r13
    33f2:	cf 90       	pop	r12
    33f4:	08 95       	ret

000033f6 <_ZN4Path9gotoPointEddddd>:

* @retval 	true
*/

bool Path::gotoPoint(double presentX,double presentY,double presentP,double targetX,double targetY)
{
    33f6:	2f 92       	push	r2
    33f8:	3f 92       	push	r3
    33fa:	4f 92       	push	r4
    33fc:	5f 92       	push	r5
    33fe:	6f 92       	push	r6
    3400:	7f 92       	push	r7
    3402:	8f 92       	push	r8
    3404:	9f 92       	push	r9
    3406:	af 92       	push	r10
    3408:	bf 92       	push	r11
    340a:	cf 92       	push	r12
    340c:	df 92       	push	r13
    340e:	ef 92       	push	r14
    3410:	ff 92       	push	r15
    3412:	0f 93       	push	r16
    3414:	1f 93       	push	r17
    3416:	cf 93       	push	r28
    3418:	df 93       	push	r29
    341a:	00 d0       	rcall	.+0      	; 0x341c <_ZN4Path9gotoPointEddddd+0x26>
    341c:	00 d0       	rcall	.+0      	; 0x341e <_ZN4Path9gotoPointEddddd+0x28>
    341e:	cd b7       	in	r28, 0x3d	; 61
    3420:	de b7       	in	r29, 0x3e	; 62
    3422:	1c 01       	movw	r2, r24
    3424:	28 01       	movw	r4, r16
    3426:	39 01       	movw	r6, r18
	
	//
	double dx = targetX - presentX;
    3428:	9a 01       	movw	r18, r20
    342a:	ab 01       	movw	r20, r22
    342c:	c5 01       	movw	r24, r10
    342e:	b4 01       	movw	r22, r8
    3430:	0e 94 dd 27 	call	0x4fba	; 0x4fba <__subsf3>
    3434:	4b 01       	movw	r8, r22
    3436:	5c 01       	movw	r10, r24
	double dy = targetY - presentY;
    3438:	a3 01       	movw	r20, r6
    343a:	92 01       	movw	r18, r4
    343c:	6c 8d       	ldd	r22, Y+28	; 0x1c
    343e:	7d 8d       	ldd	r23, Y+29	; 0x1d
    3440:	8e 8d       	ldd	r24, Y+30	; 0x1e
    3442:	9f 8d       	ldd	r25, Y+31	; 0x1f
    3444:	0e 94 dd 27 	call	0x4fba	; 0x4fba <__subsf3>
    3448:	2b 01       	movw	r4, r22
    344a:	3c 01       	movw	r6, r24
	double distance = sqrt((dx)*(dx)+(dy)*(dy));
    344c:	a5 01       	movw	r20, r10
    344e:	94 01       	movw	r18, r8
    3450:	c5 01       	movw	r24, r10
    3452:	b4 01       	movw	r22, r8
    3454:	0e 94 bb 2a 	call	0x5576	; 0x5576 <__mulsf3>
    3458:	69 83       	std	Y+1, r22	; 0x01
    345a:	7a 83       	std	Y+2, r23	; 0x02
    345c:	8b 83       	std	Y+3, r24	; 0x03
    345e:	9c 83       	std	Y+4, r25	; 0x04
    3460:	a3 01       	movw	r20, r6
    3462:	92 01       	movw	r18, r4
    3464:	c3 01       	movw	r24, r6
    3466:	b2 01       	movw	r22, r4
    3468:	0e 94 bb 2a 	call	0x5576	; 0x5576 <__mulsf3>
    346c:	9b 01       	movw	r18, r22
    346e:	ac 01       	movw	r20, r24
    3470:	69 81       	ldd	r22, Y+1	; 0x01
    3472:	7a 81       	ldd	r23, Y+2	; 0x02
    3474:	8b 81       	ldd	r24, Y+3	; 0x03
    3476:	9c 81       	ldd	r25, Y+4	; 0x04
    3478:	0e 94 de 27 	call	0x4fbc	; 0x4fbc <__addsf3>
    347c:	0e 94 74 2b 	call	0x56e8	; 0x56e8 <sqrt>
	if (distance < 50)
    3480:	20 e0       	ldi	r18, 0x00	; 0
    3482:	30 e0       	ldi	r19, 0x00	; 0
    3484:	48 e4       	ldi	r20, 0x48	; 72
    3486:	52 e4       	ldi	r21, 0x42	; 66
    3488:	0e 94 a4 28 	call	0x5148	; 0x5148 <__cmpsf2>
    348c:	91 01       	movw	r18, r2
    348e:	20 59       	subi	r18, 0x90	; 144
    3490:	3f 4f       	sbci	r19, 0xFF	; 255
    3492:	3e 83       	std	Y+6, r19	; 0x06
    3494:	2d 83       	std	Y+5, r18	; 0x05
    3496:	f1 01       	movw	r30, r2
    3498:	e4 59       	subi	r30, 0x94	; 148
    349a:	ff 4f       	sbci	r31, 0xFF	; 255
    349c:	fa 83       	std	Y+2, r31	; 0x02
    349e:	e9 83       	std	Y+1, r30	; 0x01
    34a0:	87 ff       	sbrs	r24, 7
    34a2:	14 c0       	rjmp	.+40     	; 0x34cc <_ZN4Path9gotoPointEddddd+0xd6>
	{
		Serial.println("Arrived");
    34a4:	66 ee       	ldi	r22, 0xE6	; 230
    34a6:	7b e0       	ldi	r23, 0x0B	; 11
    34a8:	83 ed       	ldi	r24, 0xD3	; 211
    34aa:	9e e0       	ldi	r25, 0x0E	; 14
    34ac:	0e 94 b3 2f 	call	0x5f66	; 0x5f66 <_ZN5Print7printlnEPKc>
		linear_vel_x = 0;
    34b0:	ed 81       	ldd	r30, Y+5	; 0x05
    34b2:	fe 81       	ldd	r31, Y+6	; 0x06
    34b4:	10 82       	st	Z, r1
    34b6:	11 82       	std	Z+1, r1	; 0x01
    34b8:	12 82       	std	Z+2, r1	; 0x02
    34ba:	13 82       	std	Z+3, r1	; 0x03
		angular_vel_z = 0;
    34bc:	e9 81       	ldd	r30, Y+1	; 0x01
    34be:	fa 81       	ldd	r31, Y+2	; 0x02
    34c0:	10 82       	st	Z, r1
    34c2:	11 82       	std	Z+1, r1	; 0x01
    34c4:	12 82       	std	Z+2, r1	; 0x02
    34c6:	13 82       	std	Z+3, r1	; 0x03
		return true;
    34c8:	81 e0       	ldi	r24, 0x01	; 1
    34ca:	9e c0       	rjmp	.+316    	; 0x3608 <_ZN4Path9gotoPointEddddd+0x212>
	}
	else
	{
		//
		angletoWorld =atan2(dx,dy);
    34cc:	a3 01       	movw	r20, r6
    34ce:	92 01       	movw	r18, r4
    34d0:	c5 01       	movw	r24, r10
    34d2:	b4 01       	movw	r22, r8
    34d4:	0e 94 51 28 	call	0x50a2	; 0x50a2 <atan2>
		
		angletoWorld = angletoWorld/PI*180;
    34d8:	2b ed       	ldi	r18, 0xDB	; 219
    34da:	3f e0       	ldi	r19, 0x0F	; 15
    34dc:	49 e4       	ldi	r20, 0x49	; 73
    34de:	50 e4       	ldi	r21, 0x40	; 64
    34e0:	0e 94 ab 28 	call	0x5156	; 0x5156 <__divsf3>
    34e4:	20 e0       	ldi	r18, 0x00	; 0
    34e6:	30 e0       	ldi	r19, 0x00	; 0
    34e8:	44 e3       	ldi	r20, 0x34	; 52
    34ea:	53 e4       	ldi	r21, 0x43	; 67
    34ec:	0e 94 bb 2a 	call	0x5576	; 0x5576 <__mulsf3>
    34f0:	ab 01       	movw	r20, r22
    34f2:	bc 01       	movw	r22, r24
    34f4:	f1 01       	movw	r30, r2
    34f6:	e4 5a       	subi	r30, 0xA4	; 164
    34f8:	ff 4f       	sbci	r31, 0xFF	; 255
    34fa:	40 83       	st	Z, r20
    34fc:	51 83       	std	Z+1, r21	; 0x01
    34fe:	62 83       	std	Z+2, r22	; 0x02
    3500:	73 83       	std	Z+3, r23	; 0x03
		
		//
		angletoCar = CcltAngleSub(angletoWorld , presentP);
    3502:	97 01       	movw	r18, r14
    3504:	86 01       	movw	r16, r12
    3506:	c1 01       	movw	r24, r2
    3508:	39 df       	rcall	.-398    	; 0x337c <_ZN4Path12CcltAngleSubEdd>
    350a:	6b 01       	movw	r12, r22
    350c:	7c 01       	movw	r14, r24
    350e:	f1 01       	movw	r30, r2
    3510:	e0 5a       	subi	r30, 0xA0	; 160
    3512:	ff 4f       	sbci	r31, 0xFF	; 255
    3514:	60 83       	st	Z, r22
    3516:	71 83       	std	Z+1, r23	; 0x01
    3518:	82 83       	std	Z+2, r24	; 0x02
    351a:	93 83       	std	Z+3, r25	; 0x03
			//
			
		
		//P
		if (fabs(angletoCar)>10.00)
    351c:	9f 77       	andi	r25, 0x7F	; 127
    351e:	20 e0       	ldi	r18, 0x00	; 0
    3520:	30 e0       	ldi	r19, 0x00	; 0
    3522:	40 e2       	ldi	r20, 0x20	; 32
    3524:	51 e4       	ldi	r21, 0x41	; 65
    3526:	0e 94 b0 2a 	call	0x5560	; 0x5560 <__gesf2>
    352a:	81 01       	movw	r16, r2
    352c:	08 59       	subi	r16, 0x98	; 152
    352e:	1f 4f       	sbci	r17, 0xFF	; 255
    3530:	18 16       	cp	r1, r24
    3532:	64 f4       	brge	.+24     	; 0x354c <_ZN4Path9gotoPointEddddd+0x156>
		{
			angular_vel_z = k*angletoCar;
    3534:	f1 01       	movw	r30, r2
    3536:	e0 5b       	subi	r30, 0xB0	; 176
    3538:	ff 4f       	sbci	r31, 0xFF	; 255
    353a:	a7 01       	movw	r20, r14
    353c:	96 01       	movw	r18, r12
    353e:	60 81       	ld	r22, Z
    3540:	71 81       	ldd	r23, Z+1	; 0x01
    3542:	82 81       	ldd	r24, Z+2	; 0x02
    3544:	93 81       	ldd	r25, Z+3	; 0x03
    3546:	0e 94 bb 2a 	call	0x5576	; 0x5576 <__mulsf3>
    354a:	2e c0       	rjmp	.+92     	; 0x35a8 <_ZN4Path9gotoPointEddddd+0x1b2>
		}
		else//PD
		{
			angletoCarErr = angletoCar - pre_angletoCar;//
    354c:	f8 01       	movw	r30, r16
    354e:	20 81       	ld	r18, Z
    3550:	31 81       	ldd	r19, Z+1	; 0x01
    3552:	42 81       	ldd	r20, Z+2	; 0x02
    3554:	53 81       	ldd	r21, Z+3	; 0x03
    3556:	c7 01       	movw	r24, r14
    3558:	b6 01       	movw	r22, r12
    355a:	0e 94 dd 27 	call	0x4fba	; 0x4fba <__subsf3>
    355e:	4b 01       	movw	r8, r22
    3560:	5c 01       	movw	r10, r24
    3562:	f1 01       	movw	r30, r2
    3564:	ec 59       	subi	r30, 0x9C	; 156
    3566:	ff 4f       	sbci	r31, 0xFF	; 255
    3568:	60 83       	st	Z, r22
    356a:	71 83       	std	Z+1, r23	; 0x01
    356c:	82 83       	std	Z+2, r24	; 0x02
    356e:	93 83       	std	Z+3, r25	; 0x03
			angular_vel_z = kp2*angletoCar - kd2*angletoCarErr;
    3570:	70 97       	sbiw	r30, 0x10	; 16
    3572:	20 81       	ld	r18, Z
    3574:	31 81       	ldd	r19, Z+1	; 0x01
    3576:	42 81       	ldd	r20, Z+2	; 0x02
    3578:	53 81       	ldd	r21, Z+3	; 0x03
    357a:	c7 01       	movw	r24, r14
    357c:	b6 01       	movw	r22, r12
    357e:	0e 94 bb 2a 	call	0x5576	; 0x5576 <__mulsf3>
    3582:	2b 01       	movw	r4, r22
    3584:	3c 01       	movw	r6, r24
    3586:	f1 01       	movw	r30, r2
    3588:	e8 5a       	subi	r30, 0xA8	; 168
    358a:	ff 4f       	sbci	r31, 0xFF	; 255
    358c:	20 81       	ld	r18, Z
    358e:	31 81       	ldd	r19, Z+1	; 0x01
    3590:	42 81       	ldd	r20, Z+2	; 0x02
    3592:	53 81       	ldd	r21, Z+3	; 0x03
    3594:	c5 01       	movw	r24, r10
    3596:	b4 01       	movw	r22, r8
    3598:	0e 94 bb 2a 	call	0x5576	; 0x5576 <__mulsf3>
    359c:	9b 01       	movw	r18, r22
    359e:	ac 01       	movw	r20, r24
    35a0:	c3 01       	movw	r24, r6
    35a2:	b2 01       	movw	r22, r4
    35a4:	0e 94 dd 27 	call	0x4fba	; 0x4fba <__subsf3>
    35a8:	e9 81       	ldd	r30, Y+1	; 0x01
    35aa:	fa 81       	ldd	r31, Y+2	; 0x02
    35ac:	60 83       	st	Z, r22
    35ae:	71 83       	std	Z+1, r23	; 0x01
    35b0:	82 83       	std	Z+2, r24	; 0x02
    35b2:	93 83       	std	Z+3, r25	; 0x03
		}
		
		pre_angletoCar = angletoCar; //
    35b4:	f8 01       	movw	r30, r16
    35b6:	c0 82       	st	Z, r12
    35b8:	d1 82       	std	Z+1, r13	; 0x01
    35ba:	e2 82       	std	Z+2, r14	; 0x02
    35bc:	f3 82       	std	Z+3, r15	; 0x03
		linear_vel_x = 0.8;
    35be:	8d ec       	ldi	r24, 0xCD	; 205
    35c0:	9c ec       	ldi	r25, 0xCC	; 204
    35c2:	ac e4       	ldi	r26, 0x4C	; 76
    35c4:	bf e3       	ldi	r27, 0x3F	; 63
    35c6:	ed 81       	ldd	r30, Y+5	; 0x05
    35c8:	fe 81       	ldd	r31, Y+6	; 0x06
    35ca:	80 83       	st	Z, r24
    35cc:	91 83       	std	Z+1, r25	; 0x01
    35ce:	a2 83       	std	Z+2, r26	; 0x02
    35d0:	b3 83       	std	Z+3, r27	; 0x03
		Serial.print(angletoCar);
		Serial.print("angular_vel_z:");
		Serial.print(angular_vel_z);
		Serial.println();
		#endif // Path_DEBUG
		Serial.print(angletoCar);
    35d2:	22 e0       	ldi	r18, 0x02	; 2
    35d4:	30 e0       	ldi	r19, 0x00	; 0
    35d6:	b7 01       	movw	r22, r14
    35d8:	a6 01       	movw	r20, r12
    35da:	83 ed       	ldi	r24, 0xD3	; 211
    35dc:	9e e0       	ldi	r25, 0x0E	; 14
    35de:	0e 94 70 31 	call	0x62e0	; 0x62e0 <_ZN5Print5printEdi>
		Serial.print(" ");
    35e2:	69 ea       	ldi	r22, 0xA9	; 169
    35e4:	79 e0       	ldi	r23, 0x09	; 9
    35e6:	83 ed       	ldi	r24, 0xD3	; 211
    35e8:	9e e0       	ldi	r25, 0x0E	; 14
    35ea:	0e 94 98 2f 	call	0x5f30	; 0x5f30 <_ZN5Print5printEPKc>
		Serial.println(angular_vel_z);
    35ee:	e9 81       	ldd	r30, Y+1	; 0x01
    35f0:	fa 81       	ldd	r31, Y+2	; 0x02
    35f2:	40 81       	ld	r20, Z
    35f4:	51 81       	ldd	r21, Z+1	; 0x01
    35f6:	62 81       	ldd	r22, Z+2	; 0x02
    35f8:	73 81       	ldd	r23, Z+3	; 0x03
    35fa:	22 e0       	ldi	r18, 0x02	; 2
    35fc:	30 e0       	ldi	r19, 0x00	; 0
    35fe:	83 ed       	ldi	r24, 0xD3	; 211
    3600:	9e e0       	ldi	r25, 0x0E	; 14
    3602:	0e 94 71 31 	call	0x62e2	; 0x62e2 <_ZN5Print7printlnEdi>
		return false;
    3606:	80 e0       	ldi	r24, 0x00	; 0
	}
	

}
    3608:	26 96       	adiw	r28, 0x06	; 6
    360a:	0f b6       	in	r0, 0x3f	; 63
    360c:	f8 94       	cli
    360e:	de bf       	out	0x3e, r29	; 62
    3610:	0f be       	out	0x3f, r0	; 63
    3612:	cd bf       	out	0x3d, r28	; 61
    3614:	df 91       	pop	r29
    3616:	cf 91       	pop	r28
    3618:	1f 91       	pop	r17
    361a:	0f 91       	pop	r16
    361c:	ff 90       	pop	r15
    361e:	ef 90       	pop	r14
    3620:	df 90       	pop	r13
    3622:	cf 90       	pop	r12
    3624:	bf 90       	pop	r11
    3626:	af 90       	pop	r10
    3628:	9f 90       	pop	r9
    362a:	8f 90       	pop	r8
    362c:	7f 90       	pop	r7
    362e:	6f 90       	pop	r6
    3630:	5f 90       	pop	r5
    3632:	4f 90       	pop	r4
    3634:	3f 90       	pop	r3
    3636:	2f 90       	pop	r2
    3638:	08 95       	ret

0000363a <_ZN4PS2X14NewButtonStateEv>:
  if(PS2data[1] != 0x79)
    return false;

  en_Pressures = true;
    return true;
}
    363a:	fc 01       	movw	r30, r24
    363c:	81 e0       	ldi	r24, 0x01	; 1
    363e:	46 89       	ldd	r20, Z+22	; 0x16
    3640:	57 89       	ldd	r21, Z+23	; 0x17
    3642:	20 8d       	ldd	r18, Z+24	; 0x18
    3644:	31 8d       	ldd	r19, Z+25	; 0x19
    3646:	42 17       	cp	r20, r18
    3648:	53 07       	cpc	r21, r19
    364a:	09 f4       	brne	.+2      	; 0x364e <_ZN4PS2X14NewButtonStateEv+0x14>
    364c:	80 e0       	ldi	r24, 0x00	; 0
    364e:	08 95       	ret

00003650 <_ZN4PS2X14NewButtonStateEj>:
    3650:	fc 01       	movw	r30, r24
    3652:	20 8d       	ldd	r18, Z+24	; 0x18
    3654:	31 8d       	ldd	r19, Z+25	; 0x19
    3656:	86 89       	ldd	r24, Z+22	; 0x16
    3658:	97 89       	ldd	r25, Z+23	; 0x17
    365a:	82 27       	eor	r24, r18
    365c:	93 27       	eor	r25, r19
    365e:	68 23       	and	r22, r24
    3660:	79 23       	and	r23, r25
    3662:	81 e0       	ldi	r24, 0x01	; 1
    3664:	67 2b       	or	r22, r23
    3666:	09 f4       	brne	.+2      	; 0x366a <_ZN4PS2X14NewButtonStateEj+0x1a>
    3668:	80 e0       	ldi	r24, 0x00	; 0
    366a:	08 95       	ret

0000366c <_ZN4PS2X13ButtonPressedEj>:
    366c:	dc 01       	movw	r26, r24
    366e:	58 96       	adiw	r26, 0x18	; 24
    3670:	ed 91       	ld	r30, X+
    3672:	fc 91       	ld	r31, X
    3674:	59 97       	sbiw	r26, 0x19	; 25
    3676:	af 01       	movw	r20, r30
    3678:	40 95       	com	r20
    367a:	50 95       	com	r21
    367c:	46 23       	and	r20, r22
    367e:	57 23       	and	r21, r23
    3680:	91 e0       	ldi	r25, 0x01	; 1
    3682:	45 2b       	or	r20, r21
    3684:	09 f4       	brne	.+2      	; 0x3688 <_ZN4PS2X13ButtonPressedEj+0x1c>
    3686:	90 e0       	ldi	r25, 0x00	; 0
    3688:	56 96       	adiw	r26, 0x16	; 22
    368a:	2d 91       	ld	r18, X+
    368c:	3c 91       	ld	r19, X
    368e:	57 97       	sbiw	r26, 0x17	; 23
    3690:	2e 27       	eor	r18, r30
    3692:	3f 27       	eor	r19, r31
    3694:	62 23       	and	r22, r18
    3696:	73 23       	and	r23, r19
    3698:	81 e0       	ldi	r24, 0x01	; 1
    369a:	67 2b       	or	r22, r23
    369c:	09 f4       	brne	.+2      	; 0x36a0 <_ZN4PS2X13ButtonPressedEj+0x34>
    369e:	80 e0       	ldi	r24, 0x00	; 0
    36a0:	89 23       	and	r24, r25
    36a2:	08 95       	ret

000036a4 <_ZN4PS2X14ButtonReleasedEj>:
    36a4:	dc 01       	movw	r26, r24
    36a6:	56 96       	adiw	r26, 0x16	; 22
    36a8:	ed 91       	ld	r30, X+
    36aa:	fc 91       	ld	r31, X
    36ac:	57 97       	sbiw	r26, 0x17	; 23
    36ae:	af 01       	movw	r20, r30
    36b0:	40 95       	com	r20
    36b2:	50 95       	com	r21
    36b4:	46 23       	and	r20, r22
    36b6:	57 23       	and	r21, r23
    36b8:	91 e0       	ldi	r25, 0x01	; 1
    36ba:	45 2b       	or	r20, r21
    36bc:	09 f4       	brne	.+2      	; 0x36c0 <_ZN4PS2X14ButtonReleasedEj+0x1c>
    36be:	90 e0       	ldi	r25, 0x00	; 0
    36c0:	58 96       	adiw	r26, 0x18	; 24
    36c2:	2d 91       	ld	r18, X+
    36c4:	3c 91       	ld	r19, X
    36c6:	59 97       	sbiw	r26, 0x19	; 25
    36c8:	2e 27       	eor	r18, r30
    36ca:	3f 27       	eor	r19, r31
    36cc:	62 23       	and	r22, r18
    36ce:	73 23       	and	r23, r19
    36d0:	81 e0       	ldi	r24, 0x01	; 1
    36d2:	67 2b       	or	r22, r23
    36d4:	09 f4       	brne	.+2      	; 0x36d8 <_ZN4PS2X14ButtonReleasedEj+0x34>
    36d6:	80 e0       	ldi	r24, 0x00	; 0
    36d8:	89 23       	and	r24, r25
    36da:	08 95       	ret

000036dc <_ZN4PS2X6ButtonEj>:
    36dc:	fc 01       	movw	r30, r24
    36de:	80 8d       	ldd	r24, Z+24	; 0x18
    36e0:	91 8d       	ldd	r25, Z+25	; 0x19
    36e2:	80 95       	com	r24
    36e4:	90 95       	com	r25
    36e6:	68 23       	and	r22, r24
    36e8:	79 23       	and	r23, r25
    36ea:	81 e0       	ldi	r24, 0x01	; 1
    36ec:	67 2b       	or	r22, r23
    36ee:	09 f4       	brne	.+2      	; 0x36f2 <_ZN4PS2X6ButtonEj+0x16>
    36f0:	80 e0       	ldi	r24, 0x00	; 0
    36f2:	08 95       	ret

000036f4 <_ZN4PS2X6AnalogEh>:
    36f4:	86 0f       	add	r24, r22
    36f6:	91 1d       	adc	r25, r1
    36f8:	fc 01       	movw	r30, r24
    36fa:	80 81       	ld	r24, Z
    36fc:	08 95       	ret

000036fe <_ZN4PS2X8readTypeEv>:
    36fe:	fc 01       	movw	r30, r24
    3700:	83 a5       	ldd	r24, Z+43	; 0x2b
    3702:	83 30       	cpi	r24, 0x03	; 3
    3704:	31 f0       	breq	.+12     	; 0x3712 <_ZN4PS2X8readTypeEv+0x14>
    3706:	81 30       	cpi	r24, 0x01	; 1
    3708:	31 f0       	breq	.+12     	; 0x3716 <_ZN4PS2X8readTypeEv+0x18>
    370a:	8c 30       	cpi	r24, 0x0C	; 12
    370c:	31 f0       	breq	.+12     	; 0x371a <_ZN4PS2X8readTypeEv+0x1c>
    370e:	80 e0       	ldi	r24, 0x00	; 0
    3710:	08 95       	ret
    3712:	81 e0       	ldi	r24, 0x01	; 1
    3714:	08 95       	ret
    3716:	82 e0       	ldi	r24, 0x02	; 2
    3718:	08 95       	ret
    371a:	83 e0       	ldi	r24, 0x03	; 3
    371c:	08 95       	ret

0000371e <_ZN4PS2X7CLK_SETEv>:
    371e:	dc 01       	movw	r26, r24
    3720:	9f b7       	in	r25, 0x3f	; 63
    3722:	f8 94       	cli
    3724:	5b 96       	adiw	r26, 0x1b	; 27
    3726:	ed 91       	ld	r30, X+
    3728:	fc 91       	ld	r31, X
    372a:	5c 97       	sbiw	r26, 0x1c	; 28
    372c:	20 81       	ld	r18, Z
    372e:	5a 96       	adiw	r26, 0x1a	; 26
    3730:	8c 91       	ld	r24, X
    3732:	82 2b       	or	r24, r18
    3734:	80 83       	st	Z, r24
    3736:	9f bf       	out	0x3f, r25	; 63
    3738:	08 95       	ret

0000373a <_ZN4PS2X7CMD_SETEv>:
    373a:	dc 01       	movw	r26, r24
    373c:	9f b7       	in	r25, 0x3f	; 63
    373e:	f8 94       	cli
    3740:	5e 96       	adiw	r26, 0x1e	; 30
    3742:	ed 91       	ld	r30, X+
    3744:	fc 91       	ld	r31, X
    3746:	5f 97       	sbiw	r26, 0x1f	; 31
    3748:	20 81       	ld	r18, Z
    374a:	5d 96       	adiw	r26, 0x1d	; 29
    374c:	8c 91       	ld	r24, X
    374e:	82 2b       	or	r24, r18
    3750:	80 83       	st	Z, r24
    3752:	9f bf       	out	0x3f, r25	; 63
    3754:	08 95       	ret

00003756 <_ZN4PS2X19_gamepad_shiftinoutEc>:
    3756:	8f 92       	push	r8
    3758:	9f 92       	push	r9
    375a:	af 92       	push	r10
    375c:	bf 92       	push	r11
    375e:	cf 92       	push	r12
    3760:	df 92       	push	r13
    3762:	ef 92       	push	r14
    3764:	ff 92       	push	r15
    3766:	0f 93       	push	r16
    3768:	1f 93       	push	r17
    376a:	cf 93       	push	r28
    376c:	df 93       	push	r29
    376e:	ec 01       	movw	r28, r24
    3770:	00 e0       	ldi	r16, 0x00	; 0
    3772:	10 e0       	ldi	r17, 0x00	; 0
    3774:	f1 2c       	mov	r15, r1
    3776:	c6 2e       	mov	r12, r22
    3778:	d1 2c       	mov	r13, r1
    377a:	81 2c       	mov	r8, r1
    377c:	91 2c       	mov	r9, r1
    377e:	54 01       	movw	r10, r8
    3780:	83 94       	inc	r8
    3782:	e0 2e       	mov	r14, r16
    3784:	c6 01       	movw	r24, r12
    3786:	00 2e       	mov	r0, r16
    3788:	02 c0       	rjmp	.+4      	; 0x378e <_ZN4PS2X19_gamepad_shiftinoutEc+0x38>
    378a:	95 95       	asr	r25
    378c:	87 95       	ror	r24
    378e:	0a 94       	dec	r0
    3790:	e2 f7       	brpl	.-8      	; 0x378a <_ZN4PS2X19_gamepad_shiftinoutEc+0x34>
    3792:	80 ff       	sbrs	r24, 0
    3794:	03 c0       	rjmp	.+6      	; 0x379c <_ZN4PS2X19_gamepad_shiftinoutEc+0x46>
    3796:	ce 01       	movw	r24, r28
    3798:	d0 df       	rcall	.-96     	; 0x373a <_ZN4PS2X7CMD_SETEv>
    379a:	0a c0       	rjmp	.+20     	; 0x37b0 <_ZN4PS2X19_gamepad_shiftinoutEc+0x5a>
    379c:	2f b7       	in	r18, 0x3f	; 63
    379e:	f8 94       	cli
    37a0:	ee 8d       	ldd	r30, Y+30	; 0x1e
    37a2:	ff 8d       	ldd	r31, Y+31	; 0x1f
    37a4:	90 81       	ld	r25, Z
    37a6:	8d 8d       	ldd	r24, Y+29	; 0x1d
    37a8:	80 95       	com	r24
    37aa:	89 23       	and	r24, r25
    37ac:	80 83       	st	Z, r24
    37ae:	2f bf       	out	0x3f, r18	; 63
    37b0:	2f b7       	in	r18, 0x3f	; 63
    37b2:	f8 94       	cli
    37b4:	eb 8d       	ldd	r30, Y+27	; 0x1b
    37b6:	fc 8d       	ldd	r31, Y+28	; 0x1c
    37b8:	90 81       	ld	r25, Z
    37ba:	8a 8d       	ldd	r24, Y+26	; 0x1a
    37bc:	80 95       	com	r24
    37be:	89 23       	and	r24, r25
    37c0:	80 83       	st	Z, r24
    37c2:	2f bf       	out	0x3f, r18	; 63
    37c4:	84 e0       	ldi	r24, 0x04	; 4
    37c6:	90 e0       	ldi	r25, 0x00	; 0
    37c8:	0e 94 01 34 	call	0x6802	; 0x6802 <delayMicroseconds>
    37cc:	ec a1       	ldd	r30, Y+36	; 0x24
    37ce:	fd a1       	ldd	r31, Y+37	; 0x25
    37d0:	90 81       	ld	r25, Z
    37d2:	8b a1       	ldd	r24, Y+35	; 0x23
    37d4:	89 23       	and	r24, r25
    37d6:	51 f0       	breq	.+20     	; 0x37ec <_ZN4PS2X19_gamepad_shiftinoutEc+0x96>
    37d8:	d5 01       	movw	r26, r10
    37da:	c4 01       	movw	r24, r8
    37dc:	04 c0       	rjmp	.+8      	; 0x37e6 <_ZN4PS2X19_gamepad_shiftinoutEc+0x90>
    37de:	88 0f       	add	r24, r24
    37e0:	99 1f       	adc	r25, r25
    37e2:	aa 1f       	adc	r26, r26
    37e4:	bb 1f       	adc	r27, r27
    37e6:	ea 94       	dec	r14
    37e8:	d2 f7       	brpl	.-12     	; 0x37de <_ZN4PS2X19_gamepad_shiftinoutEc+0x88>
    37ea:	f8 2a       	or	r15, r24
    37ec:	ce 01       	movw	r24, r28
    37ee:	97 df       	rcall	.-210    	; 0x371e <_ZN4PS2X7CLK_SETEv>
    37f0:	0f 5f       	subi	r16, 0xFF	; 255
    37f2:	1f 4f       	sbci	r17, 0xFF	; 255
    37f4:	08 30       	cpi	r16, 0x08	; 8
    37f6:	11 05       	cpc	r17, r1
    37f8:	09 f0       	breq	.+2      	; 0x37fc <_ZN4PS2X19_gamepad_shiftinoutEc+0xa6>
    37fa:	c3 cf       	rjmp	.-122    	; 0x3782 <_ZN4PS2X19_gamepad_shiftinoutEc+0x2c>
    37fc:	ce 01       	movw	r24, r28
    37fe:	9d df       	rcall	.-198    	; 0x373a <_ZN4PS2X7CMD_SETEv>
    3800:	83 e0       	ldi	r24, 0x03	; 3
    3802:	90 e0       	ldi	r25, 0x00	; 0
    3804:	0e 94 01 34 	call	0x6802	; 0x6802 <delayMicroseconds>
    3808:	8f 2d       	mov	r24, r15
    380a:	df 91       	pop	r29
    380c:	cf 91       	pop	r28
    380e:	1f 91       	pop	r17
    3810:	0f 91       	pop	r16
    3812:	ff 90       	pop	r15
    3814:	ef 90       	pop	r14
    3816:	df 90       	pop	r13
    3818:	cf 90       	pop	r12
    381a:	bf 90       	pop	r11
    381c:	af 90       	pop	r10
    381e:	9f 90       	pop	r9
    3820:	8f 90       	pop	r8
    3822:	08 95       	ret

00003824 <_ZN4PS2X7ATT_SETEv>:
    3824:	dc 01       	movw	r26, r24
    3826:	9f b7       	in	r25, 0x3f	; 63
    3828:	f8 94       	cli
    382a:	91 96       	adiw	r26, 0x21	; 33
    382c:	ed 91       	ld	r30, X+
    382e:	fc 91       	ld	r31, X
    3830:	92 97       	sbiw	r26, 0x22	; 34
    3832:	20 81       	ld	r18, Z
    3834:	90 96       	adiw	r26, 0x20	; 32
    3836:	8c 91       	ld	r24, X
    3838:	82 2b       	or	r24, r18
    383a:	80 83       	st	Z, r24
    383c:	9f bf       	out	0x3f, r25	; 63
    383e:	08 95       	ret

00003840 <_ZN4PS2X7ATT_CLREv>:
    3840:	dc 01       	movw	r26, r24
    3842:	2f b7       	in	r18, 0x3f	; 63
    3844:	f8 94       	cli
    3846:	91 96       	adiw	r26, 0x21	; 33
    3848:	ed 91       	ld	r30, X+
    384a:	fc 91       	ld	r31, X
    384c:	92 97       	sbiw	r26, 0x22	; 34
    384e:	90 81       	ld	r25, Z
    3850:	90 96       	adiw	r26, 0x20	; 32
    3852:	8c 91       	ld	r24, X
    3854:	80 95       	com	r24
    3856:	89 23       	and	r24, r25
    3858:	80 83       	st	Z, r24
    385a:	2f bf       	out	0x3f, r18	; 63
    385c:	08 95       	ret

0000385e <_ZN4PS2X17sendCommandStringEPhh>:
    385e:	cf 92       	push	r12
    3860:	df 92       	push	r13
    3862:	ef 92       	push	r14
    3864:	ff 92       	push	r15
    3866:	0f 93       	push	r16
    3868:	1f 93       	push	r17
    386a:	cf 93       	push	r28
    386c:	df 93       	push	r29
    386e:	ec 01       	movw	r28, r24
    3870:	6b 01       	movw	r12, r22
    3872:	04 2f       	mov	r16, r20
    3874:	e5 df       	rcall	.-54     	; 0x3840 <_ZN4PS2X7ATT_CLREv>
    3876:	76 01       	movw	r14, r12
    3878:	10 e0       	ldi	r17, 0x00	; 0
    387a:	c7 01       	movw	r24, r14
    387c:	8c 19       	sub	r24, r12
    387e:	9d 09       	sbc	r25, r13
    3880:	80 17       	cp	r24, r16
    3882:	91 07       	cpc	r25, r17
    3884:	34 f4       	brge	.+12     	; 0x3892 <_ZN4PS2X17sendCommandStringEPhh+0x34>
    3886:	f7 01       	movw	r30, r14
    3888:	61 91       	ld	r22, Z+
    388a:	7f 01       	movw	r14, r30
    388c:	ce 01       	movw	r24, r28
    388e:	63 df       	rcall	.-314    	; 0x3756 <_ZN4PS2X19_gamepad_shiftinoutEc>
    3890:	f4 cf       	rjmp	.-24     	; 0x387a <_ZN4PS2X17sendCommandStringEPhh+0x1c>
    3892:	ce 01       	movw	r24, r28
    3894:	c7 df       	rcall	.-114    	; 0x3824 <_ZN4PS2X7ATT_SETEv>
    3896:	6a a5       	ldd	r22, Y+42	; 0x2a
    3898:	70 e0       	ldi	r23, 0x00	; 0
    389a:	80 e0       	ldi	r24, 0x00	; 0
    389c:	90 e0       	ldi	r25, 0x00	; 0
    389e:	df 91       	pop	r29
    38a0:	cf 91       	pop	r28
    38a2:	1f 91       	pop	r17
    38a4:	0f 91       	pop	r16
    38a6:	ff 90       	pop	r15
    38a8:	ef 90       	pop	r14
    38aa:	df 90       	pop	r13
    38ac:	cf 90       	pop	r12
    38ae:	0c 94 c8 33 	jmp	0x6790	; 0x6790 <delay>

000038b2 <_ZN4PS2X16reconfig_gamepadEv>:
    38b2:	cf 93       	push	r28
    38b4:	df 93       	push	r29
    38b6:	ec 01       	movw	r28, r24
    38b8:	45 e0       	ldi	r20, 0x05	; 5
    38ba:	66 e3       	ldi	r22, 0x36	; 54
    38bc:	76 e0       	ldi	r23, 0x06	; 6
    38be:	cf df       	rcall	.-98     	; 0x385e <_ZN4PS2X17sendCommandStringEPhh>
    38c0:	49 e0       	ldi	r20, 0x09	; 9
    38c2:	6d e2       	ldi	r22, 0x2D	; 45
    38c4:	76 e0       	ldi	r23, 0x06	; 6
    38c6:	ce 01       	movw	r24, r28
    38c8:	ca df       	rcall	.-108    	; 0x385e <_ZN4PS2X17sendCommandStringEPhh>
    38ca:	8c a5       	ldd	r24, Y+44	; 0x2c
    38cc:	88 23       	and	r24, r24
    38ce:	29 f0       	breq	.+10     	; 0x38da <_ZN4PS2X16reconfig_gamepadEv+0x28>
    38d0:	45 e0       	ldi	r20, 0x05	; 5
    38d2:	66 e1       	ldi	r22, 0x16	; 22
    38d4:	76 e0       	ldi	r23, 0x06	; 6
    38d6:	ce 01       	movw	r24, r28
    38d8:	c2 df       	rcall	.-124    	; 0x385e <_ZN4PS2X17sendCommandStringEPhh>
    38da:	8d a5       	ldd	r24, Y+45	; 0x2d
    38dc:	88 23       	and	r24, r24
    38de:	29 f0       	breq	.+10     	; 0x38ea <_ZN4PS2X16reconfig_gamepadEv+0x38>
    38e0:	49 e0       	ldi	r20, 0x09	; 9
    38e2:	64 e2       	ldi	r22, 0x24	; 36
    38e4:	76 e0       	ldi	r23, 0x06	; 6
    38e6:	ce 01       	movw	r24, r28
    38e8:	ba df       	rcall	.-140    	; 0x385e <_ZN4PS2X17sendCommandStringEPhh>
    38ea:	49 e0       	ldi	r20, 0x09	; 9
    38ec:	6b e1       	ldi	r22, 0x1B	; 27
    38ee:	76 e0       	ldi	r23, 0x06	; 6
    38f0:	ce 01       	movw	r24, r28
    38f2:	df 91       	pop	r29
    38f4:	cf 91       	pop	r28
    38f6:	b3 cf       	rjmp	.-154    	; 0x385e <_ZN4PS2X17sendCommandStringEPhh>

000038f8 <_ZN4PS2X12read_gamepadEbh>:
    38f8:	2f 92       	push	r2
    38fa:	3f 92       	push	r3
    38fc:	4f 92       	push	r4
    38fe:	5f 92       	push	r5
    3900:	6f 92       	push	r6
    3902:	7f 92       	push	r7
    3904:	8f 92       	push	r8
    3906:	9f 92       	push	r9
    3908:	af 92       	push	r10
    390a:	bf 92       	push	r11
    390c:	cf 92       	push	r12
    390e:	df 92       	push	r13
    3910:	ef 92       	push	r14
    3912:	ff 92       	push	r15
    3914:	0f 93       	push	r16
    3916:	1f 93       	push	r17
    3918:	cf 93       	push	r28
    391a:	df 93       	push	r29
    391c:	cd b7       	in	r28, 0x3d	; 61
    391e:	de b7       	in	r29, 0x3e	; 62
    3920:	29 97       	sbiw	r28, 0x09	; 9
    3922:	0f b6       	in	r0, 0x3f	; 63
    3924:	f8 94       	cli
    3926:	de bf       	out	0x3e, r29	; 62
    3928:	0f be       	out	0x3f, r0	; 63
    392a:	cd bf       	out	0x3d, r28	; 61
    392c:	4c 01       	movw	r8, r24
    392e:	76 2e       	mov	r7, r22
    3930:	14 2f       	mov	r17, r20
    3932:	0e 94 97 33 	call	0x672e	; 0x672e <millis>
    3936:	f4 01       	movw	r30, r8
    3938:	c6 a0       	ldd	r12, Z+38	; 0x26
    393a:	d7 a0       	ldd	r13, Z+39	; 0x27
    393c:	e0 a4       	ldd	r14, Z+40	; 0x28
    393e:	f1 a4       	ldd	r15, Z+41	; 0x29
    3940:	6c 19       	sub	r22, r12
    3942:	7d 09       	sbc	r23, r13
    3944:	8e 09       	sbc	r24, r14
    3946:	9f 09       	sbc	r25, r15
    3948:	0e 94 44 29 	call	0x5288	; 0x5288 <__floatunsisf>
    394c:	6b 01       	movw	r12, r22
    394e:	7c 01       	movw	r14, r24
    3950:	20 e0       	ldi	r18, 0x00	; 0
    3952:	30 e8       	ldi	r19, 0x80	; 128
    3954:	4b eb       	ldi	r20, 0xBB	; 187
    3956:	54 e4       	ldi	r21, 0x44	; 68
    3958:	0e 94 b0 2a 	call	0x5560	; 0x5560 <__gesf2>
    395c:	18 16       	cp	r1, r24
    395e:	14 f4       	brge	.+4      	; 0x3964 <_ZN4PS2X12read_gamepadEbh+0x6c>
    3960:	c4 01       	movw	r24, r8
    3962:	a7 df       	rcall	.-178    	; 0x38b2 <_ZN4PS2X16reconfig_gamepadEv>
    3964:	f4 01       	movw	r30, r8
    3966:	62 a5       	ldd	r22, Z+42	; 0x2a
    3968:	70 e0       	ldi	r23, 0x00	; 0
    396a:	80 e0       	ldi	r24, 0x00	; 0
    396c:	90 e0       	ldi	r25, 0x00	; 0
    396e:	0e 94 46 29 	call	0x528c	; 0x528c <__floatsisf>
    3972:	1b 01       	movw	r2, r22
    3974:	2c 01       	movw	r4, r24
    3976:	9b 01       	movw	r18, r22
    3978:	ac 01       	movw	r20, r24
    397a:	c7 01       	movw	r24, r14
    397c:	b6 01       	movw	r22, r12
    397e:	0e 94 a4 28 	call	0x5148	; 0x5148 <__cmpsf2>
    3982:	87 ff       	sbrs	r24, 7
    3984:	0a c0       	rjmp	.+20     	; 0x399a <_ZN4PS2X12read_gamepadEbh+0xa2>
    3986:	a7 01       	movw	r20, r14
    3988:	96 01       	movw	r18, r12
    398a:	c2 01       	movw	r24, r4
    398c:	b1 01       	movw	r22, r2
    398e:	0e 94 dd 27 	call	0x4fba	; 0x4fba <__subsf3>
    3992:	0e 94 18 29 	call	0x5230	; 0x5230 <__fixunssfsi>
    3996:	0e 94 c8 33 	call	0x6790	; 0x6790 <delay>
    399a:	11 23       	and	r17, r17
    399c:	e1 f0       	breq	.+56     	; 0x39d6 <_ZN4PS2X12read_gamepadEbh+0xde>
    399e:	61 2f       	mov	r22, r17
    39a0:	70 e0       	ldi	r23, 0x00	; 0
    39a2:	80 e0       	ldi	r24, 0x00	; 0
    39a4:	90 e0       	ldi	r25, 0x00	; 0
    39a6:	1f 92       	push	r1
    39a8:	1f 92       	push	r1
    39aa:	1f 92       	push	r1
    39ac:	2f ef       	ldi	r18, 0xFF	; 255
    39ae:	2f 93       	push	r18
    39b0:	20 e4       	ldi	r18, 0x40	; 64
    39b2:	a2 2e       	mov	r10, r18
    39b4:	b1 2c       	mov	r11, r1
    39b6:	c1 2c       	mov	r12, r1
    39b8:	d1 2c       	mov	r13, r1
    39ba:	e1 2c       	mov	r14, r1
    39bc:	f1 2c       	mov	r15, r1
    39be:	87 01       	movw	r16, r14
    39c0:	ea 94       	dec	r14
    39c2:	20 e0       	ldi	r18, 0x00	; 0
    39c4:	30 e0       	ldi	r19, 0x00	; 0
    39c6:	a9 01       	movw	r20, r18
    39c8:	0e 94 56 35 	call	0x6aac	; 0x6aac <_Z3maplllll>
    39cc:	16 2f       	mov	r17, r22
    39ce:	0f 90       	pop	r0
    39d0:	0f 90       	pop	r0
    39d2:	0f 90       	pop	r0
    39d4:	0f 90       	pop	r0
    39d6:	ce 01       	movw	r24, r28
    39d8:	01 96       	adiw	r24, 0x01	; 1
    39da:	7c 01       	movw	r14, r24
    39dc:	89 e0       	ldi	r24, 0x09	; 9
    39de:	f7 01       	movw	r30, r14
    39e0:	11 92       	st	Z+, r1
    39e2:	8a 95       	dec	r24
    39e4:	e9 f7       	brne	.-6      	; 0x39e0 <_ZN4PS2X12read_gamepadEbh+0xe8>
    39e6:	81 e0       	ldi	r24, 0x01	; 1
    39e8:	89 83       	std	Y+1, r24	; 0x01
    39ea:	82 e4       	ldi	r24, 0x42	; 66
    39ec:	8a 83       	std	Y+2, r24	; 0x02
    39ee:	7c 82       	std	Y+4, r7	; 0x04
    39f0:	1d 83       	std	Y+5, r17	; 0x05
    39f2:	85 e0       	ldi	r24, 0x05	; 5
    39f4:	38 2e       	mov	r3, r24
    39f6:	8e 01       	movw	r16, r28
    39f8:	06 5f       	subi	r16, 0xF6	; 246
    39fa:	1f 4f       	sbci	r17, 0xFF	; 255
    39fc:	64 01       	movw	r12, r8
    39fe:	f9 e0       	ldi	r31, 0x09	; 9
    3a00:	cf 0e       	add	r12, r31
    3a02:	d1 1c       	adc	r13, r1
    3a04:	54 01       	movw	r10, r8
    3a06:	85 e1       	ldi	r24, 0x15	; 21
    3a08:	a8 0e       	add	r10, r24
    3a0a:	b1 1c       	adc	r11, r1
    3a0c:	c4 01       	movw	r24, r8
    3a0e:	95 de       	rcall	.-726    	; 0x373a <_ZN4PS2X7CMD_SETEv>
    3a10:	c4 01       	movw	r24, r8
    3a12:	85 de       	rcall	.-758    	; 0x371e <_ZN4PS2X7CLK_SETEv>
    3a14:	c4 01       	movw	r24, r8
    3a16:	14 df       	rcall	.-472    	; 0x3840 <_ZN4PS2X7ATT_CLREv>
    3a18:	83 e0       	ldi	r24, 0x03	; 3
    3a1a:	90 e0       	ldi	r25, 0x00	; 0
    3a1c:	0e 94 01 34 	call	0x6802	; 0x6802 <delayMicroseconds>
    3a20:	27 01       	movw	r4, r14
    3a22:	34 01       	movw	r6, r8
    3a24:	f2 01       	movw	r30, r4
    3a26:	61 91       	ld	r22, Z+
    3a28:	2f 01       	movw	r4, r30
    3a2a:	c4 01       	movw	r24, r8
    3a2c:	94 de       	rcall	.-728    	; 0x3756 <_ZN4PS2X19_gamepad_shiftinoutEc>
    3a2e:	f3 01       	movw	r30, r6
    3a30:	81 93       	st	Z+, r24
    3a32:	3f 01       	movw	r6, r30
    3a34:	40 16       	cp	r4, r16
    3a36:	51 06       	cpc	r5, r17
    3a38:	a9 f7       	brne	.-22     	; 0x3a24 <_ZN4PS2X12read_gamepadEbh+0x12c>
    3a3a:	f4 01       	movw	r30, r8
    3a3c:	81 81       	ldd	r24, Z+1	; 0x01
    3a3e:	89 37       	cpi	r24, 0x79	; 121
    3a40:	41 f0       	breq	.+16     	; 0x3a52 <_ZN4PS2X12read_gamepadEbh+0x15a>
    3a42:	c4 01       	movw	r24, r8
    3a44:	ef de       	rcall	.-546    	; 0x3824 <_ZN4PS2X7ATT_SETEv>
    3a46:	f4 01       	movw	r30, r8
    3a48:	81 81       	ldd	r24, Z+1	; 0x01
    3a4a:	80 7f       	andi	r24, 0xF0	; 240
    3a4c:	80 37       	cpi	r24, 0x70	; 112
    3a4e:	61 f4       	brne	.+24     	; 0x3a68 <_ZN4PS2X12read_gamepadEbh+0x170>
    3a50:	17 c0       	rjmp	.+46     	; 0x3a80 <_ZN4PS2X12read_gamepadEbh+0x188>
    3a52:	36 01       	movw	r6, r12
    3a54:	60 e0       	ldi	r22, 0x00	; 0
    3a56:	c4 01       	movw	r24, r8
    3a58:	7e de       	rcall	.-772    	; 0x3756 <_ZN4PS2X19_gamepad_shiftinoutEc>
    3a5a:	f3 01       	movw	r30, r6
    3a5c:	81 93       	st	Z+, r24
    3a5e:	3f 01       	movw	r6, r30
    3a60:	ea 15       	cp	r30, r10
    3a62:	fb 05       	cpc	r31, r11
    3a64:	b9 f7       	brne	.-18     	; 0x3a54 <_ZN4PS2X12read_gamepadEbh+0x15c>
    3a66:	ed cf       	rjmp	.-38     	; 0x3a42 <_ZN4PS2X12read_gamepadEbh+0x14a>
    3a68:	c4 01       	movw	r24, r8
    3a6a:	23 df       	rcall	.-442    	; 0x38b2 <_ZN4PS2X16reconfig_gamepadEv>
    3a6c:	f4 01       	movw	r30, r8
    3a6e:	62 a5       	ldd	r22, Z+42	; 0x2a
    3a70:	70 e0       	ldi	r23, 0x00	; 0
    3a72:	80 e0       	ldi	r24, 0x00	; 0
    3a74:	90 e0       	ldi	r25, 0x00	; 0
    3a76:	0e 94 c8 33 	call	0x6790	; 0x6790 <delay>
    3a7a:	3a 94       	dec	r3
    3a7c:	31 10       	cpse	r3, r1
    3a7e:	c6 cf       	rjmp	.-116    	; 0x3a0c <_ZN4PS2X12read_gamepadEbh+0x114>
    3a80:	f4 01       	movw	r30, r8
    3a82:	81 81       	ldd	r24, Z+1	; 0x01
    3a84:	80 7f       	andi	r24, 0xF0	; 240
    3a86:	80 37       	cpi	r24, 0x70	; 112
    3a88:	31 f0       	breq	.+12     	; 0x3a96 <_ZN4PS2X12read_gamepadEbh+0x19e>
    3a8a:	f4 01       	movw	r30, r8
    3a8c:	82 a5       	ldd	r24, Z+42	; 0x2a
    3a8e:	8a 30       	cpi	r24, 0x0A	; 10
    3a90:	10 f4       	brcc	.+4      	; 0x3a96 <_ZN4PS2X12read_gamepadEbh+0x19e>
    3a92:	8f 5f       	subi	r24, 0xFF	; 255
    3a94:	82 a7       	std	Z+42, r24	; 0x2a
    3a96:	f4 01       	movw	r30, r8
    3a98:	80 8d       	ldd	r24, Z+24	; 0x18
    3a9a:	91 8d       	ldd	r25, Z+25	; 0x19
    3a9c:	97 8b       	std	Z+23, r25	; 0x17
    3a9e:	86 8b       	std	Z+22, r24	; 0x16
    3aa0:	83 81       	ldd	r24, Z+3	; 0x03
    3aa2:	94 81       	ldd	r25, Z+4	; 0x04
    3aa4:	91 8f       	std	Z+25, r25	; 0x19
    3aa6:	80 8f       	std	Z+24, r24	; 0x18
    3aa8:	0e 94 97 33 	call	0x672e	; 0x672e <millis>
    3aac:	f4 01       	movw	r30, r8
    3aae:	66 a3       	std	Z+38, r22	; 0x26
    3ab0:	77 a3       	std	Z+39, r23	; 0x27
    3ab2:	80 a7       	std	Z+40, r24	; 0x28
    3ab4:	91 a7       	std	Z+41, r25	; 0x29
    3ab6:	91 81       	ldd	r25, Z+1	; 0x01
    3ab8:	90 7f       	andi	r25, 0xF0	; 240
    3aba:	81 e0       	ldi	r24, 0x01	; 1
    3abc:	90 37       	cpi	r25, 0x70	; 112
    3abe:	09 f0       	breq	.+2      	; 0x3ac2 <_ZN4PS2X12read_gamepadEbh+0x1ca>
    3ac0:	80 e0       	ldi	r24, 0x00	; 0
    3ac2:	29 96       	adiw	r28, 0x09	; 9
    3ac4:	0f b6       	in	r0, 0x3f	; 63
    3ac6:	f8 94       	cli
    3ac8:	de bf       	out	0x3e, r29	; 62
    3aca:	0f be       	out	0x3f, r0	; 63
    3acc:	cd bf       	out	0x3d, r28	; 61
    3ace:	df 91       	pop	r29
    3ad0:	cf 91       	pop	r28
    3ad2:	1f 91       	pop	r17
    3ad4:	0f 91       	pop	r16
    3ad6:	ff 90       	pop	r15
    3ad8:	ef 90       	pop	r14
    3ada:	df 90       	pop	r13
    3adc:	cf 90       	pop	r12
    3ade:	bf 90       	pop	r11
    3ae0:	af 90       	pop	r10
    3ae2:	9f 90       	pop	r9
    3ae4:	8f 90       	pop	r8
    3ae6:	7f 90       	pop	r7
    3ae8:	6f 90       	pop	r6
    3aea:	5f 90       	pop	r5
    3aec:	4f 90       	pop	r4
    3aee:	3f 90       	pop	r3
    3af0:	2f 90       	pop	r2
    3af2:	08 95       	ret

00003af4 <_ZN4PS2X12read_gamepadEv>:
    3af4:	40 e0       	ldi	r20, 0x00	; 0
    3af6:	60 e0       	ldi	r22, 0x00	; 0
    3af8:	ff ce       	rjmp	.-514    	; 0x38f8 <_ZN4PS2X12read_gamepadEbh>

00003afa <_ZN4PS2X14config_gamepadEhhhhbb>:
byte PS2X::config_gamepad(uint8_t clk, uint8_t cmd, uint8_t att, uint8_t dat) {
   return config_gamepad(clk, cmd, att, dat, false, false);
}

/****************************************************************************************/
byte PS2X::config_gamepad(uint8_t clk, uint8_t cmd, uint8_t att, uint8_t dat, bool pressures, bool rumble) {
    3afa:	6f 92       	push	r6
    3afc:	7f 92       	push	r7
    3afe:	8f 92       	push	r8
    3b00:	9f 92       	push	r9
    3b02:	af 92       	push	r10
    3b04:	bf 92       	push	r11
    3b06:	cf 92       	push	r12
    3b08:	ef 92       	push	r14
    3b0a:	ff 92       	push	r15
    3b0c:	0f 93       	push	r16
    3b0e:	1f 93       	push	r17
    3b10:	cf 93       	push	r28
    3b12:	df 93       	push	r29
    3b14:	cd b7       	in	r28, 0x3d	; 61
    3b16:	de b7       	in	r29, 0x3e	; 62
    3b18:	2b 97       	sbiw	r28, 0x0b	; 11
    3b1a:	0f b6       	in	r0, 0x3f	; 63
    3b1c:	f8 94       	cli
    3b1e:	de bf       	out	0x3e, r29	; 62
    3b20:	0f be       	out	0x3f, r0	; 63
    3b22:	cd bf       	out	0x3d, r28	; 61
    3b24:	5c 01       	movw	r10, r24
    3b26:	86 2f       	mov	r24, r22

  byte temp[sizeof(type_read)];

#ifdef __AVR__
  _clk_mask = digitalPinToBitMask(clk);
    3b28:	70 e0       	ldi	r23, 0x00	; 0
    3b2a:	fb 01       	movw	r30, r22
    3b2c:	e6 5d       	subi	r30, 0xD6	; 214
    3b2e:	f8 4f       	sbci	r31, 0xF8	; 248
    3b30:	e4 91       	lpm	r30, Z
    3b32:	d5 01       	movw	r26, r10
    3b34:	5a 96       	adiw	r26, 0x1a	; 26
    3b36:	ec 93       	st	X, r30
    3b38:	5a 97       	sbiw	r26, 0x1a	; 26
  _clk_oreg = portOutputRegister(digitalPinToPort(clk));
    3b3a:	fb 01       	movw	r30, r22
    3b3c:	e0 59       	subi	r30, 0x90	; 144
    3b3e:	f8 4f       	sbci	r31, 0xF8	; 248
    3b40:	e4 91       	lpm	r30, Z
    3b42:	f0 e0       	ldi	r31, 0x00	; 0
    3b44:	ee 0f       	add	r30, r30
    3b46:	ff 1f       	adc	r31, r31
    3b48:	e0 53       	subi	r30, 0x30	; 48
    3b4a:	f8 4f       	sbci	r31, 0xF8	; 248
    3b4c:	65 91       	lpm	r22, Z+
    3b4e:	74 91       	lpm	r23, Z
    3b50:	f5 01       	movw	r30, r10
    3b52:	74 8f       	std	Z+28, r23	; 0x1c
    3b54:	63 8f       	std	Z+27, r22	; 0x1b
  _cmd_mask = digitalPinToBitMask(cmd);
    3b56:	64 2f       	mov	r22, r20
    3b58:	70 e0       	ldi	r23, 0x00	; 0
    3b5a:	fb 01       	movw	r30, r22
    3b5c:	e6 5d       	subi	r30, 0xD6	; 214
    3b5e:	f8 4f       	sbci	r31, 0xF8	; 248
    3b60:	e4 91       	lpm	r30, Z
    3b62:	5d 96       	adiw	r26, 0x1d	; 29
    3b64:	ec 93       	st	X, r30
    3b66:	5d 97       	sbiw	r26, 0x1d	; 29
  _cmd_oreg = portOutputRegister(digitalPinToPort(cmd));
    3b68:	fb 01       	movw	r30, r22
    3b6a:	e0 59       	subi	r30, 0x90	; 144
    3b6c:	f8 4f       	sbci	r31, 0xF8	; 248
    3b6e:	e4 91       	lpm	r30, Z
    3b70:	f0 e0       	ldi	r31, 0x00	; 0
    3b72:	ee 0f       	add	r30, r30
    3b74:	ff 1f       	adc	r31, r31
    3b76:	e0 53       	subi	r30, 0x30	; 48
    3b78:	f8 4f       	sbci	r31, 0xF8	; 248
    3b7a:	65 91       	lpm	r22, Z+
    3b7c:	74 91       	lpm	r23, Z
    3b7e:	f5 01       	movw	r30, r10
    3b80:	77 8f       	std	Z+31, r23	; 0x1f
    3b82:	66 8f       	std	Z+30, r22	; 0x1e
  _att_mask = digitalPinToBitMask(att);
    3b84:	62 2f       	mov	r22, r18
    3b86:	70 e0       	ldi	r23, 0x00	; 0
    3b88:	fb 01       	movw	r30, r22
    3b8a:	e6 5d       	subi	r30, 0xD6	; 214
    3b8c:	f8 4f       	sbci	r31, 0xF8	; 248
    3b8e:	e4 91       	lpm	r30, Z
    3b90:	90 96       	adiw	r26, 0x20	; 32
    3b92:	ec 93       	st	X, r30
  _att_oreg = portOutputRegister(digitalPinToPort(att));
    3b94:	fb 01       	movw	r30, r22
    3b96:	e0 59       	subi	r30, 0x90	; 144
    3b98:	f8 4f       	sbci	r31, 0xF8	; 248
    3b9a:	e4 91       	lpm	r30, Z
    3b9c:	f0 e0       	ldi	r31, 0x00	; 0
    3b9e:	ee 0f       	add	r30, r30
    3ba0:	ff 1f       	adc	r31, r31
    3ba2:	e0 53       	subi	r30, 0x30	; 48
    3ba4:	f8 4f       	sbci	r31, 0xF8	; 248
    3ba6:	65 91       	lpm	r22, Z+
    3ba8:	74 91       	lpm	r23, Z
    3baa:	f5 01       	movw	r30, r10
    3bac:	72 a3       	std	Z+34, r23	; 0x22
    3bae:	61 a3       	std	Z+33, r22	; 0x21
  _dat_mask = digitalPinToBitMask(dat);
    3bb0:	a0 2f       	mov	r26, r16
    3bb2:	b0 e0       	ldi	r27, 0x00	; 0
    3bb4:	fd 01       	movw	r30, r26
    3bb6:	e6 5d       	subi	r30, 0xD6	; 214
    3bb8:	f8 4f       	sbci	r31, 0xF8	; 248
    3bba:	94 91       	lpm	r25, Z
    3bbc:	f5 01       	movw	r30, r10
    3bbe:	93 a3       	std	Z+35, r25	; 0x23
  _dat_ireg = portInputRegister(digitalPinToPort(dat));
    3bc0:	fd 01       	movw	r30, r26
    3bc2:	e0 59       	subi	r30, 0x90	; 144
    3bc4:	f8 4f       	sbci	r31, 0xF8	; 248
    3bc6:	e4 91       	lpm	r30, Z
    3bc8:	f0 e0       	ldi	r31, 0x00	; 0
    3bca:	ee 0f       	add	r30, r30
    3bcc:	ff 1f       	adc	r31, r31
    3bce:	ea 54       	subi	r30, 0x4A	; 74
    3bd0:	f8 4f       	sbci	r31, 0xF8	; 248
    3bd2:	65 91       	lpm	r22, Z+
    3bd4:	74 91       	lpm	r23, Z
    3bd6:	d5 01       	movw	r26, r10
    3bd8:	95 96       	adiw	r26, 0x25	; 37
    3bda:	7c 93       	st	X, r23
    3bdc:	6e 93       	st	-X, r22
    3bde:	94 97       	sbiw	r26, 0x24	; 36

  _dat_mask = digitalPinToBitMask(dat);
  _dat_lport = portInputRegister(digitalPinToPort(dat));
#endif

  pinMode(clk, OUTPUT); //configure ports
    3be0:	61 e0       	ldi	r22, 0x01	; 1
    3be2:	2a 87       	std	Y+10, r18	; 0x0a
    3be4:	4b 87       	std	Y+11, r20	; 0x0b
    3be6:	0e 94 c3 34 	call	0x6986	; 0x6986 <pinMode>
  pinMode(att, OUTPUT);
    3bea:	61 e0       	ldi	r22, 0x01	; 1
    3bec:	2a 85       	ldd	r18, Y+10	; 0x0a
    3bee:	82 2f       	mov	r24, r18
    3bf0:	0e 94 c3 34 	call	0x6986	; 0x6986 <pinMode>
  pinMode(cmd, OUTPUT);
    3bf4:	61 e0       	ldi	r22, 0x01	; 1
    3bf6:	4b 85       	ldd	r20, Y+11	; 0x0b
    3bf8:	84 2f       	mov	r24, r20
    3bfa:	0e 94 c3 34 	call	0x6986	; 0x6986 <pinMode>
  pinMode(dat, INPUT);
    3bfe:	60 e0       	ldi	r22, 0x00	; 0
    3c00:	80 2f       	mov	r24, r16
    3c02:	0e 94 c3 34 	call	0x6986	; 0x6986 <pinMode>

#if defined(__AVR__)
  digitalWrite(dat, HIGH); //enable pull-up
    3c06:	61 e0       	ldi	r22, 0x01	; 1
    3c08:	80 2f       	mov	r24, r16
    3c0a:	0e 94 ff 34 	call	0x69fe	; 0x69fe <digitalWrite>
#endif

  CMD_SET(); // SET(*_cmd_oreg,_cmd_mask);
    3c0e:	c5 01       	movw	r24, r10
    3c10:	94 dd       	rcall	.-1240   	; 0x373a <_ZN4PS2X7CMD_SETEv>
  CLK_SET();
    3c12:	c5 01       	movw	r24, r10
    3c14:	84 dd       	rcall	.-1272   	; 0x371e <_ZN4PS2X7CLK_SETEv>

  //new error checking. First, read gamepad a few times to see if it's talking
  read_gamepad();
    3c16:	c5 01       	movw	r24, r10
    3c18:	6d df       	rcall	.-294    	; 0x3af4 <_ZN4PS2X12read_gamepadEv>
  read_gamepad();
    3c1a:	c5 01       	movw	r24, r10
    3c1c:	6b df       	rcall	.-298    	; 0x3af4 <_ZN4PS2X12read_gamepadEv>

  //see if it talked - see if mode came back. 
  //If still anything but 41, 73 or 79, then it's not talking
  if(PS2data[1] != 0x41 && PS2data[1] != 0x73 && PS2data[1] != 0x79){ 
    3c1e:	f5 01       	movw	r30, r10
    3c20:	81 81       	ldd	r24, Z+1	; 0x01
    3c22:	81 34       	cpi	r24, 0x41	; 65
    3c24:	29 f0       	breq	.+10     	; 0x3c30 <_ZN4PS2X14config_gamepadEhhhhbb+0x136>
    3c26:	83 37       	cpi	r24, 0x73	; 115
    3c28:	19 f0       	breq	.+6      	; 0x3c30 <_ZN4PS2X14config_gamepadEhhhhbb+0x136>
    3c2a:	89 37       	cpi	r24, 0x79	; 121
    3c2c:	09 f0       	breq	.+2      	; 0x3c30 <_ZN4PS2X14config_gamepadEhhhhbb+0x136>
    3c2e:	65 c0       	rjmp	.+202    	; 0x3cfa <_ZN4PS2X14config_gamepadEhhhhbb+0x200>
#endif
    return 1; //return error code 1
  }

  //try setting mode, increasing delays if need be.
  read_delay = 1;
    3c30:	81 e0       	ldi	r24, 0x01	; 1
    3c32:	d5 01       	movw	r26, r10
    3c34:	9a 96       	adiw	r26, 0x2a	; 42
    3c36:	8c 93       	st	X, r24

  for(int y = 0; y <= 10; y++) {
    3c38:	8b e0       	ldi	r24, 0x0B	; 11
    3c3a:	88 2e       	mov	r8, r24
    3c3c:	91 2c       	mov	r9, r1
    ATT_SET(); // HI disable joystick

    controller_type = temp[3];

    sendCommandString(set_mode, sizeof(set_mode));
    if(rumble){ sendCommandString(enable_rumble, sizeof(enable_rumble)); en_Rumble = true; }
    3c3e:	ff 24       	eor	r15, r15
    3c40:	f3 94       	inc	r15

  //try setting mode, increasing delays if need be.
  read_delay = 1;

  for(int y = 0; y <= 10; y++) {
    sendCommandString(enter_config, sizeof(enter_config)); //start config run
    3c42:	45 e0       	ldi	r20, 0x05	; 5
    3c44:	66 e3       	ldi	r22, 0x36	; 54
    3c46:	76 e0       	ldi	r23, 0x06	; 6
    3c48:	c5 01       	movw	r24, r10
    3c4a:	09 de       	rcall	.-1006   	; 0x385e <_ZN4PS2X17sendCommandStringEPhh>

    //read type
    delayMicroseconds(CTRL_BYTE_DELAY);
    3c4c:	83 e0       	ldi	r24, 0x03	; 3
    3c4e:	90 e0       	ldi	r25, 0x00	; 0
    3c50:	0e 94 01 34 	call	0x6802	; 0x6802 <delayMicroseconds>

    CMD_SET();
    3c54:	c5 01       	movw	r24, r10
    3c56:	71 dd       	rcall	.-1310   	; 0x373a <_ZN4PS2X7CMD_SETEv>
    CLK_SET();
    3c58:	c5 01       	movw	r24, r10
    3c5a:	61 dd       	rcall	.-1342   	; 0x371e <_ZN4PS2X7CLK_SETEv>
    ATT_CLR(); // low enable joystick
    3c5c:	c5 01       	movw	r24, r10
    3c5e:	f0 dd       	rcall	.-1056   	; 0x3840 <_ZN4PS2X7ATT_CLREv>

    delayMicroseconds(CTRL_BYTE_DELAY);
    3c60:	83 e0       	ldi	r24, 0x03	; 3
    3c62:	90 e0       	ldi	r25, 0x00	; 0
    3c64:	0e 94 01 34 	call	0x6802	; 0x6802 <delayMicroseconds>
    3c68:	0e ee       	ldi	r16, 0xEE	; 238
    3c6a:	1b e0       	ldi	r17, 0x0B	; 11
    3c6c:	ce 01       	movw	r24, r28
    3c6e:	01 96       	adiw	r24, 0x01	; 1
    3c70:	3c 01       	movw	r6, r24

    for (int i = 0; i<9; i++) {
      temp[i] = _gamepad_shiftinout(type_read[i]);
    3c72:	f8 01       	movw	r30, r16
    3c74:	61 91       	ld	r22, Z+
    3c76:	8f 01       	movw	r16, r30
    3c78:	c5 01       	movw	r24, r10
    3c7a:	6d dd       	rcall	.-1318   	; 0x3756 <_ZN4PS2X19_gamepad_shiftinoutEc>
    3c7c:	d3 01       	movw	r26, r6
    3c7e:	8d 93       	st	X+, r24
    3c80:	3d 01       	movw	r6, r26
    CLK_SET();
    ATT_CLR(); // low enable joystick

    delayMicroseconds(CTRL_BYTE_DELAY);

    for (int i = 0; i<9; i++) {
    3c82:	bb e0       	ldi	r27, 0x0B	; 11
    3c84:	07 3f       	cpi	r16, 0xF7	; 247
    3c86:	1b 07       	cpc	r17, r27
    3c88:	a1 f7       	brne	.-24     	; 0x3c72 <_ZN4PS2X14config_gamepadEhhhhbb+0x178>
      temp[i] = _gamepad_shiftinout(type_read[i]);
    }

    ATT_SET(); // HI disable joystick
    3c8a:	c5 01       	movw	r24, r10
    3c8c:	cb dd       	rcall	.-1130   	; 0x3824 <_ZN4PS2X7ATT_SETEv>

    controller_type = temp[3];
    3c8e:	8c 81       	ldd	r24, Y+4	; 0x04
    3c90:	f5 01       	movw	r30, r10
    3c92:	83 a7       	std	Z+43, r24	; 0x2b

    sendCommandString(set_mode, sizeof(set_mode));
    3c94:	49 e0       	ldi	r20, 0x09	; 9
    3c96:	6d e2       	ldi	r22, 0x2D	; 45
    3c98:	76 e0       	ldi	r23, 0x06	; 6
    3c9a:	c5 01       	movw	r24, r10
    3c9c:	e0 dd       	rcall	.-1088   	; 0x385e <_ZN4PS2X17sendCommandStringEPhh>
    if(rumble){ sendCommandString(enable_rumble, sizeof(enable_rumble)); en_Rumble = true; }
    3c9e:	cc 20       	and	r12, r12
    3ca0:	41 f0       	breq	.+16     	; 0x3cb2 <_ZN4PS2X14config_gamepadEhhhhbb+0x1b8>
    3ca2:	45 e0       	ldi	r20, 0x05	; 5
    3ca4:	66 e1       	ldi	r22, 0x16	; 22
    3ca6:	76 e0       	ldi	r23, 0x06	; 6
    3ca8:	c5 01       	movw	r24, r10
    3caa:	d9 dd       	rcall	.-1102   	; 0x385e <_ZN4PS2X17sendCommandStringEPhh>
    3cac:	d5 01       	movw	r26, r10
    3cae:	9c 96       	adiw	r26, 0x2c	; 44
    3cb0:	fc 92       	st	X, r15
    if(pressures){ sendCommandString(set_bytes_large, sizeof(set_bytes_large)); en_Pressures = true; }
    3cb2:	ee 20       	and	r14, r14
    3cb4:	39 f0       	breq	.+14     	; 0x3cc4 <_ZN4PS2X14config_gamepadEhhhhbb+0x1ca>
    3cb6:	49 e0       	ldi	r20, 0x09	; 9
    3cb8:	64 e2       	ldi	r22, 0x24	; 36
    3cba:	76 e0       	ldi	r23, 0x06	; 6
    3cbc:	c5 01       	movw	r24, r10
    3cbe:	cf dd       	rcall	.-1122   	; 0x385e <_ZN4PS2X17sendCommandStringEPhh>
    3cc0:	f5 01       	movw	r30, r10
    3cc2:	f5 a6       	std	Z+45, r15	; 0x2d
    sendCommandString(exit_config, sizeof(exit_config));
    3cc4:	49 e0       	ldi	r20, 0x09	; 9
    3cc6:	6b e1       	ldi	r22, 0x1B	; 27
    3cc8:	76 e0       	ldi	r23, 0x06	; 6
    3cca:	c5 01       	movw	r24, r10
    3ccc:	c8 dd       	rcall	.-1136   	; 0x385e <_ZN4PS2X17sendCommandStringEPhh>

    read_gamepad();
    3cce:	c5 01       	movw	r24, r10
    3cd0:	11 df       	rcall	.-478    	; 0x3af4 <_ZN4PS2X12read_gamepadEv>
    3cd2:	d5 01       	movw	r26, r10
    3cd4:	11 96       	adiw	r26, 0x01	; 1
    3cd6:	8c 91       	ld	r24, X

    if(pressures){
    3cd8:	ee 20       	and	r14, r14
    3cda:	21 f0       	breq	.+8      	; 0x3ce4 <_ZN4PS2X14config_gamepadEhhhhbb+0x1ea>
      if(PS2data[1] == 0x79)
    3cdc:	89 37       	cpi	r24, 0x79	; 121
    3cde:	89 f0       	breq	.+34     	; 0x3d02 <_ZN4PS2X14config_gamepadEhhhhbb+0x208>
        break;
      if(PS2data[1] == 0x73)
    3ce0:	83 37       	cpi	r24, 0x73	; 115
    3ce2:	69 f0       	breq	.+26     	; 0x3cfe <_ZN4PS2X14config_gamepadEhhhhbb+0x204>
        return 3;
    }

    if(PS2data[1] == 0x73)
    3ce4:	83 37       	cpi	r24, 0x73	; 115
    3ce6:	69 f0       	breq	.+26     	; 0x3d02 <_ZN4PS2X14config_gamepadEhhhhbb+0x208>
    3ce8:	b1 e0       	ldi	r27, 0x01	; 1
    3cea:	8b 1a       	sub	r8, r27
    3cec:	91 08       	sbc	r9, r1
      break;

    if(y == 10){
    3cee:	59 f0       	breq	.+22     	; 0x3d06 <_ZN4PS2X14config_gamepadEhhhhbb+0x20c>
      Serial.print("mode stil set at");
      Serial.println(PS2data[1], HEX);
#endif
      return 2; //exit function with error
    }
    read_delay += 1; //add 1ms to read_delay
    3cf0:	f5 01       	movw	r30, r10
    3cf2:	82 a5       	ldd	r24, Z+42	; 0x2a
    3cf4:	8f 5f       	subi	r24, 0xFF	; 255
    3cf6:	82 a7       	std	Z+42, r24	; 0x2a
    3cf8:	a4 cf       	rjmp	.-184    	; 0x3c42 <_ZN4PS2X14config_gamepadEhhhhbb+0x148>
#ifdef PS2X_DEBUG
    Serial.println("Controller mode not matched or no controller found");
    Serial.print("Expected 0x41, 0x73 or 0x79, but got ");
    Serial.println(PS2data[1], HEX);
#endif
    return 1; //return error code 1
    3cfa:	81 e0       	ldi	r24, 0x01	; 1
    3cfc:	05 c0       	rjmp	.+10     	; 0x3d08 <_ZN4PS2X14config_gamepadEhhhhbb+0x20e>

    if(pressures){
      if(PS2data[1] == 0x79)
        break;
      if(PS2data[1] == 0x73)
        return 3;
    3cfe:	83 e0       	ldi	r24, 0x03	; 3
    3d00:	03 c0       	rjmp	.+6      	; 0x3d08 <_ZN4PS2X14config_gamepadEhhhhbb+0x20e>
#endif
      return 2; //exit function with error
    }
    read_delay += 1; //add 1ms to read_delay
  }
  return 0; //no error if here
    3d02:	80 e0       	ldi	r24, 0x00	; 0
    3d04:	01 c0       	rjmp	.+2      	; 0x3d08 <_ZN4PS2X14config_gamepadEhhhhbb+0x20e>
#ifdef PS2X_DEBUG
      Serial.println("Controller not accepting commands");
      Serial.print("mode stil set at");
      Serial.println(PS2data[1], HEX);
#endif
      return 2; //exit function with error
    3d06:	82 e0       	ldi	r24, 0x02	; 2
    }
    read_delay += 1; //add 1ms to read_delay
  }
  return 0; //no error if here
}
    3d08:	2b 96       	adiw	r28, 0x0b	; 11
    3d0a:	0f b6       	in	r0, 0x3f	; 63
    3d0c:	f8 94       	cli
    3d0e:	de bf       	out	0x3e, r29	; 62
    3d10:	0f be       	out	0x3f, r0	; 63
    3d12:	cd bf       	out	0x3d, r28	; 61
    3d14:	df 91       	pop	r29
    3d16:	cf 91       	pop	r28
    3d18:	1f 91       	pop	r17
    3d1a:	0f 91       	pop	r16
    3d1c:	ff 90       	pop	r15
    3d1e:	ef 90       	pop	r14
    3d20:	cf 90       	pop	r12
    3d22:	bf 90       	pop	r11
    3d24:	af 90       	pop	r10
    3d26:	9f 90       	pop	r9
    3d28:	8f 90       	pop	r8
    3d2a:	7f 90       	pop	r7
    3d2c:	6f 90       	pop	r6
    3d2e:	08 95       	ret

00003d30 <_Z11POS_refreshv>:
	attachInterrupt(digitalPinToInterrupt(INT1A), blinkY, FALLING);
	attachInterrupt(digitalPinToInterrupt(INT2A), blinkP, FALLING);
}

void POS_refresh()
{
    3d30:	4f 92       	push	r4
    3d32:	5f 92       	push	r5
    3d34:	6f 92       	push	r6
    3d36:	7f 92       	push	r7
    3d38:	8f 92       	push	r8
    3d3a:	9f 92       	push	r9
    3d3c:	af 92       	push	r10
    3d3e:	bf 92       	push	r11
    3d40:	cf 92       	push	r12
    3d42:	df 92       	push	r13
    3d44:	ef 92       	push	r14
    3d46:	ff 92       	push	r15
    3d48:	cf 93       	push	r28
    3d4a:	df 93       	push	r29
    3d4c:	cd b7       	in	r28, 0x3d	; 61
    3d4e:	de b7       	in	r29, 0x3e	; 62
    3d50:	2c 97       	sbiw	r28, 0x0c	; 12
    3d52:	0f b6       	in	r0, 0x3f	; 63
    3d54:	f8 94       	cli
    3d56:	de bf       	out	0x3e, r29	; 62
    3d58:	0f be       	out	0x3f, r0	; 63
    3d5a:	cd bf       	out	0x3d, r28	; 61
	x1 = (double)x_step/x_line*PI*wheel_d;// mm
    3d5c:	60 91 ff 0d 	lds	r22, 0x0DFF	; 0x800dff <x_step>
    3d60:	70 91 00 0e 	lds	r23, 0x0E00	; 0x800e00 <x_step+0x1>
    3d64:	80 91 01 0e 	lds	r24, 0x0E01	; 0x800e01 <x_step+0x2>
    3d68:	90 91 02 0e 	lds	r25, 0x0E02	; 0x800e02 <x_step+0x3>
    3d6c:	0e 94 46 29 	call	0x528c	; 0x528c <__floatsisf>
    3d70:	20 e0       	ldi	r18, 0x00	; 0
    3d72:	30 e0       	ldi	r19, 0x00	; 0
    3d74:	40 e0       	ldi	r20, 0x00	; 0
    3d76:	5b e3       	ldi	r21, 0x3B	; 59
    3d78:	0e 94 bb 2a 	call	0x5576	; 0x5576 <__mulsf3>
    3d7c:	2b ed       	ldi	r18, 0xDB	; 219
    3d7e:	3f e0       	ldi	r19, 0x0F	; 15
    3d80:	49 e4       	ldi	r20, 0x49	; 73
    3d82:	50 e4       	ldi	r21, 0x40	; 64
    3d84:	0e 94 bb 2a 	call	0x5576	; 0x5576 <__mulsf3>
    3d88:	20 e0       	ldi	r18, 0x00	; 0
    3d8a:	30 e0       	ldi	r19, 0x00	; 0
    3d8c:	48 e1       	ldi	r20, 0x18	; 24
    3d8e:	52 e4       	ldi	r21, 0x42	; 66
    3d90:	0e 94 bb 2a 	call	0x5576	; 0x5576 <__mulsf3>
    3d94:	69 83       	std	Y+1, r22	; 0x01
    3d96:	7a 83       	std	Y+2, r23	; 0x02
    3d98:	8b 83       	std	Y+3, r24	; 0x03
    3d9a:	9c 83       	std	Y+4, r25	; 0x04
    3d9c:	60 93 e7 0d 	sts	0x0DE7, r22	; 0x800de7 <x1>
    3da0:	70 93 e8 0d 	sts	0x0DE8, r23	; 0x800de8 <x1+0x1>
    3da4:	80 93 e9 0d 	sts	0x0DE9, r24	; 0x800de9 <x1+0x2>
    3da8:	90 93 ea 0d 	sts	0x0DEA, r25	; 0x800dea <x1+0x3>
	y1 = (double)y_step/y_line*PI*wheel_d;// mm
    3dac:	60 91 fb 0d 	lds	r22, 0x0DFB	; 0x800dfb <y_step>
    3db0:	70 91 fc 0d 	lds	r23, 0x0DFC	; 0x800dfc <y_step+0x1>
    3db4:	80 91 fd 0d 	lds	r24, 0x0DFD	; 0x800dfd <y_step+0x2>
    3db8:	90 91 fe 0d 	lds	r25, 0x0DFE	; 0x800dfe <y_step+0x3>
    3dbc:	0e 94 46 29 	call	0x528c	; 0x528c <__floatsisf>
    3dc0:	20 e0       	ldi	r18, 0x00	; 0
    3dc2:	30 e0       	ldi	r19, 0x00	; 0
    3dc4:	40 e0       	ldi	r20, 0x00	; 0
    3dc6:	5b e3       	ldi	r21, 0x3B	; 59
    3dc8:	0e 94 bb 2a 	call	0x5576	; 0x5576 <__mulsf3>
    3dcc:	2b ed       	ldi	r18, 0xDB	; 219
    3dce:	3f e0       	ldi	r19, 0x0F	; 15
    3dd0:	49 e4       	ldi	r20, 0x49	; 73
    3dd2:	50 e4       	ldi	r21, 0x40	; 64
    3dd4:	0e 94 bb 2a 	call	0x5576	; 0x5576 <__mulsf3>
    3dd8:	20 e0       	ldi	r18, 0x00	; 0
    3dda:	30 e0       	ldi	r19, 0x00	; 0
    3ddc:	48 e1       	ldi	r20, 0x18	; 24
    3dde:	52 e4       	ldi	r21, 0x42	; 66
    3de0:	0e 94 bb 2a 	call	0x5576	; 0x5576 <__mulsf3>
    3de4:	4b 01       	movw	r8, r22
    3de6:	5c 01       	movw	r10, r24
    3de8:	60 93 e3 0d 	sts	0x0DE3, r22	; 0x800de3 <y1>
    3dec:	70 93 e4 0d 	sts	0x0DE4, r23	; 0x800de4 <y1+0x1>
    3df0:	80 93 e5 0d 	sts	0x0DE5, r24	; 0x800de5 <y1+0x2>
    3df4:	90 93 e6 0d 	sts	0x0DE6, r25	; 0x800de6 <y1+0x3>
	p1 = (double)p_step/p_line*PI*wheel_d;//*1.011;// mm
    3df8:	60 91 f7 0d 	lds	r22, 0x0DF7	; 0x800df7 <p_step>
    3dfc:	70 91 f8 0d 	lds	r23, 0x0DF8	; 0x800df8 <p_step+0x1>
    3e00:	80 91 f9 0d 	lds	r24, 0x0DF9	; 0x800df9 <p_step+0x2>
    3e04:	90 91 fa 0d 	lds	r25, 0x0DFA	; 0x800dfa <p_step+0x3>
    3e08:	0e 94 46 29 	call	0x528c	; 0x528c <__floatsisf>
    3e0c:	20 e0       	ldi	r18, 0x00	; 0
    3e0e:	30 e0       	ldi	r19, 0x00	; 0
    3e10:	40 e8       	ldi	r20, 0x80	; 128
    3e12:	5b e3       	ldi	r21, 0x3B	; 59
    3e14:	0e 94 bb 2a 	call	0x5576	; 0x5576 <__mulsf3>
    3e18:	2b ed       	ldi	r18, 0xDB	; 219
    3e1a:	3f e0       	ldi	r19, 0x0F	; 15
    3e1c:	49 e4       	ldi	r20, 0x49	; 73
    3e1e:	50 e4       	ldi	r21, 0x40	; 64
    3e20:	0e 94 bb 2a 	call	0x5576	; 0x5576 <__mulsf3>
    3e24:	20 e0       	ldi	r18, 0x00	; 0
    3e26:	30 e0       	ldi	r19, 0x00	; 0
    3e28:	48 e1       	ldi	r20, 0x18	; 24
    3e2a:	52 e4       	ldi	r21, 0x42	; 66
    3e2c:	0e 94 bb 2a 	call	0x5576	; 0x5576 <__mulsf3>
    3e30:	2b 01       	movw	r4, r22
    3e32:	3c 01       	movw	r6, r24
    3e34:	60 93 df 0d 	sts	0x0DDF, r22	; 0x800ddf <p1>
    3e38:	70 93 e0 0d 	sts	0x0DE0, r23	; 0x800de0 <p1+0x1>
    3e3c:	80 93 e1 0d 	sts	0x0DE1, r24	; 0x800de1 <p1+0x2>
    3e40:	90 93 e2 0d 	sts	0x0DE2, r25	; 0x800de2 <p1+0x3>
	
	y2 = (y1-p1)/2;
    3e44:	9b 01       	movw	r18, r22
    3e46:	ac 01       	movw	r20, r24
    3e48:	c5 01       	movw	r24, r10
    3e4a:	b4 01       	movw	r22, r8
    3e4c:	0e 94 dd 27 	call	0x4fba	; 0x4fba <__subsf3>
    3e50:	20 e0       	ldi	r18, 0x00	; 0
    3e52:	30 e0       	ldi	r19, 0x00	; 0
    3e54:	40 e0       	ldi	r20, 0x00	; 0
    3e56:	5f e3       	ldi	r21, 0x3F	; 63
    3e58:	0e 94 bb 2a 	call	0x5576	; 0x5576 <__mulsf3>
    3e5c:	6b 01       	movw	r12, r22
    3e5e:	7c 01       	movw	r14, r24
    3e60:	60 93 d7 0d 	sts	0x0DD7, r22	; 0x800dd7 <y2>
    3e64:	70 93 d8 0d 	sts	0x0DD8, r23	; 0x800dd8 <y2+0x1>
    3e68:	80 93 d9 0d 	sts	0x0DD9, r24	; 0x800dd9 <y2+0x2>
    3e6c:	90 93 da 0d 	sts	0x0DDA, r25	; 0x800dda <y2+0x3>
	p2 = (y1+p1)/d;//rad
    3e70:	a3 01       	movw	r20, r6
    3e72:	92 01       	movw	r18, r4
    3e74:	c5 01       	movw	r24, r10
    3e76:	b4 01       	movw	r22, r8
    3e78:	0e 94 de 27 	call	0x4fbc	; 0x4fbc <__addsf3>
    3e7c:	20 e0       	ldi	r18, 0x00	; 0
    3e7e:	30 e0       	ldi	r19, 0x00	; 0
    3e80:	48 e4       	ldi	r20, 0x48	; 72
    3e82:	53 e4       	ldi	r21, 0x43	; 67
    3e84:	0e 94 ab 28 	call	0x5156	; 0x5156 <__divsf3>
    3e88:	4b 01       	movw	r8, r22
    3e8a:	5c 01       	movw	r10, r24
    3e8c:	60 93 d3 0d 	sts	0x0DD3, r22	; 0x800dd3 <p2>
    3e90:	70 93 d4 0d 	sts	0x0DD4, r23	; 0x800dd4 <p2+0x1>
    3e94:	80 93 d5 0d 	sts	0x0DD5, r24	; 0x800dd5 <p2+0x2>
    3e98:	90 93 d6 0d 	sts	0x0DD6, r25	; 0x800dd6 <p2+0x3>
	x2 = -p2*d2+x1;//
    3e9c:	90 58       	subi	r25, 0x80	; 128
    3e9e:	20 e0       	ldi	r18, 0x00	; 0
    3ea0:	30 e0       	ldi	r19, 0x00	; 0
    3ea2:	40 ea       	ldi	r20, 0xA0	; 160
    3ea4:	52 e4       	ldi	r21, 0x42	; 66
    3ea6:	0e 94 bb 2a 	call	0x5576	; 0x5576 <__mulsf3>
    3eaa:	29 81       	ldd	r18, Y+1	; 0x01
    3eac:	3a 81       	ldd	r19, Y+2	; 0x02
    3eae:	4b 81       	ldd	r20, Y+3	; 0x03
    3eb0:	5c 81       	ldd	r21, Y+4	; 0x04
    3eb2:	0e 94 de 27 	call	0x4fbc	; 0x4fbc <__addsf3>
    3eb6:	2b 01       	movw	r4, r22
    3eb8:	3c 01       	movw	r6, r24
    3eba:	60 93 db 0d 	sts	0x0DDB, r22	; 0x800ddb <x2>
    3ebe:	70 93 dc 0d 	sts	0x0DDC, r23	; 0x800ddc <x2+0x1>
    3ec2:	80 93 dd 0d 	sts	0x0DDD, r24	; 0x800ddd <x2+0x2>
    3ec6:	90 93 de 0d 	sts	0x0DDE, r25	; 0x800dde <x2+0x3>

	if (p2>=PI)
    3eca:	2b ed       	ldi	r18, 0xDB	; 219
    3ecc:	3f e0       	ldi	r19, 0x0F	; 15
    3ece:	49 e4       	ldi	r20, 0x49	; 73
    3ed0:	50 e4       	ldi	r21, 0x40	; 64
    3ed2:	c5 01       	movw	r24, r10
    3ed4:	b4 01       	movw	r22, r8
    3ed6:	0e 94 b0 2a 	call	0x5560	; 0x5560 <__gesf2>
    3eda:	87 fd       	sbrc	r24, 7
    3edc:	1c c0       	rjmp	.+56     	; 0x3f16 <_Z11POS_refreshv+0x1e6>
	{
		p2 = fmod((p2+PI),(2*PI))-PI;
    3ede:	2b ed       	ldi	r18, 0xDB	; 219
    3ee0:	3f e0       	ldi	r19, 0x0F	; 15
    3ee2:	49 e4       	ldi	r20, 0x49	; 73
    3ee4:	50 e4       	ldi	r21, 0x40	; 64
    3ee6:	c5 01       	movw	r24, r10
    3ee8:	b4 01       	movw	r22, r8
    3eea:	0e 94 de 27 	call	0x4fbc	; 0x4fbc <__addsf3>
    3eee:	2b ed       	ldi	r18, 0xDB	; 219
    3ef0:	3f e0       	ldi	r19, 0x0F	; 15
    3ef2:	49 ec       	ldi	r20, 0xC9	; 201
    3ef4:	50 e4       	ldi	r21, 0x40	; 64
    3ef6:	0e 94 88 29 	call	0x5310	; 0x5310 <fmod>
    3efa:	2b ed       	ldi	r18, 0xDB	; 219
    3efc:	3f e0       	ldi	r19, 0x0F	; 15
    3efe:	49 e4       	ldi	r20, 0x49	; 73
    3f00:	50 e4       	ldi	r21, 0x40	; 64
    3f02:	0e 94 dd 27 	call	0x4fba	; 0x4fba <__subsf3>
    3f06:	60 93 d3 0d 	sts	0x0DD3, r22	; 0x800dd3 <p2>
    3f0a:	70 93 d4 0d 	sts	0x0DD4, r23	; 0x800dd4 <p2+0x1>
    3f0e:	80 93 d5 0d 	sts	0x0DD5, r24	; 0x800dd5 <p2+0x2>
    3f12:	90 93 d6 0d 	sts	0x0DD6, r25	; 0x800dd6 <p2+0x3>
	}
	if (p2<=(-PI))
    3f16:	80 90 d3 0d 	lds	r8, 0x0DD3	; 0x800dd3 <p2>
    3f1a:	90 90 d4 0d 	lds	r9, 0x0DD4	; 0x800dd4 <p2+0x1>
    3f1e:	a0 90 d5 0d 	lds	r10, 0x0DD5	; 0x800dd5 <p2+0x2>
    3f22:	b0 90 d6 0d 	lds	r11, 0x0DD6	; 0x800dd6 <p2+0x3>
    3f26:	2b ed       	ldi	r18, 0xDB	; 219
    3f28:	3f e0       	ldi	r19, 0x0F	; 15
    3f2a:	49 e4       	ldi	r20, 0x49	; 73
    3f2c:	50 ec       	ldi	r21, 0xC0	; 192
    3f2e:	c5 01       	movw	r24, r10
    3f30:	b4 01       	movw	r22, r8
    3f32:	0e 94 a4 28 	call	0x5148	; 0x5148 <__cmpsf2>
    3f36:	18 16       	cp	r1, r24
    3f38:	e4 f0       	brlt	.+56     	; 0x3f72 <_Z11POS_refreshv+0x242>
	{
		p2 = fmod((p2-PI),(2*PI))+PI;
    3f3a:	2b ed       	ldi	r18, 0xDB	; 219
    3f3c:	3f e0       	ldi	r19, 0x0F	; 15
    3f3e:	49 e4       	ldi	r20, 0x49	; 73
    3f40:	50 e4       	ldi	r21, 0x40	; 64
    3f42:	c5 01       	movw	r24, r10
    3f44:	b4 01       	movw	r22, r8
    3f46:	0e 94 dd 27 	call	0x4fba	; 0x4fba <__subsf3>
    3f4a:	2b ed       	ldi	r18, 0xDB	; 219
    3f4c:	3f e0       	ldi	r19, 0x0F	; 15
    3f4e:	49 ec       	ldi	r20, 0xC9	; 201
    3f50:	50 e4       	ldi	r21, 0x40	; 64
    3f52:	0e 94 88 29 	call	0x5310	; 0x5310 <fmod>
    3f56:	2b ed       	ldi	r18, 0xDB	; 219
    3f58:	3f e0       	ldi	r19, 0x0F	; 15
    3f5a:	49 e4       	ldi	r20, 0x49	; 73
    3f5c:	50 e4       	ldi	r21, 0x40	; 64
    3f5e:	0e 94 de 27 	call	0x4fbc	; 0x4fbc <__addsf3>
    3f62:	60 93 d3 0d 	sts	0x0DD3, r22	; 0x800dd3 <p2>
    3f66:	70 93 d4 0d 	sts	0x0DD4, r23	; 0x800dd4 <p2+0x1>
    3f6a:	80 93 d5 0d 	sts	0x0DD5, r24	; 0x800dd5 <p2+0x2>
    3f6e:	90 93 d6 0d 	sts	0x0DD6, r25	; 0x800dd6 <p2+0x3>
	}
	
	double dx = x2 - x2_previous;x2_previous = x2;
    3f72:	20 91 f3 0d 	lds	r18, 0x0DF3	; 0x800df3 <x2_previous>
    3f76:	30 91 f4 0d 	lds	r19, 0x0DF4	; 0x800df4 <x2_previous+0x1>
    3f7a:	40 91 f5 0d 	lds	r20, 0x0DF5	; 0x800df5 <x2_previous+0x2>
    3f7e:	50 91 f6 0d 	lds	r21, 0x0DF6	; 0x800df6 <x2_previous+0x3>
    3f82:	c3 01       	movw	r24, r6
    3f84:	b2 01       	movw	r22, r4
    3f86:	0e 94 dd 27 	call	0x4fba	; 0x4fba <__subsf3>
    3f8a:	4b 01       	movw	r8, r22
    3f8c:	5c 01       	movw	r10, r24
    3f8e:	40 92 f3 0d 	sts	0x0DF3, r4	; 0x800df3 <x2_previous>
    3f92:	50 92 f4 0d 	sts	0x0DF4, r5	; 0x800df4 <x2_previous+0x1>
    3f96:	60 92 f5 0d 	sts	0x0DF5, r6	; 0x800df5 <x2_previous+0x2>
    3f9a:	70 92 f6 0d 	sts	0x0DF6, r7	; 0x800df6 <x2_previous+0x3>
	double dy = y2 - y2_previous;y2_previous = y2;
    3f9e:	20 91 ef 0d 	lds	r18, 0x0DEF	; 0x800def <y2_previous>
    3fa2:	30 91 f0 0d 	lds	r19, 0x0DF0	; 0x800df0 <y2_previous+0x1>
    3fa6:	40 91 f1 0d 	lds	r20, 0x0DF1	; 0x800df1 <y2_previous+0x2>
    3faa:	50 91 f2 0d 	lds	r21, 0x0DF2	; 0x800df2 <y2_previous+0x3>
    3fae:	c7 01       	movw	r24, r14
    3fb0:	b6 01       	movw	r22, r12
    3fb2:	0e 94 dd 27 	call	0x4fba	; 0x4fba <__subsf3>
    3fb6:	2b 01       	movw	r4, r22
    3fb8:	3c 01       	movw	r6, r24
    3fba:	c0 92 ef 0d 	sts	0x0DEF, r12	; 0x800def <y2_previous>
    3fbe:	d0 92 f0 0d 	sts	0x0DF0, r13	; 0x800df0 <y2_previous+0x1>
    3fc2:	e0 92 f1 0d 	sts	0x0DF1, r14	; 0x800df1 <y2_previous+0x2>
    3fc6:	f0 92 f2 0d 	sts	0x0DF2, r15	; 0x800df2 <y2_previous+0x3>
	double dp_rad =p2 - p2_previous;p2_previous = p2;
    3fca:	c0 90 d3 0d 	lds	r12, 0x0DD3	; 0x800dd3 <p2>
    3fce:	d0 90 d4 0d 	lds	r13, 0x0DD4	; 0x800dd4 <p2+0x1>
    3fd2:	e0 90 d5 0d 	lds	r14, 0x0DD5	; 0x800dd5 <p2+0x2>
    3fd6:	f0 90 d6 0d 	lds	r15, 0x0DD6	; 0x800dd6 <p2+0x3>
    3fda:	c0 92 eb 0d 	sts	0x0DEB, r12	; 0x800deb <p2_previous>
    3fde:	d0 92 ec 0d 	sts	0x0DEC, r13	; 0x800dec <p2_previous+0x1>
    3fe2:	e0 92 ed 0d 	sts	0x0DED, r14	; 0x800ded <p2_previous+0x2>
    3fe6:	f0 92 ee 0d 	sts	0x0DEE, r15	; 0x800dee <p2_previous+0x3>
	x+= dax*cos(p_rad)+day*sin(p_rad);
	y+= day*cos(p_rad)-dax*sin(p_rad);
	*/
	
	//
	x+= dx*cos(p_rad)+dy*sin(p_rad);
    3fea:	c7 01       	movw	r24, r14
    3fec:	b6 01       	movw	r22, r12
    3fee:	0e 94 a8 28 	call	0x5150	; 0x5150 <cos>
    3ff2:	69 83       	std	Y+1, r22	; 0x01
    3ff4:	7a 83       	std	Y+2, r23	; 0x02
    3ff6:	8b 83       	std	Y+3, r24	; 0x03
    3ff8:	9c 83       	std	Y+4, r25	; 0x04
    3ffa:	c7 01       	movw	r24, r14
    3ffc:	b6 01       	movw	r22, r12
    3ffe:	0e 94 6a 2b 	call	0x56d4	; 0x56d4 <sin>
    4002:	6d 83       	std	Y+5, r22	; 0x05
    4004:	7e 83       	std	Y+6, r23	; 0x06
    4006:	8f 83       	std	Y+7, r24	; 0x07
    4008:	98 87       	std	Y+8, r25	; 0x08
    400a:	29 81       	ldd	r18, Y+1	; 0x01
    400c:	3a 81       	ldd	r19, Y+2	; 0x02
    400e:	4b 81       	ldd	r20, Y+3	; 0x03
    4010:	5c 81       	ldd	r21, Y+4	; 0x04
    4012:	c5 01       	movw	r24, r10
    4014:	b4 01       	movw	r22, r8
    4016:	0e 94 bb 2a 	call	0x5576	; 0x5576 <__mulsf3>
    401a:	69 87       	std	Y+9, r22	; 0x09
    401c:	7a 87       	std	Y+10, r23	; 0x0a
    401e:	8b 87       	std	Y+11, r24	; 0x0b
    4020:	9c 87       	std	Y+12, r25	; 0x0c
    4022:	2d 81       	ldd	r18, Y+5	; 0x05
    4024:	3e 81       	ldd	r19, Y+6	; 0x06
    4026:	4f 81       	ldd	r20, Y+7	; 0x07
    4028:	58 85       	ldd	r21, Y+8	; 0x08
    402a:	c3 01       	movw	r24, r6
    402c:	b2 01       	movw	r22, r4
    402e:	0e 94 bb 2a 	call	0x5576	; 0x5576 <__mulsf3>
    4032:	9b 01       	movw	r18, r22
    4034:	ac 01       	movw	r20, r24
    4036:	69 85       	ldd	r22, Y+9	; 0x09
    4038:	7a 85       	ldd	r23, Y+10	; 0x0a
    403a:	8b 85       	ldd	r24, Y+11	; 0x0b
    403c:	9c 85       	ldd	r25, Y+12	; 0x0c
    403e:	be d7       	rcall	.+3964   	; 0x4fbc <__addsf3>
    4040:	9b 01       	movw	r18, r22
    4042:	ac 01       	movw	r20, r24
    4044:	60 91 0b 0e 	lds	r22, 0x0E0B	; 0x800e0b <x>
    4048:	70 91 0c 0e 	lds	r23, 0x0E0C	; 0x800e0c <x+0x1>
    404c:	80 91 0d 0e 	lds	r24, 0x0E0D	; 0x800e0d <x+0x2>
    4050:	90 91 0e 0e 	lds	r25, 0x0E0E	; 0x800e0e <x+0x3>
    4054:	b3 d7       	rcall	.+3942   	; 0x4fbc <__addsf3>
    4056:	60 93 0b 0e 	sts	0x0E0B, r22	; 0x800e0b <x>
    405a:	70 93 0c 0e 	sts	0x0E0C, r23	; 0x800e0c <x+0x1>
    405e:	80 93 0d 0e 	sts	0x0E0D, r24	; 0x800e0d <x+0x2>
    4062:	90 93 0e 0e 	sts	0x0E0E, r25	; 0x800e0e <x+0x3>
	y+= dy*cos(p_rad)-dx*sin(p_rad);
    4066:	29 81       	ldd	r18, Y+1	; 0x01
    4068:	3a 81       	ldd	r19, Y+2	; 0x02
    406a:	4b 81       	ldd	r20, Y+3	; 0x03
    406c:	5c 81       	ldd	r21, Y+4	; 0x04
    406e:	c3 01       	movw	r24, r6
    4070:	b2 01       	movw	r22, r4
    4072:	0e 94 bb 2a 	call	0x5576	; 0x5576 <__mulsf3>
    4076:	2b 01       	movw	r4, r22
    4078:	3c 01       	movw	r6, r24
    407a:	2d 81       	ldd	r18, Y+5	; 0x05
    407c:	3e 81       	ldd	r19, Y+6	; 0x06
    407e:	4f 81       	ldd	r20, Y+7	; 0x07
    4080:	58 85       	ldd	r21, Y+8	; 0x08
    4082:	c5 01       	movw	r24, r10
    4084:	b4 01       	movw	r22, r8
    4086:	0e 94 bb 2a 	call	0x5576	; 0x5576 <__mulsf3>
    408a:	9b 01       	movw	r18, r22
    408c:	ac 01       	movw	r20, r24
    408e:	c3 01       	movw	r24, r6
    4090:	b2 01       	movw	r22, r4
    4092:	93 d7       	rcall	.+3878   	; 0x4fba <__subsf3>
    4094:	9b 01       	movw	r18, r22
    4096:	ac 01       	movw	r20, r24
    4098:	60 91 07 0e 	lds	r22, 0x0E07	; 0x800e07 <y>
    409c:	70 91 08 0e 	lds	r23, 0x0E08	; 0x800e08 <y+0x1>
    40a0:	80 91 09 0e 	lds	r24, 0x0E09	; 0x800e09 <y+0x2>
    40a4:	90 91 0a 0e 	lds	r25, 0x0E0A	; 0x800e0a <y+0x3>
    40a8:	89 d7       	rcall	.+3858   	; 0x4fbc <__addsf3>
    40aa:	60 93 07 0e 	sts	0x0E07, r22	; 0x800e07 <y>
    40ae:	70 93 08 0e 	sts	0x0E08, r23	; 0x800e08 <y+0x1>
    40b2:	80 93 09 0e 	sts	0x0E09, r24	; 0x800e09 <y+0x2>
    40b6:	90 93 0a 0e 	sts	0x0E0A, r25	; 0x800e0a <y+0x3>
	
	p = p_rad/PI*180;
    40ba:	2b ed       	ldi	r18, 0xDB	; 219
    40bc:	3f e0       	ldi	r19, 0x0F	; 15
    40be:	49 e4       	ldi	r20, 0x49	; 73
    40c0:	50 e4       	ldi	r21, 0x40	; 64
    40c2:	c7 01       	movw	r24, r14
    40c4:	b6 01       	movw	r22, r12
    40c6:	0e 94 ab 28 	call	0x5156	; 0x5156 <__divsf3>
    40ca:	20 e0       	ldi	r18, 0x00	; 0
    40cc:	30 e0       	ldi	r19, 0x00	; 0
    40ce:	44 e3       	ldi	r20, 0x34	; 52
    40d0:	53 e4       	ldi	r21, 0x43	; 67
    40d2:	0e 94 bb 2a 	call	0x5576	; 0x5576 <__mulsf3>
    40d6:	60 93 03 0e 	sts	0x0E03, r22	; 0x800e03 <p>
    40da:	70 93 04 0e 	sts	0x0E04, r23	; 0x800e04 <p+0x1>
    40de:	80 93 05 0e 	sts	0x0E05, r24	; 0x800e05 <p+0x2>
    40e2:	90 93 06 0e 	sts	0x0E06, r25	; 0x800e06 <p+0x3>
}
    40e6:	2c 96       	adiw	r28, 0x0c	; 12
    40e8:	0f b6       	in	r0, 0x3f	; 63
    40ea:	f8 94       	cli
    40ec:	de bf       	out	0x3e, r29	; 62
    40ee:	0f be       	out	0x3f, r0	; 63
    40f0:	cd bf       	out	0x3d, r28	; 61
    40f2:	df 91       	pop	r29
    40f4:	cf 91       	pop	r28
    40f6:	ff 90       	pop	r15
    40f8:	ef 90       	pop	r14
    40fa:	df 90       	pop	r13
    40fc:	cf 90       	pop	r12
    40fe:	bf 90       	pop	r11
    4100:	af 90       	pop	r10
    4102:	9f 90       	pop	r9
    4104:	8f 90       	pop	r8
    4106:	7f 90       	pop	r7
    4108:	6f 90       	pop	r6
    410a:	5f 90       	pop	r5
    410c:	4f 90       	pop	r4
    410e:	08 95       	ret

00004110 <_Z6blinkXv>:
double y2 = 0;
double p2 = 0;

void blinkX()
{
	int xstate = digitalRead(INT0B);
    4110:	84 e0       	ldi	r24, 0x04	; 4
    4112:	0e 94 2e 35 	call	0x6a5c	; 0x6a5c <digitalRead>
    4116:	40 91 ff 0d 	lds	r20, 0x0DFF	; 0x800dff <x_step>
    411a:	50 91 00 0e 	lds	r21, 0x0E00	; 0x800e00 <x_step+0x1>
    411e:	60 91 01 0e 	lds	r22, 0x0E01	; 0x800e01 <x_step+0x2>
    4122:	70 91 02 0e 	lds	r23, 0x0E02	; 0x800e02 <x_step+0x3>
	if (xstate == HIGH)
    4126:	01 97       	sbiw	r24, 0x01	; 1
    4128:	29 f4       	brne	.+10     	; 0x4134 <_Z6blinkXv+0x24>
	x_step++;
    412a:	4f 5f       	subi	r20, 0xFF	; 255
    412c:	5f 4f       	sbci	r21, 0xFF	; 255
    412e:	6f 4f       	sbci	r22, 0xFF	; 255
    4130:	7f 4f       	sbci	r23, 0xFF	; 255
    4132:	04 c0       	rjmp	.+8      	; 0x413c <_Z6blinkXv+0x2c>
	else
	x_step--;
    4134:	41 50       	subi	r20, 0x01	; 1
    4136:	51 09       	sbc	r21, r1
    4138:	61 09       	sbc	r22, r1
    413a:	71 09       	sbc	r23, r1
    413c:	40 93 ff 0d 	sts	0x0DFF, r20	; 0x800dff <x_step>
    4140:	50 93 00 0e 	sts	0x0E00, r21	; 0x800e00 <x_step+0x1>
    4144:	60 93 01 0e 	sts	0x0E01, r22	; 0x800e01 <x_step+0x2>
    4148:	70 93 02 0e 	sts	0x0E02, r23	; 0x800e02 <x_step+0x3>
    414c:	08 95       	ret

0000414e <_Z6blinkYv>:
}

void blinkY()
{
	int ystate = digitalRead(INT1B);
    414e:	85 e0       	ldi	r24, 0x05	; 5
    4150:	0e 94 2e 35 	call	0x6a5c	; 0x6a5c <digitalRead>
    4154:	40 91 fb 0d 	lds	r20, 0x0DFB	; 0x800dfb <y_step>
    4158:	50 91 fc 0d 	lds	r21, 0x0DFC	; 0x800dfc <y_step+0x1>
    415c:	60 91 fd 0d 	lds	r22, 0x0DFD	; 0x800dfd <y_step+0x2>
    4160:	70 91 fe 0d 	lds	r23, 0x0DFE	; 0x800dfe <y_step+0x3>
	if (ystate == HIGH)
    4164:	01 97       	sbiw	r24, 0x01	; 1
    4166:	29 f4       	brne	.+10     	; 0x4172 <_Z6blinkYv+0x24>
	y_step--;
    4168:	41 50       	subi	r20, 0x01	; 1
    416a:	51 09       	sbc	r21, r1
    416c:	61 09       	sbc	r22, r1
    416e:	71 09       	sbc	r23, r1
    4170:	04 c0       	rjmp	.+8      	; 0x417a <_Z6blinkYv+0x2c>
	else
	y_step++;
    4172:	4f 5f       	subi	r20, 0xFF	; 255
    4174:	5f 4f       	sbci	r21, 0xFF	; 255
    4176:	6f 4f       	sbci	r22, 0xFF	; 255
    4178:	7f 4f       	sbci	r23, 0xFF	; 255
    417a:	40 93 fb 0d 	sts	0x0DFB, r20	; 0x800dfb <y_step>
    417e:	50 93 fc 0d 	sts	0x0DFC, r21	; 0x800dfc <y_step+0x1>
    4182:	60 93 fd 0d 	sts	0x0DFD, r22	; 0x800dfd <y_step+0x2>
    4186:	70 93 fe 0d 	sts	0x0DFE, r23	; 0x800dfe <y_step+0x3>
    418a:	08 95       	ret

0000418c <_Z6blinkPv>:
}

void blinkP()
{
	int pstate = digitalRead(INT2B);
    418c:	86 e0       	ldi	r24, 0x06	; 6
    418e:	0e 94 2e 35 	call	0x6a5c	; 0x6a5c <digitalRead>
    4192:	40 91 f7 0d 	lds	r20, 0x0DF7	; 0x800df7 <p_step>
    4196:	50 91 f8 0d 	lds	r21, 0x0DF8	; 0x800df8 <p_step+0x1>
    419a:	60 91 f9 0d 	lds	r22, 0x0DF9	; 0x800df9 <p_step+0x2>
    419e:	70 91 fa 0d 	lds	r23, 0x0DFA	; 0x800dfa <p_step+0x3>
	if (pstate == HIGH)
    41a2:	01 97       	sbiw	r24, 0x01	; 1
    41a4:	29 f4       	brne	.+10     	; 0x41b0 <_Z6blinkPv+0x24>
	p_step--;
    41a6:	41 50       	subi	r20, 0x01	; 1
    41a8:	51 09       	sbc	r21, r1
    41aa:	61 09       	sbc	r22, r1
    41ac:	71 09       	sbc	r23, r1
    41ae:	04 c0       	rjmp	.+8      	; 0x41b8 <_Z6blinkPv+0x2c>
	else
	p_step++;
    41b0:	4f 5f       	subi	r20, 0xFF	; 255
    41b2:	5f 4f       	sbci	r21, 0xFF	; 255
    41b4:	6f 4f       	sbci	r22, 0xFF	; 255
    41b6:	7f 4f       	sbci	r23, 0xFF	; 255
    41b8:	40 93 f7 0d 	sts	0x0DF7, r20	; 0x800df7 <p_step>
    41bc:	50 93 f8 0d 	sts	0x0DF8, r21	; 0x800df8 <p_step+0x1>
    41c0:	60 93 f9 0d 	sts	0x0DF9, r22	; 0x800df9 <p_step+0x2>
    41c4:	70 93 fa 0d 	sts	0x0DFA, r23	; 0x800dfa <p_step+0x3>
    41c8:	08 95       	ret

000041ca <_Z9POS_beginv>:
}

void POS_begin()
{
	pinMode(INT0A, INPUT_PULLUP);
    41ca:	62 e0       	ldi	r22, 0x02	; 2
    41cc:	83 e1       	ldi	r24, 0x13	; 19
    41ce:	0e 94 c3 34 	call	0x6986	; 0x6986 <pinMode>
	pinMode(INT1A, INPUT_PULLUP);
    41d2:	62 e0       	ldi	r22, 0x02	; 2
    41d4:	82 e0       	ldi	r24, 0x02	; 2
    41d6:	0e 94 c3 34 	call	0x6986	; 0x6986 <pinMode>
	pinMode(INT2A, INPUT_PULLUP);
    41da:	62 e0       	ldi	r22, 0x02	; 2
    41dc:	83 e0       	ldi	r24, 0x03	; 3
    41de:	0e 94 c3 34 	call	0x6986	; 0x6986 <pinMode>
	
	pinMode(INT0B, INPUT_PULLUP);
    41e2:	62 e0       	ldi	r22, 0x02	; 2
    41e4:	84 e0       	ldi	r24, 0x04	; 4
    41e6:	0e 94 c3 34 	call	0x6986	; 0x6986 <pinMode>
	pinMode(INT1B, INPUT_PULLUP);
    41ea:	62 e0       	ldi	r22, 0x02	; 2
    41ec:	85 e0       	ldi	r24, 0x05	; 5
    41ee:	0e 94 c3 34 	call	0x6986	; 0x6986 <pinMode>
	pinMode(INT2B, INPUT_PULLUP);
    41f2:	62 e0       	ldi	r22, 0x02	; 2
    41f4:	86 e0       	ldi	r24, 0x06	; 6
    41f6:	0e 94 c3 34 	call	0x6986	; 0x6986 <pinMode>
	
	attachInterrupt(digitalPinToInterrupt(INT0A), blinkX, FALLING);
    41fa:	42 e0       	ldi	r20, 0x02	; 2
    41fc:	50 e0       	ldi	r21, 0x00	; 0
    41fe:	68 e8       	ldi	r22, 0x88	; 136
    4200:	70 e2       	ldi	r23, 0x20	; 32
    4202:	84 e0       	ldi	r24, 0x04	; 4
    4204:	0e 94 82 31 	call	0x6304	; 0x6304 <attachInterrupt>
	attachInterrupt(digitalPinToInterrupt(INT1A), blinkY, FALLING);
    4208:	42 e0       	ldi	r20, 0x02	; 2
    420a:	50 e0       	ldi	r21, 0x00	; 0
    420c:	67 ea       	ldi	r22, 0xA7	; 167
    420e:	70 e2       	ldi	r23, 0x20	; 32
    4210:	80 e0       	ldi	r24, 0x00	; 0
    4212:	0e 94 82 31 	call	0x6304	; 0x6304 <attachInterrupt>
	attachInterrupt(digitalPinToInterrupt(INT2A), blinkP, FALLING);
    4216:	42 e0       	ldi	r20, 0x02	; 2
    4218:	50 e0       	ldi	r21, 0x00	; 0
    421a:	66 ec       	ldi	r22, 0xC6	; 198
    421c:	70 e2       	ldi	r23, 0x20	; 32
    421e:	81 e0       	ldi	r24, 0x01	; 1
    4220:	0c 94 82 31 	jmp	0x6304	; 0x6304 <attachInterrupt>

00004224 <setup>:
Path path;
String state = "begin";

int step = 0;

void setup() {
    4224:	cf 93       	push	r28
    4226:	df 93       	push	r29
    4228:	00 d0       	rcall	.+0      	; 0x422a <setup+0x6>
    422a:	00 d0       	rcall	.+0      	; 0x422c <setup+0x8>
    422c:	cd b7       	in	r28, 0x3d	; 61
    422e:	de b7       	in	r29, 0x3e	; 62
    4230:	26 e0       	ldi	r18, 0x06	; 6
    4232:	40 e0       	ldi	r20, 0x00	; 0
    4234:	52 ec       	ldi	r21, 0xC2	; 194
    4236:	61 e0       	ldi	r22, 0x01	; 1
    4238:	70 e0       	ldi	r23, 0x00	; 0
    423a:	83 ed       	ldi	r24, 0xD3	; 211
    423c:	9e e0       	ldi	r25, 0x0E	; 14
    423e:	0e 94 ae 2d 	call	0x5b5c	; 0x5b5c <_ZN14HardwareSerial5beginEmh>
	// put your setup code here, to run once:
	Serial.begin(115200);
	toPC.begin(115200);
    4242:	40 e0       	ldi	r20, 0x00	; 0
    4244:	52 ec       	ldi	r21, 0xC2	; 194
    4246:	61 e0       	ldi	r22, 0x01	; 1
    4248:	70 e0       	ldi	r23, 0x00	; 0
    424a:	86 ea       	ldi	r24, 0xA6	; 166
    424c:	9d e0       	ldi	r25, 0x0D	; 13
    424e:	0e 94 65 11 	call	0x22ca	; 0x22ca <_ZN9ComwithPC5beginEm>
	
	dp.begin();
    4252:	87 ea       	ldi	r24, 0xA7	; 167
    4254:	9d e0       	ldi	r25, 0x0D	; 13
    4256:	0e 94 08 13 	call	0x2610	; 0x2610 <_ZN7Display5beginEv>
	cm.begin();
    425a:	82 e2       	ldi	r24, 0x22	; 34
    425c:	9d e0       	ldi	r25, 0x0D	; 13
    425e:	0e 94 ec 10 	call	0x21d8	; 0x21d8 <_ZN12ComwithMotor5beginEv>
	POS_begin();
    4262:	b3 df       	rcall	.-154    	; 0x41ca <_Z9POS_beginv>
	
	tc1.setMode("CTC",50);
    4264:	67 ef       	ldi	r22, 0xF7	; 247
    4266:	7b e0       	ldi	r23, 0x0B	; 11
    4268:	ce 01       	movw	r24, r28
    426a:	01 96       	adiw	r24, 0x01	; 1
    426c:	0e 94 fc 35 	call	0x6bf8	; 0x6bf8 <_ZN6StringC1EPKc>
    4270:	42 e3       	ldi	r20, 0x32	; 50
    4272:	50 e0       	ldi	r21, 0x00	; 0
    4274:	be 01       	movw	r22, r28
    4276:	6f 5f       	subi	r22, 0xFF	; 255
    4278:	7f 4f       	sbci	r23, 0xFF	; 255
    427a:	84 e7       	ldi	r24, 0x74	; 116
    427c:	9d e0       	ldi	r25, 0x0D	; 13
    427e:	fc d5       	rcall	.+3064   	; 0x4e78 <_ZN6Timer17setModeE6Stringi>
    4280:	ce 01       	movw	r24, r28
    4282:	01 96       	adiw	r24, 0x01	; 1
    4284:	0e 94 95 35 	call	0x6b2a	; 0x6b2a <_ZN6StringD1Ev>
	tc1.attachInterrupt(POS_refresh);
    4288:	68 e9       	ldi	r22, 0x98	; 152
    428a:	7e e1       	ldi	r23, 0x1E	; 30
    428c:	84 e7       	ldi	r24, 0x74	; 116
    428e:	9d e0       	ldi	r25, 0x0D	; 13
    4290:	62 d6       	rcall	.+3268   	; 0x4f56 <_ZN6Timer115attachInterruptEPFvvE>
	PS2.begin();
    4292:	80 e8       	ldi	r24, 0x80	; 128
    4294:	9d e0       	ldi	r25, 0x0D	; 13
    4296:	0e 94 20 17 	call	0x2e40	; 0x2e40 <_ZN4mPS25beginEv>

	PS2.refresh();
    429a:	80 e8       	ldi	r24, 0x80	; 128
    429c:	9d e0       	ldi	r25, 0x0D	; 13
    429e:	0e 94 ac 17 	call	0x2f58	; 0x2f58 <_ZN4mPS27refreshEv>
	PS2.isRC = true;
    42a2:	81 e0       	ldi	r24, 0x01	; 1
    42a4:	80 93 99 0d 	sts	0x0D99, r24	; 0x800d99 <PS2+0x19>
}
    42a8:	26 96       	adiw	r28, 0x06	; 6
    42aa:	0f b6       	in	r0, 0x3f	; 63
    42ac:	f8 94       	cli
    42ae:	de bf       	out	0x3e, r29	; 62
    42b0:	0f be       	out	0x3f, r0	; 63
    42b2:	cd bf       	out	0x3d, r28	; 61
    42b4:	df 91       	pop	r29
    42b6:	cf 91       	pop	r28
    42b8:	08 95       	ret

000042ba <loop>:

void loop() {
    42ba:	2f 92       	push	r2
    42bc:	3f 92       	push	r3
    42be:	4f 92       	push	r4
    42c0:	5f 92       	push	r5
    42c2:	6f 92       	push	r6
    42c4:	7f 92       	push	r7
    42c6:	8f 92       	push	r8
    42c8:	9f 92       	push	r9
    42ca:	af 92       	push	r10
    42cc:	bf 92       	push	r11
    42ce:	cf 92       	push	r12
    42d0:	df 92       	push	r13
    42d2:	ef 92       	push	r14
    42d4:	ff 92       	push	r15
    42d6:	0f 93       	push	r16
    42d8:	1f 93       	push	r17
    42da:	cf 93       	push	r28
    42dc:	df 93       	push	r29
    42de:	cd b7       	in	r28, 0x3d	; 61
    42e0:	de b7       	in	r29, 0x3e	; 62
    42e2:	62 97       	sbiw	r28, 0x12	; 18
    42e4:	0f b6       	in	r0, 0x3f	; 63
    42e6:	f8 94       	cli
    42e8:	de bf       	out	0x3e, r29	; 62
    42ea:	0f be       	out	0x3f, r0	; 63
    42ec:	cd bf       	out	0x3d, r28	; 61
	// put your main code here, to run repeatedly:
	//PS2
	PS2.refresh();
    42ee:	80 e8       	ldi	r24, 0x80	; 128
    42f0:	9d e0       	ldi	r25, 0x0D	; 13
    42f2:	0e 94 ac 17 	call	0x2f58	; 0x2f58 <_ZN4mPS27refreshEv>
	if (PS2.shot)
    42f6:	80 91 8a 0d 	lds	r24, 0x0D8A	; 0x800d8a <PS2+0xa>
    42fa:	88 23       	and	r24, r24
    42fc:	29 f1       	breq	.+74     	; 0x4348 <loop+0x8e>
	{
		CS.SendXYPandSHOT(x,y,p);
    42fe:	c0 90 03 0e 	lds	r12, 0x0E03	; 0x800e03 <p>
    4302:	d0 90 04 0e 	lds	r13, 0x0E04	; 0x800e04 <p+0x1>
    4306:	e0 90 05 0e 	lds	r14, 0x0E05	; 0x800e05 <p+0x2>
    430a:	f0 90 06 0e 	lds	r15, 0x0E06	; 0x800e06 <p+0x3>
    430e:	00 91 07 0e 	lds	r16, 0x0E07	; 0x800e07 <y>
    4312:	10 91 08 0e 	lds	r17, 0x0E08	; 0x800e08 <y+0x1>
    4316:	20 91 09 0e 	lds	r18, 0x0E09	; 0x800e09 <y+0x2>
    431a:	30 91 0a 0e 	lds	r19, 0x0E0A	; 0x800e0a <y+0x3>
    431e:	40 91 0b 0e 	lds	r20, 0x0E0B	; 0x800e0b <x>
    4322:	50 91 0c 0e 	lds	r21, 0x0E0C	; 0x800e0c <x+0x1>
    4326:	60 91 0d 0e 	lds	r22, 0x0E0D	; 0x800e0d <x+0x2>
    432a:	70 91 0e 0e 	lds	r23, 0x0E0E	; 0x800e0e <x+0x3>
    432e:	81 e7       	ldi	r24, 0x71	; 113
    4330:	9d e0       	ldi	r25, 0x0D	; 13
    4332:	0e 94 31 12 	call	0x2462	; 0x2462 <_ZN11ComwithShot14SendXYPandSHOTEddd>
		state = "Shot!!!!!";
    4336:	6b ef       	ldi	r22, 0xFB	; 251
    4338:	7b e0       	ldi	r23, 0x0B	; 11
    433a:	86 ea       	ldi	r24, 0xA6	; 166
    433c:	9c e0       	ldi	r25, 0x0C	; 12
    433e:	0e 94 2d 36 	call	0x6c5a	; 0x6c5a <_ZN6StringaSEPKc>
		PS2.shot = false;
    4342:	10 92 8a 0d 	sts	0x0D8A, r1	; 0x800d8a <PS2+0xa>
    4346:	06 c0       	rjmp	.+12     	; 0x4354 <loop+0x9a>
	}
	else
	{
		state = "Running!!!!";
    4348:	65 e0       	ldi	r22, 0x05	; 5
    434a:	7c e0       	ldi	r23, 0x0C	; 12
    434c:	86 ea       	ldi	r24, 0xA6	; 166
    434e:	9c e0       	ldi	r25, 0x0C	; 12
    4350:	0e 94 2d 36 	call	0x6c5a	; 0x6c5a <_ZN6StringaSEPKc>
	Kinematics::output pwm;
	float linear_vel_x =  0;
	float linear_vel_y = 0;
	float angular_vel_z = 0;
	
	if (!PS2.isRC)
    4354:	80 91 99 0d 	lds	r24, 0x0D99	; 0x800d99 <PS2+0x19>
    4358:	c0 90 03 0e 	lds	r12, 0x0E03	; 0x800e03 <p>
    435c:	d0 90 04 0e 	lds	r13, 0x0E04	; 0x800e04 <p+0x1>
    4360:	e0 90 05 0e 	lds	r14, 0x0E05	; 0x800e05 <p+0x2>
    4364:	f0 90 06 0e 	lds	r15, 0x0E06	; 0x800e06 <p+0x3>
    4368:	00 91 07 0e 	lds	r16, 0x0E07	; 0x800e07 <y>
    436c:	10 91 08 0e 	lds	r17, 0x0E08	; 0x800e08 <y+0x1>
    4370:	20 91 09 0e 	lds	r18, 0x0E09	; 0x800e09 <y+0x2>
    4374:	30 91 0a 0e 	lds	r19, 0x0E0A	; 0x800e0a <y+0x3>
    4378:	40 91 0b 0e 	lds	r20, 0x0E0B	; 0x800e0b <x>
    437c:	50 91 0c 0e 	lds	r21, 0x0E0C	; 0x800e0c <x+0x1>
    4380:	60 91 0d 0e 	lds	r22, 0x0E0D	; 0x800e0d <x+0x2>
    4384:	70 91 0e 0e 	lds	r23, 0x0E0E	; 0x800e0e <x+0x3>
    4388:	81 11       	cpse	r24, r1
    438a:	24 c0       	rjmp	.+72     	; 0x43d4 <loop+0x11a>
	{
		path.gotoPoint(x,y,p,1000,1000);
    438c:	84 e4       	ldi	r24, 0x44	; 68
    438e:	8f 93       	push	r24
    4390:	8a e7       	ldi	r24, 0x7A	; 122
    4392:	8f 93       	push	r24
    4394:	1f 92       	push	r1
    4396:	1f 92       	push	r1
    4398:	81 2c       	mov	r8, r1
    439a:	91 2c       	mov	r9, r1
    439c:	ea e7       	ldi	r30, 0x7A	; 122
    439e:	ae 2e       	mov	r10, r30
    43a0:	e4 e4       	ldi	r30, 0x44	; 68
    43a2:	be 2e       	mov	r11, r30
    43a4:	8c ea       	ldi	r24, 0xAC	; 172
    43a6:	9c e0       	ldi	r25, 0x0C	; 12
    43a8:	26 d8       	rcall	.-4020   	; 0x33f6 <_ZN4Path9gotoPointEddddd>
		linear_vel_x = path.linear_vel_x;
    43aa:	20 90 1c 0d 	lds	r2, 0x0D1C	; 0x800d1c <path+0x70>
    43ae:	30 90 1d 0d 	lds	r3, 0x0D1D	; 0x800d1d <path+0x71>
    43b2:	40 90 1e 0d 	lds	r4, 0x0D1E	; 0x800d1e <path+0x72>
    43b6:	50 90 1f 0d 	lds	r5, 0x0D1F	; 0x800d1f <path+0x73>
		angular_vel_z = path.angular_vel_z;
    43ba:	c0 90 18 0d 	lds	r12, 0x0D18	; 0x800d18 <path+0x6c>
    43be:	d0 90 19 0d 	lds	r13, 0x0D19	; 0x800d19 <path+0x6d>
    43c2:	e0 90 1a 0d 	lds	r14, 0x0D1A	; 0x800d1a <path+0x6e>
    43c6:	f0 90 1b 0d 	lds	r15, 0x0D1B	; 0x800d1b <path+0x6f>
    43ca:	0f 90       	pop	r0
    43cc:	0f 90       	pop	r0
    43ce:	0f 90       	pop	r0
    43d0:	0f 90       	pop	r0
    43d2:	5c c0       	rjmp	.+184    	; 0x448c <loop+0x1d2>
	}
	else
	{
		path.gotoPoint(x,y,p,500,500);
    43d4:	83 e4       	ldi	r24, 0x43	; 67
    43d6:	8f 93       	push	r24
    43d8:	8a ef       	ldi	r24, 0xFA	; 250
    43da:	8f 93       	push	r24
    43dc:	1f 92       	push	r1
    43de:	1f 92       	push	r1
    43e0:	81 2c       	mov	r8, r1
    43e2:	91 2c       	mov	r9, r1
    43e4:	8a ef       	ldi	r24, 0xFA	; 250
    43e6:	a8 2e       	mov	r10, r24
    43e8:	83 e4       	ldi	r24, 0x43	; 67
    43ea:	b8 2e       	mov	r11, r24
    43ec:	8c ea       	ldi	r24, 0xAC	; 172
    43ee:	9c e0       	ldi	r25, 0x0C	; 12
    43f0:	02 d8       	rcall	.-4092   	; 0x33f6 <_ZN4Path9gotoPointEddddd>
		linear_vel_x =   float(map(PS2.analog_RY,0,255,1000,-1000))/1000;
    43f2:	60 91 8f 0d 	lds	r22, 0x0D8F	; 0x800d8f <PS2+0xf>
    43f6:	70 91 90 0d 	lds	r23, 0x0D90	; 0x800d90 <PS2+0x10>
    43fa:	07 2e       	mov	r0, r23
    43fc:	00 0c       	add	r0, r0
    43fe:	88 0b       	sbc	r24, r24
    4400:	99 0b       	sbc	r25, r25
    4402:	77 24       	eor	r7, r7
    4404:	7a 94       	dec	r7
    4406:	7f 92       	push	r7
    4408:	7f 92       	push	r7
    440a:	2c ef       	ldi	r18, 0xFC	; 252
    440c:	2f 93       	push	r18
    440e:	28 e1       	ldi	r18, 0x18	; 24
    4410:	2f 93       	push	r18
    4412:	28 ee       	ldi	r18, 0xE8	; 232
    4414:	a2 2e       	mov	r10, r18
    4416:	23 e0       	ldi	r18, 0x03	; 3
    4418:	b2 2e       	mov	r11, r18
    441a:	c1 2c       	mov	r12, r1
    441c:	d1 2c       	mov	r13, r1
    441e:	e1 2c       	mov	r14, r1
    4420:	f1 2c       	mov	r15, r1
    4422:	87 01       	movw	r16, r14
    4424:	ea 94       	dec	r14
    4426:	20 e0       	ldi	r18, 0x00	; 0
    4428:	30 e0       	ldi	r19, 0x00	; 0
    442a:	a9 01       	movw	r20, r18
    442c:	0e 94 56 35 	call	0x6aac	; 0x6aac <_Z3maplllll>
    4430:	2d d7       	rcall	.+3674   	; 0x528c <__floatsisf>
    4432:	20 e0       	ldi	r18, 0x00	; 0
    4434:	30 e0       	ldi	r19, 0x00	; 0
    4436:	4a e7       	ldi	r20, 0x7A	; 122
    4438:	54 e4       	ldi	r21, 0x44	; 68
    443a:	8d d6       	rcall	.+3354   	; 0x5156 <__divsf3>
    443c:	1b 01       	movw	r2, r22
    443e:	2c 01       	movw	r4, r24
		linear_vel_y = 0;
		angular_vel_z =float(map(PS2.analog_LX,0,255,3140,-3140))/1500;
    4440:	60 91 8d 0d 	lds	r22, 0x0D8D	; 0x800d8d <PS2+0xd>
    4444:	70 91 8e 0d 	lds	r23, 0x0D8E	; 0x800d8e <PS2+0xe>
    4448:	07 2e       	mov	r0, r23
    444a:	00 0c       	add	r0, r0
    444c:	88 0b       	sbc	r24, r24
    444e:	99 0b       	sbc	r25, r25
    4450:	7f 92       	push	r7
    4452:	7f 92       	push	r7
    4454:	23 ef       	ldi	r18, 0xF3	; 243
    4456:	2f 93       	push	r18
    4458:	2c eb       	ldi	r18, 0xBC	; 188
    445a:	2f 93       	push	r18
    445c:	44 e4       	ldi	r20, 0x44	; 68
    445e:	a4 2e       	mov	r10, r20
    4460:	4c e0       	ldi	r20, 0x0C	; 12
    4462:	b4 2e       	mov	r11, r20
    4464:	c1 2c       	mov	r12, r1
    4466:	d1 2c       	mov	r13, r1
    4468:	20 e0       	ldi	r18, 0x00	; 0
    446a:	30 e0       	ldi	r19, 0x00	; 0
    446c:	a9 01       	movw	r20, r18
    446e:	0e 94 56 35 	call	0x6aac	; 0x6aac <_Z3maplllll>
    4472:	0c d7       	rcall	.+3608   	; 0x528c <__floatsisf>
    4474:	20 e0       	ldi	r18, 0x00	; 0
    4476:	30 e8       	ldi	r19, 0x80	; 128
    4478:	4b eb       	ldi	r20, 0xBB	; 187
    447a:	54 e4       	ldi	r21, 0x44	; 68
    447c:	6c d6       	rcall	.+3288   	; 0x5156 <__divsf3>
    447e:	6b 01       	movw	r12, r22
    4480:	7c 01       	movw	r14, r24
    4482:	0f b6       	in	r0, 0x3f	; 63
    4484:	f8 94       	cli
    4486:	de bf       	out	0x3e, r29	; 62
    4488:	0f be       	out	0x3f, r0	; 63
    448a:	cd bf       	out	0x3d, r28	; 61
	}
	pwm = kinematics.getPWM(linear_vel_x, linear_vel_y, angular_vel_z);
    448c:	00 e0       	ldi	r16, 0x00	; 0
    448e:	10 e0       	ldi	r17, 0x00	; 0
    4490:	98 01       	movw	r18, r16
    4492:	b2 01       	movw	r22, r4
    4494:	a1 01       	movw	r20, r2
    4496:	83 e4       	ldi	r24, 0x43	; 67
    4498:	9d e0       	ldi	r25, 0x0D	; 13
    449a:	0e 94 be 15 	call	0x2b7c	; 0x2b7c <_ZN10Kinematics6getPWMEfff>
    449e:	29 83       	std	Y+1, r18	; 0x01
    44a0:	3a 83       	std	Y+2, r19	; 0x02
    44a2:	4b 83       	std	Y+3, r20	; 0x03
    44a4:	5c 83       	std	Y+4, r21	; 0x04
    44a6:	6d 83       	std	Y+5, r22	; 0x05
    44a8:	7e 83       	std	Y+6, r23	; 0x06
    44aa:	8f 83       	std	Y+7, r24	; 0x07
    44ac:	98 87       	std	Y+8, r25	; 0x08
    44ae:	89 81       	ldd	r24, Y+1	; 0x01
    44b0:	9a 81       	ldd	r25, Y+2	; 0x02
    44b2:	9a 8b       	std	Y+18, r25	; 0x12
    44b4:	89 8b       	std	Y+17, r24	; 0x11
    44b6:	8b 81       	ldd	r24, Y+3	; 0x03
    44b8:	9c 81       	ldd	r25, Y+4	; 0x04
    44ba:	98 8b       	std	Y+16, r25	; 0x10
    44bc:	8f 87       	std	Y+15, r24	; 0x0f
    44be:	2d 80       	ldd	r2, Y+5	; 0x05
    44c0:	3e 80       	ldd	r3, Y+6	; 0x06
    44c2:	4f 80       	ldd	r4, Y+7	; 0x07
    44c4:	58 84       	ldd	r5, Y+8	; 0x08
	Serial.print(pwm.motor3);
	Serial.print("pwm_motor4:");
	Serial.println(pwm.motor4);
	#endif
	
	cm.SendAtoALL(pwm.motor1,pwm.motor2,pwm.motor3,pwm.motor4);
    44c6:	82 01       	movw	r16, r4
    44c8:	91 01       	movw	r18, r2
    44ca:	ac 01       	movw	r20, r24
    44cc:	69 89       	ldd	r22, Y+17	; 0x11
    44ce:	7a 89       	ldd	r23, Y+18	; 0x12
    44d0:	82 e2       	ldi	r24, 0x22	; 34
    44d2:	9d e0       	ldi	r25, 0x0D	; 13
    44d4:	0e 94 f3 0f 	call	0x1fe6	; 0x1fe6 <_ZN12ComwithMotor10SendAtoALLEiiii>
	
	//
	toPC.tellMotors(pwm.motor1,pwm.motor2,pwm.motor3,pwm.motor4);
    44d8:	91 01       	movw	r18, r2
    44da:	4f 85       	ldd	r20, Y+15	; 0x0f
    44dc:	58 89       	ldd	r21, Y+16	; 0x10
    44de:	69 89       	ldd	r22, Y+17	; 0x11
    44e0:	7a 89       	ldd	r23, Y+18	; 0x12
    44e2:	86 ea       	ldi	r24, 0xA6	; 166
    44e4:	9d e0       	ldi	r25, 0x0D	; 13
    44e6:	0e 94 70 11 	call	0x22e0	; 0x22e0 <_ZN9ComwithPC10tellMotorsEiiii>
	toPC.tellXYP(x,y,p);
    44ea:	c0 90 03 0e 	lds	r12, 0x0E03	; 0x800e03 <p>
    44ee:	d0 90 04 0e 	lds	r13, 0x0E04	; 0x800e04 <p+0x1>
    44f2:	e0 90 05 0e 	lds	r14, 0x0E05	; 0x800e05 <p+0x2>
    44f6:	f0 90 06 0e 	lds	r15, 0x0E06	; 0x800e06 <p+0x3>
    44fa:	00 91 07 0e 	lds	r16, 0x0E07	; 0x800e07 <y>
    44fe:	10 91 08 0e 	lds	r17, 0x0E08	; 0x800e08 <y+0x1>
    4502:	20 91 09 0e 	lds	r18, 0x0E09	; 0x800e09 <y+0x2>
    4506:	30 91 0a 0e 	lds	r19, 0x0E0A	; 0x800e0a <y+0x3>
    450a:	40 91 0b 0e 	lds	r20, 0x0E0B	; 0x800e0b <x>
    450e:	50 91 0c 0e 	lds	r21, 0x0E0C	; 0x800e0c <x+0x1>
    4512:	60 91 0d 0e 	lds	r22, 0x0E0D	; 0x800e0d <x+0x2>
    4516:	70 91 0e 0e 	lds	r23, 0x0E0E	; 0x800e0e <x+0x3>
    451a:	86 ea       	ldi	r24, 0xA6	; 166
    451c:	9d e0       	ldi	r25, 0x0D	; 13
    451e:	0e 94 b4 11 	call	0x2368	; 0x2368 <_ZN9ComwithPC7tellXYPEddd>
	toPC.tellState(state);
    4522:	3e 01       	movw	r6, r28
    4524:	99 e0       	ldi	r25, 0x09	; 9
    4526:	69 0e       	add	r6, r25
    4528:	71 1c       	adc	r7, r1
    452a:	66 ea       	ldi	r22, 0xA6	; 166
    452c:	7c e0       	ldi	r23, 0x0C	; 12
    452e:	c3 01       	movw	r24, r6
    4530:	0e 94 25 36 	call	0x6c4a	; 0x6c4a <_ZN6StringC1ERKS_>
    4534:	b3 01       	movw	r22, r6
    4536:	86 ea       	ldi	r24, 0xA6	; 166
    4538:	9d e0       	ldi	r25, 0x0D	; 13
    453a:	0e 94 1a 12 	call	0x2434	; 0x2434 <_ZN9ComwithPC9tellStateE6String>
    453e:	c3 01       	movw	r24, r6
    4540:	0e 94 95 35 	call	0x6b2a	; 0x6b2a <_ZN6StringD1Ev>
	
	//OLEDXYP
	dp.refresh(pwm.motor1,pwm.motor2,pwm.motor3,pwm.motor4,x,y,p,PS2.state);
    4544:	63 e9       	ldi	r22, 0x93	; 147
    4546:	7d e0       	ldi	r23, 0x0D	; 13
    4548:	c3 01       	movw	r24, r6
    454a:	0e 94 25 36 	call	0x6c4a	; 0x6c4a <_ZN6StringC1ERKS_>
    454e:	80 90 07 0e 	lds	r8, 0x0E07	; 0x800e07 <y>
    4552:	90 90 08 0e 	lds	r9, 0x0E08	; 0x800e08 <y+0x1>
    4556:	a0 90 09 0e 	lds	r10, 0x0E09	; 0x800e09 <y+0x2>
    455a:	b0 90 0a 0e 	lds	r11, 0x0E0A	; 0x800e0a <y+0x3>
    455e:	c0 90 0b 0e 	lds	r12, 0x0E0B	; 0x800e0b <x>
    4562:	d0 90 0c 0e 	lds	r13, 0x0E0C	; 0x800e0c <x+0x1>
    4566:	e0 90 0d 0e 	lds	r14, 0x0E0D	; 0x800e0d <x+0x2>
    456a:	f0 90 0e 0e 	lds	r15, 0x0E0E	; 0x800e0e <x+0x3>
    456e:	7f 92       	push	r7
    4570:	6f 92       	push	r6
    4572:	80 91 06 0e 	lds	r24, 0x0E06	; 0x800e06 <p+0x3>
    4576:	8f 93       	push	r24
    4578:	80 91 05 0e 	lds	r24, 0x0E05	; 0x800e05 <p+0x2>
    457c:	8f 93       	push	r24
    457e:	80 91 04 0e 	lds	r24, 0x0E04	; 0x800e04 <p+0x1>
    4582:	8f 93       	push	r24
    4584:	80 91 03 0e 	lds	r24, 0x0E03	; 0x800e03 <p>
    4588:	8f 93       	push	r24
    458a:	82 01       	movw	r16, r4
    458c:	91 01       	movw	r18, r2
    458e:	4f 85       	ldd	r20, Y+15	; 0x0f
    4590:	58 89       	ldd	r21, Y+16	; 0x10
    4592:	69 89       	ldd	r22, Y+17	; 0x11
    4594:	7a 89       	ldd	r23, Y+18	; 0x12
    4596:	87 ea       	ldi	r24, 0xA7	; 167
    4598:	9d e0       	ldi	r25, 0x0D	; 13
    459a:	0e 94 1a 13 	call	0x2634	; 0x2634 <_ZN7Display7refreshEiiiiddd6String>
    459e:	c3 01       	movw	r24, r6
    45a0:	0e 94 95 35 	call	0x6b2a	; 0x6b2a <_ZN6StringD1Ev>
	PS2.state = "";
    45a4:	6d e3       	ldi	r22, 0x3D	; 61
    45a6:	7c e0       	ldi	r23, 0x0C	; 12
    45a8:	83 e9       	ldi	r24, 0x93	; 147
    45aa:	9d e0       	ldi	r25, 0x0D	; 13
    45ac:	0e 94 2d 36 	call	0x6c5a	; 0x6c5a <_ZN6StringaSEPKc>
    45b0:	0f 90       	pop	r0
    45b2:	0f 90       	pop	r0
    45b4:	0f 90       	pop	r0
    45b6:	0f 90       	pop	r0
    45b8:	0f 90       	pop	r0
    45ba:	0f 90       	pop	r0
	Serial.print("Y_fina:");
	Serial.print(y);
	Serial.print("P_fina:");
	Serial.println(p);  //
	#endif // SERIAL_DEBUG
    45bc:	62 96       	adiw	r28, 0x12	; 18
    45be:	0f b6       	in	r0, 0x3f	; 63
    45c0:	f8 94       	cli
    45c2:	de bf       	out	0x3e, r29	; 62
    45c4:	0f be       	out	0x3f, r0	; 63
    45c6:	cd bf       	out	0x3d, r28	; 61
    45c8:	df 91       	pop	r29
    45ca:	cf 91       	pop	r28
    45cc:	1f 91       	pop	r17
    45ce:	0f 91       	pop	r16
    45d0:	ff 90       	pop	r15
    45d2:	ef 90       	pop	r14
    45d4:	df 90       	pop	r13
    45d6:	cf 90       	pop	r12
    45d8:	bf 90       	pop	r11
    45da:	af 90       	pop	r10
    45dc:	9f 90       	pop	r9
    45de:	8f 90       	pop	r8
    45e0:	7f 90       	pop	r7
    45e2:	6f 90       	pop	r6
    45e4:	5f 90       	pop	r5
    45e6:	4f 90       	pop	r4
    45e8:	3f 90       	pop	r3
    45ea:	2f 90       	pop	r2
    45ec:	08 95       	ret

000045ee <_GLOBAL__sub_I_x>:
    45ee:	cf 92       	push	r12
    45f0:	df 92       	push	r13
    45f2:	ef 92       	push	r14
    45f4:	ff 92       	push	r15
    45f6:	0f 93       	push	r16
    45f8:	1f 93       	push	r17
#include "ComwithMotor.h"
#include "Path.h"

//Beginning of Auto generated function prototypes by Atmel Studio
//End of Auto generated function prototypes by Atmel Studio
Display dp;
    45fa:	87 ea       	ldi	r24, 0xA7	; 167
    45fc:	9d e0       	ldi	r25, 0x0D	; 13
    45fe:	0e 94 cc 12 	call	0x2598	; 0x2598 <_ZN7DisplayC1Ev>
ComwithPC toPC;
    4602:	86 ea       	ldi	r24, 0xA6	; 166
    4604:	9d e0       	ldi	r25, 0x0D	; 13
    4606:	0e 94 64 11 	call	0x22c8	; 0x22c8 <_ZN9ComwithPCC1Ev>
mMotor motor;
    460a:	8a e9       	ldi	r24, 0x9A	; 154
    460c:	9d e0       	ldi	r25, 0x0D	; 13
    460e:	0e 94 e9 16 	call	0x2dd2	; 0x2dd2 <_ZN6mMotorC1Ev>
mPS2 PS2;
    4612:	80 e8       	ldi	r24, 0x80	; 128
    4614:	9d e0       	ldi	r25, 0x0D	; 13
    4616:	0e 94 fd 16 	call	0x2dfa	; 0x2dfa <_ZN4mPS2C1Ev>
Timer1 tc1;
    461a:	84 e7       	ldi	r24, 0x74	; 116
    461c:	9d e0       	ldi	r25, 0x0D	; 13
    461e:	17 d4       	rcall	.+2094   	; 0x4e4e <_ZN6Timer1C1Ev>
ComwithShot CS;
    4620:	81 e7       	ldi	r24, 0x71	; 113
    4622:	9d e0       	ldi	r25, 0x0D	; 13
    4624:	0e 94 2a 12 	call	0x2454	; 0x2454 <_ZN11ComwithShotC1Ev>
Kinematics kinematics(300,0.068, 0.5,8);
    4628:	88 e0       	ldi	r24, 0x08	; 8
    462a:	c8 2e       	mov	r12, r24
    462c:	d1 2c       	mov	r13, r1
    462e:	e1 2c       	mov	r14, r1
    4630:	f1 2c       	mov	r15, r1
    4632:	00 e0       	ldi	r16, 0x00	; 0
    4634:	1f e3       	ldi	r17, 0x3F	; 63
    4636:	26 e9       	ldi	r18, 0x96	; 150
    4638:	33 e4       	ldi	r19, 0x43	; 67
    463a:	4b e8       	ldi	r20, 0x8B	; 139
    463c:	5d e3       	ldi	r21, 0x3D	; 61
    463e:	6c e2       	ldi	r22, 0x2C	; 44
    4640:	71 e0       	ldi	r23, 0x01	; 1
    4642:	83 e4       	ldi	r24, 0x43	; 67
    4644:	9d e0       	ldi	r25, 0x0D	; 13
    4646:	0e 94 4f 14 	call	0x289e	; 0x289e <_ZN10KinematicsC1Eiffi>
ComwithMotor cm;
    464a:	82 e2       	ldi	r24, 0x22	; 34
    464c:	9d e0       	ldi	r25, 0x0D	; 13
    464e:	0e 94 b1 0f 	call	0x1f62	; 0x1f62 <_ZN12ComwithMotorC1Ev>
Path path;
    4652:	8c ea       	ldi	r24, 0xAC	; 172
    4654:	9c e0       	ldi	r25, 0x0C	; 12
    4656:	0e 94 2b 19 	call	0x3256	; 0x3256 <_ZN4PathC1Ev>
String state = "begin";
    465a:	61 e1       	ldi	r22, 0x11	; 17
    465c:	7c e0       	ldi	r23, 0x0C	; 12
    465e:	86 ea       	ldi	r24, 0xA6	; 166
    4660:	9c e0       	ldi	r25, 0x0C	; 12
	Serial.print("Y_fina:");
	Serial.print(y);
	Serial.print("P_fina:");
	Serial.println(p);  //
	#endif // SERIAL_DEBUG
    4662:	1f 91       	pop	r17
    4664:	0f 91       	pop	r16
    4666:	ff 90       	pop	r15
    4668:	ef 90       	pop	r14
    466a:	df 90       	pop	r13
    466c:	cf 90       	pop	r12
Timer1 tc1;
ComwithShot CS;
Kinematics kinematics(300,0.068, 0.5,8);
ComwithMotor cm;
Path path;
String state = "begin";
    466e:	0c 94 fc 35 	jmp	0x6bf8	; 0x6bf8 <_ZN6StringC1EPKc>

00004672 <_GLOBAL__sub_D_x>:
    4672:	86 ea       	ldi	r24, 0xA6	; 166
    4674:	9c e0       	ldi	r25, 0x0C	; 12
    4676:	0e 94 95 35 	call	0x6b2a	; 0x6b2a <_ZN6StringD1Ev>
//End of Auto generated function prototypes by Atmel Studio
Display dp;
ComwithPC toPC;
mMotor motor;
mPS2 PS2;
Timer1 tc1;
    467a:	84 e7       	ldi	r24, 0x74	; 116
    467c:	9d e0       	ldi	r25, 0x0D	; 13
    467e:	70 d4       	rcall	.+2272   	; 0x4f60 <_ZN6Timer1D1Ev>
#ifndef __MPS2_H__
#define __MPS2_H__

#include "Arduino.h"

class mPS2
    4680:	83 e9       	ldi	r24, 0x93	; 147
    4682:	9d e0       	ldi	r25, 0x0D	; 13
    4684:	0c 94 95 35 	jmp	0x6b2a	; 0x6b2a <_ZN6StringD1Ev>

00004688 <_ZN8SPIClass5beginEv>:
#ifdef SPI_TRANSACTION_MISMATCH_LED
uint8_t SPIClass::inTransactionFlag = 0;
#endif

void SPIClass::begin()
{
    4688:	cf 93       	push	r28
  uint8_t sreg = SREG;
    468a:	cf b7       	in	r28, 0x3f	; 63
  noInterrupts(); // Protect from a scheduler and prevent transactionBegin
    468c:	f8 94       	cli
  if (!initialized) {
    468e:	80 91 12 0e 	lds	r24, 0x0E12	; 0x800e12 <_ZN8SPIClass11initializedE>
    4692:	81 11       	cpse	r24, r1
    4694:	27 c0       	rjmp	.+78     	; 0x46e4 <_ZN8SPIClass5beginEv+0x5c>
    // Set SS to high so a connected chip will be "deselected" by default
    uint8_t port = digitalPinToPort(SS);
    4696:	e5 ea       	ldi	r30, 0xA5	; 165
    4698:	f7 e0       	ldi	r31, 0x07	; 7
    469a:	84 91       	lpm	r24, Z
    uint8_t bit = digitalPinToBitMask(SS);
    469c:	ef e5       	ldi	r30, 0x5F	; 95
    469e:	f7 e0       	ldi	r31, 0x07	; 7
    46a0:	94 91       	lpm	r25, Z
    volatile uint8_t *reg = portModeRegister(port);
    46a2:	e8 2f       	mov	r30, r24
    46a4:	f0 e0       	ldi	r31, 0x00	; 0
    46a6:	ee 0f       	add	r30, r30
    46a8:	ff 1f       	adc	r31, r31
    46aa:	e6 51       	subi	r30, 0x16	; 22
    46ac:	f8 4f       	sbci	r31, 0xF8	; 248
    46ae:	a5 91       	lpm	r26, Z+
    46b0:	b4 91       	lpm	r27, Z

    // if the SS pin is not already configured as an output
    // then set it high (to enable the internal pull-up resistor)
    if(!(*reg & bit)){
    46b2:	ec 91       	ld	r30, X
    46b4:	e9 23       	and	r30, r25
    46b6:	21 f4       	brne	.+8      	; 0x46c0 <_ZN8SPIClass5beginEv+0x38>
      digitalWrite(SS, HIGH);
    46b8:	61 e0       	ldi	r22, 0x01	; 1
    46ba:	85 e3       	ldi	r24, 0x35	; 53
    46bc:	0e 94 ff 34 	call	0x69fe	; 0x69fe <digitalWrite>
    }

    // When the SS pin is set as OUTPUT, it can be used as
    // a general purpose output port (it doesn't influence
    // SPI operations).
    pinMode(SS, OUTPUT);
    46c0:	61 e0       	ldi	r22, 0x01	; 1
    46c2:	85 e3       	ldi	r24, 0x35	; 53
    46c4:	0e 94 c3 34 	call	0x6986	; 0x6986 <pinMode>

    // Warning: if the SS pin ever becomes a LOW INPUT then SPI
    // automatically switches to Slave, so the data direction of
    // the SS pin MUST be kept as OUTPUT.
    SPCR |= _BV(MSTR);
    46c8:	8c b5       	in	r24, 0x2c	; 44
    46ca:	80 61       	ori	r24, 0x10	; 16
    46cc:	8c bd       	out	0x2c, r24	; 44
    SPCR |= _BV(SPE);
    46ce:	8c b5       	in	r24, 0x2c	; 44
    46d0:	80 64       	ori	r24, 0x40	; 64
    46d2:	8c bd       	out	0x2c, r24	; 44
    // MISO pin automatically overrides to INPUT.
    // By doing this AFTER enabling SPI, we avoid accidentally
    // clocking in a single bit since the lines go directly
    // from "input" to SPI control.
    // http://code.google.com/p/arduino/issues/detail?id=888
    pinMode(SCK, OUTPUT);
    46d4:	61 e0       	ldi	r22, 0x01	; 1
    46d6:	84 e3       	ldi	r24, 0x34	; 52
    46d8:	0e 94 c3 34 	call	0x6986	; 0x6986 <pinMode>
    pinMode(MOSI, OUTPUT);
    46dc:	61 e0       	ldi	r22, 0x01	; 1
    46de:	83 e3       	ldi	r24, 0x33	; 51
    46e0:	0e 94 c3 34 	call	0x6986	; 0x6986 <pinMode>
  }
  initialized++; // reference count
    46e4:	80 91 12 0e 	lds	r24, 0x0E12	; 0x800e12 <_ZN8SPIClass11initializedE>
    46e8:	8f 5f       	subi	r24, 0xFF	; 255
    46ea:	80 93 12 0e 	sts	0x0E12, r24	; 0x800e12 <_ZN8SPIClass11initializedE>
  SREG = sreg;
    46ee:	cf bf       	out	0x3f, r28	; 63
}
    46f0:	cf 91       	pop	r28
    46f2:	08 95       	ret

000046f4 <twi_init>:
{
  // transmit master read ready signal, with or without ack
  if(ack){
    TWCR = _BV(TWEN) | _BV(TWIE) | _BV(TWINT) | _BV(TWEA);
  }else{
	  TWCR = _BV(TWEN) | _BV(TWIE) | _BV(TWINT);
    46f4:	10 92 80 0e 	sts	0x0E80, r1	; 0x800e80 <twi_state>
    46f8:	81 e0       	ldi	r24, 0x01	; 1
    46fa:	80 93 7e 0e 	sts	0x0E7E, r24	; 0x800e7e <twi_sendStop>
    46fe:	10 92 7d 0e 	sts	0x0E7D, r1	; 0x800e7d <twi_inRepStart>
    4702:	61 e0       	ldi	r22, 0x01	; 1
    4704:	84 e1       	ldi	r24, 0x14	; 20
    4706:	0e 94 ff 34 	call	0x69fe	; 0x69fe <digitalWrite>
    470a:	61 e0       	ldi	r22, 0x01	; 1
    470c:	85 e1       	ldi	r24, 0x15	; 21
    470e:	0e 94 ff 34 	call	0x69fe	; 0x69fe <digitalWrite>
    4712:	e9 eb       	ldi	r30, 0xB9	; 185
    4714:	f0 e0       	ldi	r31, 0x00	; 0
    4716:	80 81       	ld	r24, Z
    4718:	8e 7f       	andi	r24, 0xFE	; 254
    471a:	80 83       	st	Z, r24
    471c:	80 81       	ld	r24, Z
    471e:	8d 7f       	andi	r24, 0xFD	; 253
    4720:	80 83       	st	Z, r24
    4722:	88 e4       	ldi	r24, 0x48	; 72
    4724:	80 93 b8 00 	sts	0x00B8, r24	; 0x8000b8 <__TEXT_REGION_LENGTH__+0x7000b8>
    4728:	85 e4       	ldi	r24, 0x45	; 69
    472a:	80 93 bc 00 	sts	0x00BC, r24	; 0x8000bc <__TEXT_REGION_LENGTH__+0x7000bc>
    472e:	08 95       	ret

00004730 <twi_readFrom>:
    4730:	41 32       	cpi	r20, 0x21	; 33
    4732:	08 f0       	brcs	.+2      	; 0x4736 <twi_readFrom+0x6>
    4734:	43 c0       	rjmp	.+134    	; 0x47bc <twi_readFrom+0x8c>
    4736:	90 91 80 0e 	lds	r25, 0x0E80	; 0x800e80 <twi_state>
    473a:	91 11       	cpse	r25, r1
    473c:	fc cf       	rjmp	.-8      	; 0x4736 <twi_readFrom+0x6>
    473e:	91 e0       	ldi	r25, 0x01	; 1
    4740:	90 93 80 0e 	sts	0x0E80, r25	; 0x800e80 <twi_state>
    4744:	20 93 7e 0e 	sts	0x0E7E, r18	; 0x800e7e <twi_sendStop>
    4748:	2f ef       	ldi	r18, 0xFF	; 255
    474a:	20 93 13 0e 	sts	0x0E13, r18	; 0x800e13 <twi_error>
    474e:	10 92 58 0e 	sts	0x0E58, r1	; 0x800e58 <twi_masterBufferIndex>
    4752:	24 0f       	add	r18, r20
    4754:	20 93 57 0e 	sts	0x0E57, r18	; 0x800e57 <twi_masterBufferLength>
    4758:	90 93 7f 0e 	sts	0x0E7F, r25	; 0x800e7f <twi_slarw>
    475c:	90 91 7f 0e 	lds	r25, 0x0E7F	; 0x800e7f <twi_slarw>
    4760:	88 0f       	add	r24, r24
    4762:	89 2b       	or	r24, r25
    4764:	80 93 7f 0e 	sts	0x0E7F, r24	; 0x800e7f <twi_slarw>
    4768:	80 91 7d 0e 	lds	r24, 0x0E7D	; 0x800e7d <twi_inRepStart>
    476c:	81 30       	cpi	r24, 0x01	; 1
    476e:	61 f4       	brne	.+24     	; 0x4788 <twi_readFrom+0x58>
    4770:	10 92 7d 0e 	sts	0x0E7D, r1	; 0x800e7d <twi_inRepStart>
    4774:	80 91 7f 0e 	lds	r24, 0x0E7F	; 0x800e7f <twi_slarw>
    4778:	80 93 bb 00 	sts	0x00BB, r24	; 0x8000bb <__TEXT_REGION_LENGTH__+0x7000bb>
    477c:	80 91 bc 00 	lds	r24, 0x00BC	; 0x8000bc <__TEXT_REGION_LENGTH__+0x7000bc>
    4780:	83 fd       	sbrc	r24, 3
    4782:	f8 cf       	rjmp	.-16     	; 0x4774 <twi_readFrom+0x44>
    4784:	85 ec       	ldi	r24, 0xC5	; 197
    4786:	01 c0       	rjmp	.+2      	; 0x478a <twi_readFrom+0x5a>
    4788:	85 ee       	ldi	r24, 0xE5	; 229
    478a:	80 93 bc 00 	sts	0x00BC, r24	; 0x8000bc <__TEXT_REGION_LENGTH__+0x7000bc>
    478e:	80 91 80 0e 	lds	r24, 0x0E80	; 0x800e80 <twi_state>
    4792:	81 30       	cpi	r24, 0x01	; 1
    4794:	e1 f3       	breq	.-8      	; 0x478e <twi_readFrom+0x5e>
    4796:	80 91 58 0e 	lds	r24, 0x0E58	; 0x800e58 <twi_masterBufferIndex>
    479a:	84 17       	cp	r24, r20
    479c:	10 f4       	brcc	.+4      	; 0x47a2 <twi_readFrom+0x72>
    479e:	40 91 58 0e 	lds	r20, 0x0E58	; 0x800e58 <twi_masterBufferIndex>
    47a2:	29 e5       	ldi	r18, 0x59	; 89
    47a4:	3e e0       	ldi	r19, 0x0E	; 14
    47a6:	fb 01       	movw	r30, r22
    47a8:	d9 01       	movw	r26, r18
    47aa:	8a 2f       	mov	r24, r26
    47ac:	82 1b       	sub	r24, r18
    47ae:	84 17       	cp	r24, r20
    47b0:	18 f4       	brcc	.+6      	; 0x47b8 <twi_readFrom+0x88>
    47b2:	8d 91       	ld	r24, X+
    47b4:	81 93       	st	Z+, r24
    47b6:	f9 cf       	rjmp	.-14     	; 0x47aa <twi_readFrom+0x7a>
    47b8:	84 2f       	mov	r24, r20
    47ba:	08 95       	ret
    47bc:	80 e0       	ldi	r24, 0x00	; 0
    47be:	08 95       	ret

000047c0 <twi_writeTo>:
    47c0:	0f 93       	push	r16
    47c2:	41 32       	cpi	r20, 0x21	; 33
    47c4:	08 f0       	brcs	.+2      	; 0x47c8 <twi_writeTo+0x8>
    47c6:	4a c0       	rjmp	.+148    	; 0x485c <twi_writeTo+0x9c>
    47c8:	90 91 80 0e 	lds	r25, 0x0E80	; 0x800e80 <twi_state>
    47cc:	91 11       	cpse	r25, r1
    47ce:	fc cf       	rjmp	.-8      	; 0x47c8 <twi_writeTo+0x8>
    47d0:	32 e0       	ldi	r19, 0x02	; 2
    47d2:	30 93 80 0e 	sts	0x0E80, r19	; 0x800e80 <twi_state>
    47d6:	00 93 7e 0e 	sts	0x0E7E, r16	; 0x800e7e <twi_sendStop>
    47da:	3f ef       	ldi	r19, 0xFF	; 255
    47dc:	30 93 13 0e 	sts	0x0E13, r19	; 0x800e13 <twi_error>
    47e0:	10 92 58 0e 	sts	0x0E58, r1	; 0x800e58 <twi_masterBufferIndex>
    47e4:	40 93 57 0e 	sts	0x0E57, r20	; 0x800e57 <twi_masterBufferLength>
    47e8:	fb 01       	movw	r30, r22
    47ea:	69 e5       	ldi	r22, 0x59	; 89
    47ec:	7e e0       	ldi	r23, 0x0E	; 14
    47ee:	db 01       	movw	r26, r22
    47f0:	3a 2f       	mov	r19, r26
    47f2:	36 1b       	sub	r19, r22
    47f4:	34 17       	cp	r19, r20
    47f6:	18 f4       	brcc	.+6      	; 0x47fe <twi_writeTo+0x3e>
    47f8:	31 91       	ld	r19, Z+
    47fa:	3d 93       	st	X+, r19
    47fc:	f9 cf       	rjmp	.-14     	; 0x47f0 <twi_writeTo+0x30>
    47fe:	10 92 7f 0e 	sts	0x0E7F, r1	; 0x800e7f <twi_slarw>
    4802:	30 91 7f 0e 	lds	r19, 0x0E7F	; 0x800e7f <twi_slarw>
    4806:	88 0f       	add	r24, r24
    4808:	83 2b       	or	r24, r19
    480a:	80 93 7f 0e 	sts	0x0E7F, r24	; 0x800e7f <twi_slarw>
    480e:	80 91 7d 0e 	lds	r24, 0x0E7D	; 0x800e7d <twi_inRepStart>
    4812:	81 30       	cpi	r24, 0x01	; 1
    4814:	61 f4       	brne	.+24     	; 0x482e <twi_writeTo+0x6e>
    4816:	10 92 7d 0e 	sts	0x0E7D, r1	; 0x800e7d <twi_inRepStart>
    481a:	80 91 7f 0e 	lds	r24, 0x0E7F	; 0x800e7f <twi_slarw>
    481e:	80 93 bb 00 	sts	0x00BB, r24	; 0x8000bb <__TEXT_REGION_LENGTH__+0x7000bb>
    4822:	80 91 bc 00 	lds	r24, 0x00BC	; 0x8000bc <__TEXT_REGION_LENGTH__+0x7000bc>
    4826:	83 fd       	sbrc	r24, 3
    4828:	f8 cf       	rjmp	.-16     	; 0x481a <twi_writeTo+0x5a>
    482a:	85 ec       	ldi	r24, 0xC5	; 197
    482c:	01 c0       	rjmp	.+2      	; 0x4830 <twi_writeTo+0x70>
    482e:	85 ee       	ldi	r24, 0xE5	; 229
    4830:	80 93 bc 00 	sts	0x00BC, r24	; 0x8000bc <__TEXT_REGION_LENGTH__+0x7000bc>
    4834:	22 23       	and	r18, r18
    4836:	21 f0       	breq	.+8      	; 0x4840 <twi_writeTo+0x80>
    4838:	80 91 80 0e 	lds	r24, 0x0E80	; 0x800e80 <twi_state>
    483c:	82 30       	cpi	r24, 0x02	; 2
    483e:	d1 f3       	breq	.-12     	; 0x4834 <twi_writeTo+0x74>
    4840:	80 91 13 0e 	lds	r24, 0x0E13	; 0x800e13 <twi_error>
    4844:	8f 3f       	cpi	r24, 0xFF	; 255
    4846:	79 f0       	breq	.+30     	; 0x4866 <twi_writeTo+0xa6>
    4848:	80 91 13 0e 	lds	r24, 0x0E13	; 0x800e13 <twi_error>
    484c:	80 32       	cpi	r24, 0x20	; 32
    484e:	41 f0       	breq	.+16     	; 0x4860 <twi_writeTo+0xa0>
    4850:	80 91 13 0e 	lds	r24, 0x0E13	; 0x800e13 <twi_error>
    4854:	80 33       	cpi	r24, 0x30	; 48
    4856:	31 f0       	breq	.+12     	; 0x4864 <twi_writeTo+0xa4>
    4858:	94 e0       	ldi	r25, 0x04	; 4
    485a:	05 c0       	rjmp	.+10     	; 0x4866 <twi_writeTo+0xa6>
    485c:	91 e0       	ldi	r25, 0x01	; 1
    485e:	03 c0       	rjmp	.+6      	; 0x4866 <twi_writeTo+0xa6>
    4860:	92 e0       	ldi	r25, 0x02	; 2
    4862:	01 c0       	rjmp	.+2      	; 0x4866 <twi_writeTo+0xa6>
    4864:	93 e0       	ldi	r25, 0x03	; 3
    4866:	89 2f       	mov	r24, r25
    4868:	0f 91       	pop	r16
    486a:	08 95       	ret

0000486c <twi_transmit>:
    486c:	40 91 35 0e 	lds	r20, 0x0E35	; 0x800e35 <twi_txBufferLength>
    4870:	26 2f       	mov	r18, r22
    4872:	30 e0       	ldi	r19, 0x00	; 0
    4874:	24 0f       	add	r18, r20
    4876:	31 1d       	adc	r19, r1
    4878:	21 32       	cpi	r18, 0x21	; 33
    487a:	31 05       	cpc	r19, r1
    487c:	dc f4       	brge	.+54     	; 0x48b4 <twi_transmit+0x48>
    487e:	20 91 80 0e 	lds	r18, 0x0E80	; 0x800e80 <twi_state>
    4882:	24 30       	cpi	r18, 0x04	; 4
    4884:	c9 f4       	brne	.+50     	; 0x48b8 <twi_transmit+0x4c>
    4886:	fc 01       	movw	r30, r24
    4888:	80 e0       	ldi	r24, 0x00	; 0
    488a:	90 e0       	ldi	r25, 0x00	; 0
    488c:	86 17       	cp	r24, r22
    488e:	58 f4       	brcc	.+22     	; 0x48a6 <twi_transmit+0x3a>
    4890:	30 91 35 0e 	lds	r19, 0x0E35	; 0x800e35 <twi_txBufferLength>
    4894:	21 91       	ld	r18, Z+
    4896:	dc 01       	movw	r26, r24
    4898:	a9 5c       	subi	r26, 0xC9	; 201
    489a:	b1 4f       	sbci	r27, 0xF1	; 241
    489c:	a3 0f       	add	r26, r19
    489e:	b1 1d       	adc	r27, r1
    48a0:	2c 93       	st	X, r18
    48a2:	01 96       	adiw	r24, 0x01	; 1
    48a4:	f3 cf       	rjmp	.-26     	; 0x488c <twi_transmit+0x20>
    48a6:	80 91 35 0e 	lds	r24, 0x0E35	; 0x800e35 <twi_txBufferLength>
    48aa:	68 0f       	add	r22, r24
    48ac:	60 93 35 0e 	sts	0x0E35, r22	; 0x800e35 <twi_txBufferLength>
    48b0:	80 e0       	ldi	r24, 0x00	; 0
    48b2:	08 95       	ret
    48b4:	81 e0       	ldi	r24, 0x01	; 1
    48b6:	08 95       	ret
    48b8:	82 e0       	ldi	r24, 0x02	; 2
    48ba:	08 95       	ret

000048bc <twi_stop>:
 * Output   none
 */
void twi_stop(void)
{
  // send stop condition
  TWCR = _BV(TWEN) | _BV(TWIE) | _BV(TWEA) | _BV(TWINT) | _BV(TWSTO);
    48bc:	85 ed       	ldi	r24, 0xD5	; 213
    48be:	80 93 bc 00 	sts	0x00BC, r24	; 0x8000bc <__TEXT_REGION_LENGTH__+0x7000bc>

  // wait for stop condition to be exectued on bus
  // TWINT is not set after a stop condition!
  while(TWCR & _BV(TWSTO)){
    48c2:	80 91 bc 00 	lds	r24, 0x00BC	; 0x8000bc <__TEXT_REGION_LENGTH__+0x7000bc>
    48c6:	84 fd       	sbrc	r24, 4
    48c8:	fc cf       	rjmp	.-8      	; 0x48c2 <twi_stop+0x6>
    continue;
  }

  // update twi state
  twi_state = TWI_READY;
    48ca:	10 92 80 0e 	sts	0x0E80, r1	; 0x800e80 <twi_state>
    48ce:	08 95       	ret

000048d0 <twi_releaseBus>:
 * Output   none
 */
void twi_releaseBus(void)
{
  // release bus
  TWCR = _BV(TWEN) | _BV(TWIE) | _BV(TWEA) | _BV(TWINT);
    48d0:	85 ec       	ldi	r24, 0xC5	; 197
    48d2:	80 93 bc 00 	sts	0x00BC, r24	; 0x8000bc <__TEXT_REGION_LENGTH__+0x7000bc>

  // update twi state
  twi_state = TWI_READY;
    48d6:	10 92 80 0e 	sts	0x0E80, r1	; 0x800e80 <twi_state>
    48da:	08 95       	ret

000048dc <__vector_39>:
}

ISR(TWI_vect)
{
    48dc:	1f 92       	push	r1
    48de:	0f 92       	push	r0
    48e0:	0f b6       	in	r0, 0x3f	; 63
    48e2:	0f 92       	push	r0
    48e4:	11 24       	eor	r1, r1
    48e6:	0b b6       	in	r0, 0x3b	; 59
    48e8:	0f 92       	push	r0
    48ea:	2f 93       	push	r18
    48ec:	3f 93       	push	r19
    48ee:	4f 93       	push	r20
    48f0:	5f 93       	push	r21
    48f2:	6f 93       	push	r22
    48f4:	7f 93       	push	r23
    48f6:	8f 93       	push	r24
    48f8:	9f 93       	push	r25
    48fa:	af 93       	push	r26
    48fc:	bf 93       	push	r27
    48fe:	ef 93       	push	r30
    4900:	ff 93       	push	r31
  switch(TW_STATUS){
    4902:	80 91 b9 00 	lds	r24, 0x00B9	; 0x8000b9 <__TEXT_REGION_LENGTH__+0x7000b9>
    4906:	88 7f       	andi	r24, 0xF8	; 248
    4908:	80 36       	cpi	r24, 0x60	; 96
    490a:	09 f4       	brne	.+2      	; 0x490e <__vector_39+0x32>
    490c:	9d c0       	rjmp	.+314    	; 0x4a48 <__vector_39+0x16c>
    490e:	70 f5       	brcc	.+92     	; 0x496c <__vector_39+0x90>
    4910:	88 32       	cpi	r24, 0x28	; 40
    4912:	09 f4       	brne	.+2      	; 0x4916 <__vector_39+0x3a>
    4914:	5c c0       	rjmp	.+184    	; 0x49ce <__vector_39+0xf2>
    4916:	90 f4       	brcc	.+36     	; 0x493c <__vector_39+0x60>
    4918:	80 31       	cpi	r24, 0x10	; 16
    491a:	09 f4       	brne	.+2      	; 0x491e <__vector_39+0x42>
    491c:	55 c0       	rjmp	.+170    	; 0x49c8 <__vector_39+0xec>
    491e:	38 f4       	brcc	.+14     	; 0x492e <__vector_39+0x52>
    4920:	88 23       	and	r24, r24
    4922:	09 f4       	brne	.+2      	; 0x4926 <__vector_39+0x4a>
    4924:	f3 c0       	rjmp	.+486    	; 0x4b0c <__vector_39+0x230>
    4926:	88 30       	cpi	r24, 0x08	; 8
    4928:	09 f4       	brne	.+2      	; 0x492c <__vector_39+0x50>
    492a:	4e c0       	rjmp	.+156    	; 0x49c8 <__vector_39+0xec>
    492c:	f2 c0       	rjmp	.+484    	; 0x4b12 <__vector_39+0x236>
    492e:	88 31       	cpi	r24, 0x18	; 24
    4930:	09 f4       	brne	.+2      	; 0x4934 <__vector_39+0x58>
    4932:	4d c0       	rjmp	.+154    	; 0x49ce <__vector_39+0xf2>
    4934:	80 32       	cpi	r24, 0x20	; 32
    4936:	09 f4       	brne	.+2      	; 0x493a <__vector_39+0x5e>
    4938:	5e c0       	rjmp	.+188    	; 0x49f6 <__vector_39+0x11a>
    493a:	eb c0       	rjmp	.+470    	; 0x4b12 <__vector_39+0x236>
    493c:	80 34       	cpi	r24, 0x40	; 64
    493e:	09 f4       	brne	.+2      	; 0x4942 <__vector_39+0x66>
    4940:	69 c0       	rjmp	.+210    	; 0x4a14 <__vector_39+0x138>
    4942:	50 f4       	brcc	.+20     	; 0x4958 <__vector_39+0x7c>
    4944:	80 33       	cpi	r24, 0x30	; 48
    4946:	09 f4       	brne	.+2      	; 0x494a <__vector_39+0x6e>
    4948:	56 c0       	rjmp	.+172    	; 0x49f6 <__vector_39+0x11a>
    494a:	88 33       	cpi	r24, 0x38	; 56
    494c:	09 f0       	breq	.+2      	; 0x4950 <__vector_39+0x74>
    494e:	e1 c0       	rjmp	.+450    	; 0x4b12 <__vector_39+0x236>
    case TW_MT_DATA_NACK: // data sent, nack received
      twi_error = TW_MT_DATA_NACK;
      twi_stop();
      break;
    case TW_MT_ARB_LOST: // lost bus arbitration
      twi_error = TW_MT_ARB_LOST;
    4950:	80 93 13 0e 	sts	0x0E13, r24	; 0x800e13 <twi_error>
      twi_releaseBus();
    4954:	bd df       	rcall	.-134    	; 0x48d0 <twi_releaseBus>
      break;
    4956:	dd c0       	rjmp	.+442    	; 0x4b12 <__vector_39+0x236>
  twi_state = TWI_READY;
}

ISR(TWI_vect)
{
  switch(TW_STATUS){
    4958:	80 35       	cpi	r24, 0x50	; 80
    495a:	09 f4       	brne	.+2      	; 0x495e <__vector_39+0x82>
    495c:	4f c0       	rjmp	.+158    	; 0x49fc <__vector_39+0x120>
    495e:	88 35       	cpi	r24, 0x58	; 88
    4960:	09 f4       	brne	.+2      	; 0x4964 <__vector_39+0x88>
    4962:	5d c0       	rjmp	.+186    	; 0x4a1e <__vector_39+0x142>
    4964:	88 34       	cpi	r24, 0x48	; 72
    4966:	09 f0       	breq	.+2      	; 0x496a <__vector_39+0x8e>
    4968:	d4 c0       	rjmp	.+424    	; 0x4b12 <__vector_39+0x236>
    496a:	d2 c0       	rjmp	.+420    	; 0x4b10 <__vector_39+0x234>
    496c:	88 39       	cpi	r24, 0x98	; 152
    496e:	09 f4       	brne	.+2      	; 0x4972 <__vector_39+0x96>
    4970:	c3 c0       	rjmp	.+390    	; 0x4af8 <__vector_39+0x21c>
    4972:	a8 f4       	brcc	.+42     	; 0x499e <__vector_39+0xc2>
    4974:	88 37       	cpi	r24, 0x78	; 120
    4976:	09 f4       	brne	.+2      	; 0x497a <__vector_39+0x9e>
    4978:	67 c0       	rjmp	.+206    	; 0x4a48 <__vector_39+0x16c>
    497a:	38 f4       	brcc	.+14     	; 0x498a <__vector_39+0xae>
    497c:	88 36       	cpi	r24, 0x68	; 104
    497e:	09 f4       	brne	.+2      	; 0x4982 <__vector_39+0xa6>
    4980:	63 c0       	rjmp	.+198    	; 0x4a48 <__vector_39+0x16c>
    4982:	80 37       	cpi	r24, 0x70	; 112
    4984:	09 f4       	brne	.+2      	; 0x4988 <__vector_39+0xac>
    4986:	60 c0       	rjmp	.+192    	; 0x4a48 <__vector_39+0x16c>
    4988:	c4 c0       	rjmp	.+392    	; 0x4b12 <__vector_39+0x236>
    498a:	88 38       	cpi	r24, 0x88	; 136
    498c:	09 f4       	brne	.+2      	; 0x4990 <__vector_39+0xb4>
    498e:	b4 c0       	rjmp	.+360    	; 0x4af8 <__vector_39+0x21c>
    4990:	80 39       	cpi	r24, 0x90	; 144
    4992:	09 f4       	brne	.+2      	; 0x4996 <__vector_39+0xba>
    4994:	5f c0       	rjmp	.+190    	; 0x4a54 <__vector_39+0x178>
    4996:	80 38       	cpi	r24, 0x80	; 128
    4998:	09 f0       	breq	.+2      	; 0x499c <__vector_39+0xc0>
    499a:	bb c0       	rjmp	.+374    	; 0x4b12 <__vector_39+0x236>
    499c:	5b c0       	rjmp	.+182    	; 0x4a54 <__vector_39+0x178>
    499e:	80 3b       	cpi	r24, 0xB0	; 176
    49a0:	09 f4       	brne	.+2      	; 0x49a4 <__vector_39+0xc8>
    49a2:	82 c0       	rjmp	.+260    	; 0x4aa8 <__vector_39+0x1cc>
    49a4:	38 f4       	brcc	.+14     	; 0x49b4 <__vector_39+0xd8>
    49a6:	80 3a       	cpi	r24, 0xA0	; 160
    49a8:	09 f4       	brne	.+2      	; 0x49ac <__vector_39+0xd0>
    49aa:	66 c0       	rjmp	.+204    	; 0x4a78 <__vector_39+0x19c>
    49ac:	88 3a       	cpi	r24, 0xA8	; 168
    49ae:	09 f4       	brne	.+2      	; 0x49b2 <__vector_39+0xd6>
    49b0:	7b c0       	rjmp	.+246    	; 0x4aa8 <__vector_39+0x1cc>
    49b2:	af c0       	rjmp	.+350    	; 0x4b12 <__vector_39+0x236>
    49b4:	80 3c       	cpi	r24, 0xC0	; 192
    49b6:	09 f4       	brne	.+2      	; 0x49ba <__vector_39+0xde>
    49b8:	a3 c0       	rjmp	.+326    	; 0x4b00 <__vector_39+0x224>
    49ba:	88 3c       	cpi	r24, 0xC8	; 200
    49bc:	09 f4       	brne	.+2      	; 0x49c0 <__vector_39+0xe4>
    49be:	a0 c0       	rjmp	.+320    	; 0x4b00 <__vector_39+0x224>
    49c0:	88 3b       	cpi	r24, 0xB8	; 184
    49c2:	09 f4       	brne	.+2      	; 0x49c6 <__vector_39+0xea>
    49c4:	86 c0       	rjmp	.+268    	; 0x4ad2 <__vector_39+0x1f6>
    49c6:	a5 c0       	rjmp	.+330    	; 0x4b12 <__vector_39+0x236>
    // All Master
    case TW_START:     // sent start condition
    case TW_REP_START: // sent repeated start condition
      // copy device address and r/w bit to output register and ack
      TWDR = twi_slarw;
    49c8:	80 91 7f 0e 	lds	r24, 0x0E7F	; 0x800e7f <twi_slarw>
    49cc:	10 c0       	rjmp	.+32     	; 0x49ee <__vector_39+0x112>

    // Master Transmitter
    case TW_MT_SLA_ACK:  // slave receiver acked address
    case TW_MT_DATA_ACK: // slave receiver acked data
      // if there is data to send, send it, otherwise stop 
      if(twi_masterBufferIndex < twi_masterBufferLength){
    49ce:	90 91 58 0e 	lds	r25, 0x0E58	; 0x800e58 <twi_masterBufferIndex>
    49d2:	80 91 57 0e 	lds	r24, 0x0E57	; 0x800e57 <twi_masterBufferLength>
    49d6:	98 17       	cp	r25, r24
    49d8:	70 f5       	brcc	.+92     	; 0x4a36 <__vector_39+0x15a>
        // copy data to output register and ack
        TWDR = twi_masterBuffer[twi_masterBufferIndex++];
    49da:	e0 91 58 0e 	lds	r30, 0x0E58	; 0x800e58 <twi_masterBufferIndex>
    49de:	81 e0       	ldi	r24, 0x01	; 1
    49e0:	8e 0f       	add	r24, r30
    49e2:	80 93 58 0e 	sts	0x0E58, r24	; 0x800e58 <twi_masterBufferIndex>
    49e6:	f0 e0       	ldi	r31, 0x00	; 0
    49e8:	e7 5a       	subi	r30, 0xA7	; 167
    49ea:	f1 4f       	sbci	r31, 0xF1	; 241
    49ec:	80 81       	ld	r24, Z
    49ee:	80 93 bb 00 	sts	0x00BB, r24	; 0x8000bb <__TEXT_REGION_LENGTH__+0x7000bb>
 */
void twi_reply(uint8_t ack)
{
  // transmit master read ready signal, with or without ack
  if(ack){
    TWCR = _BV(TWEN) | _BV(TWIE) | _BV(TWINT) | _BV(TWEA);
    49f2:	85 ec       	ldi	r24, 0xC5	; 197
    49f4:	82 c0       	rjmp	.+260    	; 0x4afa <__vector_39+0x21e>
    case TW_MT_SLA_NACK:  // address sent, nack received
      twi_error = TW_MT_SLA_NACK;
      twi_stop();
      break;
    case TW_MT_DATA_NACK: // data sent, nack received
      twi_error = TW_MT_DATA_NACK;
    49f6:	80 93 13 0e 	sts	0x0E13, r24	; 0x800e13 <twi_error>
    49fa:	8a c0       	rjmp	.+276    	; 0x4b10 <__vector_39+0x234>
      break;

    // Master Receiver
    case TW_MR_DATA_ACK: // data received, ack sent
      // put byte into buffer
      twi_masterBuffer[twi_masterBufferIndex++] = TWDR;
    49fc:	e0 91 58 0e 	lds	r30, 0x0E58	; 0x800e58 <twi_masterBufferIndex>
    4a00:	81 e0       	ldi	r24, 0x01	; 1
    4a02:	8e 0f       	add	r24, r30
    4a04:	80 93 58 0e 	sts	0x0E58, r24	; 0x800e58 <twi_masterBufferIndex>
    4a08:	80 91 bb 00 	lds	r24, 0x00BB	; 0x8000bb <__TEXT_REGION_LENGTH__+0x7000bb>
    4a0c:	f0 e0       	ldi	r31, 0x00	; 0
    4a0e:	e7 5a       	subi	r30, 0xA7	; 167
    4a10:	f1 4f       	sbci	r31, 0xF1	; 241
    4a12:	80 83       	st	Z, r24
    case TW_MR_SLA_ACK:  // address sent, ack received
      // ack if more bytes are expected, otherwise nack
      if(twi_masterBufferIndex < twi_masterBufferLength){
    4a14:	90 91 58 0e 	lds	r25, 0x0E58	; 0x800e58 <twi_masterBufferIndex>
    4a18:	80 91 57 0e 	lds	r24, 0x0E57	; 0x800e57 <twi_masterBufferLength>
    4a1c:	6a c0       	rjmp	.+212    	; 0x4af2 <__vector_39+0x216>
        twi_reply(0);
      }
      break;
    case TW_MR_DATA_NACK: // data received, nack sent
      // put final byte into buffer
      twi_masterBuffer[twi_masterBufferIndex++] = TWDR;
    4a1e:	e0 91 58 0e 	lds	r30, 0x0E58	; 0x800e58 <twi_masterBufferIndex>
    4a22:	81 e0       	ldi	r24, 0x01	; 1
    4a24:	8e 0f       	add	r24, r30
    4a26:	80 93 58 0e 	sts	0x0E58, r24	; 0x800e58 <twi_masterBufferIndex>
    4a2a:	80 91 bb 00 	lds	r24, 0x00BB	; 0x8000bb <__TEXT_REGION_LENGTH__+0x7000bb>
    4a2e:	f0 e0       	ldi	r31, 0x00	; 0
    4a30:	e7 5a       	subi	r30, 0xA7	; 167
    4a32:	f1 4f       	sbci	r31, 0xF1	; 241
    4a34:	80 83       	st	Z, r24
	if (twi_sendStop)
    4a36:	80 91 7e 0e 	lds	r24, 0x0E7E	; 0x800e7e <twi_sendStop>
    4a3a:	81 11       	cpse	r24, r1
    4a3c:	69 c0       	rjmp	.+210    	; 0x4b10 <__vector_39+0x234>
          twi_stop();
	else {
	  twi_inRepStart = true;	// we're gonna send the START
    4a3e:	81 e0       	ldi	r24, 0x01	; 1
    4a40:	80 93 7d 0e 	sts	0x0E7D, r24	; 0x800e7d <twi_inRepStart>
	  // don't enable the interrupt. We'll generate the start, but we 
	  // avoid handling the interrupt until we're in the next transaction,
	  // at the point where we would normally issue the start.
	  TWCR = _BV(TWINT) | _BV(TWSTA)| _BV(TWEN) ;
    4a44:	84 ea       	ldi	r24, 0xA4	; 164
    4a46:	5d c0       	rjmp	.+186    	; 0x4b02 <__vector_39+0x226>
    case TW_SR_SLA_ACK:   // addressed, returned ack
    case TW_SR_GCALL_ACK: // addressed generally, returned ack
    case TW_SR_ARB_LOST_SLA_ACK:   // lost arbitration, returned ack
    case TW_SR_ARB_LOST_GCALL_ACK: // lost arbitration, returned ack
      // enter slave receiver mode
      twi_state = TWI_SRX;
    4a48:	83 e0       	ldi	r24, 0x03	; 3
    4a4a:	80 93 80 0e 	sts	0x0E80, r24	; 0x800e80 <twi_state>
      // indicate that rx buffer can be overwritten and ack
      twi_rxBufferIndex = 0;
    4a4e:	10 92 14 0e 	sts	0x0E14, r1	; 0x800e14 <twi_rxBufferIndex>
    4a52:	cf cf       	rjmp	.-98     	; 0x49f2 <__vector_39+0x116>
      twi_reply(1);
      break;
    case TW_SR_DATA_ACK:       // data received, returned ack
    case TW_SR_GCALL_DATA_ACK: // data received generally, returned ack
      // if there is still room in the rx buffer
      if(twi_rxBufferIndex < TWI_BUFFER_LENGTH){
    4a54:	80 91 14 0e 	lds	r24, 0x0E14	; 0x800e14 <twi_rxBufferIndex>
    4a58:	80 32       	cpi	r24, 0x20	; 32
    4a5a:	08 f0       	brcs	.+2      	; 0x4a5e <__vector_39+0x182>
    4a5c:	4d c0       	rjmp	.+154    	; 0x4af8 <__vector_39+0x21c>
        // put byte in buffer and ack
        twi_rxBuffer[twi_rxBufferIndex++] = TWDR;
    4a5e:	e0 91 14 0e 	lds	r30, 0x0E14	; 0x800e14 <twi_rxBufferIndex>
    4a62:	81 e0       	ldi	r24, 0x01	; 1
    4a64:	8e 0f       	add	r24, r30
    4a66:	80 93 14 0e 	sts	0x0E14, r24	; 0x800e14 <twi_rxBufferIndex>
    4a6a:	80 91 bb 00 	lds	r24, 0x00BB	; 0x8000bb <__TEXT_REGION_LENGTH__+0x7000bb>
    4a6e:	f0 e0       	ldi	r31, 0x00	; 0
    4a70:	eb 5e       	subi	r30, 0xEB	; 235
    4a72:	f1 4f       	sbci	r31, 0xF1	; 241
    4a74:	80 83       	st	Z, r24
    4a76:	bd cf       	rjmp	.-134    	; 0x49f2 <__vector_39+0x116>
        twi_reply(0);
      }
      break;
    case TW_SR_STOP: // stop or repeated start condition received
      // ack future responses and leave slave receiver state
      twi_releaseBus();
    4a78:	2b df       	rcall	.-426    	; 0x48d0 <twi_releaseBus>
      // put a null char after data if there's room
      if(twi_rxBufferIndex < TWI_BUFFER_LENGTH){
    4a7a:	80 91 14 0e 	lds	r24, 0x0E14	; 0x800e14 <twi_rxBufferIndex>
    4a7e:	80 32       	cpi	r24, 0x20	; 32
    4a80:	30 f4       	brcc	.+12     	; 0x4a8e <__vector_39+0x1b2>
        twi_rxBuffer[twi_rxBufferIndex] = '\0';
    4a82:	e0 91 14 0e 	lds	r30, 0x0E14	; 0x800e14 <twi_rxBufferIndex>
    4a86:	f0 e0       	ldi	r31, 0x00	; 0
    4a88:	eb 5e       	subi	r30, 0xEB	; 235
    4a8a:	f1 4f       	sbci	r31, 0xF1	; 241
    4a8c:	10 82       	st	Z, r1
      }
      // callback to user defined callback
      twi_onSlaveReceive(twi_rxBuffer, twi_rxBufferIndex);
    4a8e:	60 91 14 0e 	lds	r22, 0x0E14	; 0x800e14 <twi_rxBufferIndex>
    4a92:	70 e0       	ldi	r23, 0x00	; 0
    4a94:	e0 91 79 0e 	lds	r30, 0x0E79	; 0x800e79 <twi_onSlaveReceive>
    4a98:	f0 91 7a 0e 	lds	r31, 0x0E7A	; 0x800e7a <twi_onSlaveReceive+0x1>
    4a9c:	85 e1       	ldi	r24, 0x15	; 21
    4a9e:	9e e0       	ldi	r25, 0x0E	; 14
    4aa0:	19 95       	eicall
      // since we submit rx buffer to "wire" library, we can reset it
      twi_rxBufferIndex = 0;
    4aa2:	10 92 14 0e 	sts	0x0E14, r1	; 0x800e14 <twi_rxBufferIndex>
      break;
    4aa6:	35 c0       	rjmp	.+106    	; 0x4b12 <__vector_39+0x236>
    
    // Slave Transmitter
    case TW_ST_SLA_ACK:          // addressed, returned ack
    case TW_ST_ARB_LOST_SLA_ACK: // arbitration lost, returned ack
      // enter slave transmitter mode
      twi_state = TWI_STX;
    4aa8:	84 e0       	ldi	r24, 0x04	; 4
    4aaa:	80 93 80 0e 	sts	0x0E80, r24	; 0x800e80 <twi_state>
      // ready the tx buffer index for iteration
      twi_txBufferIndex = 0;
    4aae:	10 92 36 0e 	sts	0x0E36, r1	; 0x800e36 <twi_txBufferIndex>
      // set tx buffer length to be zero, to verify if user changes it
      twi_txBufferLength = 0;
    4ab2:	10 92 35 0e 	sts	0x0E35, r1	; 0x800e35 <twi_txBufferLength>
      // request for txBuffer to be filled and length to be set
      // note: user must call twi_transmit(bytes, length) to do this
      twi_onSlaveTransmit();
    4ab6:	e0 91 7b 0e 	lds	r30, 0x0E7B	; 0x800e7b <twi_onSlaveTransmit>
    4aba:	f0 91 7c 0e 	lds	r31, 0x0E7C	; 0x800e7c <twi_onSlaveTransmit+0x1>
    4abe:	19 95       	eicall
      // if they didn't change buffer & length, initialize it
      if(0 == twi_txBufferLength){
    4ac0:	80 91 35 0e 	lds	r24, 0x0E35	; 0x800e35 <twi_txBufferLength>
    4ac4:	81 11       	cpse	r24, r1
    4ac6:	05 c0       	rjmp	.+10     	; 0x4ad2 <__vector_39+0x1f6>
        twi_txBufferLength = 1;
    4ac8:	81 e0       	ldi	r24, 0x01	; 1
    4aca:	80 93 35 0e 	sts	0x0E35, r24	; 0x800e35 <twi_txBufferLength>
        twi_txBuffer[0] = 0x00;
    4ace:	10 92 37 0e 	sts	0x0E37, r1	; 0x800e37 <twi_txBuffer>
      }
      // transmit first byte from buffer, fall
    case TW_ST_DATA_ACK: // byte sent, ack returned
      // copy data to output register
      TWDR = twi_txBuffer[twi_txBufferIndex++];
    4ad2:	e0 91 36 0e 	lds	r30, 0x0E36	; 0x800e36 <twi_txBufferIndex>
    4ad6:	81 e0       	ldi	r24, 0x01	; 1
    4ad8:	8e 0f       	add	r24, r30
    4ada:	80 93 36 0e 	sts	0x0E36, r24	; 0x800e36 <twi_txBufferIndex>
    4ade:	f0 e0       	ldi	r31, 0x00	; 0
    4ae0:	e9 5c       	subi	r30, 0xC9	; 201
    4ae2:	f1 4f       	sbci	r31, 0xF1	; 241
    4ae4:	80 81       	ld	r24, Z
    4ae6:	80 93 bb 00 	sts	0x00BB, r24	; 0x8000bb <__TEXT_REGION_LENGTH__+0x7000bb>
      // if there is more to send, ack, otherwise nack
      if(twi_txBufferIndex < twi_txBufferLength){
    4aea:	90 91 36 0e 	lds	r25, 0x0E36	; 0x800e36 <twi_txBufferIndex>
    4aee:	80 91 35 0e 	lds	r24, 0x0E35	; 0x800e35 <twi_txBufferLength>
    4af2:	98 17       	cp	r25, r24
    4af4:	08 f4       	brcc	.+2      	; 0x4af8 <__vector_39+0x21c>
    4af6:	7d cf       	rjmp	.-262    	; 0x49f2 <__vector_39+0x116>
{
  // transmit master read ready signal, with or without ack
  if(ack){
    TWCR = _BV(TWEN) | _BV(TWIE) | _BV(TWINT) | _BV(TWEA);
  }else{
	  TWCR = _BV(TWEN) | _BV(TWIE) | _BV(TWINT);
    4af8:	85 e8       	ldi	r24, 0x85	; 133
    4afa:	80 93 bc 00 	sts	0x00BC, r24	; 0x8000bc <__TEXT_REGION_LENGTH__+0x7000bc>
    4afe:	09 c0       	rjmp	.+18     	; 0x4b12 <__vector_39+0x236>
 */
void twi_reply(uint8_t ack)
{
  // transmit master read ready signal, with or without ack
  if(ack){
    TWCR = _BV(TWEN) | _BV(TWIE) | _BV(TWINT) | _BV(TWEA);
    4b00:	85 ec       	ldi	r24, 0xC5	; 197
    4b02:	80 93 bc 00 	sts	0x00BC, r24	; 0x8000bc <__TEXT_REGION_LENGTH__+0x7000bc>
    case TW_ST_DATA_NACK: // received nack, we are done 
    case TW_ST_LAST_DATA: // received ack, but we are done already!
      // ack future responses
      twi_reply(1);
      // leave slave receiver state
      twi_state = TWI_READY;
    4b06:	10 92 80 0e 	sts	0x0E80, r1	; 0x800e80 <twi_state>
      break;
    4b0a:	03 c0       	rjmp	.+6      	; 0x4b12 <__vector_39+0x236>

    // All
    case TW_NO_INFO:   // no state information
      break;
    case TW_BUS_ERROR: // bus error, illegal stop/start
      twi_error = TW_BUS_ERROR;
    4b0c:	10 92 13 0e 	sts	0x0E13, r1	; 0x800e13 <twi_error>
      twi_stop();
    4b10:	d5 de       	rcall	.-598    	; 0x48bc <twi_stop>
      break;
  }
}
    4b12:	ff 91       	pop	r31
    4b14:	ef 91       	pop	r30
    4b16:	bf 91       	pop	r27
    4b18:	af 91       	pop	r26
    4b1a:	9f 91       	pop	r25
    4b1c:	8f 91       	pop	r24
    4b1e:	7f 91       	pop	r23
    4b20:	6f 91       	pop	r22
    4b22:	5f 91       	pop	r21
    4b24:	4f 91       	pop	r20
    4b26:	3f 91       	pop	r19
    4b28:	2f 91       	pop	r18
    4b2a:	0f 90       	pop	r0
    4b2c:	0b be       	out	0x3b, r0	; 59
    4b2e:	0f 90       	pop	r0
    4b30:	0f be       	out	0x3f, r0	; 63
    4b32:	0f 90       	pop	r0
    4b34:	1f 90       	pop	r1
    4b36:	18 95       	reti

00004b38 <_ZN7TwoWire9availableEv>:
}

// sets function called on slave read
void TwoWire::onRequest( void (*function)(void) )
{
  user_onRequest = function;
    4b38:	80 91 b1 0e 	lds	r24, 0x0EB1	; 0x800eb1 <_ZN7TwoWire14rxBufferLengthE>
    4b3c:	90 e0       	ldi	r25, 0x00	; 0
    4b3e:	20 91 b2 0e 	lds	r18, 0x0EB2	; 0x800eb2 <_ZN7TwoWire13rxBufferIndexE>
    4b42:	82 1b       	sub	r24, r18
    4b44:	91 09       	sbc	r25, r1
    4b46:	08 95       	ret

00004b48 <_ZN7TwoWire4readEv>:
    4b48:	90 91 b2 0e 	lds	r25, 0x0EB2	; 0x800eb2 <_ZN7TwoWire13rxBufferIndexE>
    4b4c:	80 91 b1 0e 	lds	r24, 0x0EB1	; 0x800eb1 <_ZN7TwoWire14rxBufferLengthE>
    4b50:	98 17       	cp	r25, r24
    4b52:	50 f4       	brcc	.+20     	; 0x4b68 <_ZN7TwoWire4readEv+0x20>
    4b54:	e9 2f       	mov	r30, r25
    4b56:	f0 e0       	ldi	r31, 0x00	; 0
    4b58:	ed 54       	subi	r30, 0x4D	; 77
    4b5a:	f1 4f       	sbci	r31, 0xF1	; 241
    4b5c:	20 81       	ld	r18, Z
    4b5e:	30 e0       	ldi	r19, 0x00	; 0
    4b60:	9f 5f       	subi	r25, 0xFF	; 255
    4b62:	90 93 b2 0e 	sts	0x0EB2, r25	; 0x800eb2 <_ZN7TwoWire13rxBufferIndexE>
    4b66:	02 c0       	rjmp	.+4      	; 0x4b6c <_ZN7TwoWire4readEv+0x24>
    4b68:	2f ef       	ldi	r18, 0xFF	; 255
    4b6a:	3f ef       	ldi	r19, 0xFF	; 255
    4b6c:	c9 01       	movw	r24, r18
    4b6e:	08 95       	ret

00004b70 <_ZN7TwoWire4peekEv>:
    4b70:	e0 91 b2 0e 	lds	r30, 0x0EB2	; 0x800eb2 <_ZN7TwoWire13rxBufferIndexE>
    4b74:	80 91 b1 0e 	lds	r24, 0x0EB1	; 0x800eb1 <_ZN7TwoWire14rxBufferLengthE>
    4b78:	e8 17       	cp	r30, r24
    4b7a:	30 f4       	brcc	.+12     	; 0x4b88 <_ZN7TwoWire4peekEv+0x18>
    4b7c:	f0 e0       	ldi	r31, 0x00	; 0
    4b7e:	ed 54       	subi	r30, 0x4D	; 77
    4b80:	f1 4f       	sbci	r31, 0xF1	; 241
    4b82:	80 81       	ld	r24, Z
    4b84:	90 e0       	ldi	r25, 0x00	; 0
    4b86:	08 95       	ret
    4b88:	8f ef       	ldi	r24, 0xFF	; 255
    4b8a:	9f ef       	ldi	r25, 0xFF	; 255
    4b8c:	08 95       	ret

00004b8e <_ZN7TwoWire5flushEv>:
    4b8e:	08 95       	ret

00004b90 <_ZN7TwoWire5writeEPKhj>:
    4b90:	cf 92       	push	r12
    4b92:	df 92       	push	r13
    4b94:	ef 92       	push	r14
    4b96:	ff 92       	push	r15
    4b98:	0f 93       	push	r16
    4b9a:	1f 93       	push	r17
    4b9c:	cf 93       	push	r28
    4b9e:	df 93       	push	r29
    4ba0:	7c 01       	movw	r14, r24
    4ba2:	26 2f       	mov	r18, r22
    4ba4:	97 2f       	mov	r25, r23
    4ba6:	8a 01       	movw	r16, r20
    4ba8:	80 91 8d 0e 	lds	r24, 0x0E8D	; 0x800e8d <_ZN7TwoWire12transmittingE>
    4bac:	88 23       	and	r24, r24
    4bae:	91 f0       	breq	.+36     	; 0x4bd4 <_ZN7TwoWire5writeEPKhj+0x44>
    4bb0:	c6 2f       	mov	r28, r22
    4bb2:	d7 2f       	mov	r29, r23
    4bb4:	6e 01       	movw	r12, r28
    4bb6:	c4 0e       	add	r12, r20
    4bb8:	d5 1e       	adc	r13, r21
    4bba:	cc 15       	cp	r28, r12
    4bbc:	dd 05       	cpc	r29, r13
    4bbe:	69 f0       	breq	.+26     	; 0x4bda <_ZN7TwoWire5writeEPKhj+0x4a>
    4bc0:	69 91       	ld	r22, Y+
    4bc2:	d7 01       	movw	r26, r14
    4bc4:	ed 91       	ld	r30, X+
    4bc6:	fc 91       	ld	r31, X
    4bc8:	01 90       	ld	r0, Z+
    4bca:	f0 81       	ld	r31, Z
    4bcc:	e0 2d       	mov	r30, r0
    4bce:	c7 01       	movw	r24, r14
    4bd0:	19 95       	eicall
    4bd2:	f3 cf       	rjmp	.-26     	; 0x4bba <_ZN7TwoWire5writeEPKhj+0x2a>
    4bd4:	64 2f       	mov	r22, r20
    4bd6:	82 2f       	mov	r24, r18
    4bd8:	49 de       	rcall	.-878    	; 0x486c <twi_transmit>
    4bda:	c8 01       	movw	r24, r16
    4bdc:	df 91       	pop	r29
    4bde:	cf 91       	pop	r28
    4be0:	1f 91       	pop	r17
    4be2:	0f 91       	pop	r16
    4be4:	ff 90       	pop	r15
    4be6:	ef 90       	pop	r14
    4be8:	df 90       	pop	r13
    4bea:	cf 90       	pop	r12
    4bec:	08 95       	ret

00004bee <_ZN7TwoWire5writeEh>:
    4bee:	cf 93       	push	r28
    4bf0:	df 93       	push	r29
    4bf2:	1f 92       	push	r1
    4bf4:	cd b7       	in	r28, 0x3d	; 61
    4bf6:	de b7       	in	r29, 0x3e	; 62
    4bf8:	69 83       	std	Y+1, r22	; 0x01
    4bfa:	20 91 8d 0e 	lds	r18, 0x0E8D	; 0x800e8d <_ZN7TwoWire12transmittingE>
    4bfe:	22 23       	and	r18, r18
    4c00:	d1 f0       	breq	.+52     	; 0x4c36 <_ZN7TwoWire5writeEh+0x48>
    4c02:	20 91 8e 0e 	lds	r18, 0x0E8E	; 0x800e8e <_ZN7TwoWire14txBufferLengthE>
    4c06:	20 32       	cpi	r18, 0x20	; 32
    4c08:	40 f0       	brcs	.+16     	; 0x4c1a <_ZN7TwoWire5writeEh+0x2c>
    4c0a:	21 e0       	ldi	r18, 0x01	; 1
    4c0c:	30 e0       	ldi	r19, 0x00	; 0
    4c0e:	fc 01       	movw	r30, r24
    4c10:	33 83       	std	Z+3, r19	; 0x03
    4c12:	22 83       	std	Z+2, r18	; 0x02
    4c14:	80 e0       	ldi	r24, 0x00	; 0
    4c16:	90 e0       	ldi	r25, 0x00	; 0
    4c18:	14 c0       	rjmp	.+40     	; 0x4c42 <_ZN7TwoWire5writeEh+0x54>
    4c1a:	80 91 8f 0e 	lds	r24, 0x0E8F	; 0x800e8f <_ZN7TwoWire13txBufferIndexE>
    4c1e:	e8 2f       	mov	r30, r24
    4c20:	f0 e0       	ldi	r31, 0x00	; 0
    4c22:	e0 57       	subi	r30, 0x70	; 112
    4c24:	f1 4f       	sbci	r31, 0xF1	; 241
    4c26:	99 81       	ldd	r25, Y+1	; 0x01
    4c28:	90 83       	st	Z, r25
    4c2a:	8f 5f       	subi	r24, 0xFF	; 255
    4c2c:	80 93 8f 0e 	sts	0x0E8F, r24	; 0x800e8f <_ZN7TwoWire13txBufferIndexE>
    4c30:	80 93 8e 0e 	sts	0x0E8E, r24	; 0x800e8e <_ZN7TwoWire14txBufferLengthE>
    4c34:	04 c0       	rjmp	.+8      	; 0x4c3e <_ZN7TwoWire5writeEh+0x50>
    4c36:	61 e0       	ldi	r22, 0x01	; 1
    4c38:	ce 01       	movw	r24, r28
    4c3a:	01 96       	adiw	r24, 0x01	; 1
    4c3c:	17 de       	rcall	.-978    	; 0x486c <twi_transmit>
    4c3e:	81 e0       	ldi	r24, 0x01	; 1
    4c40:	90 e0       	ldi	r25, 0x00	; 0
    4c42:	0f 90       	pop	r0
    4c44:	df 91       	pop	r29
    4c46:	cf 91       	pop	r28
    4c48:	08 95       	ret

00004c4a <_ZN7TwoWireC1Ev>:
    4c4a:	fc 01       	movw	r30, r24
    4c4c:	13 82       	std	Z+3, r1	; 0x03
    4c4e:	12 82       	std	Z+2, r1	; 0x02
    4c50:	88 ee       	ldi	r24, 0xE8	; 232
    4c52:	93 e0       	ldi	r25, 0x03	; 3
    4c54:	a0 e0       	ldi	r26, 0x00	; 0
    4c56:	b0 e0       	ldi	r27, 0x00	; 0
    4c58:	84 83       	std	Z+4, r24	; 0x04
    4c5a:	95 83       	std	Z+5, r25	; 0x05
    4c5c:	a6 83       	std	Z+6, r26	; 0x06
    4c5e:	b7 83       	std	Z+7, r27	; 0x07
    4c60:	8b e1       	ldi	r24, 0x1B	; 27
    4c62:	9c e0       	ldi	r25, 0x0C	; 12
    4c64:	91 83       	std	Z+1, r25	; 0x01
    4c66:	80 83       	st	Z, r24
    4c68:	08 95       	ret

00004c6a <_ZN7TwoWire5beginEv>:
    4c6a:	10 92 b2 0e 	sts	0x0EB2, r1	; 0x800eb2 <_ZN7TwoWire13rxBufferIndexE>
    4c6e:	10 92 b1 0e 	sts	0x0EB1, r1	; 0x800eb1 <_ZN7TwoWire14rxBufferLengthE>
    4c72:	10 92 8f 0e 	sts	0x0E8F, r1	; 0x800e8f <_ZN7TwoWire13txBufferIndexE>
    4c76:	10 92 8e 0e 	sts	0x0E8E, r1	; 0x800e8e <_ZN7TwoWire14txBufferLengthE>
    4c7a:	3c cd       	rjmp	.-1416   	; 0x46f4 <twi_init>

00004c7c <_ZN7TwoWire17beginTransmissionEh>:
    4c7c:	81 e0       	ldi	r24, 0x01	; 1
    4c7e:	80 93 8d 0e 	sts	0x0E8D, r24	; 0x800e8d <_ZN7TwoWire12transmittingE>
    4c82:	60 93 b0 0e 	sts	0x0EB0, r22	; 0x800eb0 <_ZN7TwoWire9txAddressE>
    4c86:	10 92 8f 0e 	sts	0x0E8F, r1	; 0x800e8f <_ZN7TwoWire13txBufferIndexE>
    4c8a:	10 92 8e 0e 	sts	0x0E8E, r1	; 0x800e8e <_ZN7TwoWire14txBufferLengthE>
    4c8e:	08 95       	ret

00004c90 <_ZN7TwoWire17beginTransmissionEi>:
    4c90:	f5 cf       	rjmp	.-22     	; 0x4c7c <_ZN7TwoWire17beginTransmissionEh>

00004c92 <_ZN7TwoWire15endTransmissionEh>:
    4c92:	0f 93       	push	r16
    4c94:	06 2f       	mov	r16, r22
    4c96:	21 e0       	ldi	r18, 0x01	; 1
    4c98:	40 91 8e 0e 	lds	r20, 0x0E8E	; 0x800e8e <_ZN7TwoWire14txBufferLengthE>
    4c9c:	60 e9       	ldi	r22, 0x90	; 144
    4c9e:	7e e0       	ldi	r23, 0x0E	; 14
    4ca0:	80 91 b0 0e 	lds	r24, 0x0EB0	; 0x800eb0 <_ZN7TwoWire9txAddressE>
    4ca4:	8d dd       	rcall	.-1254   	; 0x47c0 <twi_writeTo>
    4ca6:	10 92 8f 0e 	sts	0x0E8F, r1	; 0x800e8f <_ZN7TwoWire13txBufferIndexE>
    4caa:	10 92 8e 0e 	sts	0x0E8E, r1	; 0x800e8e <_ZN7TwoWire14txBufferLengthE>
    4cae:	10 92 8d 0e 	sts	0x0E8D, r1	; 0x800e8d <_ZN7TwoWire12transmittingE>
    4cb2:	0f 91       	pop	r16
    4cb4:	08 95       	ret

00004cb6 <_ZN7TwoWire11requestFromEhhmhh>:
    4cb6:	4f 92       	push	r4
    4cb8:	5f 92       	push	r5
    4cba:	6f 92       	push	r6
    4cbc:	7f 92       	push	r7
    4cbe:	af 92       	push	r10
    4cc0:	bf 92       	push	r11
    4cc2:	cf 92       	push	r12
    4cc4:	ef 92       	push	r14
    4cc6:	ff 92       	push	r15
    4cc8:	0f 93       	push	r16
    4cca:	1f 93       	push	r17
    4ccc:	cf 93       	push	r28
    4cce:	df 93       	push	r29
    4cd0:	5c 01       	movw	r10, r24
    4cd2:	f6 2e       	mov	r15, r22
    4cd4:	d4 2f       	mov	r29, r20
    4cd6:	28 01       	movw	r4, r16
    4cd8:	39 01       	movw	r6, r18
    4cda:	ee 20       	and	r14, r14
    4cdc:	11 f1       	breq	.+68     	; 0x4d22 <_ZN7TwoWire11requestFromEhhmhh+0x6c>
    4cde:	ce df       	rcall	.-100    	; 0x4c7c <_ZN7TwoWire17beginTransmissionEh>
    4ce0:	ce 2d       	mov	r28, r14
    4ce2:	c4 30       	cpi	r28, 0x04	; 4
    4ce4:	08 f0       	brcs	.+2      	; 0x4ce8 <_ZN7TwoWire11requestFromEhhmhh+0x32>
    4ce6:	c3 e0       	ldi	r28, 0x03	; 3
    4ce8:	c1 50       	subi	r28, 0x01	; 1
    4cea:	c0 f0       	brcs	.+48     	; 0x4d1c <_ZN7TwoWire11requestFromEhhmhh+0x66>
    4cec:	d5 01       	movw	r26, r10
    4cee:	ed 91       	ld	r30, X+
    4cf0:	fc 91       	ld	r31, X
    4cf2:	b8 e0       	ldi	r27, 0x08	; 8
    4cf4:	cb 9f       	mul	r28, r27
    4cf6:	c0 01       	movw	r24, r0
    4cf8:	11 24       	eor	r1, r1
    4cfa:	a3 01       	movw	r20, r6
    4cfc:	92 01       	movw	r18, r4
    4cfe:	04 c0       	rjmp	.+8      	; 0x4d08 <_ZN7TwoWire11requestFromEhhmhh+0x52>
    4d00:	56 95       	lsr	r21
    4d02:	47 95       	ror	r20
    4d04:	37 95       	ror	r19
    4d06:	27 95       	ror	r18
    4d08:	8a 95       	dec	r24
    4d0a:	d2 f7       	brpl	.-12     	; 0x4d00 <_ZN7TwoWire11requestFromEhhmhh+0x4a>
    4d0c:	ca 01       	movw	r24, r20
    4d0e:	b9 01       	movw	r22, r18
    4d10:	01 90       	ld	r0, Z+
    4d12:	f0 81       	ld	r31, Z
    4d14:	e0 2d       	mov	r30, r0
    4d16:	c5 01       	movw	r24, r10
    4d18:	19 95       	eicall
    4d1a:	e6 cf       	rjmp	.-52     	; 0x4ce8 <_ZN7TwoWire11requestFromEhhmhh+0x32>
    4d1c:	60 e0       	ldi	r22, 0x00	; 0
    4d1e:	c5 01       	movw	r24, r10
    4d20:	b8 df       	rcall	.-144    	; 0x4c92 <_ZN7TwoWire15endTransmissionEh>
    4d22:	4d 2f       	mov	r20, r29
    4d24:	d1 32       	cpi	r29, 0x21	; 33
    4d26:	08 f0       	brcs	.+2      	; 0x4d2a <_ZN7TwoWire11requestFromEhhmhh+0x74>
    4d28:	40 e2       	ldi	r20, 0x20	; 32
    4d2a:	2c 2d       	mov	r18, r12
    4d2c:	63 eb       	ldi	r22, 0xB3	; 179
    4d2e:	7e e0       	ldi	r23, 0x0E	; 14
    4d30:	8f 2d       	mov	r24, r15
    4d32:	fe dc       	rcall	.-1540   	; 0x4730 <twi_readFrom>
    4d34:	10 92 b2 0e 	sts	0x0EB2, r1	; 0x800eb2 <_ZN7TwoWire13rxBufferIndexE>
    4d38:	80 93 b1 0e 	sts	0x0EB1, r24	; 0x800eb1 <_ZN7TwoWire14rxBufferLengthE>
    4d3c:	df 91       	pop	r29
    4d3e:	cf 91       	pop	r28
    4d40:	1f 91       	pop	r17
    4d42:	0f 91       	pop	r16
    4d44:	ff 90       	pop	r15
    4d46:	ef 90       	pop	r14
    4d48:	cf 90       	pop	r12
    4d4a:	bf 90       	pop	r11
    4d4c:	af 90       	pop	r10
    4d4e:	7f 90       	pop	r7
    4d50:	6f 90       	pop	r6
    4d52:	5f 90       	pop	r5
    4d54:	4f 90       	pop	r4
    4d56:	08 95       	ret

00004d58 <_ZN7TwoWire11requestFromEhhh>:
    4d58:	cf 92       	push	r12
    4d5a:	ef 92       	push	r14
    4d5c:	0f 93       	push	r16
    4d5e:	1f 93       	push	r17
    4d60:	c2 2e       	mov	r12, r18
    4d62:	e1 2c       	mov	r14, r1
    4d64:	00 e0       	ldi	r16, 0x00	; 0
    4d66:	10 e0       	ldi	r17, 0x00	; 0
    4d68:	98 01       	movw	r18, r16
    4d6a:	a5 df       	rcall	.-182    	; 0x4cb6 <_ZN7TwoWire11requestFromEhhmhh>
    4d6c:	1f 91       	pop	r17
    4d6e:	0f 91       	pop	r16
    4d70:	ef 90       	pop	r14
    4d72:	cf 90       	pop	r12
    4d74:	08 95       	ret

00004d76 <_ZN7TwoWire11requestFromEii>:
    4d76:	21 e0       	ldi	r18, 0x01	; 1
    4d78:	ef cf       	rjmp	.-34     	; 0x4d58 <_ZN7TwoWire11requestFromEhhh>

00004d7a <_ZN7TwoWire15endTransmissionEv>:
    4d7a:	61 e0       	ldi	r22, 0x01	; 1
    4d7c:	8a cf       	rjmp	.-236    	; 0x4c92 <_ZN7TwoWire15endTransmissionEh>

00004d7e <_GLOBAL__sub_I__ZN7TwoWire8rxBufferE>:
}

// Preinstantiate Objects //////////////////////////////////////////////////////

TwoWire Wire = TwoWire();
    4d7e:	81 e8       	ldi	r24, 0x81	; 129
    4d80:	9e e0       	ldi	r25, 0x0E	; 14
    4d82:	63 cf       	rjmp	.-314    	; 0x4c4a <_ZN7TwoWireC1Ev>

00004d84 <_ZL7nothingv>:
{
	
	setMode(_mode,_time);
	Timer1();
	# warning "Mode set completely!"
} //Timer1
    4d84:	08 95       	ret

00004d86 <_ZN6Timer116select_prescalerEi>:
    4d86:	4f 92       	push	r4
    4d88:	5f 92       	push	r5
    4d8a:	6f 92       	push	r6
    4d8c:	7f 92       	push	r7
    4d8e:	af 92       	push	r10
    4d90:	bf 92       	push	r11
    4d92:	cf 92       	push	r12
    4d94:	df 92       	push	r13
    4d96:	ef 92       	push	r14
    4d98:	ff 92       	push	r15
    4d9a:	0f 93       	push	r16
    4d9c:	1f 93       	push	r17
    4d9e:	cf 93       	push	r28
    4da0:	df 93       	push	r29
    4da2:	cd b7       	in	r28, 0x3d	; 61
    4da4:	de b7       	in	r29, 0x3e	; 62
    4da6:	2a 97       	sbiw	r28, 0x0a	; 10
    4da8:	0f b6       	in	r0, 0x3f	; 63
    4daa:	f8 94       	cli
    4dac:	de bf       	out	0x3e, r29	; 62
    4dae:	0f be       	out	0x3f, r0	; 63
    4db0:	cd bf       	out	0x3d, r28	; 61
    4db2:	7c 01       	movw	r14, r24
    4db4:	5b 01       	movw	r10, r22
    4db6:	8a e0       	ldi	r24, 0x0A	; 10
    4db8:	ed e4       	ldi	r30, 0x4D	; 77
    4dba:	f6 e0       	ldi	r31, 0x06	; 6
    4dbc:	de 01       	movw	r26, r28
    4dbe:	11 96       	adiw	r26, 0x01	; 1
    4dc0:	01 90       	ld	r0, Z+
    4dc2:	0d 92       	st	X+, r0
    4dc4:	8a 95       	dec	r24
    4dc6:	e1 f7       	brne	.-8      	; 0x4dc0 <_ZN6Timer116select_prescalerEi+0x3a>
    4dc8:	ce 01       	movw	r24, r28
    4dca:	01 96       	adiw	r24, 0x01	; 1
    4dcc:	6c 01       	movw	r12, r24
    4dce:	00 e0       	ldi	r16, 0x00	; 0
    4dd0:	10 e0       	ldi	r17, 0x00	; 0
    4dd2:	30 e8       	ldi	r19, 0x80	; 128
    4dd4:	43 2e       	mov	r4, r19
    4dd6:	3e e3       	ldi	r19, 0x3E	; 62
    4dd8:	53 2e       	mov	r5, r19
    4dda:	61 2c       	mov	r6, r1
    4ddc:	71 2c       	mov	r7, r1
    4dde:	f6 01       	movw	r30, r12
    4de0:	61 91       	ld	r22, Z+
    4de2:	71 91       	ld	r23, Z+
    4de4:	6f 01       	movw	r12, r30
    4de6:	cb 01       	movw	r24, r22
    4de8:	77 0f       	add	r23, r23
    4dea:	aa 0b       	sbc	r26, r26
    4dec:	bb 0b       	sbc	r27, r27
    4dee:	77 27       	eor	r23, r23
    4df0:	66 27       	eor	r22, r22
    4df2:	a3 01       	movw	r20, r6
    4df4:	92 01       	movw	r18, r4
    4df6:	0e 94 a8 36 	call	0x6d50	; 0x6d50 <__divmodsi4>
    4dfa:	a2 16       	cp	r10, r18
    4dfc:	b3 06       	cpc	r11, r19
    4dfe:	2c f0       	brlt	.+10     	; 0x4e0a <_ZN6Timer116select_prescalerEi+0x84>
    4e00:	0f 5f       	subi	r16, 0xFF	; 255
    4e02:	1f 4f       	sbci	r17, 0xFF	; 255
    4e04:	05 30       	cpi	r16, 0x05	; 5
    4e06:	11 05       	cpc	r17, r1
    4e08:	51 f7       	brne	.-44     	; 0x4dde <_ZN6Timer116select_prescalerEi+0x58>
    4e0a:	f7 01       	movw	r30, r14
    4e0c:	31 87       	std	Z+9, r19	; 0x09
    4e0e:	20 87       	std	Z+8, r18	; 0x08
    4e10:	00 0f       	add	r16, r16
    4e12:	11 1f       	adc	r17, r17
    4e14:	e1 e0       	ldi	r30, 0x01	; 1
    4e16:	f0 e0       	ldi	r31, 0x00	; 0
    4e18:	ec 0f       	add	r30, r28
    4e1a:	fd 1f       	adc	r31, r29
    4e1c:	e0 0f       	add	r30, r16
    4e1e:	f1 1f       	adc	r31, r17
    4e20:	80 81       	ld	r24, Z
    4e22:	91 81       	ldd	r25, Z+1	; 0x01
    4e24:	2a 96       	adiw	r28, 0x0a	; 10
    4e26:	0f b6       	in	r0, 0x3f	; 63
    4e28:	f8 94       	cli
    4e2a:	de bf       	out	0x3e, r29	; 62
    4e2c:	0f be       	out	0x3f, r0	; 63
    4e2e:	cd bf       	out	0x3d, r28	; 61
    4e30:	df 91       	pop	r29
    4e32:	cf 91       	pop	r28
    4e34:	1f 91       	pop	r17
    4e36:	0f 91       	pop	r16
    4e38:	ff 90       	pop	r15
    4e3a:	ef 90       	pop	r14
    4e3c:	df 90       	pop	r13
    4e3e:	cf 90       	pop	r12
    4e40:	bf 90       	pop	r11
    4e42:	af 90       	pop	r10
    4e44:	7f 90       	pop	r7
    4e46:	6f 90       	pop	r6
    4e48:	5f 90       	pop	r5
    4e4a:	4f 90       	pop	r4
    4e4c:	08 95       	ret

00004e4e <_ZN6Timer1C1Ev>:
    4e4e:	cf 93       	push	r28
    4e50:	df 93       	push	r29
    4e52:	ec 01       	movw	r28, r24
    4e54:	6d e3       	ldi	r22, 0x3D	; 61
    4e56:	7c e0       	ldi	r23, 0x0C	; 12
    4e58:	0e 94 fc 35 	call	0x6bf8	; 0x6bf8 <_ZN6StringC1EPKc>
    4e5c:	81 e0       	ldi	r24, 0x01	; 1
    4e5e:	90 e0       	ldi	r25, 0x00	; 0
    4e60:	9f 83       	std	Y+7, r25	; 0x07
    4e62:	8e 83       	std	Y+6, r24	; 0x06
    4e64:	19 86       	std	Y+9, r1	; 0x09
    4e66:	18 86       	std	Y+8, r1	; 0x08
    4e68:	1b 86       	std	Y+11, r1	; 0x0b
    4e6a:	1a 86       	std	Y+10, r1	; 0x0a
    4e6c:	8f b7       	in	r24, 0x3f	; 63
    4e6e:	80 68       	ori	r24, 0x80	; 128
    4e70:	8f bf       	out	0x3f, r24	; 63
    4e72:	df 91       	pop	r29
    4e74:	cf 91       	pop	r28
    4e76:	08 95       	ret

00004e78 <_ZN6Timer17setModeE6Stringi>:
    4e78:	ef 92       	push	r14
    4e7a:	ff 92       	push	r15
    4e7c:	0f 93       	push	r16
    4e7e:	1f 93       	push	r17
    4e80:	cf 93       	push	r28
    4e82:	df 93       	push	r29
    4e84:	ec 01       	movw	r28, r24
    4e86:	7b 01       	movw	r14, r22
    4e88:	8a 01       	movw	r16, r20
    4e8a:	0e 94 10 36 	call	0x6c20	; 0x6c20 <_ZN6StringaSERKS_>
    4e8e:	b8 01       	movw	r22, r16
    4e90:	ce 01       	movw	r24, r28
    4e92:	79 df       	rcall	.-270    	; 0x4d86 <_ZN6Timer116select_prescalerEi>
    4e94:	9f 83       	std	Y+7, r25	; 0x07
    4e96:	8e 83       	std	Y+6, r24	; 0x06
    4e98:	c7 01       	movw	r24, r14
    4e9a:	0e 94 60 36 	call	0x6cc0	; 0x6cc0 <_ZN6String11toUpperCaseEv>
    4e9e:	67 ef       	ldi	r22, 0xF7	; 247
    4ea0:	7b e0       	ldi	r23, 0x0B	; 11
    4ea2:	c7 01       	movw	r24, r14
    4ea4:	0e 94 42 36 	call	0x6c84	; 0x6c84 <_ZNK6String6equalsEPKc>
    4ea8:	88 23       	and	r24, r24
    4eaa:	09 f4       	brne	.+2      	; 0x4eae <_ZN6Timer17setModeE6Stringi+0x36>
    4eac:	4d c0       	rjmp	.+154    	; 0x4f48 <_ZN6Timer17setModeE6Stringi+0xd0>
    4eae:	10 92 80 00 	sts	0x0080, r1	; 0x800080 <__TEXT_REGION_LENGTH__+0x700080>
    4eb2:	10 92 81 00 	sts	0x0081, r1	; 0x800081 <__TEXT_REGION_LENGTH__+0x700081>
    4eb6:	88 e0       	ldi	r24, 0x08	; 8
    4eb8:	80 93 81 00 	sts	0x0081, r24	; 0x800081 <__TEXT_REGION_LENGTH__+0x700081>
    4ebc:	8e 81       	ldd	r24, Y+6	; 0x06
    4ebe:	9f 81       	ldd	r25, Y+7	; 0x07
    4ec0:	01 97       	sbiw	r24, 0x01	; 1
    4ec2:	29 f4       	brne	.+10     	; 0x4ece <_ZN6Timer17setModeE6Stringi+0x56>
    4ec4:	80 91 81 00 	lds	r24, 0x0081	; 0x800081 <__TEXT_REGION_LENGTH__+0x700081>
    4ec8:	81 60       	ori	r24, 0x01	; 1
    4eca:	80 93 81 00 	sts	0x0081, r24	; 0x800081 <__TEXT_REGION_LENGTH__+0x700081>
    4ece:	8e 81       	ldd	r24, Y+6	; 0x06
    4ed0:	9f 81       	ldd	r25, Y+7	; 0x07
    4ed2:	08 97       	sbiw	r24, 0x08	; 8
    4ed4:	29 f4       	brne	.+10     	; 0x4ee0 <_ZN6Timer17setModeE6Stringi+0x68>
    4ed6:	80 91 81 00 	lds	r24, 0x0081	; 0x800081 <__TEXT_REGION_LENGTH__+0x700081>
    4eda:	82 60       	ori	r24, 0x02	; 2
    4edc:	80 93 81 00 	sts	0x0081, r24	; 0x800081 <__TEXT_REGION_LENGTH__+0x700081>
    4ee0:	8e 81       	ldd	r24, Y+6	; 0x06
    4ee2:	9f 81       	ldd	r25, Y+7	; 0x07
    4ee4:	80 34       	cpi	r24, 0x40	; 64
    4ee6:	91 05       	cpc	r25, r1
    4ee8:	29 f4       	brne	.+10     	; 0x4ef4 <_ZN6Timer17setModeE6Stringi+0x7c>
    4eea:	80 91 81 00 	lds	r24, 0x0081	; 0x800081 <__TEXT_REGION_LENGTH__+0x700081>
    4eee:	83 60       	ori	r24, 0x03	; 3
    4ef0:	80 93 81 00 	sts	0x0081, r24	; 0x800081 <__TEXT_REGION_LENGTH__+0x700081>
    4ef4:	8e 81       	ldd	r24, Y+6	; 0x06
    4ef6:	9f 81       	ldd	r25, Y+7	; 0x07
    4ef8:	81 15       	cp	r24, r1
    4efa:	91 40       	sbci	r25, 0x01	; 1
    4efc:	29 f4       	brne	.+10     	; 0x4f08 <_ZN6Timer17setModeE6Stringi+0x90>
    4efe:	80 91 81 00 	lds	r24, 0x0081	; 0x800081 <__TEXT_REGION_LENGTH__+0x700081>
    4f02:	84 60       	ori	r24, 0x04	; 4
    4f04:	80 93 81 00 	sts	0x0081, r24	; 0x800081 <__TEXT_REGION_LENGTH__+0x700081>
    4f08:	8e 81       	ldd	r24, Y+6	; 0x06
    4f0a:	9f 81       	ldd	r25, Y+7	; 0x07
    4f0c:	81 15       	cp	r24, r1
    4f0e:	94 40       	sbci	r25, 0x04	; 4
    4f10:	29 f4       	brne	.+10     	; 0x4f1c <_ZN6Timer17setModeE6Stringi+0xa4>
    4f12:	80 91 81 00 	lds	r24, 0x0081	; 0x800081 <__TEXT_REGION_LENGTH__+0x700081>
    4f16:	85 60       	ori	r24, 0x05	; 5
    4f18:	80 93 81 00 	sts	0x0081, r24	; 0x800081 <__TEXT_REGION_LENGTH__+0x700081>
    4f1c:	20 e8       	ldi	r18, 0x80	; 128
    4f1e:	3e e3       	ldi	r19, 0x3E	; 62
    4f20:	d8 01       	movw	r26, r16
    4f22:	0e 94 db 36 	call	0x6db6	; 0x6db6 <__usmulhisi3>
    4f26:	2e 81       	ldd	r18, Y+6	; 0x06
    4f28:	3f 81       	ldd	r19, Y+7	; 0x07
    4f2a:	03 2e       	mov	r0, r19
    4f2c:	00 0c       	add	r0, r0
    4f2e:	44 0b       	sbc	r20, r20
    4f30:	55 0b       	sbc	r21, r21
    4f32:	0e 94 a8 36 	call	0x6d50	; 0x6d50 <__divmodsi4>
    4f36:	3b 87       	std	Y+11, r19	; 0x0b
    4f38:	2a 87       	std	Y+10, r18	; 0x0a
    4f3a:	30 93 89 00 	sts	0x0089, r19	; 0x800089 <__TEXT_REGION_LENGTH__+0x700089>
    4f3e:	20 93 88 00 	sts	0x0088, r18	; 0x800088 <__TEXT_REGION_LENGTH__+0x700088>
    4f42:	82 e0       	ldi	r24, 0x02	; 2
    4f44:	80 93 6f 00 	sts	0x006F, r24	; 0x80006f <__TEXT_REGION_LENGTH__+0x70006f>
    4f48:	df 91       	pop	r29
    4f4a:	cf 91       	pop	r28
    4f4c:	1f 91       	pop	r17
    4f4e:	0f 91       	pop	r16
    4f50:	ff 90       	pop	r15
    4f52:	ef 90       	pop	r14
    4f54:	08 95       	ret

00004f56 <_ZN6Timer115attachInterruptEPFvvE>:
	}
}

void Timer1::attachInterrupt(void (*userFunc)(void))
{
	_intFunc = userFunc;
    4f56:	70 93 3c 06 	sts	0x063C, r23	; 0x80063c <_ZL8_intFunc+0x1>
    4f5a:	60 93 3b 06 	sts	0x063B, r22	; 0x80063b <_ZL8_intFunc>
    4f5e:	08 95       	ret

00004f60 <_ZN6Timer1D1Ev>:
}

// default destructor
Timer1::~Timer1()
    4f60:	0c 94 95 35 	jmp	0x6b2a	; 0x6b2a <_ZN6StringD1Ev>

00004f64 <__vector_17>:
{
} //~Timer1

ISR (TIMER1_COMPA_vect)
{
    4f64:	1f 92       	push	r1
    4f66:	0f 92       	push	r0
    4f68:	0f b6       	in	r0, 0x3f	; 63
    4f6a:	0f 92       	push	r0
    4f6c:	11 24       	eor	r1, r1
    4f6e:	0b b6       	in	r0, 0x3b	; 59
    4f70:	0f 92       	push	r0
    4f72:	2f 93       	push	r18
    4f74:	3f 93       	push	r19
    4f76:	4f 93       	push	r20
    4f78:	5f 93       	push	r21
    4f7a:	6f 93       	push	r22
    4f7c:	7f 93       	push	r23
    4f7e:	8f 93       	push	r24
    4f80:	9f 93       	push	r25
    4f82:	af 93       	push	r26
    4f84:	bf 93       	push	r27
    4f86:	ef 93       	push	r30
    4f88:	ff 93       	push	r31
	_intFunc();
    4f8a:	e0 91 3b 06 	lds	r30, 0x063B	; 0x80063b <_ZL8_intFunc>
    4f8e:	f0 91 3c 06 	lds	r31, 0x063C	; 0x80063c <_ZL8_intFunc+0x1>
    4f92:	19 95       	eicall
    4f94:	ff 91       	pop	r31
    4f96:	ef 91       	pop	r30
    4f98:	bf 91       	pop	r27
    4f9a:	af 91       	pop	r26
    4f9c:	9f 91       	pop	r25
    4f9e:	8f 91       	pop	r24
    4fa0:	7f 91       	pop	r23
    4fa2:	6f 91       	pop	r22
    4fa4:	5f 91       	pop	r21
    4fa6:	4f 91       	pop	r20
    4fa8:	3f 91       	pop	r19
    4faa:	2f 91       	pop	r18
    4fac:	0f 90       	pop	r0
    4fae:	0b be       	out	0x3b, r0	; 59
    4fb0:	0f 90       	pop	r0
    4fb2:	0f be       	out	0x3f, r0	; 63
    4fb4:	0f 90       	pop	r0
    4fb6:	1f 90       	pop	r1
    4fb8:	18 95       	reti

00004fba <__subsf3>:
    4fba:	50 58       	subi	r21, 0x80	; 128

00004fbc <__addsf3>:
    4fbc:	bb 27       	eor	r27, r27
    4fbe:	aa 27       	eor	r26, r26
    4fc0:	0e d0       	rcall	.+28     	; 0x4fde <__addsf3x>
    4fc2:	83 c2       	rjmp	.+1286   	; 0x54ca <__fp_round>
    4fc4:	4c d2       	rcall	.+1176   	; 0x545e <__fp_pscA>
    4fc6:	30 f0       	brcs	.+12     	; 0x4fd4 <__addsf3+0x18>
    4fc8:	51 d2       	rcall	.+1186   	; 0x546c <__fp_pscB>
    4fca:	20 f0       	brcs	.+8      	; 0x4fd4 <__addsf3+0x18>
    4fcc:	31 f4       	brne	.+12     	; 0x4fda <__addsf3+0x1e>
    4fce:	9f 3f       	cpi	r25, 0xFF	; 255
    4fd0:	11 f4       	brne	.+4      	; 0x4fd6 <__addsf3+0x1a>
    4fd2:	1e f4       	brtc	.+6      	; 0x4fda <__addsf3+0x1e>
    4fd4:	1c c2       	rjmp	.+1080   	; 0x540e <__fp_nan>
    4fd6:	0e f4       	brtc	.+2      	; 0x4fda <__addsf3+0x1e>
    4fd8:	e0 95       	com	r30
    4fda:	e7 fb       	bst	r30, 7
    4fdc:	04 c2       	rjmp	.+1032   	; 0x53e6 <__fp_inf>

00004fde <__addsf3x>:
    4fde:	e9 2f       	mov	r30, r25
    4fe0:	96 d2       	rcall	.+1324   	; 0x550e <__fp_split3>
    4fe2:	80 f3       	brcs	.-32     	; 0x4fc4 <__addsf3+0x8>
    4fe4:	ba 17       	cp	r27, r26
    4fe6:	62 07       	cpc	r22, r18
    4fe8:	73 07       	cpc	r23, r19
    4fea:	84 07       	cpc	r24, r20
    4fec:	95 07       	cpc	r25, r21
    4fee:	18 f0       	brcs	.+6      	; 0x4ff6 <__addsf3x+0x18>
    4ff0:	71 f4       	brne	.+28     	; 0x500e <__addsf3x+0x30>
    4ff2:	9e f5       	brtc	.+102    	; 0x505a <__addsf3x+0x7c>
    4ff4:	ae c2       	rjmp	.+1372   	; 0x5552 <__fp_zero>
    4ff6:	0e f4       	brtc	.+2      	; 0x4ffa <__addsf3x+0x1c>
    4ff8:	e0 95       	com	r30
    4ffa:	0b 2e       	mov	r0, r27
    4ffc:	ba 2f       	mov	r27, r26
    4ffe:	a0 2d       	mov	r26, r0
    5000:	0b 01       	movw	r0, r22
    5002:	b9 01       	movw	r22, r18
    5004:	90 01       	movw	r18, r0
    5006:	0c 01       	movw	r0, r24
    5008:	ca 01       	movw	r24, r20
    500a:	a0 01       	movw	r20, r0
    500c:	11 24       	eor	r1, r1
    500e:	ff 27       	eor	r31, r31
    5010:	59 1b       	sub	r21, r25
    5012:	99 f0       	breq	.+38     	; 0x503a <__addsf3x+0x5c>
    5014:	59 3f       	cpi	r21, 0xF9	; 249
    5016:	50 f4       	brcc	.+20     	; 0x502c <__addsf3x+0x4e>
    5018:	50 3e       	cpi	r21, 0xE0	; 224
    501a:	68 f1       	brcs	.+90     	; 0x5076 <__addsf3x+0x98>
    501c:	1a 16       	cp	r1, r26
    501e:	f0 40       	sbci	r31, 0x00	; 0
    5020:	a2 2f       	mov	r26, r18
    5022:	23 2f       	mov	r18, r19
    5024:	34 2f       	mov	r19, r20
    5026:	44 27       	eor	r20, r20
    5028:	58 5f       	subi	r21, 0xF8	; 248
    502a:	f3 cf       	rjmp	.-26     	; 0x5012 <__addsf3x+0x34>
    502c:	46 95       	lsr	r20
    502e:	37 95       	ror	r19
    5030:	27 95       	ror	r18
    5032:	a7 95       	ror	r26
    5034:	f0 40       	sbci	r31, 0x00	; 0
    5036:	53 95       	inc	r21
    5038:	c9 f7       	brne	.-14     	; 0x502c <__addsf3x+0x4e>
    503a:	7e f4       	brtc	.+30     	; 0x505a <__addsf3x+0x7c>
    503c:	1f 16       	cp	r1, r31
    503e:	ba 0b       	sbc	r27, r26
    5040:	62 0b       	sbc	r22, r18
    5042:	73 0b       	sbc	r23, r19
    5044:	84 0b       	sbc	r24, r20
    5046:	ba f0       	brmi	.+46     	; 0x5076 <__addsf3x+0x98>
    5048:	91 50       	subi	r25, 0x01	; 1
    504a:	a1 f0       	breq	.+40     	; 0x5074 <__addsf3x+0x96>
    504c:	ff 0f       	add	r31, r31
    504e:	bb 1f       	adc	r27, r27
    5050:	66 1f       	adc	r22, r22
    5052:	77 1f       	adc	r23, r23
    5054:	88 1f       	adc	r24, r24
    5056:	c2 f7       	brpl	.-16     	; 0x5048 <__addsf3x+0x6a>
    5058:	0e c0       	rjmp	.+28     	; 0x5076 <__addsf3x+0x98>
    505a:	ba 0f       	add	r27, r26
    505c:	62 1f       	adc	r22, r18
    505e:	73 1f       	adc	r23, r19
    5060:	84 1f       	adc	r24, r20
    5062:	48 f4       	brcc	.+18     	; 0x5076 <__addsf3x+0x98>
    5064:	87 95       	ror	r24
    5066:	77 95       	ror	r23
    5068:	67 95       	ror	r22
    506a:	b7 95       	ror	r27
    506c:	f7 95       	ror	r31
    506e:	9e 3f       	cpi	r25, 0xFE	; 254
    5070:	08 f0       	brcs	.+2      	; 0x5074 <__addsf3x+0x96>
    5072:	b3 cf       	rjmp	.-154    	; 0x4fda <__addsf3+0x1e>
    5074:	93 95       	inc	r25
    5076:	88 0f       	add	r24, r24
    5078:	08 f0       	brcs	.+2      	; 0x507c <__addsf3x+0x9e>
    507a:	99 27       	eor	r25, r25
    507c:	ee 0f       	add	r30, r30
    507e:	97 95       	ror	r25
    5080:	87 95       	ror	r24
    5082:	08 95       	ret
    5084:	ec d1       	rcall	.+984    	; 0x545e <__fp_pscA>
    5086:	58 f0       	brcs	.+22     	; 0x509e <__addsf3x+0xc0>
    5088:	80 e8       	ldi	r24, 0x80	; 128
    508a:	91 e0       	ldi	r25, 0x01	; 1
    508c:	09 f4       	brne	.+2      	; 0x5090 <__addsf3x+0xb2>
    508e:	9e ef       	ldi	r25, 0xFE	; 254
    5090:	ed d1       	rcall	.+986    	; 0x546c <__fp_pscB>
    5092:	28 f0       	brcs	.+10     	; 0x509e <__addsf3x+0xc0>
    5094:	40 e8       	ldi	r20, 0x80	; 128
    5096:	51 e0       	ldi	r21, 0x01	; 1
    5098:	59 f4       	brne	.+22     	; 0x50b0 <atan2+0xe>
    509a:	5e ef       	ldi	r21, 0xFE	; 254
    509c:	09 c0       	rjmp	.+18     	; 0x50b0 <atan2+0xe>
    509e:	b7 c1       	rjmp	.+878    	; 0x540e <__fp_nan>
    50a0:	58 c2       	rjmp	.+1200   	; 0x5552 <__fp_zero>

000050a2 <atan2>:
    50a2:	e9 2f       	mov	r30, r25
    50a4:	e0 78       	andi	r30, 0x80	; 128
    50a6:	33 d2       	rcall	.+1126   	; 0x550e <__fp_split3>
    50a8:	68 f3       	brcs	.-38     	; 0x5084 <__addsf3x+0xa6>
    50aa:	09 2e       	mov	r0, r25
    50ac:	05 2a       	or	r0, r21
    50ae:	c1 f3       	breq	.-16     	; 0x50a0 <__addsf3x+0xc2>
    50b0:	26 17       	cp	r18, r22
    50b2:	37 07       	cpc	r19, r23
    50b4:	48 07       	cpc	r20, r24
    50b6:	59 07       	cpc	r21, r25
    50b8:	38 f0       	brcs	.+14     	; 0x50c8 <atan2+0x26>
    50ba:	0e 2e       	mov	r0, r30
    50bc:	07 f8       	bld	r0, 7
    50be:	e0 25       	eor	r30, r0
    50c0:	69 f0       	breq	.+26     	; 0x50dc <atan2+0x3a>
    50c2:	e0 25       	eor	r30, r0
    50c4:	e0 64       	ori	r30, 0x40	; 64
    50c6:	0a c0       	rjmp	.+20     	; 0x50dc <atan2+0x3a>
    50c8:	ef 63       	ori	r30, 0x3F	; 63
    50ca:	07 f8       	bld	r0, 7
    50cc:	00 94       	com	r0
    50ce:	07 fa       	bst	r0, 7
    50d0:	db 01       	movw	r26, r22
    50d2:	b9 01       	movw	r22, r18
    50d4:	9d 01       	movw	r18, r26
    50d6:	dc 01       	movw	r26, r24
    50d8:	ca 01       	movw	r24, r20
    50da:	ad 01       	movw	r20, r26
    50dc:	ef 93       	push	r30
    50de:	4a d0       	rcall	.+148    	; 0x5174 <__divsf3_pse>
    50e0:	f4 d1       	rcall	.+1000   	; 0x54ca <__fp_round>
    50e2:	0a d0       	rcall	.+20     	; 0x50f8 <atan>
    50e4:	5f 91       	pop	r21
    50e6:	55 23       	and	r21, r21
    50e8:	31 f0       	breq	.+12     	; 0x50f6 <atan2+0x54>
    50ea:	2b ed       	ldi	r18, 0xDB	; 219
    50ec:	3f e0       	ldi	r19, 0x0F	; 15
    50ee:	49 e4       	ldi	r20, 0x49	; 73
    50f0:	50 fd       	sbrc	r21, 0
    50f2:	49 ec       	ldi	r20, 0xC9	; 201
    50f4:	63 cf       	rjmp	.-314    	; 0x4fbc <__addsf3>
    50f6:	08 95       	ret

000050f8 <atan>:
    50f8:	df 93       	push	r29
    50fa:	dd 27       	eor	r29, r29
    50fc:	b9 2f       	mov	r27, r25
    50fe:	bf 77       	andi	r27, 0x7F	; 127
    5100:	40 e8       	ldi	r20, 0x80	; 128
    5102:	5f e3       	ldi	r21, 0x3F	; 63
    5104:	16 16       	cp	r1, r22
    5106:	17 06       	cpc	r1, r23
    5108:	48 07       	cpc	r20, r24
    510a:	5b 07       	cpc	r21, r27
    510c:	10 f4       	brcc	.+4      	; 0x5112 <atan+0x1a>
    510e:	d9 2f       	mov	r29, r25
    5110:	2b d2       	rcall	.+1110   	; 0x5568 <inverse>
    5112:	9f 93       	push	r25
    5114:	8f 93       	push	r24
    5116:	7f 93       	push	r23
    5118:	6f 93       	push	r22
    511a:	24 d3       	rcall	.+1608   	; 0x5764 <square>
    511c:	e4 ee       	ldi	r30, 0xE4	; 228
    511e:	f0 e0       	ldi	r31, 0x00	; 0
    5120:	79 d1       	rcall	.+754    	; 0x5414 <__fp_powser>
    5122:	d3 d1       	rcall	.+934    	; 0x54ca <__fp_round>
    5124:	2f 91       	pop	r18
    5126:	3f 91       	pop	r19
    5128:	4f 91       	pop	r20
    512a:	5f 91       	pop	r21
    512c:	30 d2       	rcall	.+1120   	; 0x558e <__mulsf3x>
    512e:	dd 23       	and	r29, r29
    5130:	49 f0       	breq	.+18     	; 0x5144 <atan+0x4c>
    5132:	90 58       	subi	r25, 0x80	; 128
    5134:	a2 ea       	ldi	r26, 0xA2	; 162
    5136:	2a ed       	ldi	r18, 0xDA	; 218
    5138:	3f e0       	ldi	r19, 0x0F	; 15
    513a:	49 ec       	ldi	r20, 0xC9	; 201
    513c:	5f e3       	ldi	r21, 0x3F	; 63
    513e:	d0 78       	andi	r29, 0x80	; 128
    5140:	5d 27       	eor	r21, r29
    5142:	4d df       	rcall	.-358    	; 0x4fde <__addsf3x>
    5144:	df 91       	pop	r29
    5146:	c1 c1       	rjmp	.+898    	; 0x54ca <__fp_round>

00005148 <__cmpsf2>:
    5148:	2a d1       	rcall	.+596    	; 0x539e <__fp_cmp>
    514a:	08 f4       	brcc	.+2      	; 0x514e <__cmpsf2+0x6>
    514c:	81 e0       	ldi	r24, 0x01	; 1
    514e:	08 95       	ret

00005150 <cos>:
    5150:	95 d1       	rcall	.+810    	; 0x547c <__fp_rempio2>
    5152:	e3 95       	inc	r30
    5154:	cb c1       	rjmp	.+918    	; 0x54ec <__fp_sinus>

00005156 <__divsf3>:
    5156:	0c d0       	rcall	.+24     	; 0x5170 <__divsf3x>
    5158:	b8 c1       	rjmp	.+880    	; 0x54ca <__fp_round>
    515a:	88 d1       	rcall	.+784    	; 0x546c <__fp_pscB>
    515c:	40 f0       	brcs	.+16     	; 0x516e <__divsf3+0x18>
    515e:	7f d1       	rcall	.+766    	; 0x545e <__fp_pscA>
    5160:	30 f0       	brcs	.+12     	; 0x516e <__divsf3+0x18>
    5162:	21 f4       	brne	.+8      	; 0x516c <__divsf3+0x16>
    5164:	5f 3f       	cpi	r21, 0xFF	; 255
    5166:	19 f0       	breq	.+6      	; 0x516e <__divsf3+0x18>
    5168:	3e c1       	rjmp	.+636    	; 0x53e6 <__fp_inf>
    516a:	51 11       	cpse	r21, r1
    516c:	f3 c1       	rjmp	.+998    	; 0x5554 <__fp_szero>
    516e:	4f c1       	rjmp	.+670    	; 0x540e <__fp_nan>

00005170 <__divsf3x>:
    5170:	ce d1       	rcall	.+924    	; 0x550e <__fp_split3>
    5172:	98 f3       	brcs	.-26     	; 0x515a <__divsf3+0x4>

00005174 <__divsf3_pse>:
    5174:	99 23       	and	r25, r25
    5176:	c9 f3       	breq	.-14     	; 0x516a <__divsf3+0x14>
    5178:	55 23       	and	r21, r21
    517a:	b1 f3       	breq	.-20     	; 0x5168 <__divsf3+0x12>
    517c:	95 1b       	sub	r25, r21
    517e:	55 0b       	sbc	r21, r21
    5180:	bb 27       	eor	r27, r27
    5182:	aa 27       	eor	r26, r26
    5184:	62 17       	cp	r22, r18
    5186:	73 07       	cpc	r23, r19
    5188:	84 07       	cpc	r24, r20
    518a:	38 f0       	brcs	.+14     	; 0x519a <__divsf3_pse+0x26>
    518c:	9f 5f       	subi	r25, 0xFF	; 255
    518e:	5f 4f       	sbci	r21, 0xFF	; 255
    5190:	22 0f       	add	r18, r18
    5192:	33 1f       	adc	r19, r19
    5194:	44 1f       	adc	r20, r20
    5196:	aa 1f       	adc	r26, r26
    5198:	a9 f3       	breq	.-22     	; 0x5184 <__divsf3_pse+0x10>
    519a:	33 d0       	rcall	.+102    	; 0x5202 <__divsf3_pse+0x8e>
    519c:	0e 2e       	mov	r0, r30
    519e:	3a f0       	brmi	.+14     	; 0x51ae <__divsf3_pse+0x3a>
    51a0:	e0 e8       	ldi	r30, 0x80	; 128
    51a2:	30 d0       	rcall	.+96     	; 0x5204 <__divsf3_pse+0x90>
    51a4:	91 50       	subi	r25, 0x01	; 1
    51a6:	50 40       	sbci	r21, 0x00	; 0
    51a8:	e6 95       	lsr	r30
    51aa:	00 1c       	adc	r0, r0
    51ac:	ca f7       	brpl	.-14     	; 0x51a0 <__divsf3_pse+0x2c>
    51ae:	29 d0       	rcall	.+82     	; 0x5202 <__divsf3_pse+0x8e>
    51b0:	fe 2f       	mov	r31, r30
    51b2:	27 d0       	rcall	.+78     	; 0x5202 <__divsf3_pse+0x8e>
    51b4:	66 0f       	add	r22, r22
    51b6:	77 1f       	adc	r23, r23
    51b8:	88 1f       	adc	r24, r24
    51ba:	bb 1f       	adc	r27, r27
    51bc:	26 17       	cp	r18, r22
    51be:	37 07       	cpc	r19, r23
    51c0:	48 07       	cpc	r20, r24
    51c2:	ab 07       	cpc	r26, r27
    51c4:	b0 e8       	ldi	r27, 0x80	; 128
    51c6:	09 f0       	breq	.+2      	; 0x51ca <__divsf3_pse+0x56>
    51c8:	bb 0b       	sbc	r27, r27
    51ca:	80 2d       	mov	r24, r0
    51cc:	bf 01       	movw	r22, r30
    51ce:	ff 27       	eor	r31, r31
    51d0:	93 58       	subi	r25, 0x83	; 131
    51d2:	5f 4f       	sbci	r21, 0xFF	; 255
    51d4:	2a f0       	brmi	.+10     	; 0x51e0 <__divsf3_pse+0x6c>
    51d6:	9e 3f       	cpi	r25, 0xFE	; 254
    51d8:	51 05       	cpc	r21, r1
    51da:	68 f0       	brcs	.+26     	; 0x51f6 <__divsf3_pse+0x82>
    51dc:	04 c1       	rjmp	.+520    	; 0x53e6 <__fp_inf>
    51de:	ba c1       	rjmp	.+884    	; 0x5554 <__fp_szero>
    51e0:	5f 3f       	cpi	r21, 0xFF	; 255
    51e2:	ec f3       	brlt	.-6      	; 0x51de <__divsf3_pse+0x6a>
    51e4:	98 3e       	cpi	r25, 0xE8	; 232
    51e6:	dc f3       	brlt	.-10     	; 0x51de <__divsf3_pse+0x6a>
    51e8:	86 95       	lsr	r24
    51ea:	77 95       	ror	r23
    51ec:	67 95       	ror	r22
    51ee:	b7 95       	ror	r27
    51f0:	f7 95       	ror	r31
    51f2:	9f 5f       	subi	r25, 0xFF	; 255
    51f4:	c9 f7       	brne	.-14     	; 0x51e8 <__divsf3_pse+0x74>
    51f6:	88 0f       	add	r24, r24
    51f8:	91 1d       	adc	r25, r1
    51fa:	96 95       	lsr	r25
    51fc:	87 95       	ror	r24
    51fe:	97 f9       	bld	r25, 7
    5200:	08 95       	ret
    5202:	e1 e0       	ldi	r30, 0x01	; 1
    5204:	66 0f       	add	r22, r22
    5206:	77 1f       	adc	r23, r23
    5208:	88 1f       	adc	r24, r24
    520a:	bb 1f       	adc	r27, r27
    520c:	62 17       	cp	r22, r18
    520e:	73 07       	cpc	r23, r19
    5210:	84 07       	cpc	r24, r20
    5212:	ba 07       	cpc	r27, r26
    5214:	20 f0       	brcs	.+8      	; 0x521e <__divsf3_pse+0xaa>
    5216:	62 1b       	sub	r22, r18
    5218:	73 0b       	sbc	r23, r19
    521a:	84 0b       	sbc	r24, r20
    521c:	ba 0b       	sbc	r27, r26
    521e:	ee 1f       	adc	r30, r30
    5220:	88 f7       	brcc	.-30     	; 0x5204 <__divsf3_pse+0x90>
    5222:	e0 95       	com	r30
    5224:	08 95       	ret

00005226 <__fixsfsi>:
    5226:	04 d0       	rcall	.+8      	; 0x5230 <__fixunssfsi>
    5228:	68 94       	set
    522a:	b1 11       	cpse	r27, r1
    522c:	93 c1       	rjmp	.+806    	; 0x5554 <__fp_szero>
    522e:	08 95       	ret

00005230 <__fixunssfsi>:
    5230:	76 d1       	rcall	.+748    	; 0x551e <__fp_splitA>
    5232:	88 f0       	brcs	.+34     	; 0x5256 <__fixunssfsi+0x26>
    5234:	9f 57       	subi	r25, 0x7F	; 127
    5236:	90 f0       	brcs	.+36     	; 0x525c <__fixunssfsi+0x2c>
    5238:	b9 2f       	mov	r27, r25
    523a:	99 27       	eor	r25, r25
    523c:	b7 51       	subi	r27, 0x17	; 23
    523e:	a0 f0       	brcs	.+40     	; 0x5268 <__fixunssfsi+0x38>
    5240:	d1 f0       	breq	.+52     	; 0x5276 <__fixunssfsi+0x46>
    5242:	66 0f       	add	r22, r22
    5244:	77 1f       	adc	r23, r23
    5246:	88 1f       	adc	r24, r24
    5248:	99 1f       	adc	r25, r25
    524a:	1a f0       	brmi	.+6      	; 0x5252 <__fixunssfsi+0x22>
    524c:	ba 95       	dec	r27
    524e:	c9 f7       	brne	.-14     	; 0x5242 <__fixunssfsi+0x12>
    5250:	12 c0       	rjmp	.+36     	; 0x5276 <__fixunssfsi+0x46>
    5252:	b1 30       	cpi	r27, 0x01	; 1
    5254:	81 f0       	breq	.+32     	; 0x5276 <__fixunssfsi+0x46>
    5256:	7d d1       	rcall	.+762    	; 0x5552 <__fp_zero>
    5258:	b1 e0       	ldi	r27, 0x01	; 1
    525a:	08 95       	ret
    525c:	7a c1       	rjmp	.+756    	; 0x5552 <__fp_zero>
    525e:	67 2f       	mov	r22, r23
    5260:	78 2f       	mov	r23, r24
    5262:	88 27       	eor	r24, r24
    5264:	b8 5f       	subi	r27, 0xF8	; 248
    5266:	39 f0       	breq	.+14     	; 0x5276 <__fixunssfsi+0x46>
    5268:	b9 3f       	cpi	r27, 0xF9	; 249
    526a:	cc f3       	brlt	.-14     	; 0x525e <__fixunssfsi+0x2e>
    526c:	86 95       	lsr	r24
    526e:	77 95       	ror	r23
    5270:	67 95       	ror	r22
    5272:	b3 95       	inc	r27
    5274:	d9 f7       	brne	.-10     	; 0x526c <__fixunssfsi+0x3c>
    5276:	3e f4       	brtc	.+14     	; 0x5286 <__fixunssfsi+0x56>
    5278:	90 95       	com	r25
    527a:	80 95       	com	r24
    527c:	70 95       	com	r23
    527e:	61 95       	neg	r22
    5280:	7f 4f       	sbci	r23, 0xFF	; 255
    5282:	8f 4f       	sbci	r24, 0xFF	; 255
    5284:	9f 4f       	sbci	r25, 0xFF	; 255
    5286:	08 95       	ret

00005288 <__floatunsisf>:
    5288:	e8 94       	clt
    528a:	09 c0       	rjmp	.+18     	; 0x529e <__floatsisf+0x12>

0000528c <__floatsisf>:
    528c:	97 fb       	bst	r25, 7
    528e:	3e f4       	brtc	.+14     	; 0x529e <__floatsisf+0x12>
    5290:	90 95       	com	r25
    5292:	80 95       	com	r24
    5294:	70 95       	com	r23
    5296:	61 95       	neg	r22
    5298:	7f 4f       	sbci	r23, 0xFF	; 255
    529a:	8f 4f       	sbci	r24, 0xFF	; 255
    529c:	9f 4f       	sbci	r25, 0xFF	; 255
    529e:	99 23       	and	r25, r25
    52a0:	a9 f0       	breq	.+42     	; 0x52cc <__floatsisf+0x40>
    52a2:	f9 2f       	mov	r31, r25
    52a4:	96 e9       	ldi	r25, 0x96	; 150
    52a6:	bb 27       	eor	r27, r27
    52a8:	93 95       	inc	r25
    52aa:	f6 95       	lsr	r31
    52ac:	87 95       	ror	r24
    52ae:	77 95       	ror	r23
    52b0:	67 95       	ror	r22
    52b2:	b7 95       	ror	r27
    52b4:	f1 11       	cpse	r31, r1
    52b6:	f8 cf       	rjmp	.-16     	; 0x52a8 <__floatsisf+0x1c>
    52b8:	fa f4       	brpl	.+62     	; 0x52f8 <__floatsisf+0x6c>
    52ba:	bb 0f       	add	r27, r27
    52bc:	11 f4       	brne	.+4      	; 0x52c2 <__floatsisf+0x36>
    52be:	60 ff       	sbrs	r22, 0
    52c0:	1b c0       	rjmp	.+54     	; 0x52f8 <__floatsisf+0x6c>
    52c2:	6f 5f       	subi	r22, 0xFF	; 255
    52c4:	7f 4f       	sbci	r23, 0xFF	; 255
    52c6:	8f 4f       	sbci	r24, 0xFF	; 255
    52c8:	9f 4f       	sbci	r25, 0xFF	; 255
    52ca:	16 c0       	rjmp	.+44     	; 0x52f8 <__floatsisf+0x6c>
    52cc:	88 23       	and	r24, r24
    52ce:	11 f0       	breq	.+4      	; 0x52d4 <__floatsisf+0x48>
    52d0:	96 e9       	ldi	r25, 0x96	; 150
    52d2:	11 c0       	rjmp	.+34     	; 0x52f6 <__floatsisf+0x6a>
    52d4:	77 23       	and	r23, r23
    52d6:	21 f0       	breq	.+8      	; 0x52e0 <__floatsisf+0x54>
    52d8:	9e e8       	ldi	r25, 0x8E	; 142
    52da:	87 2f       	mov	r24, r23
    52dc:	76 2f       	mov	r23, r22
    52de:	05 c0       	rjmp	.+10     	; 0x52ea <__floatsisf+0x5e>
    52e0:	66 23       	and	r22, r22
    52e2:	71 f0       	breq	.+28     	; 0x5300 <__floatsisf+0x74>
    52e4:	96 e8       	ldi	r25, 0x86	; 134
    52e6:	86 2f       	mov	r24, r22
    52e8:	70 e0       	ldi	r23, 0x00	; 0
    52ea:	60 e0       	ldi	r22, 0x00	; 0
    52ec:	2a f0       	brmi	.+10     	; 0x52f8 <__floatsisf+0x6c>
    52ee:	9a 95       	dec	r25
    52f0:	66 0f       	add	r22, r22
    52f2:	77 1f       	adc	r23, r23
    52f4:	88 1f       	adc	r24, r24
    52f6:	da f7       	brpl	.-10     	; 0x52ee <__floatsisf+0x62>
    52f8:	88 0f       	add	r24, r24
    52fa:	96 95       	lsr	r25
    52fc:	87 95       	ror	r24
    52fe:	97 f9       	bld	r25, 7
    5300:	08 95       	ret
    5302:	ad d0       	rcall	.+346    	; 0x545e <__fp_pscA>
    5304:	18 f0       	brcs	.+6      	; 0x530c <__floatsisf+0x80>
    5306:	11 f0       	breq	.+4      	; 0x530c <__floatsisf+0x80>
    5308:	b1 d0       	rcall	.+354    	; 0x546c <__fp_pscB>
    530a:	38 f4       	brcc	.+14     	; 0x531a <fmod+0xa>
    530c:	80 c0       	rjmp	.+256    	; 0x540e <__fp_nan>
    530e:	22 c1       	rjmp	.+580    	; 0x5554 <__fp_szero>

00005310 <fmod>:
    5310:	e9 2f       	mov	r30, r25
    5312:	fd d0       	rcall	.+506    	; 0x550e <__fp_split3>
    5314:	b0 f3       	brcs	.-20     	; 0x5302 <__floatsisf+0x76>
    5316:	55 23       	and	r21, r21
    5318:	c9 f3       	breq	.-14     	; 0x530c <__floatsisf+0x80>
    531a:	e7 fb       	bst	r30, 7
    531c:	62 17       	cp	r22, r18
    531e:	73 07       	cpc	r23, r19
    5320:	84 07       	cpc	r24, r20
    5322:	95 07       	cpc	r25, r21
    5324:	a8 f1       	brcs	.+106    	; 0x5390 <fmod+0x80>
    5326:	99 f3       	breq	.-26     	; 0x530e <__floatsisf+0x82>
    5328:	e9 2f       	mov	r30, r25
    532a:	ff 27       	eor	r31, r31
    532c:	88 23       	and	r24, r24
    532e:	2a f0       	brmi	.+10     	; 0x533a <fmod+0x2a>
    5330:	31 97       	sbiw	r30, 0x01	; 1
    5332:	66 0f       	add	r22, r22
    5334:	77 1f       	adc	r23, r23
    5336:	88 1f       	adc	r24, r24
    5338:	da f7       	brpl	.-10     	; 0x5330 <fmod+0x20>
    533a:	95 2f       	mov	r25, r21
    533c:	55 27       	eor	r21, r21
    533e:	44 23       	and	r20, r20
    5340:	32 f0       	brmi	.+12     	; 0x534e <fmod+0x3e>
    5342:	91 50       	subi	r25, 0x01	; 1
    5344:	50 40       	sbci	r21, 0x00	; 0
    5346:	22 0f       	add	r18, r18
    5348:	33 1f       	adc	r19, r19
    534a:	44 1f       	adc	r20, r20
    534c:	d2 f7       	brpl	.-12     	; 0x5342 <fmod+0x32>
    534e:	bb 27       	eor	r27, r27
    5350:	e9 1b       	sub	r30, r25
    5352:	f5 0b       	sbc	r31, r21
    5354:	62 1b       	sub	r22, r18
    5356:	73 0b       	sbc	r23, r19
    5358:	84 0b       	sbc	r24, r20
    535a:	b1 09       	sbc	r27, r1
    535c:	c1 f2       	breq	.-80     	; 0x530e <__floatsisf+0x82>
    535e:	22 f4       	brpl	.+8      	; 0x5368 <fmod+0x58>
    5360:	62 0f       	add	r22, r18
    5362:	73 1f       	adc	r23, r19
    5364:	84 1f       	adc	r24, r20
    5366:	b1 1d       	adc	r27, r1
    5368:	31 97       	sbiw	r30, 0x01	; 1
    536a:	2a f0       	brmi	.+10     	; 0x5376 <fmod+0x66>
    536c:	66 0f       	add	r22, r22
    536e:	77 1f       	adc	r23, r23
    5370:	88 1f       	adc	r24, r24
    5372:	bb 1f       	adc	r27, r27
    5374:	ef cf       	rjmp	.-34     	; 0x5354 <fmod+0x44>
    5376:	91 50       	subi	r25, 0x01	; 1
    5378:	50 40       	sbci	r21, 0x00	; 0
    537a:	5a f0       	brmi	.+22     	; 0x5392 <fmod+0x82>
    537c:	41 f0       	breq	.+16     	; 0x538e <fmod+0x7e>
    537e:	88 23       	and	r24, r24
    5380:	32 f0       	brmi	.+12     	; 0x538e <fmod+0x7e>
    5382:	66 0f       	add	r22, r22
    5384:	77 1f       	adc	r23, r23
    5386:	88 1f       	adc	r24, r24
    5388:	91 50       	subi	r25, 0x01	; 1
    538a:	50 40       	sbci	r21, 0x00	; 0
    538c:	c1 f7       	brne	.-16     	; 0x537e <fmod+0x6e>
    538e:	93 95       	inc	r25
    5390:	30 c0       	rjmp	.+96     	; 0x53f2 <__fp_mpack>
    5392:	86 95       	lsr	r24
    5394:	77 95       	ror	r23
    5396:	67 95       	ror	r22
    5398:	9f 5f       	subi	r25, 0xFF	; 255
    539a:	d9 f7       	brne	.-10     	; 0x5392 <fmod+0x82>
    539c:	f8 cf       	rjmp	.-16     	; 0x538e <fmod+0x7e>

0000539e <__fp_cmp>:
    539e:	99 0f       	add	r25, r25
    53a0:	00 08       	sbc	r0, r0
    53a2:	55 0f       	add	r21, r21
    53a4:	aa 0b       	sbc	r26, r26
    53a6:	e0 e8       	ldi	r30, 0x80	; 128
    53a8:	fe ef       	ldi	r31, 0xFE	; 254
    53aa:	16 16       	cp	r1, r22
    53ac:	17 06       	cpc	r1, r23
    53ae:	e8 07       	cpc	r30, r24
    53b0:	f9 07       	cpc	r31, r25
    53b2:	c0 f0       	brcs	.+48     	; 0x53e4 <__fp_cmp+0x46>
    53b4:	12 16       	cp	r1, r18
    53b6:	13 06       	cpc	r1, r19
    53b8:	e4 07       	cpc	r30, r20
    53ba:	f5 07       	cpc	r31, r21
    53bc:	98 f0       	brcs	.+38     	; 0x53e4 <__fp_cmp+0x46>
    53be:	62 1b       	sub	r22, r18
    53c0:	73 0b       	sbc	r23, r19
    53c2:	84 0b       	sbc	r24, r20
    53c4:	95 0b       	sbc	r25, r21
    53c6:	39 f4       	brne	.+14     	; 0x53d6 <__fp_cmp+0x38>
    53c8:	0a 26       	eor	r0, r26
    53ca:	61 f0       	breq	.+24     	; 0x53e4 <__fp_cmp+0x46>
    53cc:	23 2b       	or	r18, r19
    53ce:	24 2b       	or	r18, r20
    53d0:	25 2b       	or	r18, r21
    53d2:	21 f4       	brne	.+8      	; 0x53dc <__fp_cmp+0x3e>
    53d4:	08 95       	ret
    53d6:	0a 26       	eor	r0, r26
    53d8:	09 f4       	brne	.+2      	; 0x53dc <__fp_cmp+0x3e>
    53da:	a1 40       	sbci	r26, 0x01	; 1
    53dc:	a6 95       	lsr	r26
    53de:	8f ef       	ldi	r24, 0xFF	; 255
    53e0:	81 1d       	adc	r24, r1
    53e2:	81 1d       	adc	r24, r1
    53e4:	08 95       	ret

000053e6 <__fp_inf>:
    53e6:	97 f9       	bld	r25, 7
    53e8:	9f 67       	ori	r25, 0x7F	; 127
    53ea:	80 e8       	ldi	r24, 0x80	; 128
    53ec:	70 e0       	ldi	r23, 0x00	; 0
    53ee:	60 e0       	ldi	r22, 0x00	; 0
    53f0:	08 95       	ret

000053f2 <__fp_mpack>:
    53f2:	9f 3f       	cpi	r25, 0xFF	; 255
    53f4:	31 f0       	breq	.+12     	; 0x5402 <__fp_mpack_finite+0xc>

000053f6 <__fp_mpack_finite>:
    53f6:	91 50       	subi	r25, 0x01	; 1
    53f8:	20 f4       	brcc	.+8      	; 0x5402 <__fp_mpack_finite+0xc>
    53fa:	87 95       	ror	r24
    53fc:	77 95       	ror	r23
    53fe:	67 95       	ror	r22
    5400:	b7 95       	ror	r27
    5402:	88 0f       	add	r24, r24
    5404:	91 1d       	adc	r25, r1
    5406:	96 95       	lsr	r25
    5408:	87 95       	ror	r24
    540a:	97 f9       	bld	r25, 7
    540c:	08 95       	ret

0000540e <__fp_nan>:
    540e:	9f ef       	ldi	r25, 0xFF	; 255
    5410:	80 ec       	ldi	r24, 0xC0	; 192
    5412:	08 95       	ret

00005414 <__fp_powser>:
    5414:	df 93       	push	r29
    5416:	cf 93       	push	r28
    5418:	1f 93       	push	r17
    541a:	0f 93       	push	r16
    541c:	ff 92       	push	r15
    541e:	ef 92       	push	r14
    5420:	df 92       	push	r13
    5422:	7b 01       	movw	r14, r22
    5424:	8c 01       	movw	r16, r24
    5426:	68 94       	set
    5428:	05 c0       	rjmp	.+10     	; 0x5434 <__fp_powser+0x20>
    542a:	da 2e       	mov	r13, r26
    542c:	ef 01       	movw	r28, r30
    542e:	af d0       	rcall	.+350    	; 0x558e <__mulsf3x>
    5430:	fe 01       	movw	r30, r28
    5432:	e8 94       	clt
    5434:	a5 91       	lpm	r26, Z+
    5436:	25 91       	lpm	r18, Z+
    5438:	35 91       	lpm	r19, Z+
    543a:	45 91       	lpm	r20, Z+
    543c:	55 91       	lpm	r21, Z+
    543e:	ae f3       	brts	.-22     	; 0x542a <__fp_powser+0x16>
    5440:	ef 01       	movw	r28, r30
    5442:	cd dd       	rcall	.-1126   	; 0x4fde <__addsf3x>
    5444:	fe 01       	movw	r30, r28
    5446:	97 01       	movw	r18, r14
    5448:	a8 01       	movw	r20, r16
    544a:	da 94       	dec	r13
    544c:	79 f7       	brne	.-34     	; 0x542c <__fp_powser+0x18>
    544e:	df 90       	pop	r13
    5450:	ef 90       	pop	r14
    5452:	ff 90       	pop	r15
    5454:	0f 91       	pop	r16
    5456:	1f 91       	pop	r17
    5458:	cf 91       	pop	r28
    545a:	df 91       	pop	r29
    545c:	08 95       	ret

0000545e <__fp_pscA>:
    545e:	00 24       	eor	r0, r0
    5460:	0a 94       	dec	r0
    5462:	16 16       	cp	r1, r22
    5464:	17 06       	cpc	r1, r23
    5466:	18 06       	cpc	r1, r24
    5468:	09 06       	cpc	r0, r25
    546a:	08 95       	ret

0000546c <__fp_pscB>:
    546c:	00 24       	eor	r0, r0
    546e:	0a 94       	dec	r0
    5470:	12 16       	cp	r1, r18
    5472:	13 06       	cpc	r1, r19
    5474:	14 06       	cpc	r1, r20
    5476:	05 06       	cpc	r0, r21
    5478:	08 95       	ret
    547a:	c9 cf       	rjmp	.-110    	; 0x540e <__fp_nan>

0000547c <__fp_rempio2>:
    547c:	50 d0       	rcall	.+160    	; 0x551e <__fp_splitA>
    547e:	e8 f3       	brcs	.-6      	; 0x547a <__fp_pscB+0xe>
    5480:	e8 94       	clt
    5482:	e0 e0       	ldi	r30, 0x00	; 0
    5484:	bb 27       	eor	r27, r27
    5486:	9f 57       	subi	r25, 0x7F	; 127
    5488:	f0 f0       	brcs	.+60     	; 0x54c6 <__fp_rempio2+0x4a>
    548a:	2a ed       	ldi	r18, 0xDA	; 218
    548c:	3f e0       	ldi	r19, 0x0F	; 15
    548e:	49 ec       	ldi	r20, 0xC9	; 201
    5490:	06 c0       	rjmp	.+12     	; 0x549e <__fp_rempio2+0x22>
    5492:	ee 0f       	add	r30, r30
    5494:	bb 0f       	add	r27, r27
    5496:	66 1f       	adc	r22, r22
    5498:	77 1f       	adc	r23, r23
    549a:	88 1f       	adc	r24, r24
    549c:	28 f0       	brcs	.+10     	; 0x54a8 <__fp_rempio2+0x2c>
    549e:	b2 3a       	cpi	r27, 0xA2	; 162
    54a0:	62 07       	cpc	r22, r18
    54a2:	73 07       	cpc	r23, r19
    54a4:	84 07       	cpc	r24, r20
    54a6:	28 f0       	brcs	.+10     	; 0x54b2 <__fp_rempio2+0x36>
    54a8:	b2 5a       	subi	r27, 0xA2	; 162
    54aa:	62 0b       	sbc	r22, r18
    54ac:	73 0b       	sbc	r23, r19
    54ae:	84 0b       	sbc	r24, r20
    54b0:	e3 95       	inc	r30
    54b2:	9a 95       	dec	r25
    54b4:	72 f7       	brpl	.-36     	; 0x5492 <__fp_rempio2+0x16>
    54b6:	80 38       	cpi	r24, 0x80	; 128
    54b8:	30 f4       	brcc	.+12     	; 0x54c6 <__fp_rempio2+0x4a>
    54ba:	9a 95       	dec	r25
    54bc:	bb 0f       	add	r27, r27
    54be:	66 1f       	adc	r22, r22
    54c0:	77 1f       	adc	r23, r23
    54c2:	88 1f       	adc	r24, r24
    54c4:	d2 f7       	brpl	.-12     	; 0x54ba <__fp_rempio2+0x3e>
    54c6:	90 48       	sbci	r25, 0x80	; 128
    54c8:	96 cf       	rjmp	.-212    	; 0x53f6 <__fp_mpack_finite>

000054ca <__fp_round>:
    54ca:	09 2e       	mov	r0, r25
    54cc:	03 94       	inc	r0
    54ce:	00 0c       	add	r0, r0
    54d0:	11 f4       	brne	.+4      	; 0x54d6 <__fp_round+0xc>
    54d2:	88 23       	and	r24, r24
    54d4:	52 f0       	brmi	.+20     	; 0x54ea <__fp_round+0x20>
    54d6:	bb 0f       	add	r27, r27
    54d8:	40 f4       	brcc	.+16     	; 0x54ea <__fp_round+0x20>
    54da:	bf 2b       	or	r27, r31
    54dc:	11 f4       	brne	.+4      	; 0x54e2 <__fp_round+0x18>
    54de:	60 ff       	sbrs	r22, 0
    54e0:	04 c0       	rjmp	.+8      	; 0x54ea <__fp_round+0x20>
    54e2:	6f 5f       	subi	r22, 0xFF	; 255
    54e4:	7f 4f       	sbci	r23, 0xFF	; 255
    54e6:	8f 4f       	sbci	r24, 0xFF	; 255
    54e8:	9f 4f       	sbci	r25, 0xFF	; 255
    54ea:	08 95       	ret

000054ec <__fp_sinus>:
    54ec:	ef 93       	push	r30
    54ee:	e0 ff       	sbrs	r30, 0
    54f0:	06 c0       	rjmp	.+12     	; 0x54fe <__fp_sinus+0x12>
    54f2:	a2 ea       	ldi	r26, 0xA2	; 162
    54f4:	2a ed       	ldi	r18, 0xDA	; 218
    54f6:	3f e0       	ldi	r19, 0x0F	; 15
    54f8:	49 ec       	ldi	r20, 0xC9	; 201
    54fa:	5f eb       	ldi	r21, 0xBF	; 191
    54fc:	70 dd       	rcall	.-1312   	; 0x4fde <__addsf3x>
    54fe:	e5 df       	rcall	.-54     	; 0x54ca <__fp_round>
    5500:	0f 90       	pop	r0
    5502:	03 94       	inc	r0
    5504:	01 fc       	sbrc	r0, 1
    5506:	90 58       	subi	r25, 0x80	; 128
    5508:	e1 e1       	ldi	r30, 0x11	; 17
    550a:	f1 e0       	ldi	r31, 0x01	; 1
    550c:	66 c1       	rjmp	.+716    	; 0x57da <__fp_powsodd>

0000550e <__fp_split3>:
    550e:	57 fd       	sbrc	r21, 7
    5510:	90 58       	subi	r25, 0x80	; 128
    5512:	44 0f       	add	r20, r20
    5514:	55 1f       	adc	r21, r21
    5516:	59 f0       	breq	.+22     	; 0x552e <__fp_splitA+0x10>
    5518:	5f 3f       	cpi	r21, 0xFF	; 255
    551a:	71 f0       	breq	.+28     	; 0x5538 <__fp_splitA+0x1a>
    551c:	47 95       	ror	r20

0000551e <__fp_splitA>:
    551e:	88 0f       	add	r24, r24
    5520:	97 fb       	bst	r25, 7
    5522:	99 1f       	adc	r25, r25
    5524:	61 f0       	breq	.+24     	; 0x553e <__fp_splitA+0x20>
    5526:	9f 3f       	cpi	r25, 0xFF	; 255
    5528:	79 f0       	breq	.+30     	; 0x5548 <__fp_splitA+0x2a>
    552a:	87 95       	ror	r24
    552c:	08 95       	ret
    552e:	12 16       	cp	r1, r18
    5530:	13 06       	cpc	r1, r19
    5532:	14 06       	cpc	r1, r20
    5534:	55 1f       	adc	r21, r21
    5536:	f2 cf       	rjmp	.-28     	; 0x551c <__fp_split3+0xe>
    5538:	46 95       	lsr	r20
    553a:	f1 df       	rcall	.-30     	; 0x551e <__fp_splitA>
    553c:	08 c0       	rjmp	.+16     	; 0x554e <__fp_splitA+0x30>
    553e:	16 16       	cp	r1, r22
    5540:	17 06       	cpc	r1, r23
    5542:	18 06       	cpc	r1, r24
    5544:	99 1f       	adc	r25, r25
    5546:	f1 cf       	rjmp	.-30     	; 0x552a <__fp_splitA+0xc>
    5548:	86 95       	lsr	r24
    554a:	71 05       	cpc	r23, r1
    554c:	61 05       	cpc	r22, r1
    554e:	08 94       	sec
    5550:	08 95       	ret

00005552 <__fp_zero>:
    5552:	e8 94       	clt

00005554 <__fp_szero>:
    5554:	bb 27       	eor	r27, r27
    5556:	66 27       	eor	r22, r22
    5558:	77 27       	eor	r23, r23
    555a:	cb 01       	movw	r24, r22
    555c:	97 f9       	bld	r25, 7
    555e:	08 95       	ret

00005560 <__gesf2>:
    5560:	1e df       	rcall	.-452    	; 0x539e <__fp_cmp>
    5562:	08 f4       	brcc	.+2      	; 0x5566 <__gesf2+0x6>
    5564:	8f ef       	ldi	r24, 0xFF	; 255
    5566:	08 95       	ret

00005568 <inverse>:
    5568:	9b 01       	movw	r18, r22
    556a:	ac 01       	movw	r20, r24
    556c:	60 e0       	ldi	r22, 0x00	; 0
    556e:	70 e0       	ldi	r23, 0x00	; 0
    5570:	80 e8       	ldi	r24, 0x80	; 128
    5572:	9f e3       	ldi	r25, 0x3F	; 63
    5574:	f0 cd       	rjmp	.-1056   	; 0x5156 <__divsf3>

00005576 <__mulsf3>:
    5576:	0b d0       	rcall	.+22     	; 0x558e <__mulsf3x>
    5578:	a8 cf       	rjmp	.-176    	; 0x54ca <__fp_round>
    557a:	71 df       	rcall	.-286    	; 0x545e <__fp_pscA>
    557c:	28 f0       	brcs	.+10     	; 0x5588 <__mulsf3+0x12>
    557e:	76 df       	rcall	.-276    	; 0x546c <__fp_pscB>
    5580:	18 f0       	brcs	.+6      	; 0x5588 <__mulsf3+0x12>
    5582:	95 23       	and	r25, r21
    5584:	09 f0       	breq	.+2      	; 0x5588 <__mulsf3+0x12>
    5586:	2f cf       	rjmp	.-418    	; 0x53e6 <__fp_inf>
    5588:	42 cf       	rjmp	.-380    	; 0x540e <__fp_nan>
    558a:	11 24       	eor	r1, r1
    558c:	e3 cf       	rjmp	.-58     	; 0x5554 <__fp_szero>

0000558e <__mulsf3x>:
    558e:	bf df       	rcall	.-130    	; 0x550e <__fp_split3>
    5590:	a0 f3       	brcs	.-24     	; 0x557a <__mulsf3+0x4>

00005592 <__mulsf3_pse>:
    5592:	95 9f       	mul	r25, r21
    5594:	d1 f3       	breq	.-12     	; 0x558a <__mulsf3+0x14>
    5596:	95 0f       	add	r25, r21
    5598:	50 e0       	ldi	r21, 0x00	; 0
    559a:	55 1f       	adc	r21, r21
    559c:	62 9f       	mul	r22, r18
    559e:	f0 01       	movw	r30, r0
    55a0:	72 9f       	mul	r23, r18
    55a2:	bb 27       	eor	r27, r27
    55a4:	f0 0d       	add	r31, r0
    55a6:	b1 1d       	adc	r27, r1
    55a8:	63 9f       	mul	r22, r19
    55aa:	aa 27       	eor	r26, r26
    55ac:	f0 0d       	add	r31, r0
    55ae:	b1 1d       	adc	r27, r1
    55b0:	aa 1f       	adc	r26, r26
    55b2:	64 9f       	mul	r22, r20
    55b4:	66 27       	eor	r22, r22
    55b6:	b0 0d       	add	r27, r0
    55b8:	a1 1d       	adc	r26, r1
    55ba:	66 1f       	adc	r22, r22
    55bc:	82 9f       	mul	r24, r18
    55be:	22 27       	eor	r18, r18
    55c0:	b0 0d       	add	r27, r0
    55c2:	a1 1d       	adc	r26, r1
    55c4:	62 1f       	adc	r22, r18
    55c6:	73 9f       	mul	r23, r19
    55c8:	b0 0d       	add	r27, r0
    55ca:	a1 1d       	adc	r26, r1
    55cc:	62 1f       	adc	r22, r18
    55ce:	83 9f       	mul	r24, r19
    55d0:	a0 0d       	add	r26, r0
    55d2:	61 1d       	adc	r22, r1
    55d4:	22 1f       	adc	r18, r18
    55d6:	74 9f       	mul	r23, r20
    55d8:	33 27       	eor	r19, r19
    55da:	a0 0d       	add	r26, r0
    55dc:	61 1d       	adc	r22, r1
    55de:	23 1f       	adc	r18, r19
    55e0:	84 9f       	mul	r24, r20
    55e2:	60 0d       	add	r22, r0
    55e4:	21 1d       	adc	r18, r1
    55e6:	82 2f       	mov	r24, r18
    55e8:	76 2f       	mov	r23, r22
    55ea:	6a 2f       	mov	r22, r26
    55ec:	11 24       	eor	r1, r1
    55ee:	9f 57       	subi	r25, 0x7F	; 127
    55f0:	50 40       	sbci	r21, 0x00	; 0
    55f2:	8a f0       	brmi	.+34     	; 0x5616 <__mulsf3_pse+0x84>
    55f4:	e1 f0       	breq	.+56     	; 0x562e <__mulsf3_pse+0x9c>
    55f6:	88 23       	and	r24, r24
    55f8:	4a f0       	brmi	.+18     	; 0x560c <__mulsf3_pse+0x7a>
    55fa:	ee 0f       	add	r30, r30
    55fc:	ff 1f       	adc	r31, r31
    55fe:	bb 1f       	adc	r27, r27
    5600:	66 1f       	adc	r22, r22
    5602:	77 1f       	adc	r23, r23
    5604:	88 1f       	adc	r24, r24
    5606:	91 50       	subi	r25, 0x01	; 1
    5608:	50 40       	sbci	r21, 0x00	; 0
    560a:	a9 f7       	brne	.-22     	; 0x55f6 <__mulsf3_pse+0x64>
    560c:	9e 3f       	cpi	r25, 0xFE	; 254
    560e:	51 05       	cpc	r21, r1
    5610:	70 f0       	brcs	.+28     	; 0x562e <__mulsf3_pse+0x9c>
    5612:	e9 ce       	rjmp	.-558    	; 0x53e6 <__fp_inf>
    5614:	9f cf       	rjmp	.-194    	; 0x5554 <__fp_szero>
    5616:	5f 3f       	cpi	r21, 0xFF	; 255
    5618:	ec f3       	brlt	.-6      	; 0x5614 <__mulsf3_pse+0x82>
    561a:	98 3e       	cpi	r25, 0xE8	; 232
    561c:	dc f3       	brlt	.-10     	; 0x5614 <__mulsf3_pse+0x82>
    561e:	86 95       	lsr	r24
    5620:	77 95       	ror	r23
    5622:	67 95       	ror	r22
    5624:	b7 95       	ror	r27
    5626:	f7 95       	ror	r31
    5628:	e7 95       	ror	r30
    562a:	9f 5f       	subi	r25, 0xFF	; 255
    562c:	c1 f7       	brne	.-16     	; 0x561e <__mulsf3_pse+0x8c>
    562e:	fe 2b       	or	r31, r30
    5630:	88 0f       	add	r24, r24
    5632:	91 1d       	adc	r25, r1
    5634:	96 95       	lsr	r25
    5636:	87 95       	ror	r24
    5638:	97 f9       	bld	r25, 7
    563a:	08 95       	ret

0000563c <pow>:
    563c:	fa 01       	movw	r30, r20
    563e:	ee 0f       	add	r30, r30
    5640:	ff 1f       	adc	r31, r31
    5642:	30 96       	adiw	r30, 0x00	; 0
    5644:	21 05       	cpc	r18, r1
    5646:	31 05       	cpc	r19, r1
    5648:	99 f1       	breq	.+102    	; 0x56b0 <pow+0x74>
    564a:	61 15       	cp	r22, r1
    564c:	71 05       	cpc	r23, r1
    564e:	61 f4       	brne	.+24     	; 0x5668 <pow+0x2c>
    5650:	80 38       	cpi	r24, 0x80	; 128
    5652:	bf e3       	ldi	r27, 0x3F	; 63
    5654:	9b 07       	cpc	r25, r27
    5656:	49 f1       	breq	.+82     	; 0x56aa <pow+0x6e>
    5658:	68 94       	set
    565a:	90 38       	cpi	r25, 0x80	; 128
    565c:	81 05       	cpc	r24, r1
    565e:	61 f0       	breq	.+24     	; 0x5678 <pow+0x3c>
    5660:	80 38       	cpi	r24, 0x80	; 128
    5662:	bf ef       	ldi	r27, 0xFF	; 255
    5664:	9b 07       	cpc	r25, r27
    5666:	41 f0       	breq	.+16     	; 0x5678 <pow+0x3c>
    5668:	99 23       	and	r25, r25
    566a:	42 f5       	brpl	.+80     	; 0x56bc <pow+0x80>
    566c:	ff 3f       	cpi	r31, 0xFF	; 255
    566e:	e1 05       	cpc	r30, r1
    5670:	31 05       	cpc	r19, r1
    5672:	21 05       	cpc	r18, r1
    5674:	11 f1       	breq	.+68     	; 0x56ba <pow+0x7e>
    5676:	e8 94       	clt
    5678:	08 94       	sec
    567a:	e7 95       	ror	r30
    567c:	d9 01       	movw	r26, r18
    567e:	aa 23       	and	r26, r26
    5680:	29 f4       	brne	.+10     	; 0x568c <pow+0x50>
    5682:	ab 2f       	mov	r26, r27
    5684:	be 2f       	mov	r27, r30
    5686:	f8 5f       	subi	r31, 0xF8	; 248
    5688:	d0 f3       	brcs	.-12     	; 0x567e <pow+0x42>
    568a:	10 c0       	rjmp	.+32     	; 0x56ac <pow+0x70>
    568c:	ff 5f       	subi	r31, 0xFF	; 255
    568e:	70 f4       	brcc	.+28     	; 0x56ac <pow+0x70>
    5690:	a6 95       	lsr	r26
    5692:	e0 f7       	brcc	.-8      	; 0x568c <pow+0x50>
    5694:	f7 39       	cpi	r31, 0x97	; 151
    5696:	50 f0       	brcs	.+20     	; 0x56ac <pow+0x70>
    5698:	19 f0       	breq	.+6      	; 0x56a0 <pow+0x64>
    569a:	ff 3a       	cpi	r31, 0xAF	; 175
    569c:	38 f4       	brcc	.+14     	; 0x56ac <pow+0x70>
    569e:	9f 77       	andi	r25, 0x7F	; 127
    56a0:	9f 93       	push	r25
    56a2:	0c d0       	rcall	.+24     	; 0x56bc <pow+0x80>
    56a4:	0f 90       	pop	r0
    56a6:	07 fc       	sbrc	r0, 7
    56a8:	90 58       	subi	r25, 0x80	; 128
    56aa:	08 95       	ret
    56ac:	3e f0       	brts	.+14     	; 0x56bc <pow+0x80>
    56ae:	af ce       	rjmp	.-674    	; 0x540e <__fp_nan>
    56b0:	60 e0       	ldi	r22, 0x00	; 0
    56b2:	70 e0       	ldi	r23, 0x00	; 0
    56b4:	80 e8       	ldi	r24, 0x80	; 128
    56b6:	9f e3       	ldi	r25, 0x3F	; 63
    56b8:	08 95       	ret
    56ba:	4f e7       	ldi	r20, 0x7F	; 127
    56bc:	9f 77       	andi	r25, 0x7F	; 127
    56be:	5f 93       	push	r21
    56c0:	4f 93       	push	r20
    56c2:	3f 93       	push	r19
    56c4:	2f 93       	push	r18
    56c6:	d5 d0       	rcall	.+426    	; 0x5872 <log>
    56c8:	2f 91       	pop	r18
    56ca:	3f 91       	pop	r19
    56cc:	4f 91       	pop	r20
    56ce:	5f 91       	pop	r21
    56d0:	52 df       	rcall	.-348    	; 0x5576 <__mulsf3>
    56d2:	50 c0       	rjmp	.+160    	; 0x5774 <exp>

000056d4 <sin>:
    56d4:	9f 93       	push	r25
    56d6:	d2 de       	rcall	.-604    	; 0x547c <__fp_rempio2>
    56d8:	0f 90       	pop	r0
    56da:	07 fc       	sbrc	r0, 7
    56dc:	ee 5f       	subi	r30, 0xFE	; 254
    56de:	06 cf       	rjmp	.-500    	; 0x54ec <__fp_sinus>
    56e0:	11 f4       	brne	.+4      	; 0x56e6 <sin+0x12>
    56e2:	0e f4       	brtc	.+2      	; 0x56e6 <sin+0x12>
    56e4:	94 ce       	rjmp	.-728    	; 0x540e <__fp_nan>
    56e6:	85 ce       	rjmp	.-758    	; 0x53f2 <__fp_mpack>

000056e8 <sqrt>:
    56e8:	1a df       	rcall	.-460    	; 0x551e <__fp_splitA>
    56ea:	d0 f3       	brcs	.-12     	; 0x56e0 <sin+0xc>
    56ec:	99 23       	and	r25, r25
    56ee:	d9 f3       	breq	.-10     	; 0x56e6 <sin+0x12>
    56f0:	ce f3       	brts	.-14     	; 0x56e4 <sin+0x10>
    56f2:	9f 57       	subi	r25, 0x7F	; 127
    56f4:	55 0b       	sbc	r21, r21
    56f6:	87 ff       	sbrs	r24, 7
    56f8:	69 d0       	rcall	.+210    	; 0x57cc <__fp_norm2>
    56fa:	00 24       	eor	r0, r0
    56fc:	a0 e6       	ldi	r26, 0x60	; 96
    56fe:	40 ea       	ldi	r20, 0xA0	; 160
    5700:	90 01       	movw	r18, r0
    5702:	80 58       	subi	r24, 0x80	; 128
    5704:	56 95       	lsr	r21
    5706:	97 95       	ror	r25
    5708:	28 f4       	brcc	.+10     	; 0x5714 <sqrt+0x2c>
    570a:	80 5c       	subi	r24, 0xC0	; 192
    570c:	66 0f       	add	r22, r22
    570e:	77 1f       	adc	r23, r23
    5710:	88 1f       	adc	r24, r24
    5712:	20 f0       	brcs	.+8      	; 0x571c <sqrt+0x34>
    5714:	26 17       	cp	r18, r22
    5716:	37 07       	cpc	r19, r23
    5718:	48 07       	cpc	r20, r24
    571a:	30 f4       	brcc	.+12     	; 0x5728 <sqrt+0x40>
    571c:	62 1b       	sub	r22, r18
    571e:	73 0b       	sbc	r23, r19
    5720:	84 0b       	sbc	r24, r20
    5722:	20 29       	or	r18, r0
    5724:	31 29       	or	r19, r1
    5726:	4a 2b       	or	r20, r26
    5728:	a6 95       	lsr	r26
    572a:	17 94       	ror	r1
    572c:	07 94       	ror	r0
    572e:	20 25       	eor	r18, r0
    5730:	31 25       	eor	r19, r1
    5732:	4a 27       	eor	r20, r26
    5734:	58 f7       	brcc	.-42     	; 0x570c <sqrt+0x24>
    5736:	66 0f       	add	r22, r22
    5738:	77 1f       	adc	r23, r23
    573a:	88 1f       	adc	r24, r24
    573c:	20 f0       	brcs	.+8      	; 0x5746 <sqrt+0x5e>
    573e:	26 17       	cp	r18, r22
    5740:	37 07       	cpc	r19, r23
    5742:	48 07       	cpc	r20, r24
    5744:	30 f4       	brcc	.+12     	; 0x5752 <sqrt+0x6a>
    5746:	62 0b       	sbc	r22, r18
    5748:	73 0b       	sbc	r23, r19
    574a:	84 0b       	sbc	r24, r20
    574c:	20 0d       	add	r18, r0
    574e:	31 1d       	adc	r19, r1
    5750:	41 1d       	adc	r20, r1
    5752:	a0 95       	com	r26
    5754:	81 f7       	brne	.-32     	; 0x5736 <sqrt+0x4e>
    5756:	b9 01       	movw	r22, r18
    5758:	84 2f       	mov	r24, r20
    575a:	91 58       	subi	r25, 0x81	; 129
    575c:	88 0f       	add	r24, r24
    575e:	96 95       	lsr	r25
    5760:	87 95       	ror	r24
    5762:	08 95       	ret

00005764 <square>:
    5764:	9b 01       	movw	r18, r22
    5766:	ac 01       	movw	r20, r24
    5768:	06 cf       	rjmp	.-500    	; 0x5576 <__mulsf3>
    576a:	19 f4       	brne	.+6      	; 0x5772 <square+0xe>
    576c:	0e f0       	brts	.+2      	; 0x5770 <square+0xc>
    576e:	3b ce       	rjmp	.-906    	; 0x53e6 <__fp_inf>
    5770:	f0 ce       	rjmp	.-544    	; 0x5552 <__fp_zero>
    5772:	4d ce       	rjmp	.-870    	; 0x540e <__fp_nan>

00005774 <exp>:
    5774:	d4 de       	rcall	.-600    	; 0x551e <__fp_splitA>
    5776:	c8 f3       	brcs	.-14     	; 0x576a <square+0x6>
    5778:	96 38       	cpi	r25, 0x86	; 134
    577a:	c0 f7       	brcc	.-16     	; 0x576c <square+0x8>
    577c:	07 f8       	bld	r0, 7
    577e:	0f 92       	push	r0
    5780:	e8 94       	clt
    5782:	2b e3       	ldi	r18, 0x3B	; 59
    5784:	3a ea       	ldi	r19, 0xAA	; 170
    5786:	48 eb       	ldi	r20, 0xB8	; 184
    5788:	5f e7       	ldi	r21, 0x7F	; 127
    578a:	03 df       	rcall	.-506    	; 0x5592 <__mulsf3_pse>
    578c:	0f 92       	push	r0
    578e:	0f 92       	push	r0
    5790:	0f 92       	push	r0
    5792:	4d b7       	in	r20, 0x3d	; 61
    5794:	5e b7       	in	r21, 0x3e	; 62
    5796:	0f 92       	push	r0
    5798:	ac d0       	rcall	.+344    	; 0x58f2 <modf>
    579a:	ef e2       	ldi	r30, 0x2F	; 47
    579c:	f1 e0       	ldi	r31, 0x01	; 1
    579e:	3a de       	rcall	.-908    	; 0x5414 <__fp_powser>
    57a0:	4f 91       	pop	r20
    57a2:	5f 91       	pop	r21
    57a4:	ef 91       	pop	r30
    57a6:	ff 91       	pop	r31
    57a8:	e5 95       	asr	r30
    57aa:	ee 1f       	adc	r30, r30
    57ac:	ff 1f       	adc	r31, r31
    57ae:	49 f0       	breq	.+18     	; 0x57c2 <exp+0x4e>
    57b0:	fe 57       	subi	r31, 0x7E	; 126
    57b2:	e0 68       	ori	r30, 0x80	; 128
    57b4:	44 27       	eor	r20, r20
    57b6:	ee 0f       	add	r30, r30
    57b8:	44 1f       	adc	r20, r20
    57ba:	fa 95       	dec	r31
    57bc:	e1 f7       	brne	.-8      	; 0x57b6 <exp+0x42>
    57be:	41 95       	neg	r20
    57c0:	55 0b       	sbc	r21, r21
    57c2:	1e d0       	rcall	.+60     	; 0x5800 <ldexp>
    57c4:	0f 90       	pop	r0
    57c6:	07 fe       	sbrs	r0, 7
    57c8:	cf ce       	rjmp	.-610    	; 0x5568 <inverse>
    57ca:	08 95       	ret

000057cc <__fp_norm2>:
    57cc:	91 50       	subi	r25, 0x01	; 1
    57ce:	50 40       	sbci	r21, 0x00	; 0
    57d0:	66 0f       	add	r22, r22
    57d2:	77 1f       	adc	r23, r23
    57d4:	88 1f       	adc	r24, r24
    57d6:	d2 f7       	brpl	.-12     	; 0x57cc <__fp_norm2>
    57d8:	08 95       	ret

000057da <__fp_powsodd>:
    57da:	9f 93       	push	r25
    57dc:	8f 93       	push	r24
    57de:	7f 93       	push	r23
    57e0:	6f 93       	push	r22
    57e2:	ff 93       	push	r31
    57e4:	ef 93       	push	r30
    57e6:	9b 01       	movw	r18, r22
    57e8:	ac 01       	movw	r20, r24
    57ea:	c5 de       	rcall	.-630    	; 0x5576 <__mulsf3>
    57ec:	ef 91       	pop	r30
    57ee:	ff 91       	pop	r31
    57f0:	11 de       	rcall	.-990    	; 0x5414 <__fp_powser>
    57f2:	2f 91       	pop	r18
    57f4:	3f 91       	pop	r19
    57f6:	4f 91       	pop	r20
    57f8:	5f 91       	pop	r21
    57fa:	bd ce       	rjmp	.-646    	; 0x5576 <__mulsf3>
    57fc:	f4 cd       	rjmp	.-1048   	; 0x53e6 <__fp_inf>
    57fe:	f9 cd       	rjmp	.-1038   	; 0x53f2 <__fp_mpack>

00005800 <ldexp>:
    5800:	8e de       	rcall	.-740    	; 0x551e <__fp_splitA>
    5802:	e8 f3       	brcs	.-6      	; 0x57fe <__fp_powsodd+0x24>
    5804:	99 23       	and	r25, r25
    5806:	d9 f3       	breq	.-10     	; 0x57fe <__fp_powsodd+0x24>
    5808:	94 0f       	add	r25, r20
    580a:	51 1d       	adc	r21, r1
    580c:	bb f3       	brvs	.-18     	; 0x57fc <__fp_powsodd+0x22>
    580e:	91 50       	subi	r25, 0x01	; 1
    5810:	50 40       	sbci	r21, 0x00	; 0
    5812:	94 f0       	brlt	.+36     	; 0x5838 <ldexp+0x38>
    5814:	59 f0       	breq	.+22     	; 0x582c <ldexp+0x2c>
    5816:	88 23       	and	r24, r24
    5818:	32 f0       	brmi	.+12     	; 0x5826 <ldexp+0x26>
    581a:	66 0f       	add	r22, r22
    581c:	77 1f       	adc	r23, r23
    581e:	88 1f       	adc	r24, r24
    5820:	91 50       	subi	r25, 0x01	; 1
    5822:	50 40       	sbci	r21, 0x00	; 0
    5824:	c1 f7       	brne	.-16     	; 0x5816 <ldexp+0x16>
    5826:	9e 3f       	cpi	r25, 0xFE	; 254
    5828:	51 05       	cpc	r21, r1
    582a:	44 f7       	brge	.-48     	; 0x57fc <__fp_powsodd+0x22>
    582c:	88 0f       	add	r24, r24
    582e:	91 1d       	adc	r25, r1
    5830:	96 95       	lsr	r25
    5832:	87 95       	ror	r24
    5834:	97 f9       	bld	r25, 7
    5836:	08 95       	ret
    5838:	5f 3f       	cpi	r21, 0xFF	; 255
    583a:	ac f0       	brlt	.+42     	; 0x5866 <ldexp+0x66>
    583c:	98 3e       	cpi	r25, 0xE8	; 232
    583e:	9c f0       	brlt	.+38     	; 0x5866 <ldexp+0x66>
    5840:	bb 27       	eor	r27, r27
    5842:	86 95       	lsr	r24
    5844:	77 95       	ror	r23
    5846:	67 95       	ror	r22
    5848:	b7 95       	ror	r27
    584a:	08 f4       	brcc	.+2      	; 0x584e <ldexp+0x4e>
    584c:	b1 60       	ori	r27, 0x01	; 1
    584e:	93 95       	inc	r25
    5850:	c1 f7       	brne	.-16     	; 0x5842 <ldexp+0x42>
    5852:	bb 0f       	add	r27, r27
    5854:	58 f7       	brcc	.-42     	; 0x582c <ldexp+0x2c>
    5856:	11 f4       	brne	.+4      	; 0x585c <ldexp+0x5c>
    5858:	60 ff       	sbrs	r22, 0
    585a:	e8 cf       	rjmp	.-48     	; 0x582c <ldexp+0x2c>
    585c:	6f 5f       	subi	r22, 0xFF	; 255
    585e:	7f 4f       	sbci	r23, 0xFF	; 255
    5860:	8f 4f       	sbci	r24, 0xFF	; 255
    5862:	9f 4f       	sbci	r25, 0xFF	; 255
    5864:	e3 cf       	rjmp	.-58     	; 0x582c <ldexp+0x2c>
    5866:	76 ce       	rjmp	.-788    	; 0x5554 <__fp_szero>
    5868:	0e f0       	brts	.+2      	; 0x586c <ldexp+0x6c>
    586a:	c3 cd       	rjmp	.-1146   	; 0x53f2 <__fp_mpack>
    586c:	d0 cd       	rjmp	.-1120   	; 0x540e <__fp_nan>
    586e:	68 94       	set
    5870:	ba cd       	rjmp	.-1164   	; 0x53e6 <__fp_inf>

00005872 <log>:
    5872:	55 de       	rcall	.-854    	; 0x551e <__fp_splitA>
    5874:	c8 f3       	brcs	.-14     	; 0x5868 <ldexp+0x68>
    5876:	99 23       	and	r25, r25
    5878:	d1 f3       	breq	.-12     	; 0x586e <ldexp+0x6e>
    587a:	c6 f3       	brts	.-16     	; 0x586c <ldexp+0x6c>
    587c:	df 93       	push	r29
    587e:	cf 93       	push	r28
    5880:	1f 93       	push	r17
    5882:	0f 93       	push	r16
    5884:	ff 92       	push	r15
    5886:	c9 2f       	mov	r28, r25
    5888:	dd 27       	eor	r29, r29
    588a:	88 23       	and	r24, r24
    588c:	2a f0       	brmi	.+10     	; 0x5898 <log+0x26>
    588e:	21 97       	sbiw	r28, 0x01	; 1
    5890:	66 0f       	add	r22, r22
    5892:	77 1f       	adc	r23, r23
    5894:	88 1f       	adc	r24, r24
    5896:	da f7       	brpl	.-10     	; 0x588e <log+0x1c>
    5898:	20 e0       	ldi	r18, 0x00	; 0
    589a:	30 e0       	ldi	r19, 0x00	; 0
    589c:	40 e8       	ldi	r20, 0x80	; 128
    589e:	5f eb       	ldi	r21, 0xBF	; 191
    58a0:	9f e3       	ldi	r25, 0x3F	; 63
    58a2:	88 39       	cpi	r24, 0x98	; 152
    58a4:	20 f0       	brcs	.+8      	; 0x58ae <log+0x3c>
    58a6:	80 3e       	cpi	r24, 0xE0	; 224
    58a8:	30 f0       	brcs	.+12     	; 0x58b6 <log+0x44>
    58aa:	21 96       	adiw	r28, 0x01	; 1
    58ac:	8f 77       	andi	r24, 0x7F	; 127
    58ae:	86 db       	rcall	.-2292   	; 0x4fbc <__addsf3>
    58b0:	e7 e5       	ldi	r30, 0x57	; 87
    58b2:	f1 e0       	ldi	r31, 0x01	; 1
    58b4:	03 c0       	rjmp	.+6      	; 0x58bc <log+0x4a>
    58b6:	82 db       	rcall	.-2300   	; 0x4fbc <__addsf3>
    58b8:	e4 e8       	ldi	r30, 0x84	; 132
    58ba:	f1 e0       	ldi	r31, 0x01	; 1
    58bc:	ab dd       	rcall	.-1194   	; 0x5414 <__fp_powser>
    58be:	8b 01       	movw	r16, r22
    58c0:	be 01       	movw	r22, r28
    58c2:	ec 01       	movw	r28, r24
    58c4:	fb 2e       	mov	r15, r27
    58c6:	6f 57       	subi	r22, 0x7F	; 127
    58c8:	71 09       	sbc	r23, r1
    58ca:	75 95       	asr	r23
    58cc:	77 1f       	adc	r23, r23
    58ce:	88 0b       	sbc	r24, r24
    58d0:	99 0b       	sbc	r25, r25
    58d2:	dc dc       	rcall	.-1608   	; 0x528c <__floatsisf>
    58d4:	28 e1       	ldi	r18, 0x18	; 24
    58d6:	32 e7       	ldi	r19, 0x72	; 114
    58d8:	41 e3       	ldi	r20, 0x31	; 49
    58da:	5f e3       	ldi	r21, 0x3F	; 63
    58dc:	58 de       	rcall	.-848    	; 0x558e <__mulsf3x>
    58de:	af 2d       	mov	r26, r15
    58e0:	98 01       	movw	r18, r16
    58e2:	ae 01       	movw	r20, r28
    58e4:	ff 90       	pop	r15
    58e6:	0f 91       	pop	r16
    58e8:	1f 91       	pop	r17
    58ea:	cf 91       	pop	r28
    58ec:	df 91       	pop	r29
    58ee:	77 db       	rcall	.-2322   	; 0x4fde <__addsf3x>
    58f0:	ec cd       	rjmp	.-1064   	; 0x54ca <__fp_round>

000058f2 <modf>:
    58f2:	fa 01       	movw	r30, r20
    58f4:	dc 01       	movw	r26, r24
    58f6:	aa 0f       	add	r26, r26
    58f8:	bb 1f       	adc	r27, r27
    58fa:	9b 01       	movw	r18, r22
    58fc:	ac 01       	movw	r20, r24
    58fe:	bf 57       	subi	r27, 0x7F	; 127
    5900:	28 f4       	brcc	.+10     	; 0x590c <modf+0x1a>
    5902:	22 27       	eor	r18, r18
    5904:	33 27       	eor	r19, r19
    5906:	44 27       	eor	r20, r20
    5908:	50 78       	andi	r21, 0x80	; 128
    590a:	1f c0       	rjmp	.+62     	; 0x594a <modf+0x58>
    590c:	b7 51       	subi	r27, 0x17	; 23
    590e:	88 f4       	brcc	.+34     	; 0x5932 <modf+0x40>
    5910:	ab 2f       	mov	r26, r27
    5912:	00 24       	eor	r0, r0
    5914:	46 95       	lsr	r20
    5916:	37 95       	ror	r19
    5918:	27 95       	ror	r18
    591a:	01 1c       	adc	r0, r1
    591c:	a3 95       	inc	r26
    591e:	d2 f3       	brmi	.-12     	; 0x5914 <modf+0x22>
    5920:	00 20       	and	r0, r0
    5922:	69 f0       	breq	.+26     	; 0x593e <modf+0x4c>
    5924:	22 0f       	add	r18, r18
    5926:	33 1f       	adc	r19, r19
    5928:	44 1f       	adc	r20, r20
    592a:	b3 95       	inc	r27
    592c:	da f3       	brmi	.-10     	; 0x5924 <modf+0x32>
    592e:	0d d0       	rcall	.+26     	; 0x594a <modf+0x58>
    5930:	44 cb       	rjmp	.-2424   	; 0x4fba <__subsf3>
    5932:	61 30       	cpi	r22, 0x01	; 1
    5934:	71 05       	cpc	r23, r1
    5936:	a0 e8       	ldi	r26, 0x80	; 128
    5938:	8a 07       	cpc	r24, r26
    593a:	b9 46       	sbci	r27, 0x69	; 105
    593c:	30 f4       	brcc	.+12     	; 0x594a <modf+0x58>
    593e:	9b 01       	movw	r18, r22
    5940:	ac 01       	movw	r20, r24
    5942:	66 27       	eor	r22, r22
    5944:	77 27       	eor	r23, r23
    5946:	88 27       	eor	r24, r24
    5948:	90 78       	andi	r25, 0x80	; 128
    594a:	30 96       	adiw	r30, 0x00	; 0
    594c:	21 f0       	breq	.+8      	; 0x5956 <modf+0x64>
    594e:	20 83       	st	Z, r18
    5950:	31 83       	std	Z+1, r19	; 0x01
    5952:	42 83       	std	Z+2, r20	; 0x02
    5954:	53 83       	std	Z+3, r21	; 0x03
    5956:	08 95       	ret

00005958 <__cxa_pure_virtual>:
extern "C" void __cxa_deleted_virtual(void) __attribute__ ((__noreturn__));

void __cxa_pure_virtual(void) {
  // We might want to write some diagnostics to uart in this case
  //std::terminate();
  abort();
    5958:	0e 94 fc 38 	call	0x71f8	; 0x71f8 <abort>

0000595c <_ZN14HardwareSerial9availableEv>:
  // clear any received data
  _rx_buffer_head = _rx_buffer_tail;
}

int HardwareSerial::available(void)
{
    595c:	fc 01       	movw	r30, r24
  return ((unsigned int)(SERIAL_RX_BUFFER_SIZE + _rx_buffer_head - _rx_buffer_tail)) % SERIAL_RX_BUFFER_SIZE;
    595e:	91 8d       	ldd	r25, Z+25	; 0x19
    5960:	22 8d       	ldd	r18, Z+26	; 0x1a
    5962:	89 2f       	mov	r24, r25
    5964:	90 e0       	ldi	r25, 0x00	; 0
    5966:	80 5c       	subi	r24, 0xC0	; 192
    5968:	9f 4f       	sbci	r25, 0xFF	; 255
    596a:	82 1b       	sub	r24, r18
    596c:	91 09       	sbc	r25, r1
}
    596e:	8f 73       	andi	r24, 0x3F	; 63
    5970:	99 27       	eor	r25, r25
    5972:	08 95       	ret

00005974 <_ZN14HardwareSerial4peekEv>:

int HardwareSerial::peek(void)
{
    5974:	fc 01       	movw	r30, r24
  if (_rx_buffer_head == _rx_buffer_tail) {
    5976:	91 8d       	ldd	r25, Z+25	; 0x19
    5978:	82 8d       	ldd	r24, Z+26	; 0x1a
    597a:	98 17       	cp	r25, r24
    597c:	31 f0       	breq	.+12     	; 0x598a <_ZN14HardwareSerial4peekEv+0x16>
    return -1;
  } else {
    return _rx_buffer[_rx_buffer_tail];
    597e:	82 8d       	ldd	r24, Z+26	; 0x1a
    5980:	e8 0f       	add	r30, r24
    5982:	f1 1d       	adc	r31, r1
    5984:	85 8d       	ldd	r24, Z+29	; 0x1d
    5986:	90 e0       	ldi	r25, 0x00	; 0
    5988:	08 95       	ret
}

int HardwareSerial::peek(void)
{
  if (_rx_buffer_head == _rx_buffer_tail) {
    return -1;
    598a:	8f ef       	ldi	r24, 0xFF	; 255
    598c:	9f ef       	ldi	r25, 0xFF	; 255
  } else {
    return _rx_buffer[_rx_buffer_tail];
  }
}
    598e:	08 95       	ret

00005990 <_ZN14HardwareSerial4readEv>:

int HardwareSerial::read(void)
{
    5990:	fc 01       	movw	r30, r24
  // if the head isn't ahead of the tail, we don't have any characters
  if (_rx_buffer_head == _rx_buffer_tail) {
    5992:	91 8d       	ldd	r25, Z+25	; 0x19
    5994:	82 8d       	ldd	r24, Z+26	; 0x1a
    5996:	98 17       	cp	r25, r24
    5998:	61 f0       	breq	.+24     	; 0x59b2 <_ZN14HardwareSerial4readEv+0x22>
    return -1;
  } else {
    unsigned char c = _rx_buffer[_rx_buffer_tail];
    599a:	82 8d       	ldd	r24, Z+26	; 0x1a
    599c:	df 01       	movw	r26, r30
    599e:	a8 0f       	add	r26, r24
    59a0:	b1 1d       	adc	r27, r1
    59a2:	5d 96       	adiw	r26, 0x1d	; 29
    59a4:	8c 91       	ld	r24, X
    _rx_buffer_tail = (rx_buffer_index_t)(_rx_buffer_tail + 1) % SERIAL_RX_BUFFER_SIZE;
    59a6:	92 8d       	ldd	r25, Z+26	; 0x1a
    59a8:	9f 5f       	subi	r25, 0xFF	; 255
    59aa:	9f 73       	andi	r25, 0x3F	; 63
    59ac:	92 8f       	std	Z+26, r25	; 0x1a
    return c;
    59ae:	90 e0       	ldi	r25, 0x00	; 0
    59b0:	08 95       	ret

int HardwareSerial::read(void)
{
  // if the head isn't ahead of the tail, we don't have any characters
  if (_rx_buffer_head == _rx_buffer_tail) {
    return -1;
    59b2:	8f ef       	ldi	r24, 0xFF	; 255
    59b4:	9f ef       	ldi	r25, 0xFF	; 255
  } else {
    unsigned char c = _rx_buffer[_rx_buffer_tail];
    _rx_buffer_tail = (rx_buffer_index_t)(_rx_buffer_tail + 1) % SERIAL_RX_BUFFER_SIZE;
    return c;
  }
}
    59b6:	08 95       	ret

000059b8 <_ZN14HardwareSerial17availableForWriteEv>:
{
#if (SERIAL_TX_BUFFER_SIZE>256)
  uint8_t oldSREG = SREG;
  cli();
#endif
  tx_buffer_index_t head = _tx_buffer_head;
    59b8:	fc 01       	movw	r30, r24
    59ba:	53 8d       	ldd	r21, Z+27	; 0x1b
  tx_buffer_index_t tail = _tx_buffer_tail;
    59bc:	44 8d       	ldd	r20, Z+28	; 0x1c
    59be:	25 2f       	mov	r18, r21
    59c0:	30 e0       	ldi	r19, 0x00	; 0
    59c2:	84 2f       	mov	r24, r20
    59c4:	90 e0       	ldi	r25, 0x00	; 0
#if (SERIAL_TX_BUFFER_SIZE>256)
  SREG = oldSREG;
#endif
  if (head >= tail) return SERIAL_TX_BUFFER_SIZE - 1 - head + tail;
    59c6:	82 1b       	sub	r24, r18
    59c8:	93 0b       	sbc	r25, r19
    59ca:	54 17       	cp	r21, r20
    59cc:	10 f0       	brcs	.+4      	; 0x59d2 <_ZN14HardwareSerial17availableForWriteEv+0x1a>
    59ce:	cf 96       	adiw	r24, 0x3f	; 63
    59d0:	08 95       	ret
  return tail - head - 1;
    59d2:	01 97       	sbiw	r24, 0x01	; 1
}
    59d4:	08 95       	ret

000059d6 <_Z14serialEventRunv>:
#endif

void serialEventRun(void)
{
#if defined(HAVE_HWSERIAL0)
  if (Serial0_available && serialEvent && Serial0_available()) serialEvent();
    59d6:	82 e7       	ldi	r24, 0x72	; 114
    59d8:	9e e2       	ldi	r25, 0x2E	; 46
    59da:	89 2b       	or	r24, r25
    59dc:	39 f0       	breq	.+14     	; 0x59ec <_Z14serialEventRunv+0x16>
    59de:	80 e0       	ldi	r24, 0x00	; 0
    59e0:	90 e0       	ldi	r25, 0x00	; 0
    59e2:	89 2b       	or	r24, r25
    59e4:	19 f0       	breq	.+6      	; 0x59ec <_Z14serialEventRunv+0x16>
    59e6:	7e d1       	rcall	.+764    	; 0x5ce4 <_Z17Serial0_availablev>
    59e8:	81 11       	cpse	r24, r1
    59ea:	24 c0       	rjmp	.+72     	; 0x5a34 <_Z14serialEventRunv+0x5e>
#endif
#if defined(HAVE_HWSERIAL1)
  if (Serial1_available && serialEvent1 && Serial1_available()) serialEvent1();
    59ec:	80 e0       	ldi	r24, 0x00	; 0
    59ee:	90 e0       	ldi	r25, 0x00	; 0
    59f0:	89 2b       	or	r24, r25
    59f2:	41 f0       	breq	.+16     	; 0x5a04 <_Z14serialEventRunv+0x2e>
    59f4:	80 e0       	ldi	r24, 0x00	; 0
    59f6:	90 e0       	ldi	r25, 0x00	; 0
    59f8:	89 2b       	or	r24, r25
    59fa:	21 f0       	breq	.+8      	; 0x5a04 <_Z14serialEventRunv+0x2e>
    59fc:	0e 94 00 00 	call	0	; 0x0 <__vectors>
    5a00:	81 11       	cpse	r24, r1
    5a02:	1b c0       	rjmp	.+54     	; 0x5a3a <_Z14serialEventRunv+0x64>
#endif
#if defined(HAVE_HWSERIAL2)
  if (Serial2_available && serialEvent2 && Serial2_available()) serialEvent2();
    5a04:	87 e0       	ldi	r24, 0x07	; 7
    5a06:	9f e2       	ldi	r25, 0x2F	; 47
    5a08:	89 2b       	or	r24, r25
    5a0a:	39 f0       	breq	.+14     	; 0x5a1a <_Z14serialEventRunv+0x44>
    5a0c:	80 e0       	ldi	r24, 0x00	; 0
    5a0e:	90 e0       	ldi	r25, 0x00	; 0
    5a10:	89 2b       	or	r24, r25
    5a12:	19 f0       	breq	.+6      	; 0x5a1a <_Z14serialEventRunv+0x44>
    5a14:	fc d1       	rcall	.+1016   	; 0x5e0e <_Z17Serial2_availablev>
    5a16:	81 11       	cpse	r24, r1
    5a18:	13 c0       	rjmp	.+38     	; 0x5a40 <_Z14serialEventRunv+0x6a>
#endif
#if defined(HAVE_HWSERIAL3)
  if (Serial3_available && serialEvent3 && Serial3_available()) serialEvent3();
    5a1a:	80 e0       	ldi	r24, 0x00	; 0
    5a1c:	90 e0       	ldi	r25, 0x00	; 0
    5a1e:	89 2b       	or	r24, r25
    5a20:	a1 f0       	breq	.+40     	; 0x5a4a <_Z14serialEventRunv+0x74>
    5a22:	80 e0       	ldi	r24, 0x00	; 0
    5a24:	90 e0       	ldi	r25, 0x00	; 0
    5a26:	89 2b       	or	r24, r25
    5a28:	81 f0       	breq	.+32     	; 0x5a4a <_Z14serialEventRunv+0x74>
    5a2a:	0e 94 00 00 	call	0	; 0x0 <__vectors>
    5a2e:	81 11       	cpse	r24, r1
    5a30:	0a c0       	rjmp	.+20     	; 0x5a46 <_Z14serialEventRunv+0x70>
    5a32:	08 95       	ret
#endif

void serialEventRun(void)
{
#if defined(HAVE_HWSERIAL0)
  if (Serial0_available && serialEvent && Serial0_available()) serialEvent();
    5a34:	0e 94 00 00 	call	0	; 0x0 <__vectors>
    5a38:	d9 cf       	rjmp	.-78     	; 0x59ec <_Z14serialEventRunv+0x16>
#endif
#if defined(HAVE_HWSERIAL1)
  if (Serial1_available && serialEvent1 && Serial1_available()) serialEvent1();
    5a3a:	0e 94 00 00 	call	0	; 0x0 <__vectors>
    5a3e:	e2 cf       	rjmp	.-60     	; 0x5a04 <_Z14serialEventRunv+0x2e>
#endif
#if defined(HAVE_HWSERIAL2)
  if (Serial2_available && serialEvent2 && Serial2_available()) serialEvent2();
    5a40:	0e 94 00 00 	call	0	; 0x0 <__vectors>
    5a44:	ea cf       	rjmp	.-44     	; 0x5a1a <_Z14serialEventRunv+0x44>
#endif
#if defined(HAVE_HWSERIAL3)
  if (Serial3_available && serialEvent3 && Serial3_available()) serialEvent3();
    5a46:	0c 94 00 00 	jmp	0	; 0x0 <__vectors>
    5a4a:	08 95       	ret

00005a4c <_ZN14HardwareSerial17_tx_udr_empty_irqEv>:
}

// Actual interrupt handlers //////////////////////////////////////////////////////////////

void HardwareSerial::_tx_udr_empty_irq(void)
{
    5a4c:	fc 01       	movw	r30, r24
  // If interrupts are enabled, there must be more data in the output
  // buffer. Send the next byte
  unsigned char c = _tx_buffer[_tx_buffer_tail];
    5a4e:	84 8d       	ldd	r24, Z+28	; 0x1c
    5a50:	df 01       	movw	r26, r30
    5a52:	a8 0f       	add	r26, r24
    5a54:	b1 1d       	adc	r27, r1
    5a56:	a3 5a       	subi	r26, 0xA3	; 163
    5a58:	bf 4f       	sbci	r27, 0xFF	; 255
    5a5a:	2c 91       	ld	r18, X
  _tx_buffer_tail = (_tx_buffer_tail + 1) % SERIAL_TX_BUFFER_SIZE;
    5a5c:	84 8d       	ldd	r24, Z+28	; 0x1c
    5a5e:	90 e0       	ldi	r25, 0x00	; 0
    5a60:	01 96       	adiw	r24, 0x01	; 1
    5a62:	8f 73       	andi	r24, 0x3F	; 63
    5a64:	99 27       	eor	r25, r25
    5a66:	84 8f       	std	Z+28, r24	; 0x1c

  *_udr = c;
    5a68:	a6 89       	ldd	r26, Z+22	; 0x16
    5a6a:	b7 89       	ldd	r27, Z+23	; 0x17
    5a6c:	2c 93       	st	X, r18

  // clear the TXC bit -- "can be cleared by writing a one to its bit
  // location". This makes sure flush() won't return until the bytes
  // actually got written
  sbi(*_ucsra, TXC0);
    5a6e:	a0 89       	ldd	r26, Z+16	; 0x10
    5a70:	b1 89       	ldd	r27, Z+17	; 0x11
    5a72:	8c 91       	ld	r24, X
    5a74:	80 64       	ori	r24, 0x40	; 64
    5a76:	8c 93       	st	X, r24

  if (_tx_buffer_head == _tx_buffer_tail) {
    5a78:	93 8d       	ldd	r25, Z+27	; 0x1b
    5a7a:	84 8d       	ldd	r24, Z+28	; 0x1c
    5a7c:	98 13       	cpse	r25, r24
    5a7e:	06 c0       	rjmp	.+12     	; 0x5a8c <_ZN14HardwareSerial17_tx_udr_empty_irqEv+0x40>
    // Buffer empty, so disable interrupts
    cbi(*_ucsrb, UDRIE0);
    5a80:	02 88       	ldd	r0, Z+18	; 0x12
    5a82:	f3 89       	ldd	r31, Z+19	; 0x13
    5a84:	e0 2d       	mov	r30, r0
    5a86:	80 81       	ld	r24, Z
    5a88:	8f 7d       	andi	r24, 0xDF	; 223
    5a8a:	80 83       	st	Z, r24
    5a8c:	08 95       	ret

00005a8e <_ZN14HardwareSerial5flushEv>:
  if (head >= tail) return SERIAL_TX_BUFFER_SIZE - 1 - head + tail;
  return tail - head - 1;
}

void HardwareSerial::flush()
{
    5a8e:	cf 93       	push	r28
    5a90:	df 93       	push	r29
    5a92:	ec 01       	movw	r28, r24
  // If we have never written a byte, no need to flush. This special
  // case is needed since there is no way to force the TXC (transmit
  // complete) bit to 1 during initialization
  if (!_written)
    5a94:	88 8d       	ldd	r24, Y+24	; 0x18
    5a96:	88 23       	and	r24, r24
    5a98:	c1 f0       	breq	.+48     	; 0x5aca <_ZN14HardwareSerial5flushEv+0x3c>
    return;

  while (bit_is_set(*_ucsrb, UDRIE0) || bit_is_clear(*_ucsra, TXC0)) {
    5a9a:	ea 89       	ldd	r30, Y+18	; 0x12
    5a9c:	fb 89       	ldd	r31, Y+19	; 0x13
    5a9e:	80 81       	ld	r24, Z
    5aa0:	85 fd       	sbrc	r24, 5
    5aa2:	05 c0       	rjmp	.+10     	; 0x5aae <_ZN14HardwareSerial5flushEv+0x20>
    5aa4:	a8 89       	ldd	r26, Y+16	; 0x10
    5aa6:	b9 89       	ldd	r27, Y+17	; 0x11
    5aa8:	8c 91       	ld	r24, X
    5aaa:	86 fd       	sbrc	r24, 6
    5aac:	0e c0       	rjmp	.+28     	; 0x5aca <_ZN14HardwareSerial5flushEv+0x3c>
    if (bit_is_clear(SREG, SREG_I) && bit_is_set(*_ucsrb, UDRIE0))
    5aae:	0f b6       	in	r0, 0x3f	; 63
    5ab0:	07 fc       	sbrc	r0, 7
    5ab2:	f5 cf       	rjmp	.-22     	; 0x5a9e <_ZN14HardwareSerial5flushEv+0x10>
    5ab4:	80 81       	ld	r24, Z
    5ab6:	85 ff       	sbrs	r24, 5
    5ab8:	f2 cf       	rjmp	.-28     	; 0x5a9e <_ZN14HardwareSerial5flushEv+0x10>
	// Interrupts are globally disabled, but the DR empty
	// interrupt should be enabled, so poll the DR empty flag to
	// prevent deadlock
	if (bit_is_set(*_ucsra, UDRE0))
    5aba:	a8 89       	ldd	r26, Y+16	; 0x10
    5abc:	b9 89       	ldd	r27, Y+17	; 0x11
    5abe:	8c 91       	ld	r24, X
    5ac0:	85 ff       	sbrs	r24, 5
    5ac2:	ed cf       	rjmp	.-38     	; 0x5a9e <_ZN14HardwareSerial5flushEv+0x10>
	  _tx_udr_empty_irq();
    5ac4:	ce 01       	movw	r24, r28
    5ac6:	c2 df       	rcall	.-124    	; 0x5a4c <_ZN14HardwareSerial17_tx_udr_empty_irqEv>
    5ac8:	e8 cf       	rjmp	.-48     	; 0x5a9a <_ZN14HardwareSerial5flushEv+0xc>
  }
  // If we get here, nothing is queued anymore (DRIE is disabled) and
  // the hardware finished tranmission (TXC is set).
}
    5aca:	df 91       	pop	r29
    5acc:	cf 91       	pop	r28
    5ace:	08 95       	ret

00005ad0 <_ZN14HardwareSerial5writeEh>:

size_t HardwareSerial::write(uint8_t c)
{
    5ad0:	ef 92       	push	r14
    5ad2:	ff 92       	push	r15
    5ad4:	0f 93       	push	r16
    5ad6:	1f 93       	push	r17
    5ad8:	cf 93       	push	r28
    5ada:	df 93       	push	r29
    5adc:	ec 01       	movw	r28, r24
  _written = true;
    5ade:	81 e0       	ldi	r24, 0x01	; 1
    5ae0:	88 8f       	std	Y+24, r24	; 0x18
  // If the buffer and the data register is empty, just write the byte
  // to the data register and be done. This shortcut helps
  // significantly improve the effective datarate at high (>
  // 500kbit/s) bitrates, where interrupt overhead becomes a slowdown.
  if (_tx_buffer_head == _tx_buffer_tail && bit_is_set(*_ucsra, UDRE0)) {
    5ae2:	9b 8d       	ldd	r25, Y+27	; 0x1b
    5ae4:	8c 8d       	ldd	r24, Y+28	; 0x1c
    5ae6:	98 13       	cpse	r25, r24
    5ae8:	05 c0       	rjmp	.+10     	; 0x5af4 <_ZN14HardwareSerial5writeEh+0x24>
    5aea:	e8 89       	ldd	r30, Y+16	; 0x10
    5aec:	f9 89       	ldd	r31, Y+17	; 0x11
    5aee:	80 81       	ld	r24, Z
    5af0:	85 fd       	sbrc	r24, 5
    5af2:	23 c0       	rjmp	.+70     	; 0x5b3a <_ZN14HardwareSerial5writeEh+0x6a>
    5af4:	f6 2e       	mov	r15, r22
    *_udr = c;
    sbi(*_ucsra, TXC0);
    return 1;
  }
  tx_buffer_index_t i = (_tx_buffer_head + 1) % SERIAL_TX_BUFFER_SIZE;
    5af6:	0b 8d       	ldd	r16, Y+27	; 0x1b
    5af8:	10 e0       	ldi	r17, 0x00	; 0
    5afa:	0f 5f       	subi	r16, 0xFF	; 255
    5afc:	1f 4f       	sbci	r17, 0xFF	; 255
    5afe:	0f 73       	andi	r16, 0x3F	; 63
    5b00:	11 27       	eor	r17, r17
    5b02:	e0 2e       	mov	r14, r16
	
  // If the output buffer is full, there's nothing for it other than to 
  // wait for the interrupt handler to empty it a bit
  while (i == _tx_buffer_tail) {
    5b04:	8c 8d       	ldd	r24, Y+28	; 0x1c
    5b06:	e8 12       	cpse	r14, r24
    5b08:	0b c0       	rjmp	.+22     	; 0x5b20 <_ZN14HardwareSerial5writeEh+0x50>
    if (bit_is_clear(SREG, SREG_I)) {
    5b0a:	0f b6       	in	r0, 0x3f	; 63
    5b0c:	07 fc       	sbrc	r0, 7
    5b0e:	fa cf       	rjmp	.-12     	; 0x5b04 <_ZN14HardwareSerial5writeEh+0x34>
      // Interrupts are disabled, so we'll have to poll the data
      // register empty flag ourselves. If it is set, pretend an
      // interrupt has happened and call the handler to free up
      // space for us.
      if(bit_is_set(*_ucsra, UDRE0))
    5b10:	e8 89       	ldd	r30, Y+16	; 0x10
    5b12:	f9 89       	ldd	r31, Y+17	; 0x11
    5b14:	80 81       	ld	r24, Z
    5b16:	85 ff       	sbrs	r24, 5
    5b18:	f5 cf       	rjmp	.-22     	; 0x5b04 <_ZN14HardwareSerial5writeEh+0x34>
	_tx_udr_empty_irq();
    5b1a:	ce 01       	movw	r24, r28
    5b1c:	97 df       	rcall	.-210    	; 0x5a4c <_ZN14HardwareSerial17_tx_udr_empty_irqEv>
    5b1e:	f2 cf       	rjmp	.-28     	; 0x5b04 <_ZN14HardwareSerial5writeEh+0x34>
    } else {
      // nop, the interrupt handler will free up space for us
    }
  }

  _tx_buffer[_tx_buffer_head] = c;
    5b20:	8b 8d       	ldd	r24, Y+27	; 0x1b
    5b22:	fe 01       	movw	r30, r28
    5b24:	e8 0f       	add	r30, r24
    5b26:	f1 1d       	adc	r31, r1
    5b28:	e3 5a       	subi	r30, 0xA3	; 163
    5b2a:	ff 4f       	sbci	r31, 0xFF	; 255
    5b2c:	f0 82       	st	Z, r15
  _tx_buffer_head = i;
    5b2e:	0b 8f       	std	Y+27, r16	; 0x1b
	
  sbi(*_ucsrb, UDRIE0);
    5b30:	ea 89       	ldd	r30, Y+18	; 0x12
    5b32:	fb 89       	ldd	r31, Y+19	; 0x13
    5b34:	80 81       	ld	r24, Z
    5b36:	80 62       	ori	r24, 0x20	; 32
    5b38:	07 c0       	rjmp	.+14     	; 0x5b48 <_ZN14HardwareSerial5writeEh+0x78>
  // If the buffer and the data register is empty, just write the byte
  // to the data register and be done. This shortcut helps
  // significantly improve the effective datarate at high (>
  // 500kbit/s) bitrates, where interrupt overhead becomes a slowdown.
  if (_tx_buffer_head == _tx_buffer_tail && bit_is_set(*_ucsra, UDRE0)) {
    *_udr = c;
    5b3a:	ee 89       	ldd	r30, Y+22	; 0x16
    5b3c:	ff 89       	ldd	r31, Y+23	; 0x17
    5b3e:	60 83       	st	Z, r22
    sbi(*_ucsra, TXC0);
    5b40:	e8 89       	ldd	r30, Y+16	; 0x10
    5b42:	f9 89       	ldd	r31, Y+17	; 0x11
    5b44:	80 81       	ld	r24, Z
    5b46:	80 64       	ori	r24, 0x40	; 64
    5b48:	80 83       	st	Z, r24
  _tx_buffer_head = i;
	
  sbi(*_ucsrb, UDRIE0);
  
  return 1;
}
    5b4a:	81 e0       	ldi	r24, 0x01	; 1
    5b4c:	90 e0       	ldi	r25, 0x00	; 0
    5b4e:	df 91       	pop	r29
    5b50:	cf 91       	pop	r28
    5b52:	1f 91       	pop	r17
    5b54:	0f 91       	pop	r16
    5b56:	ff 90       	pop	r15
    5b58:	ef 90       	pop	r14
    5b5a:	08 95       	ret

00005b5c <_ZN14HardwareSerial5beginEmh>:
}

// Public Methods //////////////////////////////////////////////////////////////

void HardwareSerial::begin(unsigned long baud, byte config)
{
    5b5c:	cf 92       	push	r12
    5b5e:	df 92       	push	r13
    5b60:	ef 92       	push	r14
    5b62:	ff 92       	push	r15
    5b64:	1f 93       	push	r17
    5b66:	cf 93       	push	r28
    5b68:	df 93       	push	r29
    5b6a:	ec 01       	movw	r28, r24
    5b6c:	6a 01       	movw	r12, r20
    5b6e:	7b 01       	movw	r14, r22
    5b70:	12 2f       	mov	r17, r18
  // Try u2x mode first
  uint16_t baud_setting = (F_CPU / 4 / baud - 1) / 2;
  *_ucsra = 1 << U2X0;
    5b72:	e8 89       	ldd	r30, Y+16	; 0x10
    5b74:	f9 89       	ldd	r31, Y+17	; 0x11
    5b76:	82 e0       	ldi	r24, 0x02	; 2
    5b78:	80 83       	st	Z, r24
  // hardcoded exception for 57600 for compatibility with the bootloader
  // shipped with the Duemilanove and previous boards and the firmware
  // on the 8U2 on the Uno and Mega 2560. Also, The baud_setting cannot
  // be > 4095, so switch back to non-u2x mode if the baud rate is too
  // low.
  if (((F_CPU == 16000000UL) && (baud == 57600)) || (baud_setting >4095))
    5b7a:	41 15       	cp	r20, r1
    5b7c:	51 4e       	sbci	r21, 0xE1	; 225
    5b7e:	61 05       	cpc	r22, r1
    5b80:	71 05       	cpc	r23, r1
    5b82:	b1 f0       	breq	.+44     	; 0x5bb0 <_ZN14HardwareSerial5beginEmh+0x54>
// Public Methods //////////////////////////////////////////////////////////////

void HardwareSerial::begin(unsigned long baud, byte config)
{
  // Try u2x mode first
  uint16_t baud_setting = (F_CPU / 4 / baud - 1) / 2;
    5b84:	60 e0       	ldi	r22, 0x00	; 0
    5b86:	79 e0       	ldi	r23, 0x09	; 9
    5b88:	8d e3       	ldi	r24, 0x3D	; 61
    5b8a:	90 e0       	ldi	r25, 0x00	; 0
    5b8c:	a7 01       	movw	r20, r14
    5b8e:	96 01       	movw	r18, r12
    5b90:	0e 94 86 36 	call	0x6d0c	; 0x6d0c <__udivmodsi4>
    5b94:	da 01       	movw	r26, r20
    5b96:	c9 01       	movw	r24, r18
    5b98:	01 97       	sbiw	r24, 0x01	; 1
    5b9a:	a1 09       	sbc	r26, r1
    5b9c:	b1 09       	sbc	r27, r1
    5b9e:	b6 95       	lsr	r27
    5ba0:	a7 95       	ror	r26
    5ba2:	97 95       	ror	r25
    5ba4:	87 95       	ror	r24
    5ba6:	ac 01       	movw	r20, r24
  // hardcoded exception for 57600 for compatibility with the bootloader
  // shipped with the Duemilanove and previous boards and the firmware
  // on the 8U2 on the Uno and Mega 2560. Also, The baud_setting cannot
  // be > 4095, so switch back to non-u2x mode if the baud rate is too
  // low.
  if (((F_CPU == 16000000UL) && (baud == 57600)) || (baud_setting >4095))
    5ba8:	41 15       	cp	r20, r1
    5baa:	80 e1       	ldi	r24, 0x10	; 16
    5bac:	58 07       	cpc	r21, r24
    5bae:	a8 f0       	brcs	.+42     	; 0x5bda <_ZN14HardwareSerial5beginEmh+0x7e>
  {
    *_ucsra = 0;
    5bb0:	e8 89       	ldd	r30, Y+16	; 0x10
    5bb2:	f9 89       	ldd	r31, Y+17	; 0x11
    5bb4:	10 82       	st	Z, r1
    baud_setting = (F_CPU / 8 / baud - 1) / 2;
    5bb6:	60 e8       	ldi	r22, 0x80	; 128
    5bb8:	74 e8       	ldi	r23, 0x84	; 132
    5bba:	8e e1       	ldi	r24, 0x1E	; 30
    5bbc:	90 e0       	ldi	r25, 0x00	; 0
    5bbe:	a7 01       	movw	r20, r14
    5bc0:	96 01       	movw	r18, r12
    5bc2:	0e 94 86 36 	call	0x6d0c	; 0x6d0c <__udivmodsi4>
    5bc6:	ba 01       	movw	r22, r20
    5bc8:	a9 01       	movw	r20, r18
    5bca:	41 50       	subi	r20, 0x01	; 1
    5bcc:	51 09       	sbc	r21, r1
    5bce:	61 09       	sbc	r22, r1
    5bd0:	71 09       	sbc	r23, r1
    5bd2:	76 95       	lsr	r23
    5bd4:	67 95       	ror	r22
    5bd6:	57 95       	ror	r21
    5bd8:	47 95       	ror	r20
  }

  // assign the baud_setting, a.k.a. ubrr (USART Baud Rate Register)
  *_ubrrh = baud_setting >> 8;
    5bda:	ec 85       	ldd	r30, Y+12	; 0x0c
    5bdc:	fd 85       	ldd	r31, Y+13	; 0x0d
    5bde:	50 83       	st	Z, r21
  *_ubrrl = baud_setting;
    5be0:	ee 85       	ldd	r30, Y+14	; 0x0e
    5be2:	ff 85       	ldd	r31, Y+15	; 0x0f
    5be4:	40 83       	st	Z, r20

  _written = false;
    5be6:	18 8e       	std	Y+24, r1	; 0x18

  //set the data bits, parity, and stop bits
#if defined(__AVR_ATmega8__)
  config |= 0x80; // select UCSRC register (shared with UBRRH)
#endif
  *_ucsrc = config;
    5be8:	ec 89       	ldd	r30, Y+20	; 0x14
    5bea:	fd 89       	ldd	r31, Y+21	; 0x15
    5bec:	10 83       	st	Z, r17
  
  sbi(*_ucsrb, RXEN0);
    5bee:	ea 89       	ldd	r30, Y+18	; 0x12
    5bf0:	fb 89       	ldd	r31, Y+19	; 0x13
    5bf2:	80 81       	ld	r24, Z
    5bf4:	80 61       	ori	r24, 0x10	; 16
    5bf6:	80 83       	st	Z, r24
  sbi(*_ucsrb, TXEN0);
    5bf8:	ea 89       	ldd	r30, Y+18	; 0x12
    5bfa:	fb 89       	ldd	r31, Y+19	; 0x13
    5bfc:	80 81       	ld	r24, Z
    5bfe:	88 60       	ori	r24, 0x08	; 8
    5c00:	80 83       	st	Z, r24
  sbi(*_ucsrb, RXCIE0);
    5c02:	ea 89       	ldd	r30, Y+18	; 0x12
    5c04:	fb 89       	ldd	r31, Y+19	; 0x13
    5c06:	80 81       	ld	r24, Z
    5c08:	80 68       	ori	r24, 0x80	; 128
    5c0a:	80 83       	st	Z, r24
  cbi(*_ucsrb, UDRIE0);
    5c0c:	ea 89       	ldd	r30, Y+18	; 0x12
    5c0e:	fb 89       	ldd	r31, Y+19	; 0x13
    5c10:	80 81       	ld	r24, Z
    5c12:	8f 7d       	andi	r24, 0xDF	; 223
    5c14:	80 83       	st	Z, r24
}
    5c16:	df 91       	pop	r29
    5c18:	cf 91       	pop	r28
    5c1a:	1f 91       	pop	r17
    5c1c:	ff 90       	pop	r15
    5c1e:	ef 90       	pop	r14
    5c20:	df 90       	pop	r13
    5c22:	cf 90       	pop	r12
    5c24:	08 95       	ret

00005c26 <__vector_25>:
#elif defined(USART_RXC_vect)
  ISR(USART_RXC_vect) // ATmega8
#else
  #error "Don't know what the Data Received vector is called for Serial"
#endif
  {
    5c26:	1f 92       	push	r1
    5c28:	0f 92       	push	r0
    5c2a:	0f b6       	in	r0, 0x3f	; 63
    5c2c:	0f 92       	push	r0
    5c2e:	11 24       	eor	r1, r1
    5c30:	0b b6       	in	r0, 0x3b	; 59
    5c32:	0f 92       	push	r0
    5c34:	2f 93       	push	r18
    5c36:	8f 93       	push	r24
    5c38:	9f 93       	push	r25
    5c3a:	ef 93       	push	r30
    5c3c:	ff 93       	push	r31

// Actual interrupt handlers //////////////////////////////////////////////////////////////

void HardwareSerial::_rx_complete_irq(void)
{
  if (bit_is_clear(*_ucsra, UPE0)) {
    5c3e:	e0 91 e3 0e 	lds	r30, 0x0EE3	; 0x800ee3 <Serial+0x10>
    5c42:	f0 91 e4 0e 	lds	r31, 0x0EE4	; 0x800ee4 <Serial+0x11>
    5c46:	80 81       	ld	r24, Z
    5c48:	e0 91 e9 0e 	lds	r30, 0x0EE9	; 0x800ee9 <Serial+0x16>
    5c4c:	f0 91 ea 0e 	lds	r31, 0x0EEA	; 0x800eea <Serial+0x17>
    5c50:	82 fd       	sbrc	r24, 2
    5c52:	12 c0       	rjmp	.+36     	; 0x5c78 <__vector_25+0x52>
    // No Parity error, read byte and store it in the buffer if there is
    // room
    unsigned char c = *_udr;
    5c54:	90 81       	ld	r25, Z
    rx_buffer_index_t i = (unsigned int)(_rx_buffer_head + 1) % SERIAL_RX_BUFFER_SIZE;
    5c56:	80 91 ec 0e 	lds	r24, 0x0EEC	; 0x800eec <Serial+0x19>
    5c5a:	8f 5f       	subi	r24, 0xFF	; 255
    5c5c:	8f 73       	andi	r24, 0x3F	; 63

    // if we should be storing the received character into the location
    // just before the tail (meaning that the head would advance to the
    // current location of the tail), we're about to overflow the buffer
    // and so we don't write the character or advance the head.
    if (i != _rx_buffer_tail) {
    5c5e:	20 91 ed 0e 	lds	r18, 0x0EED	; 0x800eed <Serial+0x1a>
    5c62:	82 17       	cp	r24, r18
    5c64:	51 f0       	breq	.+20     	; 0x5c7a <__vector_25+0x54>
      _rx_buffer[_rx_buffer_head] = c;
    5c66:	e0 91 ec 0e 	lds	r30, 0x0EEC	; 0x800eec <Serial+0x19>
    5c6a:	f0 e0       	ldi	r31, 0x00	; 0
    5c6c:	ed 52       	subi	r30, 0x2D	; 45
    5c6e:	f1 4f       	sbci	r31, 0xF1	; 241
    5c70:	95 8f       	std	Z+29, r25	; 0x1d
      _rx_buffer_head = i;
    5c72:	80 93 ec 0e 	sts	0x0EEC, r24	; 0x800eec <Serial+0x19>
    5c76:	01 c0       	rjmp	.+2      	; 0x5c7a <__vector_25+0x54>
    }
  } else {
    // Parity error, read byte but discard it
    *_udr;
    5c78:	80 81       	ld	r24, Z
    Serial._rx_complete_irq();
  }
    5c7a:	ff 91       	pop	r31
    5c7c:	ef 91       	pop	r30
    5c7e:	9f 91       	pop	r25
    5c80:	8f 91       	pop	r24
    5c82:	2f 91       	pop	r18
    5c84:	0f 90       	pop	r0
    5c86:	0b be       	out	0x3b, r0	; 59
    5c88:	0f 90       	pop	r0
    5c8a:	0f be       	out	0x3f, r0	; 63
    5c8c:	0f 90       	pop	r0
    5c8e:	1f 90       	pop	r1
    5c90:	18 95       	reti

00005c92 <__vector_26>:
#elif defined(USART_UDRE_vect)
ISR(USART_UDRE_vect)
#else
  #error "Don't know what the Data Register Empty vector is called for Serial"
#endif
{
    5c92:	1f 92       	push	r1
    5c94:	0f 92       	push	r0
    5c96:	0f b6       	in	r0, 0x3f	; 63
    5c98:	0f 92       	push	r0
    5c9a:	11 24       	eor	r1, r1
    5c9c:	0b b6       	in	r0, 0x3b	; 59
    5c9e:	0f 92       	push	r0
    5ca0:	2f 93       	push	r18
    5ca2:	3f 93       	push	r19
    5ca4:	4f 93       	push	r20
    5ca6:	5f 93       	push	r21
    5ca8:	6f 93       	push	r22
    5caa:	7f 93       	push	r23
    5cac:	8f 93       	push	r24
    5cae:	9f 93       	push	r25
    5cb0:	af 93       	push	r26
    5cb2:	bf 93       	push	r27
    5cb4:	ef 93       	push	r30
    5cb6:	ff 93       	push	r31
  Serial._tx_udr_empty_irq();
    5cb8:	83 ed       	ldi	r24, 0xD3	; 211
    5cba:	9e e0       	ldi	r25, 0x0E	; 14
    5cbc:	c7 de       	rcall	.-626    	; 0x5a4c <_ZN14HardwareSerial17_tx_udr_empty_irqEv>
}
    5cbe:	ff 91       	pop	r31
    5cc0:	ef 91       	pop	r30
    5cc2:	bf 91       	pop	r27
    5cc4:	af 91       	pop	r26
    5cc6:	9f 91       	pop	r25
    5cc8:	8f 91       	pop	r24
    5cca:	7f 91       	pop	r23
    5ccc:	6f 91       	pop	r22
    5cce:	5f 91       	pop	r21
    5cd0:	4f 91       	pop	r20
    5cd2:	3f 91       	pop	r19
    5cd4:	2f 91       	pop	r18
    5cd6:	0f 90       	pop	r0
    5cd8:	0b be       	out	0x3b, r0	; 59
    5cda:	0f 90       	pop	r0
    5cdc:	0f be       	out	0x3f, r0	; 63
    5cde:	0f 90       	pop	r0
    5ce0:	1f 90       	pop	r1
    5ce2:	18 95       	reti

00005ce4 <_Z17Serial0_availablev>:
#endif

// Function that can be weakly referenced by serialEventRun to prevent
// pulling in this file if it's not otherwise used.
bool Serial0_available() {
  return Serial.available();
    5ce4:	83 ed       	ldi	r24, 0xD3	; 211
    5ce6:	9e e0       	ldi	r25, 0x0E	; 14
    5ce8:	39 de       	rcall	.-910    	; 0x595c <_ZN14HardwareSerial9availableEv>
    5cea:	21 e0       	ldi	r18, 0x01	; 1
    5cec:	89 2b       	or	r24, r25
    5cee:	09 f4       	brne	.+2      	; 0x5cf2 <_Z17Serial0_availablev+0xe>
    5cf0:	20 e0       	ldi	r18, 0x00	; 0
}
    5cf2:	82 2f       	mov	r24, r18
    5cf4:	08 95       	ret

00005cf6 <_GLOBAL__sub_I___vector_25>:
    size_t printNumber(unsigned long, uint8_t);
    size_t printFloat(double, uint8_t);
  protected:
    void setWriteError(int err = 1) { write_error = err; }
  public:
    Print() : write_error(0) {}
    5cf6:	e3 ed       	ldi	r30, 0xD3	; 211
    5cf8:	fe e0       	ldi	r31, 0x0E	; 14
    5cfa:	13 82       	std	Z+3, r1	; 0x03
    5cfc:	12 82       	std	Z+2, r1	; 0x02
  public:
    virtual int available() = 0;
    virtual int read() = 0;
    virtual int peek() = 0;

    Stream() {_timeout=1000;}
    5cfe:	88 ee       	ldi	r24, 0xE8	; 232
    5d00:	93 e0       	ldi	r25, 0x03	; 3
    5d02:	a0 e0       	ldi	r26, 0x00	; 0
    5d04:	b0 e0       	ldi	r27, 0x00	; 0
    5d06:	84 83       	std	Z+4, r24	; 0x04
    5d08:	95 83       	std	Z+5, r25	; 0x05
    5d0a:	a6 83       	std	Z+6, r26	; 0x06
    5d0c:	b7 83       	std	Z+7, r27	; 0x07
  volatile uint8_t *ucsrc, volatile uint8_t *udr) :
    _ubrrh(ubrrh), _ubrrl(ubrrl),
    _ucsra(ucsra), _ucsrb(ucsrb), _ucsrc(ucsrc),
    _udr(udr),
    _rx_buffer_head(0), _rx_buffer_tail(0),
    _tx_buffer_head(0), _tx_buffer_tail(0)
    5d0e:	8d e2       	ldi	r24, 0x2D	; 45
    5d10:	9c e0       	ldi	r25, 0x0C	; 12
    5d12:	91 83       	std	Z+1, r25	; 0x01
    5d14:	80 83       	st	Z, r24
    5d16:	85 ec       	ldi	r24, 0xC5	; 197
    5d18:	90 e0       	ldi	r25, 0x00	; 0
    5d1a:	95 87       	std	Z+13, r25	; 0x0d
    5d1c:	84 87       	std	Z+12, r24	; 0x0c
    5d1e:	84 ec       	ldi	r24, 0xC4	; 196
    5d20:	90 e0       	ldi	r25, 0x00	; 0
    5d22:	97 87       	std	Z+15, r25	; 0x0f
    5d24:	86 87       	std	Z+14, r24	; 0x0e
    5d26:	80 ec       	ldi	r24, 0xC0	; 192
    5d28:	90 e0       	ldi	r25, 0x00	; 0
    5d2a:	91 8b       	std	Z+17, r25	; 0x11
    5d2c:	80 8b       	std	Z+16, r24	; 0x10
    5d2e:	81 ec       	ldi	r24, 0xC1	; 193
    5d30:	90 e0       	ldi	r25, 0x00	; 0
    5d32:	93 8b       	std	Z+19, r25	; 0x13
    5d34:	82 8b       	std	Z+18, r24	; 0x12
    5d36:	82 ec       	ldi	r24, 0xC2	; 194
    5d38:	90 e0       	ldi	r25, 0x00	; 0
    5d3a:	95 8b       	std	Z+21, r25	; 0x15
    5d3c:	84 8b       	std	Z+20, r24	; 0x14
    5d3e:	86 ec       	ldi	r24, 0xC6	; 198
    5d40:	90 e0       	ldi	r25, 0x00	; 0
    5d42:	97 8b       	std	Z+23, r25	; 0x17
    5d44:	86 8b       	std	Z+22, r24	; 0x16
    5d46:	11 8e       	std	Z+25, r1	; 0x19
    5d48:	12 8e       	std	Z+26, r1	; 0x1a
    5d4a:	13 8e       	std	Z+27, r1	; 0x1b
    5d4c:	14 8e       	std	Z+28, r1	; 0x1c
    5d4e:	08 95       	ret

00005d50 <__vector_51>:
// first place.

#if defined(HAVE_HWSERIAL2)

ISR(USART2_RX_vect)
{
    5d50:	1f 92       	push	r1
    5d52:	0f 92       	push	r0
    5d54:	0f b6       	in	r0, 0x3f	; 63
    5d56:	0f 92       	push	r0
    5d58:	11 24       	eor	r1, r1
    5d5a:	0b b6       	in	r0, 0x3b	; 59
    5d5c:	0f 92       	push	r0
    5d5e:	2f 93       	push	r18
    5d60:	8f 93       	push	r24
    5d62:	9f 93       	push	r25
    5d64:	ef 93       	push	r30
    5d66:	ff 93       	push	r31

// Actual interrupt handlers //////////////////////////////////////////////////////////////

void HardwareSerial::_rx_complete_irq(void)
{
  if (bit_is_clear(*_ucsra, UPE0)) {
    5d68:	e0 91 80 0f 	lds	r30, 0x0F80	; 0x800f80 <Serial2+0x10>
    5d6c:	f0 91 81 0f 	lds	r31, 0x0F81	; 0x800f81 <Serial2+0x11>
    5d70:	80 81       	ld	r24, Z
    5d72:	e0 91 86 0f 	lds	r30, 0x0F86	; 0x800f86 <Serial2+0x16>
    5d76:	f0 91 87 0f 	lds	r31, 0x0F87	; 0x800f87 <Serial2+0x17>
    5d7a:	82 fd       	sbrc	r24, 2
    5d7c:	12 c0       	rjmp	.+36     	; 0x5da2 <__vector_51+0x52>
    // No Parity error, read byte and store it in the buffer if there is
    // room
    unsigned char c = *_udr;
    5d7e:	90 81       	ld	r25, Z
    rx_buffer_index_t i = (unsigned int)(_rx_buffer_head + 1) % SERIAL_RX_BUFFER_SIZE;
    5d80:	80 91 89 0f 	lds	r24, 0x0F89	; 0x800f89 <Serial2+0x19>
    5d84:	8f 5f       	subi	r24, 0xFF	; 255
    5d86:	8f 73       	andi	r24, 0x3F	; 63

    // if we should be storing the received character into the location
    // just before the tail (meaning that the head would advance to the
    // current location of the tail), we're about to overflow the buffer
    // and so we don't write the character or advance the head.
    if (i != _rx_buffer_tail) {
    5d88:	20 91 8a 0f 	lds	r18, 0x0F8A	; 0x800f8a <Serial2+0x1a>
    5d8c:	82 17       	cp	r24, r18
    5d8e:	51 f0       	breq	.+20     	; 0x5da4 <__vector_51+0x54>
      _rx_buffer[_rx_buffer_head] = c;
    5d90:	e0 91 89 0f 	lds	r30, 0x0F89	; 0x800f89 <Serial2+0x19>
    5d94:	f0 e0       	ldi	r31, 0x00	; 0
    5d96:	e0 59       	subi	r30, 0x90	; 144
    5d98:	f0 4f       	sbci	r31, 0xF0	; 240
    5d9a:	95 8f       	std	Z+29, r25	; 0x1d
      _rx_buffer_head = i;
    5d9c:	80 93 89 0f 	sts	0x0F89, r24	; 0x800f89 <Serial2+0x19>
    5da0:	01 c0       	rjmp	.+2      	; 0x5da4 <__vector_51+0x54>
    }
  } else {
    // Parity error, read byte but discard it
    *_udr;
    5da2:	80 81       	ld	r24, Z
  Serial2._rx_complete_irq();
}
    5da4:	ff 91       	pop	r31
    5da6:	ef 91       	pop	r30
    5da8:	9f 91       	pop	r25
    5daa:	8f 91       	pop	r24
    5dac:	2f 91       	pop	r18
    5dae:	0f 90       	pop	r0
    5db0:	0b be       	out	0x3b, r0	; 59
    5db2:	0f 90       	pop	r0
    5db4:	0f be       	out	0x3f, r0	; 63
    5db6:	0f 90       	pop	r0
    5db8:	1f 90       	pop	r1
    5dba:	18 95       	reti

00005dbc <__vector_52>:

ISR(USART2_UDRE_vect)
{
    5dbc:	1f 92       	push	r1
    5dbe:	0f 92       	push	r0
    5dc0:	0f b6       	in	r0, 0x3f	; 63
    5dc2:	0f 92       	push	r0
    5dc4:	11 24       	eor	r1, r1
    5dc6:	0b b6       	in	r0, 0x3b	; 59
    5dc8:	0f 92       	push	r0
    5dca:	2f 93       	push	r18
    5dcc:	3f 93       	push	r19
    5dce:	4f 93       	push	r20
    5dd0:	5f 93       	push	r21
    5dd2:	6f 93       	push	r22
    5dd4:	7f 93       	push	r23
    5dd6:	8f 93       	push	r24
    5dd8:	9f 93       	push	r25
    5dda:	af 93       	push	r26
    5ddc:	bf 93       	push	r27
    5dde:	ef 93       	push	r30
    5de0:	ff 93       	push	r31
  Serial2._tx_udr_empty_irq();
    5de2:	80 e7       	ldi	r24, 0x70	; 112
    5de4:	9f e0       	ldi	r25, 0x0F	; 15
    5de6:	32 de       	rcall	.-924    	; 0x5a4c <_ZN14HardwareSerial17_tx_udr_empty_irqEv>
}
    5de8:	ff 91       	pop	r31
    5dea:	ef 91       	pop	r30
    5dec:	bf 91       	pop	r27
    5dee:	af 91       	pop	r26
    5df0:	9f 91       	pop	r25
    5df2:	8f 91       	pop	r24
    5df4:	7f 91       	pop	r23
    5df6:	6f 91       	pop	r22
    5df8:	5f 91       	pop	r21
    5dfa:	4f 91       	pop	r20
    5dfc:	3f 91       	pop	r19
    5dfe:	2f 91       	pop	r18
    5e00:	0f 90       	pop	r0
    5e02:	0b be       	out	0x3b, r0	; 59
    5e04:	0f 90       	pop	r0
    5e06:	0f be       	out	0x3f, r0	; 63
    5e08:	0f 90       	pop	r0
    5e0a:	1f 90       	pop	r1
    5e0c:	18 95       	reti

00005e0e <_Z17Serial2_availablev>:
HardwareSerial Serial2(&UBRR2H, &UBRR2L, &UCSR2A, &UCSR2B, &UCSR2C, &UDR2);

// Function that can be weakly referenced by serialEventRun to prevent
// pulling in this file if it's not otherwise used.
bool Serial2_available() {
  return Serial2.available();
    5e0e:	80 e7       	ldi	r24, 0x70	; 112
    5e10:	9f e0       	ldi	r25, 0x0F	; 15
    5e12:	a4 dd       	rcall	.-1208   	; 0x595c <_ZN14HardwareSerial9availableEv>
    5e14:	21 e0       	ldi	r18, 0x01	; 1
    5e16:	89 2b       	or	r24, r25
    5e18:	09 f4       	brne	.+2      	; 0x5e1c <_Z17Serial2_availablev+0xe>
    5e1a:	20 e0       	ldi	r18, 0x00	; 0
}
    5e1c:	82 2f       	mov	r24, r18
    5e1e:	08 95       	ret

00005e20 <_GLOBAL__sub_I___vector_51>:
    5e20:	e0 e7       	ldi	r30, 0x70	; 112
    5e22:	ff e0       	ldi	r31, 0x0F	; 15
    5e24:	13 82       	std	Z+3, r1	; 0x03
    5e26:	12 82       	std	Z+2, r1	; 0x02
    5e28:	88 ee       	ldi	r24, 0xE8	; 232
    5e2a:	93 e0       	ldi	r25, 0x03	; 3
    5e2c:	a0 e0       	ldi	r26, 0x00	; 0
    5e2e:	b0 e0       	ldi	r27, 0x00	; 0
    5e30:	84 83       	std	Z+4, r24	; 0x04
    5e32:	95 83       	std	Z+5, r25	; 0x05
    5e34:	a6 83       	std	Z+6, r26	; 0x06
    5e36:	b7 83       	std	Z+7, r27	; 0x07
  volatile uint8_t *ucsrc, volatile uint8_t *udr) :
    _ubrrh(ubrrh), _ubrrl(ubrrl),
    _ucsra(ucsra), _ucsrb(ucsrb), _ucsrc(ucsrc),
    _udr(udr),
    _rx_buffer_head(0), _rx_buffer_tail(0),
    _tx_buffer_head(0), _tx_buffer_tail(0)
    5e38:	8d e2       	ldi	r24, 0x2D	; 45
    5e3a:	9c e0       	ldi	r25, 0x0C	; 12
    5e3c:	91 83       	std	Z+1, r25	; 0x01
    5e3e:	80 83       	st	Z, r24
    5e40:	85 ed       	ldi	r24, 0xD5	; 213
    5e42:	90 e0       	ldi	r25, 0x00	; 0
    5e44:	95 87       	std	Z+13, r25	; 0x0d
    5e46:	84 87       	std	Z+12, r24	; 0x0c
    5e48:	84 ed       	ldi	r24, 0xD4	; 212
    5e4a:	90 e0       	ldi	r25, 0x00	; 0
    5e4c:	97 87       	std	Z+15, r25	; 0x0f
    5e4e:	86 87       	std	Z+14, r24	; 0x0e
    5e50:	80 ed       	ldi	r24, 0xD0	; 208
    5e52:	90 e0       	ldi	r25, 0x00	; 0
    5e54:	91 8b       	std	Z+17, r25	; 0x11
    5e56:	80 8b       	std	Z+16, r24	; 0x10
    5e58:	81 ed       	ldi	r24, 0xD1	; 209
    5e5a:	90 e0       	ldi	r25, 0x00	; 0
    5e5c:	93 8b       	std	Z+19, r25	; 0x13
    5e5e:	82 8b       	std	Z+18, r24	; 0x12
    5e60:	82 ed       	ldi	r24, 0xD2	; 210
    5e62:	90 e0       	ldi	r25, 0x00	; 0
    5e64:	95 8b       	std	Z+21, r25	; 0x15
    5e66:	84 8b       	std	Z+20, r24	; 0x14
    5e68:	86 ed       	ldi	r24, 0xD6	; 214
    5e6a:	90 e0       	ldi	r25, 0x00	; 0
    5e6c:	97 8b       	std	Z+23, r25	; 0x17
    5e6e:	86 8b       	std	Z+22, r24	; 0x16
    5e70:	11 8e       	std	Z+25, r1	; 0x19
    5e72:	12 8e       	std	Z+26, r1	; 0x1a
    5e74:	13 8e       	std	Z+27, r1	; 0x1b
    5e76:	14 8e       	std	Z+28, r1	; 0x1c
    5e78:	08 95       	ret

00005e7a <initVariant>:
// May be redefined by variant files.
void initVariant() __attribute__((weak));
void initVariant() { }

void setupUSB() __attribute__((weak));
void setupUSB() { }
    5e7a:	08 95       	ret

00005e7c <main>:

int main(void)
{
	init();
    5e7c:	cd d4       	rcall	.+2458   	; 0x6818 <init>

	initVariant();
    5e7e:	fd df       	rcall	.-6      	; 0x5e7a <initVariant>

#if defined(USBCON)
	USBDevice.attach();
#endif
	
	setup();
    5e80:	0e 94 12 21 	call	0x4224	; 0x4224 <setup>
    
	for (;;) {
		loop();
		if (serialEventRun) serialEventRun();
    5e84:	cb ee       	ldi	r28, 0xEB	; 235
    5e86:	dc e2       	ldi	r29, 0x2C	; 44
#endif
	
	setup();
    
	for (;;) {
		loop();
    5e88:	0e 94 5d 21 	call	0x42ba	; 0x42ba <loop>
		if (serialEventRun) serialEventRun();
    5e8c:	20 97       	sbiw	r28, 0x00	; 0
    5e8e:	e1 f3       	breq	.-8      	; 0x5e88 <main+0xc>
    5e90:	a2 dd       	rcall	.-1212   	; 0x59d6 <_Z14serialEventRunv>
    5e92:	fa cf       	rjmp	.-12     	; 0x5e88 <main+0xc>

00005e94 <_ZN5Print5writeEPKhj>:
size_t Print::println(unsigned long num, int base)
{
  size_t n = print(num, base);
  n += println();
  return n;
}
    5e94:	cf 92       	push	r12
    5e96:	df 92       	push	r13
    5e98:	ef 92       	push	r14
    5e9a:	ff 92       	push	r15
    5e9c:	0f 93       	push	r16
    5e9e:	1f 93       	push	r17
    5ea0:	cf 93       	push	r28
    5ea2:	df 93       	push	r29
    5ea4:	6c 01       	movw	r12, r24
    5ea6:	7a 01       	movw	r14, r20
    5ea8:	8b 01       	movw	r16, r22
    5eaa:	c0 e0       	ldi	r28, 0x00	; 0
    5eac:	d0 e0       	ldi	r29, 0x00	; 0
    5eae:	ce 15       	cp	r28, r14
    5eb0:	df 05       	cpc	r29, r15
    5eb2:	89 f0       	breq	.+34     	; 0x5ed6 <_ZN5Print5writeEPKhj+0x42>
    5eb4:	d8 01       	movw	r26, r16
    5eb6:	6d 91       	ld	r22, X+
    5eb8:	8d 01       	movw	r16, r26
    5eba:	d6 01       	movw	r26, r12
    5ebc:	ed 91       	ld	r30, X+
    5ebe:	fc 91       	ld	r31, X
    5ec0:	01 90       	ld	r0, Z+
    5ec2:	f0 81       	ld	r31, Z
    5ec4:	e0 2d       	mov	r30, r0
    5ec6:	c6 01       	movw	r24, r12
    5ec8:	19 95       	eicall
    5eca:	89 2b       	or	r24, r25
    5ecc:	11 f4       	brne	.+4      	; 0x5ed2 <_ZN5Print5writeEPKhj+0x3e>
    5ece:	7e 01       	movw	r14, r28
    5ed0:	02 c0       	rjmp	.+4      	; 0x5ed6 <_ZN5Print5writeEPKhj+0x42>
    5ed2:	21 96       	adiw	r28, 0x01	; 1
    5ed4:	ec cf       	rjmp	.-40     	; 0x5eae <_ZN5Print5writeEPKhj+0x1a>
    5ed6:	c7 01       	movw	r24, r14
    5ed8:	df 91       	pop	r29
    5eda:	cf 91       	pop	r28
    5edc:	1f 91       	pop	r17
    5ede:	0f 91       	pop	r16
    5ee0:	ff 90       	pop	r15
    5ee2:	ef 90       	pop	r14
    5ee4:	df 90       	pop	r13
    5ee6:	cf 90       	pop	r12
    5ee8:	08 95       	ret

00005eea <_ZN5Print5writeEPKc>:
    5eea:	61 15       	cp	r22, r1
    5eec:	71 05       	cpc	r23, r1
    5eee:	79 f0       	breq	.+30     	; 0x5f0e <_ZN5Print5writeEPKc+0x24>
    5ef0:	fb 01       	movw	r30, r22
    5ef2:	01 90       	ld	r0, Z+
    5ef4:	00 20       	and	r0, r0
    5ef6:	e9 f7       	brne	.-6      	; 0x5ef2 <_ZN5Print5writeEPKc+0x8>
    5ef8:	31 97       	sbiw	r30, 0x01	; 1
    5efa:	af 01       	movw	r20, r30
    5efc:	46 1b       	sub	r20, r22
    5efe:	57 0b       	sbc	r21, r23
    5f00:	dc 01       	movw	r26, r24
    5f02:	ed 91       	ld	r30, X+
    5f04:	fc 91       	ld	r31, X
    5f06:	02 80       	ldd	r0, Z+2	; 0x02
    5f08:	f3 81       	ldd	r31, Z+3	; 0x03
    5f0a:	e0 2d       	mov	r30, r0
    5f0c:	19 94       	eijmp
    5f0e:	80 e0       	ldi	r24, 0x00	; 0
    5f10:	90 e0       	ldi	r25, 0x00	; 0
    5f12:	08 95       	ret

00005f14 <_ZN5Print5printERK6String>:
    5f14:	dc 01       	movw	r26, r24
    5f16:	ed 91       	ld	r30, X+
    5f18:	fc 91       	ld	r31, X
    5f1a:	db 01       	movw	r26, r22
    5f1c:	14 96       	adiw	r26, 0x04	; 4
    5f1e:	4d 91       	ld	r20, X+
    5f20:	5c 91       	ld	r21, X
    5f22:	15 97       	sbiw	r26, 0x05	; 5
    5f24:	6d 91       	ld	r22, X+
    5f26:	7c 91       	ld	r23, X
    5f28:	02 80       	ldd	r0, Z+2	; 0x02
    5f2a:	f3 81       	ldd	r31, Z+3	; 0x03
    5f2c:	e0 2d       	mov	r30, r0
    5f2e:	19 94       	eijmp

00005f30 <_ZN5Print5printEPKc>:
    5f30:	dc cf       	rjmp	.-72     	; 0x5eea <_ZN5Print5writeEPKc>

00005f32 <_ZN5Print5printEc>:
    5f32:	dc 01       	movw	r26, r24
    5f34:	ed 91       	ld	r30, X+
    5f36:	fc 91       	ld	r31, X
    5f38:	01 90       	ld	r0, Z+
    5f3a:	f0 81       	ld	r31, Z
    5f3c:	e0 2d       	mov	r30, r0
    5f3e:	19 94       	eijmp

00005f40 <_ZN5Print7printlnEv>:
    5f40:	6b e3       	ldi	r22, 0x3B	; 59
    5f42:	7c e0       	ldi	r23, 0x0C	; 12
    5f44:	d2 cf       	rjmp	.-92     	; 0x5eea <_ZN5Print5writeEPKc>

00005f46 <_ZN5Print7printlnERK6String>:
    5f46:	0f 93       	push	r16
    5f48:	1f 93       	push	r17
    5f4a:	cf 93       	push	r28
    5f4c:	df 93       	push	r29
    5f4e:	ec 01       	movw	r28, r24
    5f50:	e1 df       	rcall	.-62     	; 0x5f14 <_ZN5Print5printERK6String>
    5f52:	8c 01       	movw	r16, r24
    5f54:	ce 01       	movw	r24, r28
    5f56:	f4 df       	rcall	.-24     	; 0x5f40 <_ZN5Print7printlnEv>
    5f58:	80 0f       	add	r24, r16
    5f5a:	91 1f       	adc	r25, r17
    5f5c:	df 91       	pop	r29
    5f5e:	cf 91       	pop	r28
    5f60:	1f 91       	pop	r17
    5f62:	0f 91       	pop	r16
    5f64:	08 95       	ret

00005f66 <_ZN5Print7printlnEPKc>:
    5f66:	0f 93       	push	r16
    5f68:	1f 93       	push	r17
    5f6a:	cf 93       	push	r28
    5f6c:	df 93       	push	r29
    5f6e:	ec 01       	movw	r28, r24
    5f70:	bc df       	rcall	.-136    	; 0x5eea <_ZN5Print5writeEPKc>
    5f72:	8c 01       	movw	r16, r24
    5f74:	ce 01       	movw	r24, r28
    5f76:	e4 df       	rcall	.-56     	; 0x5f40 <_ZN5Print7printlnEv>
    5f78:	80 0f       	add	r24, r16
    5f7a:	91 1f       	adc	r25, r17
    5f7c:	df 91       	pop	r29
    5f7e:	cf 91       	pop	r28
    5f80:	1f 91       	pop	r17
    5f82:	0f 91       	pop	r16
    5f84:	08 95       	ret

00005f86 <_ZN5Print11printNumberEmh>:
    5f86:	8f 92       	push	r8
    5f88:	9f 92       	push	r9
    5f8a:	af 92       	push	r10
    5f8c:	bf 92       	push	r11
    5f8e:	cf 92       	push	r12
    5f90:	df 92       	push	r13
    5f92:	ef 92       	push	r14
    5f94:	ff 92       	push	r15
    5f96:	0f 93       	push	r16
    5f98:	1f 93       	push	r17
    5f9a:	cf 93       	push	r28
    5f9c:	df 93       	push	r29
    5f9e:	cd b7       	in	r28, 0x3d	; 61
    5fa0:	de b7       	in	r29, 0x3e	; 62
    5fa2:	a1 97       	sbiw	r28, 0x21	; 33
    5fa4:	0f b6       	in	r0, 0x3f	; 63
    5fa6:	f8 94       	cli
    5fa8:	de bf       	out	0x3e, r29	; 62
    5faa:	0f be       	out	0x3f, r0	; 63
    5fac:	cd bf       	out	0x3d, r28	; 61
    5fae:	7c 01       	movw	r14, r24
    5fb0:	d4 2e       	mov	r13, r20
    5fb2:	c5 2e       	mov	r12, r21
    5fb4:	db 01       	movw	r26, r22
    5fb6:	19 a2       	std	Y+33, r1	; 0x21
    5fb8:	22 30       	cpi	r18, 0x02	; 2
    5fba:	08 f4       	brcc	.+2      	; 0x5fbe <_ZN5Print11printNumberEmh+0x38>
    5fbc:	2a e0       	ldi	r18, 0x0A	; 10
    5fbe:	8e 01       	movw	r16, r28
    5fc0:	0f 5d       	subi	r16, 0xDF	; 223
    5fc2:	1f 4f       	sbci	r17, 0xFF	; 255
    5fc4:	82 2e       	mov	r8, r18
    5fc6:	91 2c       	mov	r9, r1
    5fc8:	a1 2c       	mov	r10, r1
    5fca:	b1 2c       	mov	r11, r1
    5fcc:	6d 2d       	mov	r22, r13
    5fce:	7c 2d       	mov	r23, r12
    5fd0:	cd 01       	movw	r24, r26
    5fd2:	a5 01       	movw	r20, r10
    5fd4:	94 01       	movw	r18, r8
    5fd6:	9a d6       	rcall	.+3380   	; 0x6d0c <__udivmodsi4>
    5fd8:	d2 2e       	mov	r13, r18
    5fda:	c3 2e       	mov	r12, r19
    5fdc:	da 01       	movw	r26, r20
    5fde:	01 50       	subi	r16, 0x01	; 1
    5fe0:	11 09       	sbc	r17, r1
    5fe2:	6a 30       	cpi	r22, 0x0A	; 10
    5fe4:	71 05       	cpc	r23, r1
    5fe6:	81 05       	cpc	r24, r1
    5fe8:	91 05       	cpc	r25, r1
    5fea:	10 f4       	brcc	.+4      	; 0x5ff0 <_ZN5Print11printNumberEmh+0x6a>
    5fec:	60 5d       	subi	r22, 0xD0	; 208
    5fee:	01 c0       	rjmp	.+2      	; 0x5ff2 <_ZN5Print11printNumberEmh+0x6c>
    5ff0:	69 5c       	subi	r22, 0xC9	; 201
    5ff2:	f8 01       	movw	r30, r16
    5ff4:	60 83       	st	Z, r22
    5ff6:	23 2b       	or	r18, r19
    5ff8:	24 2b       	or	r18, r20
    5ffa:	25 2b       	or	r18, r21
    5ffc:	39 f7       	brne	.-50     	; 0x5fcc <_ZN5Print11printNumberEmh+0x46>
    5ffe:	b8 01       	movw	r22, r16
    6000:	c7 01       	movw	r24, r14
    6002:	73 df       	rcall	.-282    	; 0x5eea <_ZN5Print5writeEPKc>
    6004:	a1 96       	adiw	r28, 0x21	; 33
    6006:	0f b6       	in	r0, 0x3f	; 63
    6008:	f8 94       	cli
    600a:	de bf       	out	0x3e, r29	; 62
    600c:	0f be       	out	0x3f, r0	; 63
    600e:	cd bf       	out	0x3d, r28	; 61
    6010:	df 91       	pop	r29
    6012:	cf 91       	pop	r28
    6014:	1f 91       	pop	r17
    6016:	0f 91       	pop	r16
    6018:	ff 90       	pop	r15
    601a:	ef 90       	pop	r14
    601c:	df 90       	pop	r13
    601e:	cf 90       	pop	r12
    6020:	bf 90       	pop	r11
    6022:	af 90       	pop	r10
    6024:	9f 90       	pop	r9
    6026:	8f 90       	pop	r8
    6028:	08 95       	ret

0000602a <_ZN5Print5printEli>:
    602a:	cf 92       	push	r12
    602c:	df 92       	push	r13
    602e:	ef 92       	push	r14
    6030:	ff 92       	push	r15
    6032:	0f 93       	push	r16
    6034:	1f 93       	push	r17
    6036:	cf 93       	push	r28
    6038:	df 93       	push	r29
    603a:	ec 01       	movw	r28, r24
    603c:	6a 01       	movw	r12, r20
    603e:	7b 01       	movw	r14, r22
    6040:	21 15       	cp	r18, r1
    6042:	31 05       	cpc	r19, r1
    6044:	79 f4       	brne	.+30     	; 0x6064 <_ZN5Print5printEli+0x3a>
    6046:	e8 81       	ld	r30, Y
    6048:	f9 81       	ldd	r31, Y+1	; 0x01
    604a:	01 90       	ld	r0, Z+
    604c:	f0 81       	ld	r31, Z
    604e:	e0 2d       	mov	r30, r0
    6050:	64 2f       	mov	r22, r20
    6052:	df 91       	pop	r29
    6054:	cf 91       	pop	r28
    6056:	1f 91       	pop	r17
    6058:	0f 91       	pop	r16
    605a:	ff 90       	pop	r15
    605c:	ef 90       	pop	r14
    605e:	df 90       	pop	r13
    6060:	cf 90       	pop	r12
    6062:	19 94       	eijmp
    6064:	2a 30       	cpi	r18, 0x0A	; 10
    6066:	31 05       	cpc	r19, r1
    6068:	d9 f4       	brne	.+54     	; 0x60a0 <_ZN5Print5printEli+0x76>
    606a:	77 ff       	sbrs	r23, 7
    606c:	18 c0       	rjmp	.+48     	; 0x609e <_ZN5Print5printEli+0x74>
    606e:	6d e2       	ldi	r22, 0x2D	; 45
    6070:	60 df       	rcall	.-320    	; 0x5f32 <_ZN5Print5printEc>
    6072:	8c 01       	movw	r16, r24
    6074:	44 27       	eor	r20, r20
    6076:	55 27       	eor	r21, r21
    6078:	ba 01       	movw	r22, r20
    607a:	4c 19       	sub	r20, r12
    607c:	5d 09       	sbc	r21, r13
    607e:	6e 09       	sbc	r22, r14
    6080:	7f 09       	sbc	r23, r15
    6082:	2a e0       	ldi	r18, 0x0A	; 10
    6084:	ce 01       	movw	r24, r28
    6086:	7f df       	rcall	.-258    	; 0x5f86 <_ZN5Print11printNumberEmh>
    6088:	80 0f       	add	r24, r16
    608a:	91 1f       	adc	r25, r17
    608c:	df 91       	pop	r29
    608e:	cf 91       	pop	r28
    6090:	1f 91       	pop	r17
    6092:	0f 91       	pop	r16
    6094:	ff 90       	pop	r15
    6096:	ef 90       	pop	r14
    6098:	df 90       	pop	r13
    609a:	cf 90       	pop	r12
    609c:	08 95       	ret
    609e:	2a e0       	ldi	r18, 0x0A	; 10
    60a0:	b7 01       	movw	r22, r14
    60a2:	a6 01       	movw	r20, r12
    60a4:	ce 01       	movw	r24, r28
    60a6:	df 91       	pop	r29
    60a8:	cf 91       	pop	r28
    60aa:	1f 91       	pop	r17
    60ac:	0f 91       	pop	r16
    60ae:	ff 90       	pop	r15
    60b0:	ef 90       	pop	r14
    60b2:	df 90       	pop	r13
    60b4:	cf 90       	pop	r12
    60b6:	67 cf       	rjmp	.-306    	; 0x5f86 <_ZN5Print11printNumberEmh>

000060b8 <_ZN5Print5printEii>:
    60b8:	9a 01       	movw	r18, r20
    60ba:	ab 01       	movw	r20, r22
    60bc:	77 0f       	add	r23, r23
    60be:	66 0b       	sbc	r22, r22
    60c0:	77 0b       	sbc	r23, r23
    60c2:	b3 cf       	rjmp	.-154    	; 0x602a <_ZN5Print5printEli>

000060c4 <_ZN5Print7printlnEii>:
    60c4:	0f 93       	push	r16
    60c6:	1f 93       	push	r17
    60c8:	cf 93       	push	r28
    60ca:	df 93       	push	r29
    60cc:	ec 01       	movw	r28, r24
    60ce:	9a 01       	movw	r18, r20
    60d0:	ab 01       	movw	r20, r22
    60d2:	77 0f       	add	r23, r23
    60d4:	66 0b       	sbc	r22, r22
    60d6:	77 0b       	sbc	r23, r23
    60d8:	a8 df       	rcall	.-176    	; 0x602a <_ZN5Print5printEli>
    60da:	8c 01       	movw	r16, r24
    60dc:	ce 01       	movw	r24, r28
    60de:	30 df       	rcall	.-416    	; 0x5f40 <_ZN5Print7printlnEv>
    60e0:	80 0f       	add	r24, r16
    60e2:	91 1f       	adc	r25, r17
    60e4:	df 91       	pop	r29
    60e6:	cf 91       	pop	r28
    60e8:	1f 91       	pop	r17
    60ea:	0f 91       	pop	r16
    60ec:	08 95       	ret

000060ee <_ZN5Print5printEmi>:
    60ee:	21 15       	cp	r18, r1
    60f0:	31 05       	cpc	r19, r1
    60f2:	41 f4       	brne	.+16     	; 0x6104 <_ZN5Print5printEmi+0x16>
    60f4:	dc 01       	movw	r26, r24
    60f6:	ed 91       	ld	r30, X+
    60f8:	fc 91       	ld	r31, X
    60fa:	01 90       	ld	r0, Z+
    60fc:	f0 81       	ld	r31, Z
    60fe:	e0 2d       	mov	r30, r0
    6100:	64 2f       	mov	r22, r20
    6102:	19 94       	eijmp
    6104:	40 cf       	rjmp	.-384    	; 0x5f86 <_ZN5Print11printNumberEmh>

00006106 <_ZN5Print7printlnEhi>:
    6106:	0f 93       	push	r16
    6108:	1f 93       	push	r17
    610a:	cf 93       	push	r28
    610c:	df 93       	push	r29
    610e:	ec 01       	movw	r28, r24
    6110:	9a 01       	movw	r18, r20
    6112:	46 2f       	mov	r20, r22
    6114:	50 e0       	ldi	r21, 0x00	; 0
    6116:	60 e0       	ldi	r22, 0x00	; 0
    6118:	70 e0       	ldi	r23, 0x00	; 0
    611a:	e9 df       	rcall	.-46     	; 0x60ee <_ZN5Print5printEmi>
    611c:	8c 01       	movw	r16, r24
    611e:	ce 01       	movw	r24, r28
    6120:	0f df       	rcall	.-482    	; 0x5f40 <_ZN5Print7printlnEv>
    6122:	80 0f       	add	r24, r16
    6124:	91 1f       	adc	r25, r17
    6126:	df 91       	pop	r29
    6128:	cf 91       	pop	r28
    612a:	1f 91       	pop	r17
    612c:	0f 91       	pop	r16
    612e:	08 95       	ret

00006130 <_ZN5Print10printFloatEdh>:

  return write(str);
}

size_t Print::printFloat(double number, uint8_t digits) 
{ 
    6130:	4f 92       	push	r4
    6132:	5f 92       	push	r5
    6134:	6f 92       	push	r6
    6136:	7f 92       	push	r7
    6138:	8f 92       	push	r8
    613a:	9f 92       	push	r9
    613c:	af 92       	push	r10
    613e:	bf 92       	push	r11
    6140:	cf 92       	push	r12
    6142:	df 92       	push	r13
    6144:	ef 92       	push	r14
    6146:	ff 92       	push	r15
    6148:	cf 93       	push	r28
    614a:	df 93       	push	r29
    614c:	ec 01       	movw	r28, r24
    614e:	6a 01       	movw	r12, r20
    6150:	7b 01       	movw	r14, r22
    6152:	b2 2e       	mov	r11, r18
  size_t n = 0;
  
  if (isnan(number)) return print("nan");
    6154:	9a 01       	movw	r18, r20
    6156:	ab 01       	movw	r20, r22
    6158:	c7 01       	movw	r24, r14
    615a:	b6 01       	movw	r22, r12
    615c:	c3 d5       	rcall	.+2950   	; 0x6ce4 <__unordsf2>
    615e:	88 23       	and	r24, r24
    6160:	19 f0       	breq	.+6      	; 0x6168 <_ZN5Print10printFloatEdh+0x38>
  return write(s.c_str(), s.length());
}

size_t Print::print(const char str[])
{
  return write(str);
    6162:	6e e3       	ldi	r22, 0x3E	; 62
    6164:	7c e0       	ldi	r23, 0x0C	; 12
    6166:	25 c0       	rjmp	.+74     	; 0x61b2 <_ZN5Print10printFloatEdh+0x82>
size_t Print::printFloat(double number, uint8_t digits) 
{ 
  size_t n = 0;
  
  if (isnan(number)) return print("nan");
  if (isinf(number)) return print("inf");
    6168:	26 01       	movw	r4, r12
    616a:	37 01       	movw	r6, r14
    616c:	e8 94       	clt
    616e:	77 f8       	bld	r7, 7
    6170:	2f ef       	ldi	r18, 0xFF	; 255
    6172:	3f ef       	ldi	r19, 0xFF	; 255
    6174:	4f e7       	ldi	r20, 0x7F	; 127
    6176:	5f e7       	ldi	r21, 0x7F	; 127
    6178:	c3 01       	movw	r24, r6
    617a:	b2 01       	movw	r22, r4
    617c:	b3 d5       	rcall	.+2918   	; 0x6ce4 <__unordsf2>
    617e:	81 11       	cpse	r24, r1
    6180:	0d c0       	rjmp	.+26     	; 0x619c <_ZN5Print10printFloatEdh+0x6c>
    6182:	2f ef       	ldi	r18, 0xFF	; 255
    6184:	3f ef       	ldi	r19, 0xFF	; 255
    6186:	4f e7       	ldi	r20, 0x7F	; 127
    6188:	5f e7       	ldi	r21, 0x7F	; 127
    618a:	c3 01       	movw	r24, r6
    618c:	b2 01       	movw	r22, r4
    618e:	0e 94 a4 28 	call	0x5148	; 0x5148 <__cmpsf2>
    6192:	18 16       	cp	r1, r24
    6194:	1c f4       	brge	.+6      	; 0x619c <_ZN5Print10printFloatEdh+0x6c>
  return write(s.c_str(), s.length());
}

size_t Print::print(const char str[])
{
  return write(str);
    6196:	62 e4       	ldi	r22, 0x42	; 66
    6198:	7c e0       	ldi	r23, 0x0C	; 12
    619a:	0b c0       	rjmp	.+22     	; 0x61b2 <_ZN5Print10printFloatEdh+0x82>
{ 
  size_t n = 0;
  
  if (isnan(number)) return print("nan");
  if (isinf(number)) return print("inf");
  if (number > 4294967040.0) return print ("ovf");  // constant determined empirically
    619c:	2f ef       	ldi	r18, 0xFF	; 255
    619e:	3f ef       	ldi	r19, 0xFF	; 255
    61a0:	4f e7       	ldi	r20, 0x7F	; 127
    61a2:	5f e4       	ldi	r21, 0x4F	; 79
    61a4:	c7 01       	movw	r24, r14
    61a6:	b6 01       	movw	r22, r12
    61a8:	db d9       	rcall	.-3146   	; 0x5560 <__gesf2>
    61aa:	18 16       	cp	r1, r24
    61ac:	94 f4       	brge	.+36     	; 0x61d2 <_ZN5Print10printFloatEdh+0xa2>
  return write(s.c_str(), s.length());
}

size_t Print::print(const char str[])
{
  return write(str);
    61ae:	66 e4       	ldi	r22, 0x46	; 70
    61b0:	7c e0       	ldi	r23, 0x0C	; 12
    61b2:	ce 01       	movw	r24, r28
    n += print(toPrint);
    remainder -= toPrint; 
  } 
  
  return n;
}
    61b4:	df 91       	pop	r29
    61b6:	cf 91       	pop	r28
    61b8:	ff 90       	pop	r15
    61ba:	ef 90       	pop	r14
    61bc:	df 90       	pop	r13
    61be:	cf 90       	pop	r12
    61c0:	bf 90       	pop	r11
    61c2:	af 90       	pop	r10
    61c4:	9f 90       	pop	r9
    61c6:	8f 90       	pop	r8
    61c8:	7f 90       	pop	r7
    61ca:	6f 90       	pop	r6
    61cc:	5f 90       	pop	r5
    61ce:	4f 90       	pop	r4
  return write(s.c_str(), s.length());
}

size_t Print::print(const char str[])
{
  return write(str);
    61d0:	8c ce       	rjmp	.-744    	; 0x5eea <_ZN5Print5writeEPKc>
  size_t n = 0;
  
  if (isnan(number)) return print("nan");
  if (isinf(number)) return print("inf");
  if (number > 4294967040.0) return print ("ovf");  // constant determined empirically
  if (number <-4294967040.0) return print ("ovf");  // constant determined empirically
    61d2:	2f ef       	ldi	r18, 0xFF	; 255
    61d4:	3f ef       	ldi	r19, 0xFF	; 255
    61d6:	4f e7       	ldi	r20, 0x7F	; 127
    61d8:	5f ec       	ldi	r21, 0xCF	; 207
    61da:	c7 01       	movw	r24, r14
    61dc:	b6 01       	movw	r22, r12
    61de:	0e 94 a4 28 	call	0x5148	; 0x5148 <__cmpsf2>
    61e2:	87 fd       	sbrc	r24, 7
    61e4:	e4 cf       	rjmp	.-56     	; 0x61ae <_ZN5Print10printFloatEdh+0x7e>
  
  // Handle negative numbers
  if (number < 0.0)
    61e6:	20 e0       	ldi	r18, 0x00	; 0
    61e8:	30 e0       	ldi	r19, 0x00	; 0
    61ea:	a9 01       	movw	r20, r18
    61ec:	c7 01       	movw	r24, r14
    61ee:	b6 01       	movw	r22, r12
    61f0:	0e 94 a4 28 	call	0x5148	; 0x5148 <__cmpsf2>
    61f4:	87 ff       	sbrs	r24, 7
    61f6:	09 c0       	rjmp	.+18     	; 0x620a <_ZN5Print10printFloatEdh+0xda>
  {
     n += print('-');
    61f8:	6d e2       	ldi	r22, 0x2D	; 45
    61fa:	ce 01       	movw	r24, r28
    61fc:	9a de       	rcall	.-716    	; 0x5f32 <_ZN5Print5printEc>
    61fe:	4c 01       	movw	r8, r24
     number = -number;
    6200:	f7 fa       	bst	r15, 7
    6202:	f0 94       	com	r15
    6204:	f7 f8       	bld	r15, 7
    6206:	f0 94       	com	r15
    6208:	02 c0       	rjmp	.+4      	; 0x620e <_ZN5Print10printFloatEdh+0xde>
  return write(str);
}

size_t Print::printFloat(double number, uint8_t digits) 
{ 
  size_t n = 0;
    620a:	81 2c       	mov	r8, r1
    620c:	91 2c       	mov	r9, r1
     number = -number;
  }

  // Round correctly so that print(1.999, 2) prints as "2.00"
  double rounding = 0.5;
  for (uint8_t i=0; i<digits; ++i)
    620e:	a1 2c       	mov	r10, r1
     n += print('-');
     number = -number;
  }

  // Round correctly so that print(1.999, 2) prints as "2.00"
  double rounding = 0.5;
    6210:	60 e0       	ldi	r22, 0x00	; 0
    6212:	70 e0       	ldi	r23, 0x00	; 0
    6214:	80 e0       	ldi	r24, 0x00	; 0
    6216:	9f e3       	ldi	r25, 0x3F	; 63
  for (uint8_t i=0; i<digits; ++i)
    6218:	ab 14       	cp	r10, r11
    621a:	41 f0       	breq	.+16     	; 0x622c <_ZN5Print10printFloatEdh+0xfc>
    rounding /= 10.0;
    621c:	20 e0       	ldi	r18, 0x00	; 0
    621e:	30 e0       	ldi	r19, 0x00	; 0
    6220:	40 e2       	ldi	r20, 0x20	; 32
    6222:	51 e4       	ldi	r21, 0x41	; 65
    6224:	0e 94 ab 28 	call	0x5156	; 0x5156 <__divsf3>
     number = -number;
  }

  // Round correctly so that print(1.999, 2) prints as "2.00"
  double rounding = 0.5;
  for (uint8_t i=0; i<digits; ++i)
    6228:	a3 94       	inc	r10
    622a:	f6 cf       	rjmp	.-20     	; 0x6218 <_ZN5Print10printFloatEdh+0xe8>
    rounding /= 10.0;
  
  number += rounding;
    622c:	9b 01       	movw	r18, r22
    622e:	ac 01       	movw	r20, r24
    6230:	c7 01       	movw	r24, r14
    6232:	b6 01       	movw	r22, r12
    6234:	0e 94 de 27 	call	0x4fbc	; 0x4fbc <__addsf3>
    6238:	2b 01       	movw	r4, r22
    623a:	3c 01       	movw	r6, r24

  // Extract the integer part of the number and print it
  unsigned long int_part = (unsigned long)number;
    623c:	0e 94 18 29 	call	0x5230	; 0x5230 <__fixunssfsi>
    6240:	6b 01       	movw	r12, r22
    6242:	7c 01       	movw	r14, r24
  double remainder = number - (double)int_part;
    6244:	21 d8       	rcall	.-4030   	; 0x5288 <__floatunsisf>
    6246:	9b 01       	movw	r18, r22
    6248:	ac 01       	movw	r20, r24
    624a:	c3 01       	movw	r24, r6
    624c:	b2 01       	movw	r22, r4
    624e:	0e 94 dd 27 	call	0x4fba	; 0x4fba <__subsf3>
    6252:	2b 01       	movw	r4, r22
    6254:	3c 01       	movw	r6, r24
}

size_t Print::print(unsigned long n, int base)
{
  if (base == 0) return write(n);
  else return printNumber(n, base);
    6256:	2a e0       	ldi	r18, 0x0A	; 10
    6258:	b7 01       	movw	r22, r14
    625a:	a6 01       	movw	r20, r12
    625c:	ce 01       	movw	r24, r28
    625e:	93 de       	rcall	.-730    	; 0x5f86 <_ZN5Print11printNumberEmh>
  number += rounding;

  // Extract the integer part of the number and print it
  unsigned long int_part = (unsigned long)number;
  double remainder = number - (double)int_part;
  n += print(int_part);
    6260:	7c 01       	movw	r14, r24
    6262:	e8 0c       	add	r14, r8
    6264:	f9 1c       	adc	r15, r9

  // Print the decimal point, but only if there are digits beyond
  if (digits > 0) {
    6266:	bb 20       	and	r11, r11
    6268:	29 f0       	breq	.+10     	; 0x6274 <_ZN5Print10printFloatEdh+0x144>
    n += print('.'); 
    626a:	6e e2       	ldi	r22, 0x2E	; 46
    626c:	ce 01       	movw	r24, r28
    626e:	61 de       	rcall	.-830    	; 0x5f32 <_ZN5Print5printEc>
    6270:	e8 0e       	add	r14, r24
    6272:	f9 1e       	adc	r15, r25
     n += print('-');
     number = -number;
  }

  // Round correctly so that print(1.999, 2) prints as "2.00"
  double rounding = 0.5;
    6274:	db 2c       	mov	r13, r11
  if (digits > 0) {
    n += print('.'); 
  }

  // Extract digits from the remainder one at a time
  while (digits-- > 0)
    6276:	dd 20       	and	r13, r13
    6278:	19 f1       	breq	.+70     	; 0x62c0 <_ZN5Print10printFloatEdh+0x190>
  {
    remainder *= 10.0;
    627a:	20 e0       	ldi	r18, 0x00	; 0
    627c:	30 e0       	ldi	r19, 0x00	; 0
    627e:	40 e2       	ldi	r20, 0x20	; 32
    6280:	51 e4       	ldi	r21, 0x41	; 65
    6282:	c3 01       	movw	r24, r6
    6284:	b2 01       	movw	r22, r4
    6286:	77 d9       	rcall	.-3346   	; 0x5576 <__mulsf3>
    6288:	2b 01       	movw	r4, r22
    628a:	3c 01       	movw	r6, r24
    unsigned int toPrint = (unsigned int)(remainder);
    628c:	0e 94 18 29 	call	0x5230	; 0x5230 <__fixunssfsi>
  return print((long) n, base);
}

size_t Print::print(unsigned int n, int base)
{
  return print((unsigned long) n, base);
    6290:	4b 01       	movw	r8, r22
    6292:	a1 2c       	mov	r10, r1
    6294:	b1 2c       	mov	r11, r1
}

size_t Print::print(unsigned long n, int base)
{
  if (base == 0) return write(n);
  else return printNumber(n, base);
    6296:	2a e0       	ldi	r18, 0x0A	; 10
    6298:	b5 01       	movw	r22, r10
    629a:	a4 01       	movw	r20, r8
    629c:	ce 01       	movw	r24, r28
    629e:	73 de       	rcall	.-794    	; 0x5f86 <_ZN5Print11printNumberEmh>
  // Extract digits from the remainder one at a time
  while (digits-- > 0)
  {
    remainder *= 10.0;
    unsigned int toPrint = (unsigned int)(remainder);
    n += print(toPrint);
    62a0:	e8 0e       	add	r14, r24
    62a2:	f9 1e       	adc	r15, r25
    remainder -= toPrint; 
    62a4:	c5 01       	movw	r24, r10
    62a6:	b4 01       	movw	r22, r8
    62a8:	0e 94 44 29 	call	0x5288	; 0x5288 <__floatunsisf>
    62ac:	9b 01       	movw	r18, r22
    62ae:	ac 01       	movw	r20, r24
    62b0:	c3 01       	movw	r24, r6
    62b2:	b2 01       	movw	r22, r4
    62b4:	0e 94 dd 27 	call	0x4fba	; 0x4fba <__subsf3>
    62b8:	2b 01       	movw	r4, r22
    62ba:	3c 01       	movw	r6, r24
    62bc:	da 94       	dec	r13
    62be:	db cf       	rjmp	.-74     	; 0x6276 <_ZN5Print10printFloatEdh+0x146>
  } 
  
  return n;
}
    62c0:	c7 01       	movw	r24, r14
    62c2:	df 91       	pop	r29
    62c4:	cf 91       	pop	r28
    62c6:	ff 90       	pop	r15
    62c8:	ef 90       	pop	r14
    62ca:	df 90       	pop	r13
    62cc:	cf 90       	pop	r12
    62ce:	bf 90       	pop	r11
    62d0:	af 90       	pop	r10
    62d2:	9f 90       	pop	r9
    62d4:	8f 90       	pop	r8
    62d6:	7f 90       	pop	r7
    62d8:	6f 90       	pop	r6
    62da:	5f 90       	pop	r5
    62dc:	4f 90       	pop	r4
    62de:	08 95       	ret

000062e0 <_ZN5Print5printEdi>:
  else return printNumber(n, base);
}

size_t Print::print(double n, int digits)
{
  return printFloat(n, digits);
    62e0:	27 cf       	rjmp	.-434    	; 0x6130 <_ZN5Print10printFloatEdh>

000062e2 <_ZN5Print7printlnEdi>:
  n += println();
  return n;
}

size_t Print::println(double num, int digits)
{
    62e2:	0f 93       	push	r16
    62e4:	1f 93       	push	r17
    62e6:	cf 93       	push	r28
    62e8:	df 93       	push	r29
    62ea:	ec 01       	movw	r28, r24
  else return printNumber(n, base);
}

size_t Print::print(double n, int digits)
{
  return printFloat(n, digits);
    62ec:	21 df       	rcall	.-446    	; 0x6130 <_ZN5Print10printFloatEdh>
    62ee:	8c 01       	movw	r16, r24
}

size_t Print::println(double num, int digits)
{
  size_t n = print(num, digits);
  n += println();
    62f0:	ce 01       	movw	r24, r28
    62f2:	26 de       	rcall	.-948    	; 0x5f40 <_ZN5Print7printlnEv>
  return n;
}
    62f4:	80 0f       	add	r24, r16
    62f6:	91 1f       	adc	r25, r17
    62f8:	df 91       	pop	r29
    62fa:	cf 91       	pop	r28
    62fc:	1f 91       	pop	r17
    62fe:	0f 91       	pop	r16
    6300:	08 95       	ret

00006302 <nothing>:
    #endif
      break;       
#endif
    }
      
    intFunc[interruptNum] = nothing;
    6302:	08 95       	ret

00006304 <attachInterrupt>:
    6304:	88 30       	cpi	r24, 0x08	; 8
    6306:	08 f0       	brcs	.+2      	; 0x630a <attachInterrupt+0x6>
    6308:	6f c0       	rjmp	.+222    	; 0x63e8 <attachInterrupt+0xe4>
    630a:	a8 2f       	mov	r26, r24
    630c:	b0 e0       	ldi	r27, 0x00	; 0
    630e:	aa 0f       	add	r26, r26
    6310:	bb 1f       	adc	r27, r27
    6312:	a3 5c       	subi	r26, 0xC3	; 195
    6314:	b9 4f       	sbci	r27, 0xF9	; 249
    6316:	11 96       	adiw	r26, 0x01	; 1
    6318:	7c 93       	st	X, r23
    631a:	6e 93       	st	-X, r22
    631c:	90 e0       	ldi	r25, 0x00	; 0
    631e:	fc 01       	movw	r30, r24
    6320:	31 97       	sbiw	r30, 0x01	; 1
    6322:	e7 30       	cpi	r30, 0x07	; 7
    6324:	f1 05       	cpc	r31, r1
    6326:	98 f5       	brcc	.+102    	; 0x638e <attachInterrupt+0x8a>
    6328:	88 27       	eor	r24, r24
    632a:	e7 52       	subi	r30, 0x27	; 39
    632c:	ff 4f       	sbci	r31, 0xFF	; 255
    632e:	8f 4f       	sbci	r24, 0xFF	; 255
    6330:	2b c5       	rjmp	.+2646   	; 0x6d88 <__tablejump2__>
    6332:	80 91 69 00 	lds	r24, 0x0069	; 0x800069 <__TEXT_REGION_LENGTH__+0x700069>
    6336:	8c 7f       	andi	r24, 0xFC	; 252
    6338:	48 2b       	or	r20, r24
    633a:	40 93 69 00 	sts	0x0069, r20	; 0x800069 <__TEXT_REGION_LENGTH__+0x700069>
    633e:	e8 9a       	sbi	0x1d, 0	; 29
    6340:	08 95       	ret
    6342:	80 91 69 00 	lds	r24, 0x0069	; 0x800069 <__TEXT_REGION_LENGTH__+0x700069>
    6346:	44 0f       	add	r20, r20
    6348:	55 1f       	adc	r21, r21
    634a:	44 0f       	add	r20, r20
    634c:	55 1f       	adc	r21, r21
    634e:	83 7f       	andi	r24, 0xF3	; 243
    6350:	48 2b       	or	r20, r24
    6352:	40 93 69 00 	sts	0x0069, r20	; 0x800069 <__TEXT_REGION_LENGTH__+0x700069>
    6356:	e9 9a       	sbi	0x1d, 1	; 29
    6358:	08 95       	ret
    635a:	80 91 69 00 	lds	r24, 0x0069	; 0x800069 <__TEXT_REGION_LENGTH__+0x700069>
    635e:	74 e0       	ldi	r23, 0x04	; 4
    6360:	44 0f       	add	r20, r20
    6362:	55 1f       	adc	r21, r21
    6364:	7a 95       	dec	r23
    6366:	e1 f7       	brne	.-8      	; 0x6360 <attachInterrupt+0x5c>
    6368:	8f 7c       	andi	r24, 0xCF	; 207
    636a:	48 2b       	or	r20, r24
    636c:	40 93 69 00 	sts	0x0069, r20	; 0x800069 <__TEXT_REGION_LENGTH__+0x700069>
    6370:	ea 9a       	sbi	0x1d, 2	; 29
    6372:	08 95       	ret
    6374:	80 91 69 00 	lds	r24, 0x0069	; 0x800069 <__TEXT_REGION_LENGTH__+0x700069>
    6378:	66 e0       	ldi	r22, 0x06	; 6
    637a:	44 0f       	add	r20, r20
    637c:	55 1f       	adc	r21, r21
    637e:	6a 95       	dec	r22
    6380:	e1 f7       	brne	.-8      	; 0x637a <attachInterrupt+0x76>
    6382:	8f 73       	andi	r24, 0x3F	; 63
    6384:	48 2b       	or	r20, r24
    6386:	40 93 69 00 	sts	0x0069, r20	; 0x800069 <__TEXT_REGION_LENGTH__+0x700069>
    638a:	eb 9a       	sbi	0x1d, 3	; 29
    638c:	08 95       	ret
    638e:	80 91 6a 00 	lds	r24, 0x006A	; 0x80006a <__TEXT_REGION_LENGTH__+0x70006a>
    6392:	8c 7f       	andi	r24, 0xFC	; 252
    6394:	48 2b       	or	r20, r24
    6396:	40 93 6a 00 	sts	0x006A, r20	; 0x80006a <__TEXT_REGION_LENGTH__+0x70006a>
    639a:	ec 9a       	sbi	0x1d, 4	; 29
    639c:	08 95       	ret
    639e:	80 91 6a 00 	lds	r24, 0x006A	; 0x80006a <__TEXT_REGION_LENGTH__+0x70006a>
    63a2:	44 0f       	add	r20, r20
    63a4:	55 1f       	adc	r21, r21
    63a6:	44 0f       	add	r20, r20
    63a8:	55 1f       	adc	r21, r21
    63aa:	83 7f       	andi	r24, 0xF3	; 243
    63ac:	48 2b       	or	r20, r24
    63ae:	40 93 6a 00 	sts	0x006A, r20	; 0x80006a <__TEXT_REGION_LENGTH__+0x70006a>
    63b2:	ed 9a       	sbi	0x1d, 5	; 29
    63b4:	08 95       	ret
    63b6:	80 91 6a 00 	lds	r24, 0x006A	; 0x80006a <__TEXT_REGION_LENGTH__+0x70006a>
    63ba:	24 e0       	ldi	r18, 0x04	; 4
    63bc:	44 0f       	add	r20, r20
    63be:	55 1f       	adc	r21, r21
    63c0:	2a 95       	dec	r18
    63c2:	e1 f7       	brne	.-8      	; 0x63bc <attachInterrupt+0xb8>
    63c4:	8f 7c       	andi	r24, 0xCF	; 207
    63c6:	48 2b       	or	r20, r24
    63c8:	40 93 6a 00 	sts	0x006A, r20	; 0x80006a <__TEXT_REGION_LENGTH__+0x70006a>
    63cc:	ee 9a       	sbi	0x1d, 6	; 29
    63ce:	08 95       	ret
    63d0:	80 91 6a 00 	lds	r24, 0x006A	; 0x80006a <__TEXT_REGION_LENGTH__+0x70006a>
    63d4:	96 e0       	ldi	r25, 0x06	; 6
    63d6:	44 0f       	add	r20, r20
    63d8:	55 1f       	adc	r21, r21
    63da:	9a 95       	dec	r25
    63dc:	e1 f7       	brne	.-8      	; 0x63d6 <attachInterrupt+0xd2>
    63de:	8f 73       	andi	r24, 0x3F	; 63
    63e0:	48 2b       	or	r20, r24
    63e2:	40 93 6a 00 	sts	0x006A, r20	; 0x80006a <__TEXT_REGION_LENGTH__+0x70006a>
    63e6:	ef 9a       	sbi	0x1d, 7	; 29
    63e8:	08 95       	ret

000063ea <__vector_1>:
IMPLEMENT_ISR(INT3_vect, EXTERNAL_INT_3)
IMPLEMENT_ISR(INT6_vect, EXTERNAL_INT_4)

#elif defined(EICRA) && defined(EICRB)

IMPLEMENT_ISR(INT0_vect, EXTERNAL_INT_2)
    63ea:	1f 92       	push	r1
    63ec:	0f 92       	push	r0
    63ee:	0f b6       	in	r0, 0x3f	; 63
    63f0:	0f 92       	push	r0
    63f2:	11 24       	eor	r1, r1
    63f4:	0b b6       	in	r0, 0x3b	; 59
    63f6:	0f 92       	push	r0
    63f8:	2f 93       	push	r18
    63fa:	3f 93       	push	r19
    63fc:	4f 93       	push	r20
    63fe:	5f 93       	push	r21
    6400:	6f 93       	push	r22
    6402:	7f 93       	push	r23
    6404:	8f 93       	push	r24
    6406:	9f 93       	push	r25
    6408:	af 93       	push	r26
    640a:	bf 93       	push	r27
    640c:	ef 93       	push	r30
    640e:	ff 93       	push	r31
    6410:	e0 91 41 06 	lds	r30, 0x0641	; 0x800641 <intFunc+0x4>
    6414:	f0 91 42 06 	lds	r31, 0x0642	; 0x800642 <intFunc+0x5>
    6418:	19 95       	eicall
    641a:	ff 91       	pop	r31
    641c:	ef 91       	pop	r30
    641e:	bf 91       	pop	r27
    6420:	af 91       	pop	r26
    6422:	9f 91       	pop	r25
    6424:	8f 91       	pop	r24
    6426:	7f 91       	pop	r23
    6428:	6f 91       	pop	r22
    642a:	5f 91       	pop	r21
    642c:	4f 91       	pop	r20
    642e:	3f 91       	pop	r19
    6430:	2f 91       	pop	r18
    6432:	0f 90       	pop	r0
    6434:	0b be       	out	0x3b, r0	; 59
    6436:	0f 90       	pop	r0
    6438:	0f be       	out	0x3f, r0	; 63
    643a:	0f 90       	pop	r0
    643c:	1f 90       	pop	r1
    643e:	18 95       	reti

00006440 <__vector_2>:
IMPLEMENT_ISR(INT1_vect, EXTERNAL_INT_3)
    6440:	1f 92       	push	r1
    6442:	0f 92       	push	r0
    6444:	0f b6       	in	r0, 0x3f	; 63
    6446:	0f 92       	push	r0
    6448:	11 24       	eor	r1, r1
    644a:	0b b6       	in	r0, 0x3b	; 59
    644c:	0f 92       	push	r0
    644e:	2f 93       	push	r18
    6450:	3f 93       	push	r19
    6452:	4f 93       	push	r20
    6454:	5f 93       	push	r21
    6456:	6f 93       	push	r22
    6458:	7f 93       	push	r23
    645a:	8f 93       	push	r24
    645c:	9f 93       	push	r25
    645e:	af 93       	push	r26
    6460:	bf 93       	push	r27
    6462:	ef 93       	push	r30
    6464:	ff 93       	push	r31
    6466:	e0 91 43 06 	lds	r30, 0x0643	; 0x800643 <intFunc+0x6>
    646a:	f0 91 44 06 	lds	r31, 0x0644	; 0x800644 <intFunc+0x7>
    646e:	19 95       	eicall
    6470:	ff 91       	pop	r31
    6472:	ef 91       	pop	r30
    6474:	bf 91       	pop	r27
    6476:	af 91       	pop	r26
    6478:	9f 91       	pop	r25
    647a:	8f 91       	pop	r24
    647c:	7f 91       	pop	r23
    647e:	6f 91       	pop	r22
    6480:	5f 91       	pop	r21
    6482:	4f 91       	pop	r20
    6484:	3f 91       	pop	r19
    6486:	2f 91       	pop	r18
    6488:	0f 90       	pop	r0
    648a:	0b be       	out	0x3b, r0	; 59
    648c:	0f 90       	pop	r0
    648e:	0f be       	out	0x3f, r0	; 63
    6490:	0f 90       	pop	r0
    6492:	1f 90       	pop	r1
    6494:	18 95       	reti

00006496 <__vector_3>:
IMPLEMENT_ISR(INT2_vect, EXTERNAL_INT_4)
    6496:	1f 92       	push	r1
    6498:	0f 92       	push	r0
    649a:	0f b6       	in	r0, 0x3f	; 63
    649c:	0f 92       	push	r0
    649e:	11 24       	eor	r1, r1
    64a0:	0b b6       	in	r0, 0x3b	; 59
    64a2:	0f 92       	push	r0
    64a4:	2f 93       	push	r18
    64a6:	3f 93       	push	r19
    64a8:	4f 93       	push	r20
    64aa:	5f 93       	push	r21
    64ac:	6f 93       	push	r22
    64ae:	7f 93       	push	r23
    64b0:	8f 93       	push	r24
    64b2:	9f 93       	push	r25
    64b4:	af 93       	push	r26
    64b6:	bf 93       	push	r27
    64b8:	ef 93       	push	r30
    64ba:	ff 93       	push	r31
    64bc:	e0 91 45 06 	lds	r30, 0x0645	; 0x800645 <intFunc+0x8>
    64c0:	f0 91 46 06 	lds	r31, 0x0646	; 0x800646 <intFunc+0x9>
    64c4:	19 95       	eicall
    64c6:	ff 91       	pop	r31
    64c8:	ef 91       	pop	r30
    64ca:	bf 91       	pop	r27
    64cc:	af 91       	pop	r26
    64ce:	9f 91       	pop	r25
    64d0:	8f 91       	pop	r24
    64d2:	7f 91       	pop	r23
    64d4:	6f 91       	pop	r22
    64d6:	5f 91       	pop	r21
    64d8:	4f 91       	pop	r20
    64da:	3f 91       	pop	r19
    64dc:	2f 91       	pop	r18
    64de:	0f 90       	pop	r0
    64e0:	0b be       	out	0x3b, r0	; 59
    64e2:	0f 90       	pop	r0
    64e4:	0f be       	out	0x3f, r0	; 63
    64e6:	0f 90       	pop	r0
    64e8:	1f 90       	pop	r1
    64ea:	18 95       	reti

000064ec <__vector_4>:
IMPLEMENT_ISR(INT3_vect, EXTERNAL_INT_5)
    64ec:	1f 92       	push	r1
    64ee:	0f 92       	push	r0
    64f0:	0f b6       	in	r0, 0x3f	; 63
    64f2:	0f 92       	push	r0
    64f4:	11 24       	eor	r1, r1
    64f6:	0b b6       	in	r0, 0x3b	; 59
    64f8:	0f 92       	push	r0
    64fa:	2f 93       	push	r18
    64fc:	3f 93       	push	r19
    64fe:	4f 93       	push	r20
    6500:	5f 93       	push	r21
    6502:	6f 93       	push	r22
    6504:	7f 93       	push	r23
    6506:	8f 93       	push	r24
    6508:	9f 93       	push	r25
    650a:	af 93       	push	r26
    650c:	bf 93       	push	r27
    650e:	ef 93       	push	r30
    6510:	ff 93       	push	r31
    6512:	e0 91 47 06 	lds	r30, 0x0647	; 0x800647 <intFunc+0xa>
    6516:	f0 91 48 06 	lds	r31, 0x0648	; 0x800648 <intFunc+0xb>
    651a:	19 95       	eicall
    651c:	ff 91       	pop	r31
    651e:	ef 91       	pop	r30
    6520:	bf 91       	pop	r27
    6522:	af 91       	pop	r26
    6524:	9f 91       	pop	r25
    6526:	8f 91       	pop	r24
    6528:	7f 91       	pop	r23
    652a:	6f 91       	pop	r22
    652c:	5f 91       	pop	r21
    652e:	4f 91       	pop	r20
    6530:	3f 91       	pop	r19
    6532:	2f 91       	pop	r18
    6534:	0f 90       	pop	r0
    6536:	0b be       	out	0x3b, r0	; 59
    6538:	0f 90       	pop	r0
    653a:	0f be       	out	0x3f, r0	; 63
    653c:	0f 90       	pop	r0
    653e:	1f 90       	pop	r1
    6540:	18 95       	reti

00006542 <__vector_5>:
IMPLEMENT_ISR(INT4_vect, EXTERNAL_INT_0)
    6542:	1f 92       	push	r1
    6544:	0f 92       	push	r0
    6546:	0f b6       	in	r0, 0x3f	; 63
    6548:	0f 92       	push	r0
    654a:	11 24       	eor	r1, r1
    654c:	0b b6       	in	r0, 0x3b	; 59
    654e:	0f 92       	push	r0
    6550:	2f 93       	push	r18
    6552:	3f 93       	push	r19
    6554:	4f 93       	push	r20
    6556:	5f 93       	push	r21
    6558:	6f 93       	push	r22
    655a:	7f 93       	push	r23
    655c:	8f 93       	push	r24
    655e:	9f 93       	push	r25
    6560:	af 93       	push	r26
    6562:	bf 93       	push	r27
    6564:	ef 93       	push	r30
    6566:	ff 93       	push	r31
    6568:	e0 91 3d 06 	lds	r30, 0x063D	; 0x80063d <intFunc>
    656c:	f0 91 3e 06 	lds	r31, 0x063E	; 0x80063e <intFunc+0x1>
    6570:	19 95       	eicall
    6572:	ff 91       	pop	r31
    6574:	ef 91       	pop	r30
    6576:	bf 91       	pop	r27
    6578:	af 91       	pop	r26
    657a:	9f 91       	pop	r25
    657c:	8f 91       	pop	r24
    657e:	7f 91       	pop	r23
    6580:	6f 91       	pop	r22
    6582:	5f 91       	pop	r21
    6584:	4f 91       	pop	r20
    6586:	3f 91       	pop	r19
    6588:	2f 91       	pop	r18
    658a:	0f 90       	pop	r0
    658c:	0b be       	out	0x3b, r0	; 59
    658e:	0f 90       	pop	r0
    6590:	0f be       	out	0x3f, r0	; 63
    6592:	0f 90       	pop	r0
    6594:	1f 90       	pop	r1
    6596:	18 95       	reti

00006598 <__vector_6>:
IMPLEMENT_ISR(INT5_vect, EXTERNAL_INT_1)
    6598:	1f 92       	push	r1
    659a:	0f 92       	push	r0
    659c:	0f b6       	in	r0, 0x3f	; 63
    659e:	0f 92       	push	r0
    65a0:	11 24       	eor	r1, r1
    65a2:	0b b6       	in	r0, 0x3b	; 59
    65a4:	0f 92       	push	r0
    65a6:	2f 93       	push	r18
    65a8:	3f 93       	push	r19
    65aa:	4f 93       	push	r20
    65ac:	5f 93       	push	r21
    65ae:	6f 93       	push	r22
    65b0:	7f 93       	push	r23
    65b2:	8f 93       	push	r24
    65b4:	9f 93       	push	r25
    65b6:	af 93       	push	r26
    65b8:	bf 93       	push	r27
    65ba:	ef 93       	push	r30
    65bc:	ff 93       	push	r31
    65be:	e0 91 3f 06 	lds	r30, 0x063F	; 0x80063f <intFunc+0x2>
    65c2:	f0 91 40 06 	lds	r31, 0x0640	; 0x800640 <intFunc+0x3>
    65c6:	19 95       	eicall
    65c8:	ff 91       	pop	r31
    65ca:	ef 91       	pop	r30
    65cc:	bf 91       	pop	r27
    65ce:	af 91       	pop	r26
    65d0:	9f 91       	pop	r25
    65d2:	8f 91       	pop	r24
    65d4:	7f 91       	pop	r23
    65d6:	6f 91       	pop	r22
    65d8:	5f 91       	pop	r21
    65da:	4f 91       	pop	r20
    65dc:	3f 91       	pop	r19
    65de:	2f 91       	pop	r18
    65e0:	0f 90       	pop	r0
    65e2:	0b be       	out	0x3b, r0	; 59
    65e4:	0f 90       	pop	r0
    65e6:	0f be       	out	0x3f, r0	; 63
    65e8:	0f 90       	pop	r0
    65ea:	1f 90       	pop	r1
    65ec:	18 95       	reti

000065ee <__vector_7>:
IMPLEMENT_ISR(INT6_vect, EXTERNAL_INT_6)
    65ee:	1f 92       	push	r1
    65f0:	0f 92       	push	r0
    65f2:	0f b6       	in	r0, 0x3f	; 63
    65f4:	0f 92       	push	r0
    65f6:	11 24       	eor	r1, r1
    65f8:	0b b6       	in	r0, 0x3b	; 59
    65fa:	0f 92       	push	r0
    65fc:	2f 93       	push	r18
    65fe:	3f 93       	push	r19
    6600:	4f 93       	push	r20
    6602:	5f 93       	push	r21
    6604:	6f 93       	push	r22
    6606:	7f 93       	push	r23
    6608:	8f 93       	push	r24
    660a:	9f 93       	push	r25
    660c:	af 93       	push	r26
    660e:	bf 93       	push	r27
    6610:	ef 93       	push	r30
    6612:	ff 93       	push	r31
    6614:	e0 91 49 06 	lds	r30, 0x0649	; 0x800649 <intFunc+0xc>
    6618:	f0 91 4a 06 	lds	r31, 0x064A	; 0x80064a <intFunc+0xd>
    661c:	19 95       	eicall
    661e:	ff 91       	pop	r31
    6620:	ef 91       	pop	r30
    6622:	bf 91       	pop	r27
    6624:	af 91       	pop	r26
    6626:	9f 91       	pop	r25
    6628:	8f 91       	pop	r24
    662a:	7f 91       	pop	r23
    662c:	6f 91       	pop	r22
    662e:	5f 91       	pop	r21
    6630:	4f 91       	pop	r20
    6632:	3f 91       	pop	r19
    6634:	2f 91       	pop	r18
    6636:	0f 90       	pop	r0
    6638:	0b be       	out	0x3b, r0	; 59
    663a:	0f 90       	pop	r0
    663c:	0f be       	out	0x3f, r0	; 63
    663e:	0f 90       	pop	r0
    6640:	1f 90       	pop	r1
    6642:	18 95       	reti

00006644 <__vector_8>:
IMPLEMENT_ISR(INT7_vect, EXTERNAL_INT_7)
    6644:	1f 92       	push	r1
    6646:	0f 92       	push	r0
    6648:	0f b6       	in	r0, 0x3f	; 63
    664a:	0f 92       	push	r0
    664c:	11 24       	eor	r1, r1
    664e:	0b b6       	in	r0, 0x3b	; 59
    6650:	0f 92       	push	r0
    6652:	2f 93       	push	r18
    6654:	3f 93       	push	r19
    6656:	4f 93       	push	r20
    6658:	5f 93       	push	r21
    665a:	6f 93       	push	r22
    665c:	7f 93       	push	r23
    665e:	8f 93       	push	r24
    6660:	9f 93       	push	r25
    6662:	af 93       	push	r26
    6664:	bf 93       	push	r27
    6666:	ef 93       	push	r30
    6668:	ff 93       	push	r31
    666a:	e0 91 4b 06 	lds	r30, 0x064B	; 0x80064b <intFunc+0xe>
    666e:	f0 91 4c 06 	lds	r31, 0x064C	; 0x80064c <intFunc+0xf>
    6672:	19 95       	eicall
    6674:	ff 91       	pop	r31
    6676:	ef 91       	pop	r30
    6678:	bf 91       	pop	r27
    667a:	af 91       	pop	r26
    667c:	9f 91       	pop	r25
    667e:	8f 91       	pop	r24
    6680:	7f 91       	pop	r23
    6682:	6f 91       	pop	r22
    6684:	5f 91       	pop	r21
    6686:	4f 91       	pop	r20
    6688:	3f 91       	pop	r19
    668a:	2f 91       	pop	r18
    668c:	0f 90       	pop	r0
    668e:	0b be       	out	0x3b, r0	; 59
    6690:	0f 90       	pop	r0
    6692:	0f be       	out	0x3f, r0	; 63
    6694:	0f 90       	pop	r0
    6696:	1f 90       	pop	r1
    6698:	18 95       	reti

0000669a <__vector_23>:
#if defined(__AVR_ATtiny24__) || defined(__AVR_ATtiny44__) || defined(__AVR_ATtiny84__)
ISR(TIM0_OVF_vect)
#else
ISR(TIMER0_OVF_vect)
#endif
{
    669a:	1f 92       	push	r1
    669c:	0f 92       	push	r0
    669e:	0f b6       	in	r0, 0x3f	; 63
    66a0:	0f 92       	push	r0
    66a2:	11 24       	eor	r1, r1
    66a4:	2f 93       	push	r18
    66a6:	3f 93       	push	r19
    66a8:	8f 93       	push	r24
    66aa:	9f 93       	push	r25
    66ac:	af 93       	push	r26
    66ae:	bf 93       	push	r27
	// copy these to local variables so they can be stored in registers
	// (volatile variables must be read from memory on every access)
	unsigned long m = timer0_millis;
    66b0:	80 91 0e 10 	lds	r24, 0x100E	; 0x80100e <timer0_millis>
    66b4:	90 91 0f 10 	lds	r25, 0x100F	; 0x80100f <timer0_millis+0x1>
    66b8:	a0 91 10 10 	lds	r26, 0x1010	; 0x801010 <timer0_millis+0x2>
    66bc:	b0 91 11 10 	lds	r27, 0x1011	; 0x801011 <timer0_millis+0x3>
	unsigned char f = timer0_fract;
    66c0:	30 91 0d 10 	lds	r19, 0x100D	; 0x80100d <timer0_fract>

	m += MILLIS_INC;
	f += FRACT_INC;
    66c4:	23 e0       	ldi	r18, 0x03	; 3
    66c6:	23 0f       	add	r18, r19
	if (f >= FRACT_MAX) {
    66c8:	2d 37       	cpi	r18, 0x7D	; 125
    66ca:	20 f4       	brcc	.+8      	; 0x66d4 <__vector_23+0x3a>
	// copy these to local variables so they can be stored in registers
	// (volatile variables must be read from memory on every access)
	unsigned long m = timer0_millis;
	unsigned char f = timer0_fract;

	m += MILLIS_INC;
    66cc:	01 96       	adiw	r24, 0x01	; 1
    66ce:	a1 1d       	adc	r26, r1
    66d0:	b1 1d       	adc	r27, r1
    66d2:	05 c0       	rjmp	.+10     	; 0x66de <__vector_23+0x44>
	f += FRACT_INC;
	if (f >= FRACT_MAX) {
		f -= FRACT_MAX;
    66d4:	26 e8       	ldi	r18, 0x86	; 134
    66d6:	23 0f       	add	r18, r19
		m += 1;
    66d8:	02 96       	adiw	r24, 0x02	; 2
    66da:	a1 1d       	adc	r26, r1
    66dc:	b1 1d       	adc	r27, r1
	}

	timer0_fract = f;
    66de:	20 93 0d 10 	sts	0x100D, r18	; 0x80100d <timer0_fract>
	timer0_millis = m;
    66e2:	80 93 0e 10 	sts	0x100E, r24	; 0x80100e <timer0_millis>
    66e6:	90 93 0f 10 	sts	0x100F, r25	; 0x80100f <timer0_millis+0x1>
    66ea:	a0 93 10 10 	sts	0x1010, r26	; 0x801010 <timer0_millis+0x2>
    66ee:	b0 93 11 10 	sts	0x1011, r27	; 0x801011 <timer0_millis+0x3>
	timer0_overflow_count++;
    66f2:	80 91 12 10 	lds	r24, 0x1012	; 0x801012 <timer0_overflow_count>
    66f6:	90 91 13 10 	lds	r25, 0x1013	; 0x801013 <timer0_overflow_count+0x1>
    66fa:	a0 91 14 10 	lds	r26, 0x1014	; 0x801014 <timer0_overflow_count+0x2>
    66fe:	b0 91 15 10 	lds	r27, 0x1015	; 0x801015 <timer0_overflow_count+0x3>
    6702:	01 96       	adiw	r24, 0x01	; 1
    6704:	a1 1d       	adc	r26, r1
    6706:	b1 1d       	adc	r27, r1
    6708:	80 93 12 10 	sts	0x1012, r24	; 0x801012 <timer0_overflow_count>
    670c:	90 93 13 10 	sts	0x1013, r25	; 0x801013 <timer0_overflow_count+0x1>
    6710:	a0 93 14 10 	sts	0x1014, r26	; 0x801014 <timer0_overflow_count+0x2>
    6714:	b0 93 15 10 	sts	0x1015, r27	; 0x801015 <timer0_overflow_count+0x3>
}
    6718:	bf 91       	pop	r27
    671a:	af 91       	pop	r26
    671c:	9f 91       	pop	r25
    671e:	8f 91       	pop	r24
    6720:	3f 91       	pop	r19
    6722:	2f 91       	pop	r18
    6724:	0f 90       	pop	r0
    6726:	0f be       	out	0x3f, r0	; 63
    6728:	0f 90       	pop	r0
    672a:	1f 90       	pop	r1
    672c:	18 95       	reti

0000672e <millis>:

unsigned long millis()
{
	unsigned long m;
	uint8_t oldSREG = SREG;
    672e:	2f b7       	in	r18, 0x3f	; 63

	// disable interrupts while we read timer0_millis or we might get an
	// inconsistent value (e.g. in the middle of a write to timer0_millis)
	cli();
    6730:	f8 94       	cli
	m = timer0_millis;
    6732:	60 91 0e 10 	lds	r22, 0x100E	; 0x80100e <timer0_millis>
    6736:	70 91 0f 10 	lds	r23, 0x100F	; 0x80100f <timer0_millis+0x1>
    673a:	80 91 10 10 	lds	r24, 0x1010	; 0x801010 <timer0_millis+0x2>
    673e:	90 91 11 10 	lds	r25, 0x1011	; 0x801011 <timer0_millis+0x3>
	SREG = oldSREG;
    6742:	2f bf       	out	0x3f, r18	; 63

	return m;
}
    6744:	08 95       	ret

00006746 <micros>:

unsigned long micros() {
	unsigned long m;
	uint8_t oldSREG = SREG, t;
    6746:	3f b7       	in	r19, 0x3f	; 63
	
	cli();
    6748:	f8 94       	cli
	m = timer0_overflow_count;
    674a:	80 91 12 10 	lds	r24, 0x1012	; 0x801012 <timer0_overflow_count>
    674e:	90 91 13 10 	lds	r25, 0x1013	; 0x801013 <timer0_overflow_count+0x1>
    6752:	a0 91 14 10 	lds	r26, 0x1014	; 0x801014 <timer0_overflow_count+0x2>
    6756:	b0 91 15 10 	lds	r27, 0x1015	; 0x801015 <timer0_overflow_count+0x3>
#if defined(TCNT0)
	t = TCNT0;
    675a:	26 b5       	in	r18, 0x26	; 38
#else
	#error TIMER 0 not defined
#endif

#ifdef TIFR0
	if ((TIFR0 & _BV(TOV0)) && (t < 255))
    675c:	a8 9b       	sbis	0x15, 0	; 21
    675e:	05 c0       	rjmp	.+10     	; 0x676a <micros+0x24>
    6760:	2f 3f       	cpi	r18, 0xFF	; 255
    6762:	19 f0       	breq	.+6      	; 0x676a <micros+0x24>
		m++;
    6764:	01 96       	adiw	r24, 0x01	; 1
    6766:	a1 1d       	adc	r26, r1
    6768:	b1 1d       	adc	r27, r1
#else
	if ((TIFR & _BV(TOV0)) && (t < 255))
		m++;
#endif

	SREG = oldSREG;
    676a:	3f bf       	out	0x3f, r19	; 63
	
	return ((m << 8) + t) * (64 / clockCyclesPerMicrosecond());
    676c:	ba 2f       	mov	r27, r26
    676e:	a9 2f       	mov	r26, r25
    6770:	98 2f       	mov	r25, r24
    6772:	88 27       	eor	r24, r24
    6774:	82 0f       	add	r24, r18
    6776:	91 1d       	adc	r25, r1
    6778:	a1 1d       	adc	r26, r1
    677a:	b1 1d       	adc	r27, r1
    677c:	bc 01       	movw	r22, r24
    677e:	cd 01       	movw	r24, r26
    6780:	42 e0       	ldi	r20, 0x02	; 2
    6782:	66 0f       	add	r22, r22
    6784:	77 1f       	adc	r23, r23
    6786:	88 1f       	adc	r24, r24
    6788:	99 1f       	adc	r25, r25
    678a:	4a 95       	dec	r20
    678c:	d1 f7       	brne	.-12     	; 0x6782 <micros+0x3c>
}
    678e:	08 95       	ret

00006790 <delay>:

void delay(unsigned long ms)
{
    6790:	8f 92       	push	r8
    6792:	9f 92       	push	r9
    6794:	af 92       	push	r10
    6796:	bf 92       	push	r11
    6798:	cf 92       	push	r12
    679a:	df 92       	push	r13
    679c:	ef 92       	push	r14
    679e:	ff 92       	push	r15
    67a0:	6b 01       	movw	r12, r22
    67a2:	7c 01       	movw	r14, r24
	uint32_t start = micros();
    67a4:	d0 df       	rcall	.-96     	; 0x6746 <micros>
    67a6:	4b 01       	movw	r8, r22
    67a8:	5c 01       	movw	r10, r24

	while (ms > 0) {
    67aa:	c1 14       	cp	r12, r1
    67ac:	d1 04       	cpc	r13, r1
    67ae:	e1 04       	cpc	r14, r1
    67b0:	f1 04       	cpc	r15, r1
    67b2:	f1 f0       	breq	.+60     	; 0x67f0 <delay+0x60>
		yield();
    67b4:	96 d2       	rcall	.+1324   	; 0x6ce2 <yield>
		while ( ms > 0 && (micros() - start) >= 1000) {
    67b6:	c7 df       	rcall	.-114    	; 0x6746 <micros>
    67b8:	dc 01       	movw	r26, r24
    67ba:	cb 01       	movw	r24, r22
    67bc:	88 19       	sub	r24, r8
    67be:	99 09       	sbc	r25, r9
    67c0:	aa 09       	sbc	r26, r10
    67c2:	bb 09       	sbc	r27, r11
    67c4:	88 3e       	cpi	r24, 0xE8	; 232
    67c6:	93 40       	sbci	r25, 0x03	; 3
    67c8:	a1 05       	cpc	r26, r1
    67ca:	b1 05       	cpc	r27, r1
    67cc:	70 f3       	brcs	.-36     	; 0x67aa <delay+0x1a>
			ms--;
    67ce:	21 e0       	ldi	r18, 0x01	; 1
    67d0:	c2 1a       	sub	r12, r18
    67d2:	d1 08       	sbc	r13, r1
    67d4:	e1 08       	sbc	r14, r1
    67d6:	f1 08       	sbc	r15, r1
			start += 1000;
    67d8:	88 ee       	ldi	r24, 0xE8	; 232
    67da:	88 0e       	add	r8, r24
    67dc:	83 e0       	ldi	r24, 0x03	; 3
    67de:	98 1e       	adc	r9, r24
    67e0:	a1 1c       	adc	r10, r1
    67e2:	b1 1c       	adc	r11, r1
{
	uint32_t start = micros();

	while (ms > 0) {
		yield();
		while ( ms > 0 && (micros() - start) >= 1000) {
    67e4:	c1 14       	cp	r12, r1
    67e6:	d1 04       	cpc	r13, r1
    67e8:	e1 04       	cpc	r14, r1
    67ea:	f1 04       	cpc	r15, r1
    67ec:	21 f7       	brne	.-56     	; 0x67b6 <delay+0x26>
    67ee:	dd cf       	rjmp	.-70     	; 0x67aa <delay+0x1a>
			ms--;
			start += 1000;
		}
	}
}
    67f0:	ff 90       	pop	r15
    67f2:	ef 90       	pop	r14
    67f4:	df 90       	pop	r13
    67f6:	cf 90       	pop	r12
    67f8:	bf 90       	pop	r11
    67fa:	af 90       	pop	r10
    67fc:	9f 90       	pop	r9
    67fe:	8f 90       	pop	r8
    6800:	08 95       	ret

00006802 <delayMicroseconds>:
#elif F_CPU >= 16000000L
	// for the 16 MHz clock on most Arduino boards

	// for a one-microsecond delay, simply return.  the overhead
	// of the function call takes 14 (16) cycles, which is 1us
	if (us <= 1) return; //  = 3 cycles, (4 when true)
    6802:	82 30       	cpi	r24, 0x02	; 2
    6804:	91 05       	cpc	r25, r1
    6806:	38 f0       	brcs	.+14     	; 0x6816 <delayMicroseconds+0x14>

	// the following loop takes 1/4 of a microsecond (4 cycles)
	// per iteration, so execute it four times for each microsecond of
	// delay requested.
	us <<= 2; // x4 us, = 4 cycles
    6808:	88 0f       	add	r24, r24
    680a:	99 1f       	adc	r25, r25
    680c:	88 0f       	add	r24, r24
    680e:	99 1f       	adc	r25, r25

	// account for the time taken in the preceeding commands.
	// we just burned 19 (21) cycles above, remove 5, (5*4=20)
	// us is at least 8 so we can substract 5
	us -= 5; // = 2 cycles,
    6810:	05 97       	sbiw	r24, 0x05	; 5
	

#endif

	// busy wait
	__asm__ __volatile__ (
    6812:	01 97       	sbiw	r24, 0x01	; 1
    6814:	f1 f7       	brne	.-4      	; 0x6812 <delayMicroseconds+0x10>
    6816:	08 95       	ret

00006818 <init>:

void init()
{
	// this needs to be called before setup() or some functions won't
	// work there
	sei();
    6818:	78 94       	sei
	
	// on the ATmega168, timer 0 is also used for fast hardware pwm
	// (using phase-correct PWM would mean that timer 0 overflowed half as often
	// resulting in different millis() behavior on the ATmega8 and ATmega168)
#if defined(TCCR0A) && defined(WGM01)
	sbi(TCCR0A, WGM01);
    681a:	84 b5       	in	r24, 0x24	; 36
    681c:	82 60       	ori	r24, 0x02	; 2
    681e:	84 bd       	out	0x24, r24	; 36
	sbi(TCCR0A, WGM00);
    6820:	84 b5       	in	r24, 0x24	; 36
    6822:	81 60       	ori	r24, 0x01	; 1
    6824:	84 bd       	out	0x24, r24	; 36
	// this combination is for the standard atmega8
	sbi(TCCR0, CS01);
	sbi(TCCR0, CS00);
#elif defined(TCCR0B) && defined(CS01) && defined(CS00)
	// this combination is for the standard 168/328/1280/2560
	sbi(TCCR0B, CS01);
    6826:	85 b5       	in	r24, 0x25	; 37
    6828:	82 60       	ori	r24, 0x02	; 2
    682a:	85 bd       	out	0x25, r24	; 37
	sbi(TCCR0B, CS00);
    682c:	85 b5       	in	r24, 0x25	; 37
    682e:	81 60       	ori	r24, 0x01	; 1
    6830:	85 bd       	out	0x25, r24	; 37

	// enable timer 0 overflow interrupt
#if defined(TIMSK) && defined(TOIE0)
	sbi(TIMSK, TOIE0);
#elif defined(TIMSK0) && defined(TOIE0)
	sbi(TIMSK0, TOIE0);
    6832:	ee e6       	ldi	r30, 0x6E	; 110
    6834:	f0 e0       	ldi	r31, 0x00	; 0
    6836:	80 81       	ld	r24, Z
    6838:	81 60       	ori	r24, 0x01	; 1
    683a:	80 83       	st	Z, r24
	// this is better for motors as it ensures an even waveform
	// note, however, that fast pwm mode can achieve a frequency of up
	// 8 MHz (with a 16 MHz clock) at 50% duty cycle

#if defined(TCCR1B) && defined(CS11) && defined(CS10)
	TCCR1B = 0;
    683c:	e1 e8       	ldi	r30, 0x81	; 129
    683e:	f0 e0       	ldi	r31, 0x00	; 0
    6840:	10 82       	st	Z, r1

	// set timer 1 prescale factor to 64
	sbi(TCCR1B, CS11);
    6842:	80 81       	ld	r24, Z
    6844:	82 60       	ori	r24, 0x02	; 2
    6846:	80 83       	st	Z, r24
#if F_CPU >= 8000000L
	sbi(TCCR1B, CS10);
    6848:	80 81       	ld	r24, Z
    684a:	81 60       	ori	r24, 0x01	; 1
    684c:	80 83       	st	Z, r24
	sbi(TCCR1, CS10);
#endif
#endif
	// put timer 1 in 8-bit phase correct pwm mode
#if defined(TCCR1A) && defined(WGM10)
	sbi(TCCR1A, WGM10);
    684e:	e0 e8       	ldi	r30, 0x80	; 128
    6850:	f0 e0       	ldi	r31, 0x00	; 0
    6852:	80 81       	ld	r24, Z
    6854:	81 60       	ori	r24, 0x01	; 1
    6856:	80 83       	st	Z, r24

	// set timer 2 prescale factor to 64
#if defined(TCCR2) && defined(CS22)
	sbi(TCCR2, CS22);
#elif defined(TCCR2B) && defined(CS22)
	sbi(TCCR2B, CS22);
    6858:	e1 eb       	ldi	r30, 0xB1	; 177
    685a:	f0 e0       	ldi	r31, 0x00	; 0
    685c:	80 81       	ld	r24, Z
    685e:	84 60       	ori	r24, 0x04	; 4
    6860:	80 83       	st	Z, r24

	// configure timer 2 for phase correct pwm (8-bit)
#if defined(TCCR2) && defined(WGM20)
	sbi(TCCR2, WGM20);
#elif defined(TCCR2A) && defined(WGM20)
	sbi(TCCR2A, WGM20);
    6862:	e0 eb       	ldi	r30, 0xB0	; 176
    6864:	f0 e0       	ldi	r31, 0x00	; 0
    6866:	80 81       	ld	r24, Z
    6868:	81 60       	ori	r24, 0x01	; 1
    686a:	80 83       	st	Z, r24
//#else
	// Timer 2 not finished (may not be present on this CPU)
#endif

#if defined(TCCR3B) && defined(CS31) && defined(WGM30)
	sbi(TCCR3B, CS31);		// set timer 3 prescale factor to 64
    686c:	e1 e9       	ldi	r30, 0x91	; 145
    686e:	f0 e0       	ldi	r31, 0x00	; 0
    6870:	80 81       	ld	r24, Z
    6872:	82 60       	ori	r24, 0x02	; 2
    6874:	80 83       	st	Z, r24
	sbi(TCCR3B, CS30);
    6876:	80 81       	ld	r24, Z
    6878:	81 60       	ori	r24, 0x01	; 1
    687a:	80 83       	st	Z, r24
	sbi(TCCR3A, WGM30);		// put timer 3 in 8-bit phase correct pwm mode
    687c:	e0 e9       	ldi	r30, 0x90	; 144
    687e:	f0 e0       	ldi	r31, 0x00	; 0
    6880:	80 81       	ld	r24, Z
    6882:	81 60       	ori	r24, 0x01	; 1
    6884:	80 83       	st	Z, r24
	sbi(TCCR4D, WGM40);		// put timer 4 in phase- and frequency-correct PWM mode	
	sbi(TCCR4A, PWM4A);		// enable PWM mode for comparator OCR4A
	sbi(TCCR4C, PWM4D);		// enable PWM mode for comparator OCR4D
#else /* beginning of timer4 block for ATMEGA1280 and ATMEGA2560 */
#if defined(TCCR4B) && defined(CS41) && defined(WGM40)
	sbi(TCCR4B, CS41);		// set timer 4 prescale factor to 64
    6886:	e1 ea       	ldi	r30, 0xA1	; 161
    6888:	f0 e0       	ldi	r31, 0x00	; 0
    688a:	80 81       	ld	r24, Z
    688c:	82 60       	ori	r24, 0x02	; 2
    688e:	80 83       	st	Z, r24
	sbi(TCCR4B, CS40);
    6890:	80 81       	ld	r24, Z
    6892:	81 60       	ori	r24, 0x01	; 1
    6894:	80 83       	st	Z, r24
	sbi(TCCR4A, WGM40);		// put timer 4 in 8-bit phase correct pwm mode
    6896:	e0 ea       	ldi	r30, 0xA0	; 160
    6898:	f0 e0       	ldi	r31, 0x00	; 0
    689a:	80 81       	ld	r24, Z
    689c:	81 60       	ori	r24, 0x01	; 1
    689e:	80 83       	st	Z, r24
#endif
#endif /* end timer4 block for ATMEGA1280/2560 and similar */	

#if defined(TCCR5B) && defined(CS51) && defined(WGM50)
	sbi(TCCR5B, CS51);		// set timer 5 prescale factor to 64
    68a0:	e1 e2       	ldi	r30, 0x21	; 33
    68a2:	f1 e0       	ldi	r31, 0x01	; 1
    68a4:	80 81       	ld	r24, Z
    68a6:	82 60       	ori	r24, 0x02	; 2
    68a8:	80 83       	st	Z, r24
	sbi(TCCR5B, CS50);
    68aa:	80 81       	ld	r24, Z
    68ac:	81 60       	ori	r24, 0x01	; 1
    68ae:	80 83       	st	Z, r24
	sbi(TCCR5A, WGM50);		// put timer 5 in 8-bit phase correct pwm mode
    68b0:	e0 e2       	ldi	r30, 0x20	; 32
    68b2:	f1 e0       	ldi	r31, 0x01	; 1
    68b4:	80 81       	ld	r24, Z
    68b6:	81 60       	ori	r24, 0x01	; 1
    68b8:	80 83       	st	Z, r24
#endif

#if defined(ADCSRA)
	// set a2d prescaler so we are inside the desired 50-200 KHz range.
	#if F_CPU >= 16000000 // 16 MHz / 128 = 125 KHz
		sbi(ADCSRA, ADPS2);
    68ba:	ea e7       	ldi	r30, 0x7A	; 122
    68bc:	f0 e0       	ldi	r31, 0x00	; 0
    68be:	80 81       	ld	r24, Z
    68c0:	84 60       	ori	r24, 0x04	; 4
    68c2:	80 83       	st	Z, r24
		sbi(ADCSRA, ADPS1);
    68c4:	80 81       	ld	r24, Z
    68c6:	82 60       	ori	r24, 0x02	; 2
    68c8:	80 83       	st	Z, r24
		sbi(ADCSRA, ADPS0);
    68ca:	80 81       	ld	r24, Z
    68cc:	81 60       	ori	r24, 0x01	; 1
    68ce:	80 83       	st	Z, r24
		cbi(ADCSRA, ADPS2);
		cbi(ADCSRA, ADPS1);
		sbi(ADCSRA, ADPS0);
	#endif
	// enable a2d conversions
	sbi(ADCSRA, ADEN);
    68d0:	80 81       	ld	r24, Z
    68d2:	80 68       	ori	r24, 0x80	; 128
    68d4:	80 83       	st	Z, r24
	// here so they can be used as normal digital i/o; they will be
	// reconnected in Serial.begin()
#if defined(UCSRB)
	UCSRB = 0;
#elif defined(UCSR0B)
	UCSR0B = 0;
    68d6:	10 92 c1 00 	sts	0x00C1, r1	; 0x8000c1 <__TEXT_REGION_LENGTH__+0x7000c1>
    68da:	08 95       	ret

000068dc <turnOffPWM>:
//
//static inline void turnOffPWM(uint8_t timer) __attribute__ ((always_inline));
//static inline void turnOffPWM(uint8_t timer)
static void turnOffPWM(uint8_t timer)
{
	switch (timer)
    68dc:	90 e0       	ldi	r25, 0x00	; 0
    68de:	fc 01       	movw	r30, r24
    68e0:	31 97       	sbiw	r30, 0x01	; 1
    68e2:	e2 31       	cpi	r30, 0x12	; 18
    68e4:	f1 05       	cpc	r31, r1
    68e6:	08 f0       	brcs	.+2      	; 0x68ea <turnOffPWM+0xe>
    68e8:	4d c0       	rjmp	.+154    	; 0x6984 <turnOffPWM+0xa8>
    68ea:	88 27       	eor	r24, r24
    68ec:	e0 52       	subi	r30, 0x20	; 32
    68ee:	ff 4f       	sbci	r31, 0xFF	; 255
    68f0:	8f 4f       	sbci	r24, 0xFF	; 255
    68f2:	4a c2       	rjmp	.+1172   	; 0x6d88 <__tablejump2__>
	{
		#if defined(TCCR1A) && defined(COM1A1)
		case TIMER1A:   cbi(TCCR1A, COM1A1);    break;
    68f4:	80 91 80 00 	lds	r24, 0x0080	; 0x800080 <__TEXT_REGION_LENGTH__+0x700080>
    68f8:	8f 77       	andi	r24, 0x7F	; 127
    68fa:	03 c0       	rjmp	.+6      	; 0x6902 <turnOffPWM+0x26>
		#endif
		#if defined(TCCR1A) && defined(COM1B1)
		case TIMER1B:   cbi(TCCR1A, COM1B1);    break;
    68fc:	80 91 80 00 	lds	r24, 0x0080	; 0x800080 <__TEXT_REGION_LENGTH__+0x700080>
    6900:	8f 7d       	andi	r24, 0xDF	; 223
    6902:	80 93 80 00 	sts	0x0080, r24	; 0x800080 <__TEXT_REGION_LENGTH__+0x700080>
    6906:	08 95       	ret
		#endif
		#if defined(TCCR1A) && defined(COM1C1)
		case TIMER1C:   cbi(TCCR1A, COM1C1);    break;
    6908:	80 91 80 00 	lds	r24, 0x0080	; 0x800080 <__TEXT_REGION_LENGTH__+0x700080>
    690c:	87 7f       	andi	r24, 0xF7	; 247
    690e:	f9 cf       	rjmp	.-14     	; 0x6902 <turnOffPWM+0x26>
		#if defined(TCCR2) && defined(COM21)
		case  TIMER2:   cbi(TCCR2, COM21);      break;
		#endif
		
		#if defined(TCCR0A) && defined(COM0A1)
		case  TIMER0A:  cbi(TCCR0A, COM0A1);    break;
    6910:	84 b5       	in	r24, 0x24	; 36
    6912:	8f 77       	andi	r24, 0x7F	; 127
    6914:	02 c0       	rjmp	.+4      	; 0x691a <turnOffPWM+0x3e>
		#endif
		
		#if defined(TCCR0A) && defined(COM0B1)
		case  TIMER0B:  cbi(TCCR0A, COM0B1);    break;
    6916:	84 b5       	in	r24, 0x24	; 36
    6918:	8f 7d       	andi	r24, 0xDF	; 223
    691a:	84 bd       	out	0x24, r24	; 36
    691c:	08 95       	ret
		#endif
		#if defined(TCCR2A) && defined(COM2A1)
		case  TIMER2A:  cbi(TCCR2A, COM2A1);    break;
    691e:	80 91 b0 00 	lds	r24, 0x00B0	; 0x8000b0 <__TEXT_REGION_LENGTH__+0x7000b0>
    6922:	8f 77       	andi	r24, 0x7F	; 127
    6924:	03 c0       	rjmp	.+6      	; 0x692c <turnOffPWM+0x50>
		#endif
		#if defined(TCCR2A) && defined(COM2B1)
		case  TIMER2B:  cbi(TCCR2A, COM2B1);    break;
    6926:	80 91 b0 00 	lds	r24, 0x00B0	; 0x8000b0 <__TEXT_REGION_LENGTH__+0x7000b0>
    692a:	8f 7d       	andi	r24, 0xDF	; 223
    692c:	80 93 b0 00 	sts	0x00B0, r24	; 0x8000b0 <__TEXT_REGION_LENGTH__+0x7000b0>
    6930:	08 95       	ret
		#endif
		
		#if defined(TCCR3A) && defined(COM3A1)
		case  TIMER3A:  cbi(TCCR3A, COM3A1);    break;
    6932:	80 91 90 00 	lds	r24, 0x0090	; 0x800090 <__TEXT_REGION_LENGTH__+0x700090>
    6936:	8f 77       	andi	r24, 0x7F	; 127
    6938:	07 c0       	rjmp	.+14     	; 0x6948 <turnOffPWM+0x6c>
		#endif
		#if defined(TCCR3A) && defined(COM3B1)
		case  TIMER3B:  cbi(TCCR3A, COM3B1);    break;
    693a:	80 91 90 00 	lds	r24, 0x0090	; 0x800090 <__TEXT_REGION_LENGTH__+0x700090>
    693e:	8f 7d       	andi	r24, 0xDF	; 223
    6940:	03 c0       	rjmp	.+6      	; 0x6948 <turnOffPWM+0x6c>
		#endif
		#if defined(TCCR3A) && defined(COM3C1)
		case  TIMER3C:  cbi(TCCR3A, COM3C1);    break;
    6942:	80 91 90 00 	lds	r24, 0x0090	; 0x800090 <__TEXT_REGION_LENGTH__+0x700090>
    6946:	87 7f       	andi	r24, 0xF7	; 247
    6948:	80 93 90 00 	sts	0x0090, r24	; 0x800090 <__TEXT_REGION_LENGTH__+0x700090>
    694c:	08 95       	ret
		#endif

		#if defined(TCCR4A) && defined(COM4A1)
		case  TIMER4A:  cbi(TCCR4A, COM4A1);    break;
    694e:	80 91 a0 00 	lds	r24, 0x00A0	; 0x8000a0 <__TEXT_REGION_LENGTH__+0x7000a0>
    6952:	8f 77       	andi	r24, 0x7F	; 127
    6954:	07 c0       	rjmp	.+14     	; 0x6964 <turnOffPWM+0x88>
		#endif					
		#if defined(TCCR4A) && defined(COM4B1)
		case  TIMER4B:  cbi(TCCR4A, COM4B1);    break;
    6956:	80 91 a0 00 	lds	r24, 0x00A0	; 0x8000a0 <__TEXT_REGION_LENGTH__+0x7000a0>
    695a:	8f 7d       	andi	r24, 0xDF	; 223
    695c:	03 c0       	rjmp	.+6      	; 0x6964 <turnOffPWM+0x88>
		#endif
		#if defined(TCCR4A) && defined(COM4C1)
		case  TIMER4C:  cbi(TCCR4A, COM4C1);    break;
    695e:	80 91 a0 00 	lds	r24, 0x00A0	; 0x8000a0 <__TEXT_REGION_LENGTH__+0x7000a0>
    6962:	87 7f       	andi	r24, 0xF7	; 247
    6964:	80 93 a0 00 	sts	0x00A0, r24	; 0x8000a0 <__TEXT_REGION_LENGTH__+0x7000a0>
    6968:	08 95       	ret
		#if defined(TCCR4C) && defined(COM4D1)
		case TIMER4D:	cbi(TCCR4C, COM4D1);	break;
		#endif			
			
		#if defined(TCCR5A)
		case  TIMER5A:  cbi(TCCR5A, COM5A1);    break;
    696a:	80 91 20 01 	lds	r24, 0x0120	; 0x800120 <__TEXT_REGION_LENGTH__+0x700120>
    696e:	8f 77       	andi	r24, 0x7F	; 127
    6970:	07 c0       	rjmp	.+14     	; 0x6980 <turnOffPWM+0xa4>
		case  TIMER5B:  cbi(TCCR5A, COM5B1);    break;
    6972:	80 91 20 01 	lds	r24, 0x0120	; 0x800120 <__TEXT_REGION_LENGTH__+0x700120>
    6976:	8f 7d       	andi	r24, 0xDF	; 223
    6978:	03 c0       	rjmp	.+6      	; 0x6980 <turnOffPWM+0xa4>
		case  TIMER5C:  cbi(TCCR5A, COM5C1);    break;
    697a:	80 91 20 01 	lds	r24, 0x0120	; 0x800120 <__TEXT_REGION_LENGTH__+0x700120>
    697e:	87 7f       	andi	r24, 0xF7	; 247
    6980:	80 93 20 01 	sts	0x0120, r24	; 0x800120 <__TEXT_REGION_LENGTH__+0x700120>
    6984:	08 95       	ret

00006986 <pinMode>:
#define ARDUINO_MAIN
#include "wiring_private.h"
#include "pins_arduino.h"

void pinMode(uint8_t pin, uint8_t mode)
{
    6986:	cf 93       	push	r28
    6988:	df 93       	push	r29
	uint8_t bit = digitalPinToBitMask(pin);
    698a:	90 e0       	ldi	r25, 0x00	; 0
    698c:	fc 01       	movw	r30, r24
    698e:	e6 5d       	subi	r30, 0xD6	; 214
    6990:	f8 4f       	sbci	r31, 0xF8	; 248
    6992:	24 91       	lpm	r18, Z
	uint8_t port = digitalPinToPort(pin);
    6994:	fc 01       	movw	r30, r24
    6996:	e0 59       	subi	r30, 0x90	; 144
    6998:	f8 4f       	sbci	r31, 0xF8	; 248
    699a:	84 91       	lpm	r24, Z
	volatile uint8_t *reg, *out;

	if (port == NOT_A_PIN) return;
    699c:	88 23       	and	r24, r24
    699e:	61 f1       	breq	.+88     	; 0x69f8 <pinMode+0x72>

	// JWS: can I let the optimizer do this?
	reg = portModeRegister(port);
    69a0:	90 e0       	ldi	r25, 0x00	; 0
    69a2:	88 0f       	add	r24, r24
    69a4:	99 1f       	adc	r25, r25
    69a6:	fc 01       	movw	r30, r24
    69a8:	e6 51       	subi	r30, 0x16	; 22
    69aa:	f8 4f       	sbci	r31, 0xF8	; 248
    69ac:	c5 91       	lpm	r28, Z+
    69ae:	d4 91       	lpm	r29, Z
	out = portOutputRegister(port);
    69b0:	fc 01       	movw	r30, r24
    69b2:	e0 53       	subi	r30, 0x30	; 48
    69b4:	f8 4f       	sbci	r31, 0xF8	; 248
    69b6:	a5 91       	lpm	r26, Z+
    69b8:	b4 91       	lpm	r27, Z

	if (mode == INPUT) { 
    69ba:	61 11       	cpse	r22, r1
    69bc:	09 c0       	rjmp	.+18     	; 0x69d0 <pinMode+0x4a>
		uint8_t oldSREG = SREG;
    69be:	9f b7       	in	r25, 0x3f	; 63
                cli();
    69c0:	f8 94       	cli
		*reg &= ~bit;
    69c2:	88 81       	ld	r24, Y
    69c4:	20 95       	com	r18
    69c6:	82 23       	and	r24, r18
    69c8:	88 83       	st	Y, r24
		*out &= ~bit;
    69ca:	ec 91       	ld	r30, X
    69cc:	2e 23       	and	r18, r30
    69ce:	0b c0       	rjmp	.+22     	; 0x69e6 <pinMode+0x60>
		SREG = oldSREG;
	} else if (mode == INPUT_PULLUP) {
    69d0:	62 30       	cpi	r22, 0x02	; 2
    69d2:	61 f4       	brne	.+24     	; 0x69ec <pinMode+0x66>
		uint8_t oldSREG = SREG;
    69d4:	9f b7       	in	r25, 0x3f	; 63
                cli();
    69d6:	f8 94       	cli
		*reg &= ~bit;
    69d8:	38 81       	ld	r19, Y
    69da:	82 2f       	mov	r24, r18
    69dc:	80 95       	com	r24
    69de:	83 23       	and	r24, r19
    69e0:	88 83       	st	Y, r24
		*out |= bit;
    69e2:	ec 91       	ld	r30, X
    69e4:	2e 2b       	or	r18, r30
    69e6:	2c 93       	st	X, r18
		SREG = oldSREG;
    69e8:	9f bf       	out	0x3f, r25	; 63
    69ea:	06 c0       	rjmp	.+12     	; 0x69f8 <pinMode+0x72>
	} else {
		uint8_t oldSREG = SREG;
    69ec:	8f b7       	in	r24, 0x3f	; 63
                cli();
    69ee:	f8 94       	cli
		*reg |= bit;
    69f0:	e8 81       	ld	r30, Y
    69f2:	2e 2b       	or	r18, r30
    69f4:	28 83       	st	Y, r18
		SREG = oldSREG;
    69f6:	8f bf       	out	0x3f, r24	; 63
	}
}
    69f8:	df 91       	pop	r29
    69fa:	cf 91       	pop	r28
    69fc:	08 95       	ret

000069fe <digitalWrite>:
		#endif
	}
}

void digitalWrite(uint8_t pin, uint8_t val)
{
    69fe:	1f 93       	push	r17
    6a00:	cf 93       	push	r28
    6a02:	df 93       	push	r29
	uint8_t timer = digitalPinToTimer(pin);
    6a04:	28 2f       	mov	r18, r24
    6a06:	30 e0       	ldi	r19, 0x00	; 0
    6a08:	f9 01       	movw	r30, r18
    6a0a:	ec 51       	subi	r30, 0x1C	; 28
    6a0c:	f9 4f       	sbci	r31, 0xF9	; 249
    6a0e:	84 91       	lpm	r24, Z
	uint8_t bit = digitalPinToBitMask(pin);
    6a10:	f9 01       	movw	r30, r18
    6a12:	e6 5d       	subi	r30, 0xD6	; 214
    6a14:	f8 4f       	sbci	r31, 0xF8	; 248
    6a16:	d4 91       	lpm	r29, Z
	uint8_t port = digitalPinToPort(pin);
    6a18:	f9 01       	movw	r30, r18
    6a1a:	e0 59       	subi	r30, 0x90	; 144
    6a1c:	f8 4f       	sbci	r31, 0xF8	; 248
    6a1e:	c4 91       	lpm	r28, Z
	volatile uint8_t *out;

	if (port == NOT_A_PIN) return;
    6a20:	cc 23       	and	r28, r28
    6a22:	c1 f0       	breq	.+48     	; 0x6a54 <digitalWrite+0x56>
    6a24:	16 2f       	mov	r17, r22

	// If the pin that support PWM output, we need to turn it off
	// before doing a digital write.
	if (timer != NOT_ON_TIMER) turnOffPWM(timer);
    6a26:	81 11       	cpse	r24, r1
    6a28:	59 df       	rcall	.-334    	; 0x68dc <turnOffPWM>

	out = portOutputRegister(port);
    6a2a:	ec 2f       	mov	r30, r28
    6a2c:	f0 e0       	ldi	r31, 0x00	; 0
    6a2e:	ee 0f       	add	r30, r30
    6a30:	ff 1f       	adc	r31, r31
    6a32:	e0 53       	subi	r30, 0x30	; 48
    6a34:	f8 4f       	sbci	r31, 0xF8	; 248
    6a36:	a5 91       	lpm	r26, Z+
    6a38:	b4 91       	lpm	r27, Z

	uint8_t oldSREG = SREG;
    6a3a:	8f b7       	in	r24, 0x3f	; 63
	cli();
    6a3c:	f8 94       	cli

	if (val == LOW) {
    6a3e:	11 11       	cpse	r17, r1
    6a40:	05 c0       	rjmp	.+10     	; 0x6a4c <digitalWrite+0x4e>
		*out &= ~bit;
    6a42:	9c 91       	ld	r25, X
    6a44:	ed 2f       	mov	r30, r29
    6a46:	e0 95       	com	r30
    6a48:	e9 23       	and	r30, r25
    6a4a:	02 c0       	rjmp	.+4      	; 0x6a50 <digitalWrite+0x52>
	} else {
		*out |= bit;
    6a4c:	ec 91       	ld	r30, X
    6a4e:	ed 2b       	or	r30, r29
    6a50:	ec 93       	st	X, r30
	}

	SREG = oldSREG;
    6a52:	8f bf       	out	0x3f, r24	; 63
}
    6a54:	df 91       	pop	r29
    6a56:	cf 91       	pop	r28
    6a58:	1f 91       	pop	r17
    6a5a:	08 95       	ret

00006a5c <digitalRead>:

int digitalRead(uint8_t pin)
{
    6a5c:	cf 93       	push	r28
    6a5e:	df 93       	push	r29
	uint8_t timer = digitalPinToTimer(pin);
    6a60:	28 2f       	mov	r18, r24
    6a62:	30 e0       	ldi	r19, 0x00	; 0
    6a64:	f9 01       	movw	r30, r18
    6a66:	ec 51       	subi	r30, 0x1C	; 28
    6a68:	f9 4f       	sbci	r31, 0xF9	; 249
    6a6a:	84 91       	lpm	r24, Z
	uint8_t bit = digitalPinToBitMask(pin);
    6a6c:	f9 01       	movw	r30, r18
    6a6e:	e6 5d       	subi	r30, 0xD6	; 214
    6a70:	f8 4f       	sbci	r31, 0xF8	; 248
    6a72:	d4 91       	lpm	r29, Z
	uint8_t port = digitalPinToPort(pin);
    6a74:	f9 01       	movw	r30, r18
    6a76:	e0 59       	subi	r30, 0x90	; 144
    6a78:	f8 4f       	sbci	r31, 0xF8	; 248
    6a7a:	c4 91       	lpm	r28, Z

	if (port == NOT_A_PIN) return LOW;
    6a7c:	cc 23       	and	r28, r28
    6a7e:	89 f0       	breq	.+34     	; 0x6aa2 <digitalRead+0x46>

	// If the pin that support PWM output, we need to turn it off
	// before getting a digital reading.
	if (timer != NOT_ON_TIMER) turnOffPWM(timer);
    6a80:	81 11       	cpse	r24, r1
    6a82:	2c df       	rcall	.-424    	; 0x68dc <turnOffPWM>

	if (*portInputRegister(port) & bit) return HIGH;
    6a84:	ec 2f       	mov	r30, r28
    6a86:	f0 e0       	ldi	r31, 0x00	; 0
    6a88:	ee 0f       	add	r30, r30
    6a8a:	ff 1f       	adc	r31, r31
    6a8c:	ea 54       	subi	r30, 0x4A	; 74
    6a8e:	f8 4f       	sbci	r31, 0xF8	; 248
    6a90:	a5 91       	lpm	r26, Z+
    6a92:	b4 91       	lpm	r27, Z
    6a94:	ec 91       	ld	r30, X
    6a96:	ed 23       	and	r30, r29
    6a98:	81 e0       	ldi	r24, 0x01	; 1
    6a9a:	90 e0       	ldi	r25, 0x00	; 0
    6a9c:	21 f4       	brne	.+8      	; 0x6aa6 <digitalRead+0x4a>
    6a9e:	80 e0       	ldi	r24, 0x00	; 0
    6aa0:	02 c0       	rjmp	.+4      	; 0x6aa6 <digitalRead+0x4a>
{
	uint8_t timer = digitalPinToTimer(pin);
	uint8_t bit = digitalPinToBitMask(pin);
	uint8_t port = digitalPinToPort(pin);

	if (port == NOT_A_PIN) return LOW;
    6aa2:	80 e0       	ldi	r24, 0x00	; 0
    6aa4:	90 e0       	ldi	r25, 0x00	; 0
	// before getting a digital reading.
	if (timer != NOT_ON_TIMER) turnOffPWM(timer);

	if (*portInputRegister(port) & bit) return HIGH;
	return LOW;
}
    6aa6:	df 91       	pop	r29
    6aa8:	cf 91       	pop	r28
    6aaa:	08 95       	ret

00006aac <_Z3maplllll>:
  long diff = howbig - howsmall;
  return random(diff) + howsmall;
}

long map(long x, long in_min, long in_max, long out_min, long out_max)
{
    6aac:	4f 92       	push	r4
    6aae:	5f 92       	push	r5
    6ab0:	6f 92       	push	r6
    6ab2:	7f 92       	push	r7
    6ab4:	af 92       	push	r10
    6ab6:	bf 92       	push	r11
    6ab8:	cf 92       	push	r12
    6aba:	df 92       	push	r13
    6abc:	ef 92       	push	r14
    6abe:	ff 92       	push	r15
    6ac0:	0f 93       	push	r16
    6ac2:	1f 93       	push	r17
    6ac4:	cf 93       	push	r28
    6ac6:	df 93       	push	r29
    6ac8:	cd b7       	in	r28, 0x3d	; 61
    6aca:	de b7       	in	r29, 0x3e	; 62
    6acc:	29 01       	movw	r4, r18
    6ace:	3a 01       	movw	r6, r20
  return (x - in_min) * (out_max - out_min) / (in_max - in_min) + out_min;
    6ad0:	9b 01       	movw	r18, r22
    6ad2:	ac 01       	movw	r20, r24
    6ad4:	24 19       	sub	r18, r4
    6ad6:	35 09       	sbc	r19, r5
    6ad8:	46 09       	sbc	r20, r6
    6ada:	57 09       	sbc	r21, r7
    6adc:	8a 89       	ldd	r24, Y+18	; 0x12
    6ade:	9b 89       	ldd	r25, Y+19	; 0x13
    6ae0:	ac 89       	ldd	r26, Y+20	; 0x14
    6ae2:	bd 89       	ldd	r27, Y+21	; 0x15
    6ae4:	bc 01       	movw	r22, r24
    6ae6:	cd 01       	movw	r24, r26
    6ae8:	6a 19       	sub	r22, r10
    6aea:	7b 09       	sbc	r23, r11
    6aec:	8c 09       	sbc	r24, r12
    6aee:	9d 09       	sbc	r25, r13
    6af0:	fe d0       	rcall	.+508    	; 0x6cee <__mulsi3>
    6af2:	a8 01       	movw	r20, r16
    6af4:	97 01       	movw	r18, r14
    6af6:	24 19       	sub	r18, r4
    6af8:	35 09       	sbc	r19, r5
    6afa:	46 09       	sbc	r20, r6
    6afc:	57 09       	sbc	r21, r7
    6afe:	28 d1       	rcall	.+592    	; 0x6d50 <__divmodsi4>
    6b00:	ca 01       	movw	r24, r20
    6b02:	b9 01       	movw	r22, r18
    6b04:	6a 0d       	add	r22, r10
    6b06:	7b 1d       	adc	r23, r11
    6b08:	8c 1d       	adc	r24, r12
    6b0a:	9d 1d       	adc	r25, r13
}
    6b0c:	df 91       	pop	r29
    6b0e:	cf 91       	pop	r28
    6b10:	1f 91       	pop	r17
    6b12:	0f 91       	pop	r16
    6b14:	ff 90       	pop	r15
    6b16:	ef 90       	pop	r14
    6b18:	df 90       	pop	r13
    6b1a:	cf 90       	pop	r12
    6b1c:	bf 90       	pop	r11
    6b1e:	af 90       	pop	r10
    6b20:	7f 90       	pop	r7
    6b22:	6f 90       	pop	r6
    6b24:	5f 90       	pop	r5
    6b26:	4f 90       	pop	r4
    6b28:	08 95       	ret

00006b2a <_ZN6StringD1Ev>:
{
	if (!buffer) return;
	for (char *p = buffer; *p; p++) {
		*p = tolower(*p);
	}
}
    6b2a:	fc 01       	movw	r30, r24
    6b2c:	80 81       	ld	r24, Z
    6b2e:	91 81       	ldd	r25, Z+1	; 0x01
    6b30:	e7 c1       	rjmp	.+974    	; 0x6f00 <free>

00006b32 <_ZN6String10invalidateEv>:
    6b32:	cf 93       	push	r28
    6b34:	df 93       	push	r29
    6b36:	ec 01       	movw	r28, r24
    6b38:	88 81       	ld	r24, Y
    6b3a:	99 81       	ldd	r25, Y+1	; 0x01
    6b3c:	00 97       	sbiw	r24, 0x00	; 0
    6b3e:	09 f0       	breq	.+2      	; 0x6b42 <_ZN6String10invalidateEv+0x10>
    6b40:	df d1       	rcall	.+958    	; 0x6f00 <free>
    6b42:	19 82       	std	Y+1, r1	; 0x01
    6b44:	18 82       	st	Y, r1
    6b46:	1d 82       	std	Y+5, r1	; 0x05
    6b48:	1c 82       	std	Y+4, r1	; 0x04
    6b4a:	1b 82       	std	Y+3, r1	; 0x03
    6b4c:	1a 82       	std	Y+2, r1	; 0x02
    6b4e:	df 91       	pop	r29
    6b50:	cf 91       	pop	r28
    6b52:	08 95       	ret

00006b54 <_ZN6String12changeBufferEj>:
    6b54:	0f 93       	push	r16
    6b56:	1f 93       	push	r17
    6b58:	cf 93       	push	r28
    6b5a:	df 93       	push	r29
    6b5c:	ec 01       	movw	r28, r24
    6b5e:	8b 01       	movw	r16, r22
    6b60:	6f 5f       	subi	r22, 0xFF	; 255
    6b62:	7f 4f       	sbci	r23, 0xFF	; 255
    6b64:	88 81       	ld	r24, Y
    6b66:	99 81       	ldd	r25, Y+1	; 0x01
    6b68:	63 d2       	rcall	.+1222   	; 0x7030 <realloc>
    6b6a:	00 97       	sbiw	r24, 0x00	; 0
    6b6c:	31 f0       	breq	.+12     	; 0x6b7a <_ZN6String12changeBufferEj+0x26>
    6b6e:	99 83       	std	Y+1, r25	; 0x01
    6b70:	88 83       	st	Y, r24
    6b72:	1b 83       	std	Y+3, r17	; 0x03
    6b74:	0a 83       	std	Y+2, r16	; 0x02
    6b76:	81 e0       	ldi	r24, 0x01	; 1
    6b78:	01 c0       	rjmp	.+2      	; 0x6b7c <_ZN6String12changeBufferEj+0x28>
    6b7a:	80 e0       	ldi	r24, 0x00	; 0
    6b7c:	df 91       	pop	r29
    6b7e:	cf 91       	pop	r28
    6b80:	1f 91       	pop	r17
    6b82:	0f 91       	pop	r16
    6b84:	08 95       	ret

00006b86 <_ZN6String7reserveEj>:
    6b86:	cf 93       	push	r28
    6b88:	df 93       	push	r29
    6b8a:	ec 01       	movw	r28, r24
    6b8c:	88 81       	ld	r24, Y
    6b8e:	99 81       	ldd	r25, Y+1	; 0x01
    6b90:	89 2b       	or	r24, r25
    6b92:	29 f0       	breq	.+10     	; 0x6b9e <_ZN6String7reserveEj+0x18>
    6b94:	8a 81       	ldd	r24, Y+2	; 0x02
    6b96:	9b 81       	ldd	r25, Y+3	; 0x03
    6b98:	86 17       	cp	r24, r22
    6b9a:	97 07       	cpc	r25, r23
    6b9c:	58 f4       	brcc	.+22     	; 0x6bb4 <_ZN6String7reserveEj+0x2e>
    6b9e:	ce 01       	movw	r24, r28
    6ba0:	d9 df       	rcall	.-78     	; 0x6b54 <_ZN6String12changeBufferEj>
    6ba2:	88 23       	and	r24, r24
    6ba4:	41 f0       	breq	.+16     	; 0x6bb6 <_ZN6String7reserveEj+0x30>
    6ba6:	8c 81       	ldd	r24, Y+4	; 0x04
    6ba8:	9d 81       	ldd	r25, Y+5	; 0x05
    6baa:	89 2b       	or	r24, r25
    6bac:	19 f4       	brne	.+6      	; 0x6bb4 <_ZN6String7reserveEj+0x2e>
    6bae:	e8 81       	ld	r30, Y
    6bb0:	f9 81       	ldd	r31, Y+1	; 0x01
    6bb2:	10 82       	st	Z, r1
    6bb4:	81 e0       	ldi	r24, 0x01	; 1
    6bb6:	df 91       	pop	r29
    6bb8:	cf 91       	pop	r28
    6bba:	08 95       	ret

00006bbc <_ZN6String4copyEPKcj>:
    6bbc:	ef 92       	push	r14
    6bbe:	ff 92       	push	r15
    6bc0:	0f 93       	push	r16
    6bc2:	1f 93       	push	r17
    6bc4:	cf 93       	push	r28
    6bc6:	df 93       	push	r29
    6bc8:	ec 01       	movw	r28, r24
    6bca:	7b 01       	movw	r14, r22
    6bcc:	8a 01       	movw	r16, r20
    6bce:	ba 01       	movw	r22, r20
    6bd0:	da df       	rcall	.-76     	; 0x6b86 <_ZN6String7reserveEj>
    6bd2:	81 11       	cpse	r24, r1
    6bd4:	03 c0       	rjmp	.+6      	; 0x6bdc <_ZN6String4copyEPKcj+0x20>
    6bd6:	ce 01       	movw	r24, r28
    6bd8:	ac df       	rcall	.-168    	; 0x6b32 <_ZN6String10invalidateEv>
    6bda:	06 c0       	rjmp	.+12     	; 0x6be8 <_ZN6String4copyEPKcj+0x2c>
    6bdc:	1d 83       	std	Y+5, r17	; 0x05
    6bde:	0c 83       	std	Y+4, r16	; 0x04
    6be0:	b7 01       	movw	r22, r14
    6be2:	88 81       	ld	r24, Y
    6be4:	99 81       	ldd	r25, Y+1	; 0x01
    6be6:	26 d3       	rcall	.+1612   	; 0x7234 <strcpy>
    6be8:	ce 01       	movw	r24, r28
    6bea:	df 91       	pop	r29
    6bec:	cf 91       	pop	r28
    6bee:	1f 91       	pop	r17
    6bf0:	0f 91       	pop	r16
    6bf2:	ff 90       	pop	r15
    6bf4:	ef 90       	pop	r14
    6bf6:	08 95       	ret

00006bf8 <_ZN6StringC1EPKc>:
    6bf8:	fc 01       	movw	r30, r24
    6bfa:	11 82       	std	Z+1, r1	; 0x01
    6bfc:	10 82       	st	Z, r1
    6bfe:	13 82       	std	Z+3, r1	; 0x03
    6c00:	12 82       	std	Z+2, r1	; 0x02
    6c02:	15 82       	std	Z+5, r1	; 0x05
    6c04:	14 82       	std	Z+4, r1	; 0x04
    6c06:	61 15       	cp	r22, r1
    6c08:	71 05       	cpc	r23, r1
    6c0a:	49 f0       	breq	.+18     	; 0x6c1e <_ZN6StringC1EPKc+0x26>
    6c0c:	fb 01       	movw	r30, r22
    6c0e:	01 90       	ld	r0, Z+
    6c10:	00 20       	and	r0, r0
    6c12:	e9 f7       	brne	.-6      	; 0x6c0e <_ZN6StringC1EPKc+0x16>
    6c14:	31 97       	sbiw	r30, 0x01	; 1
    6c16:	af 01       	movw	r20, r30
    6c18:	46 1b       	sub	r20, r22
    6c1a:	57 0b       	sbc	r21, r23
    6c1c:	cf cf       	rjmp	.-98     	; 0x6bbc <_ZN6String4copyEPKcj>
    6c1e:	08 95       	ret

00006c20 <_ZN6StringaSERKS_>:
    6c20:	cf 93       	push	r28
    6c22:	df 93       	push	r29
    6c24:	ec 01       	movw	r28, r24
    6c26:	fb 01       	movw	r30, r22
    6c28:	86 17       	cp	r24, r22
    6c2a:	97 07       	cpc	r25, r23
    6c2c:	51 f0       	breq	.+20     	; 0x6c42 <_ZN6StringaSERKS_+0x22>
    6c2e:	60 81       	ld	r22, Z
    6c30:	71 81       	ldd	r23, Z+1	; 0x01
    6c32:	61 15       	cp	r22, r1
    6c34:	71 05       	cpc	r23, r1
    6c36:	21 f0       	breq	.+8      	; 0x6c40 <_ZN6StringaSERKS_+0x20>
    6c38:	44 81       	ldd	r20, Z+4	; 0x04
    6c3a:	55 81       	ldd	r21, Z+5	; 0x05
    6c3c:	bf df       	rcall	.-130    	; 0x6bbc <_ZN6String4copyEPKcj>
    6c3e:	01 c0       	rjmp	.+2      	; 0x6c42 <_ZN6StringaSERKS_+0x22>
    6c40:	78 df       	rcall	.-272    	; 0x6b32 <_ZN6String10invalidateEv>
    6c42:	ce 01       	movw	r24, r28
    6c44:	df 91       	pop	r29
    6c46:	cf 91       	pop	r28
    6c48:	08 95       	ret

00006c4a <_ZN6StringC1ERKS_>:
    6c4a:	fc 01       	movw	r30, r24
    6c4c:	11 82       	std	Z+1, r1	; 0x01
    6c4e:	10 82       	st	Z, r1
    6c50:	13 82       	std	Z+3, r1	; 0x03
    6c52:	12 82       	std	Z+2, r1	; 0x02
    6c54:	15 82       	std	Z+5, r1	; 0x05
    6c56:	14 82       	std	Z+4, r1	; 0x04
    6c58:	e3 cf       	rjmp	.-58     	; 0x6c20 <_ZN6StringaSERKS_>

00006c5a <_ZN6StringaSEPKc>:
    6c5a:	cf 93       	push	r28
    6c5c:	df 93       	push	r29
    6c5e:	ec 01       	movw	r28, r24
    6c60:	61 15       	cp	r22, r1
    6c62:	71 05       	cpc	r23, r1
    6c64:	51 f0       	breq	.+20     	; 0x6c7a <_ZN6StringaSEPKc+0x20>
    6c66:	fb 01       	movw	r30, r22
    6c68:	01 90       	ld	r0, Z+
    6c6a:	00 20       	and	r0, r0
    6c6c:	e9 f7       	brne	.-6      	; 0x6c68 <_ZN6StringaSEPKc+0xe>
    6c6e:	31 97       	sbiw	r30, 0x01	; 1
    6c70:	af 01       	movw	r20, r30
    6c72:	46 1b       	sub	r20, r22
    6c74:	57 0b       	sbc	r21, r23
    6c76:	a2 df       	rcall	.-188    	; 0x6bbc <_ZN6String4copyEPKcj>
    6c78:	01 c0       	rjmp	.+2      	; 0x6c7c <_ZN6StringaSEPKc+0x22>
    6c7a:	5b df       	rcall	.-330    	; 0x6b32 <_ZN6String10invalidateEv>
    6c7c:	ce 01       	movw	r24, r28
    6c7e:	df 91       	pop	r29
    6c80:	cf 91       	pop	r28
    6c82:	08 95       	ret

00006c84 <_ZNK6String6equalsEPKc>:
    6c84:	fc 01       	movw	r30, r24
    6c86:	24 81       	ldd	r18, Z+4	; 0x04
    6c88:	35 81       	ldd	r19, Z+5	; 0x05
    6c8a:	23 2b       	or	r18, r19
    6c8c:	31 f4       	brne	.+12     	; 0x6c9a <_ZNK6String6equalsEPKc+0x16>
    6c8e:	21 e0       	ldi	r18, 0x01	; 1
    6c90:	61 15       	cp	r22, r1
    6c92:	71 05       	cpc	r23, r1
    6c94:	99 f0       	breq	.+38     	; 0x6cbc <_ZNK6String6equalsEPKc+0x38>
    6c96:	fb 01       	movw	r30, r22
    6c98:	08 c0       	rjmp	.+16     	; 0x6caa <_ZNK6String6equalsEPKc+0x26>
    6c9a:	fc 01       	movw	r30, r24
    6c9c:	80 81       	ld	r24, Z
    6c9e:	91 81       	ldd	r25, Z+1	; 0x01
    6ca0:	61 15       	cp	r22, r1
    6ca2:	71 05       	cpc	r23, r1
    6ca4:	31 f4       	brne	.+12     	; 0x6cb2 <_ZNK6String6equalsEPKc+0x2e>
    6ca6:	21 e0       	ldi	r18, 0x01	; 1
    6ca8:	fc 01       	movw	r30, r24
    6caa:	80 81       	ld	r24, Z
    6cac:	88 23       	and	r24, r24
    6cae:	31 f0       	breq	.+12     	; 0x6cbc <_ZNK6String6equalsEPKc+0x38>
    6cb0:	04 c0       	rjmp	.+8      	; 0x6cba <_ZNK6String6equalsEPKc+0x36>
    6cb2:	b7 d2       	rcall	.+1390   	; 0x7222 <strcmp>
    6cb4:	21 e0       	ldi	r18, 0x01	; 1
    6cb6:	89 2b       	or	r24, r25
    6cb8:	09 f0       	breq	.+2      	; 0x6cbc <_ZNK6String6equalsEPKc+0x38>
    6cba:	20 e0       	ldi	r18, 0x00	; 0
    6cbc:	82 2f       	mov	r24, r18
    6cbe:	08 95       	ret

00006cc0 <_ZN6String11toUpperCaseEv>:

void String::toUpperCase(void)
{
    6cc0:	cf 93       	push	r28
    6cc2:	df 93       	push	r29
	if (!buffer) return;
    6cc4:	fc 01       	movw	r30, r24
    6cc6:	c0 81       	ld	r28, Z
    6cc8:	d1 81       	ldd	r29, Z+1	; 0x01
    6cca:	20 97       	sbiw	r28, 0x00	; 0
    6ccc:	39 f0       	breq	.+14     	; 0x6cdc <_ZN6String11toUpperCaseEv+0x1c>
	for (char *p = buffer; *p; p++) {
    6cce:	88 81       	ld	r24, Y
    6cd0:	88 23       	and	r24, r24
    6cd2:	21 f0       	breq	.+8      	; 0x6cdc <_ZN6String11toUpperCaseEv+0x1c>
		*p = toupper(*p);
    6cd4:	90 e0       	ldi	r25, 0x00	; 0
    6cd6:	94 d2       	rcall	.+1320   	; 0x7200 <toupper>
    6cd8:	89 93       	st	Y+, r24
    6cda:	f9 cf       	rjmp	.-14     	; 0x6cce <_ZN6String11toUpperCaseEv+0xe>
	}
}
    6cdc:	df 91       	pop	r29
    6cde:	cf 91       	pop	r28
    6ce0:	08 95       	ret

00006ce2 <yield>:
 * libraries or sketches that supports cooperative threads.
 *
 * Its defined as a weak symbol and it can be redefined to implement a
 * real cooperative scheduler.
 */
static void __empty() {
    6ce2:	08 95       	ret

00006ce4 <__unordsf2>:
    6ce4:	0e 94 cf 29 	call	0x539e	; 0x539e <__fp_cmp>
    6ce8:	88 0b       	sbc	r24, r24
    6cea:	99 0b       	sbc	r25, r25
    6cec:	08 95       	ret

00006cee <__mulsi3>:
    6cee:	db 01       	movw	r26, r22
    6cf0:	8f 93       	push	r24
    6cf2:	9f 93       	push	r25
    6cf4:	66 d0       	rcall	.+204    	; 0x6dc2 <__muluhisi3>
    6cf6:	bf 91       	pop	r27
    6cf8:	af 91       	pop	r26
    6cfa:	a2 9f       	mul	r26, r18
    6cfc:	80 0d       	add	r24, r0
    6cfe:	91 1d       	adc	r25, r1
    6d00:	a3 9f       	mul	r26, r19
    6d02:	90 0d       	add	r25, r0
    6d04:	b2 9f       	mul	r27, r18
    6d06:	90 0d       	add	r25, r0
    6d08:	11 24       	eor	r1, r1
    6d0a:	08 95       	ret

00006d0c <__udivmodsi4>:
    6d0c:	a1 e2       	ldi	r26, 0x21	; 33
    6d0e:	1a 2e       	mov	r1, r26
    6d10:	aa 1b       	sub	r26, r26
    6d12:	bb 1b       	sub	r27, r27
    6d14:	fd 01       	movw	r30, r26
    6d16:	0d c0       	rjmp	.+26     	; 0x6d32 <__udivmodsi4_ep>

00006d18 <__udivmodsi4_loop>:
    6d18:	aa 1f       	adc	r26, r26
    6d1a:	bb 1f       	adc	r27, r27
    6d1c:	ee 1f       	adc	r30, r30
    6d1e:	ff 1f       	adc	r31, r31
    6d20:	a2 17       	cp	r26, r18
    6d22:	b3 07       	cpc	r27, r19
    6d24:	e4 07       	cpc	r30, r20
    6d26:	f5 07       	cpc	r31, r21
    6d28:	20 f0       	brcs	.+8      	; 0x6d32 <__udivmodsi4_ep>
    6d2a:	a2 1b       	sub	r26, r18
    6d2c:	b3 0b       	sbc	r27, r19
    6d2e:	e4 0b       	sbc	r30, r20
    6d30:	f5 0b       	sbc	r31, r21

00006d32 <__udivmodsi4_ep>:
    6d32:	66 1f       	adc	r22, r22
    6d34:	77 1f       	adc	r23, r23
    6d36:	88 1f       	adc	r24, r24
    6d38:	99 1f       	adc	r25, r25
    6d3a:	1a 94       	dec	r1
    6d3c:	69 f7       	brne	.-38     	; 0x6d18 <__udivmodsi4_loop>
    6d3e:	60 95       	com	r22
    6d40:	70 95       	com	r23
    6d42:	80 95       	com	r24
    6d44:	90 95       	com	r25
    6d46:	9b 01       	movw	r18, r22
    6d48:	ac 01       	movw	r20, r24
    6d4a:	bd 01       	movw	r22, r26
    6d4c:	cf 01       	movw	r24, r30
    6d4e:	08 95       	ret

00006d50 <__divmodsi4>:
    6d50:	05 2e       	mov	r0, r21
    6d52:	97 fb       	bst	r25, 7
    6d54:	16 f4       	brtc	.+4      	; 0x6d5a <__divmodsi4+0xa>
    6d56:	00 94       	com	r0
    6d58:	0f d0       	rcall	.+30     	; 0x6d78 <__negsi2>
    6d5a:	57 fd       	sbrc	r21, 7
    6d5c:	05 d0       	rcall	.+10     	; 0x6d68 <__divmodsi4_neg2>
    6d5e:	d6 df       	rcall	.-84     	; 0x6d0c <__udivmodsi4>
    6d60:	07 fc       	sbrc	r0, 7
    6d62:	02 d0       	rcall	.+4      	; 0x6d68 <__divmodsi4_neg2>
    6d64:	46 f4       	brtc	.+16     	; 0x6d76 <__divmodsi4_exit>
    6d66:	08 c0       	rjmp	.+16     	; 0x6d78 <__negsi2>

00006d68 <__divmodsi4_neg2>:
    6d68:	50 95       	com	r21
    6d6a:	40 95       	com	r20
    6d6c:	30 95       	com	r19
    6d6e:	21 95       	neg	r18
    6d70:	3f 4f       	sbci	r19, 0xFF	; 255
    6d72:	4f 4f       	sbci	r20, 0xFF	; 255
    6d74:	5f 4f       	sbci	r21, 0xFF	; 255

00006d76 <__divmodsi4_exit>:
    6d76:	08 95       	ret

00006d78 <__negsi2>:
    6d78:	90 95       	com	r25
    6d7a:	80 95       	com	r24
    6d7c:	70 95       	com	r23
    6d7e:	61 95       	neg	r22
    6d80:	7f 4f       	sbci	r23, 0xFF	; 255
    6d82:	8f 4f       	sbci	r24, 0xFF	; 255
    6d84:	9f 4f       	sbci	r25, 0xFF	; 255
    6d86:	08 95       	ret

00006d88 <__tablejump2__>:
    6d88:	ee 0f       	add	r30, r30
    6d8a:	ff 1f       	adc	r31, r31
    6d8c:	88 1f       	adc	r24, r24
    6d8e:	8b bf       	out	0x3b, r24	; 59
    6d90:	07 90       	elpm	r0, Z+
    6d92:	f6 91       	elpm	r31, Z
    6d94:	e0 2d       	mov	r30, r0
    6d96:	19 94       	eijmp

00006d98 <__umulhisi3>:
    6d98:	a2 9f       	mul	r26, r18
    6d9a:	b0 01       	movw	r22, r0
    6d9c:	b3 9f       	mul	r27, r19
    6d9e:	c0 01       	movw	r24, r0
    6da0:	a3 9f       	mul	r26, r19
    6da2:	70 0d       	add	r23, r0
    6da4:	81 1d       	adc	r24, r1
    6da6:	11 24       	eor	r1, r1
    6da8:	91 1d       	adc	r25, r1
    6daa:	b2 9f       	mul	r27, r18
    6dac:	70 0d       	add	r23, r0
    6dae:	81 1d       	adc	r24, r1
    6db0:	11 24       	eor	r1, r1
    6db2:	91 1d       	adc	r25, r1
    6db4:	08 95       	ret

00006db6 <__usmulhisi3>:
    6db6:	f0 df       	rcall	.-32     	; 0x6d98 <__umulhisi3>

00006db8 <__usmulhisi3_tail>:
    6db8:	b7 ff       	sbrs	r27, 7
    6dba:	08 95       	ret
    6dbc:	82 1b       	sub	r24, r18
    6dbe:	93 0b       	sbc	r25, r19
    6dc0:	08 95       	ret

00006dc2 <__muluhisi3>:
    6dc2:	ea df       	rcall	.-44     	; 0x6d98 <__umulhisi3>
    6dc4:	a5 9f       	mul	r26, r21
    6dc6:	90 0d       	add	r25, r0
    6dc8:	b4 9f       	mul	r27, r20
    6dca:	90 0d       	add	r25, r0
    6dcc:	a4 9f       	mul	r26, r20
    6dce:	80 0d       	add	r24, r0
    6dd0:	91 1d       	adc	r25, r1
    6dd2:	11 24       	eor	r1, r1
    6dd4:	08 95       	ret

00006dd6 <malloc>:
    6dd6:	cf 93       	push	r28
    6dd8:	df 93       	push	r29
    6dda:	82 30       	cpi	r24, 0x02	; 2
    6ddc:	91 05       	cpc	r25, r1
    6dde:	10 f4       	brcc	.+4      	; 0x6de4 <malloc+0xe>
    6de0:	82 e0       	ldi	r24, 0x02	; 2
    6de2:	90 e0       	ldi	r25, 0x00	; 0
    6de4:	e0 91 18 10 	lds	r30, 0x1018	; 0x801018 <__flp>
    6de8:	f0 91 19 10 	lds	r31, 0x1019	; 0x801019 <__flp+0x1>
    6dec:	20 e0       	ldi	r18, 0x00	; 0
    6dee:	30 e0       	ldi	r19, 0x00	; 0
    6df0:	c0 e0       	ldi	r28, 0x00	; 0
    6df2:	d0 e0       	ldi	r29, 0x00	; 0
    6df4:	30 97       	sbiw	r30, 0x00	; 0
    6df6:	11 f1       	breq	.+68     	; 0x6e3c <malloc+0x66>
    6df8:	40 81       	ld	r20, Z
    6dfa:	51 81       	ldd	r21, Z+1	; 0x01
    6dfc:	48 17       	cp	r20, r24
    6dfe:	59 07       	cpc	r21, r25
    6e00:	c0 f0       	brcs	.+48     	; 0x6e32 <malloc+0x5c>
    6e02:	48 17       	cp	r20, r24
    6e04:	59 07       	cpc	r21, r25
    6e06:	61 f4       	brne	.+24     	; 0x6e20 <malloc+0x4a>
    6e08:	82 81       	ldd	r24, Z+2	; 0x02
    6e0a:	93 81       	ldd	r25, Z+3	; 0x03
    6e0c:	20 97       	sbiw	r28, 0x00	; 0
    6e0e:	19 f0       	breq	.+6      	; 0x6e16 <malloc+0x40>
    6e10:	9b 83       	std	Y+3, r25	; 0x03
    6e12:	8a 83       	std	Y+2, r24	; 0x02
    6e14:	2b c0       	rjmp	.+86     	; 0x6e6c <malloc+0x96>
    6e16:	90 93 19 10 	sts	0x1019, r25	; 0x801019 <__flp+0x1>
    6e1a:	80 93 18 10 	sts	0x1018, r24	; 0x801018 <__flp>
    6e1e:	26 c0       	rjmp	.+76     	; 0x6e6c <malloc+0x96>
    6e20:	21 15       	cp	r18, r1
    6e22:	31 05       	cpc	r19, r1
    6e24:	19 f0       	breq	.+6      	; 0x6e2c <malloc+0x56>
    6e26:	42 17       	cp	r20, r18
    6e28:	53 07       	cpc	r21, r19
    6e2a:	18 f4       	brcc	.+6      	; 0x6e32 <malloc+0x5c>
    6e2c:	9a 01       	movw	r18, r20
    6e2e:	be 01       	movw	r22, r28
    6e30:	df 01       	movw	r26, r30
    6e32:	ef 01       	movw	r28, r30
    6e34:	02 80       	ldd	r0, Z+2	; 0x02
    6e36:	f3 81       	ldd	r31, Z+3	; 0x03
    6e38:	e0 2d       	mov	r30, r0
    6e3a:	dc cf       	rjmp	.-72     	; 0x6df4 <malloc+0x1e>
    6e3c:	21 15       	cp	r18, r1
    6e3e:	31 05       	cpc	r19, r1
    6e40:	09 f1       	breq	.+66     	; 0x6e84 <malloc+0xae>
    6e42:	28 1b       	sub	r18, r24
    6e44:	39 0b       	sbc	r19, r25
    6e46:	24 30       	cpi	r18, 0x04	; 4
    6e48:	31 05       	cpc	r19, r1
    6e4a:	90 f4       	brcc	.+36     	; 0x6e70 <malloc+0x9a>
    6e4c:	12 96       	adiw	r26, 0x02	; 2
    6e4e:	8d 91       	ld	r24, X+
    6e50:	9c 91       	ld	r25, X
    6e52:	13 97       	sbiw	r26, 0x03	; 3
    6e54:	61 15       	cp	r22, r1
    6e56:	71 05       	cpc	r23, r1
    6e58:	21 f0       	breq	.+8      	; 0x6e62 <malloc+0x8c>
    6e5a:	fb 01       	movw	r30, r22
    6e5c:	93 83       	std	Z+3, r25	; 0x03
    6e5e:	82 83       	std	Z+2, r24	; 0x02
    6e60:	04 c0       	rjmp	.+8      	; 0x6e6a <malloc+0x94>
    6e62:	90 93 19 10 	sts	0x1019, r25	; 0x801019 <__flp+0x1>
    6e66:	80 93 18 10 	sts	0x1018, r24	; 0x801018 <__flp>
    6e6a:	fd 01       	movw	r30, r26
    6e6c:	32 96       	adiw	r30, 0x02	; 2
    6e6e:	44 c0       	rjmp	.+136    	; 0x6ef8 <malloc+0x122>
    6e70:	fd 01       	movw	r30, r26
    6e72:	e2 0f       	add	r30, r18
    6e74:	f3 1f       	adc	r31, r19
    6e76:	81 93       	st	Z+, r24
    6e78:	91 93       	st	Z+, r25
    6e7a:	22 50       	subi	r18, 0x02	; 2
    6e7c:	31 09       	sbc	r19, r1
    6e7e:	2d 93       	st	X+, r18
    6e80:	3c 93       	st	X, r19
    6e82:	3a c0       	rjmp	.+116    	; 0x6ef8 <malloc+0x122>
    6e84:	20 91 16 10 	lds	r18, 0x1016	; 0x801016 <__brkval>
    6e88:	30 91 17 10 	lds	r19, 0x1017	; 0x801017 <__brkval+0x1>
    6e8c:	23 2b       	or	r18, r19
    6e8e:	41 f4       	brne	.+16     	; 0x6ea0 <malloc+0xca>
    6e90:	20 91 02 02 	lds	r18, 0x0202	; 0x800202 <__malloc_heap_start>
    6e94:	30 91 03 02 	lds	r19, 0x0203	; 0x800203 <__malloc_heap_start+0x1>
    6e98:	30 93 17 10 	sts	0x1017, r19	; 0x801017 <__brkval+0x1>
    6e9c:	20 93 16 10 	sts	0x1016, r18	; 0x801016 <__brkval>
    6ea0:	20 91 00 02 	lds	r18, 0x0200	; 0x800200 <__data_start>
    6ea4:	30 91 01 02 	lds	r19, 0x0201	; 0x800201 <__data_start+0x1>
    6ea8:	21 15       	cp	r18, r1
    6eaa:	31 05       	cpc	r19, r1
    6eac:	41 f4       	brne	.+16     	; 0x6ebe <malloc+0xe8>
    6eae:	2d b7       	in	r18, 0x3d	; 61
    6eb0:	3e b7       	in	r19, 0x3e	; 62
    6eb2:	40 91 04 02 	lds	r20, 0x0204	; 0x800204 <__malloc_margin>
    6eb6:	50 91 05 02 	lds	r21, 0x0205	; 0x800205 <__malloc_margin+0x1>
    6eba:	24 1b       	sub	r18, r20
    6ebc:	35 0b       	sbc	r19, r21
    6ebe:	e0 91 16 10 	lds	r30, 0x1016	; 0x801016 <__brkval>
    6ec2:	f0 91 17 10 	lds	r31, 0x1017	; 0x801017 <__brkval+0x1>
    6ec6:	e2 17       	cp	r30, r18
    6ec8:	f3 07       	cpc	r31, r19
    6eca:	a0 f4       	brcc	.+40     	; 0x6ef4 <malloc+0x11e>
    6ecc:	2e 1b       	sub	r18, r30
    6ece:	3f 0b       	sbc	r19, r31
    6ed0:	28 17       	cp	r18, r24
    6ed2:	39 07       	cpc	r19, r25
    6ed4:	78 f0       	brcs	.+30     	; 0x6ef4 <malloc+0x11e>
    6ed6:	ac 01       	movw	r20, r24
    6ed8:	4e 5f       	subi	r20, 0xFE	; 254
    6eda:	5f 4f       	sbci	r21, 0xFF	; 255
    6edc:	24 17       	cp	r18, r20
    6ede:	35 07       	cpc	r19, r21
    6ee0:	48 f0       	brcs	.+18     	; 0x6ef4 <malloc+0x11e>
    6ee2:	4e 0f       	add	r20, r30
    6ee4:	5f 1f       	adc	r21, r31
    6ee6:	50 93 17 10 	sts	0x1017, r21	; 0x801017 <__brkval+0x1>
    6eea:	40 93 16 10 	sts	0x1016, r20	; 0x801016 <__brkval>
    6eee:	81 93       	st	Z+, r24
    6ef0:	91 93       	st	Z+, r25
    6ef2:	02 c0       	rjmp	.+4      	; 0x6ef8 <malloc+0x122>
    6ef4:	e0 e0       	ldi	r30, 0x00	; 0
    6ef6:	f0 e0       	ldi	r31, 0x00	; 0
    6ef8:	cf 01       	movw	r24, r30
    6efa:	df 91       	pop	r29
    6efc:	cf 91       	pop	r28
    6efe:	08 95       	ret

00006f00 <free>:
    6f00:	0f 93       	push	r16
    6f02:	1f 93       	push	r17
    6f04:	cf 93       	push	r28
    6f06:	df 93       	push	r29
    6f08:	00 97       	sbiw	r24, 0x00	; 0
    6f0a:	09 f4       	brne	.+2      	; 0x6f0e <free+0xe>
    6f0c:	8c c0       	rjmp	.+280    	; 0x7026 <free+0x126>
    6f0e:	fc 01       	movw	r30, r24
    6f10:	32 97       	sbiw	r30, 0x02	; 2
    6f12:	13 82       	std	Z+3, r1	; 0x03
    6f14:	12 82       	std	Z+2, r1	; 0x02
    6f16:	00 91 18 10 	lds	r16, 0x1018	; 0x801018 <__flp>
    6f1a:	10 91 19 10 	lds	r17, 0x1019	; 0x801019 <__flp+0x1>
    6f1e:	01 15       	cp	r16, r1
    6f20:	11 05       	cpc	r17, r1
    6f22:	81 f4       	brne	.+32     	; 0x6f44 <free+0x44>
    6f24:	20 81       	ld	r18, Z
    6f26:	31 81       	ldd	r19, Z+1	; 0x01
    6f28:	82 0f       	add	r24, r18
    6f2a:	93 1f       	adc	r25, r19
    6f2c:	20 91 16 10 	lds	r18, 0x1016	; 0x801016 <__brkval>
    6f30:	30 91 17 10 	lds	r19, 0x1017	; 0x801017 <__brkval+0x1>
    6f34:	28 17       	cp	r18, r24
    6f36:	39 07       	cpc	r19, r25
    6f38:	79 f5       	brne	.+94     	; 0x6f98 <free+0x98>
    6f3a:	f0 93 17 10 	sts	0x1017, r31	; 0x801017 <__brkval+0x1>
    6f3e:	e0 93 16 10 	sts	0x1016, r30	; 0x801016 <__brkval>
    6f42:	71 c0       	rjmp	.+226    	; 0x7026 <free+0x126>
    6f44:	d8 01       	movw	r26, r16
    6f46:	40 e0       	ldi	r20, 0x00	; 0
    6f48:	50 e0       	ldi	r21, 0x00	; 0
    6f4a:	ae 17       	cp	r26, r30
    6f4c:	bf 07       	cpc	r27, r31
    6f4e:	50 f4       	brcc	.+20     	; 0x6f64 <free+0x64>
    6f50:	12 96       	adiw	r26, 0x02	; 2
    6f52:	2d 91       	ld	r18, X+
    6f54:	3c 91       	ld	r19, X
    6f56:	13 97       	sbiw	r26, 0x03	; 3
    6f58:	ad 01       	movw	r20, r26
    6f5a:	21 15       	cp	r18, r1
    6f5c:	31 05       	cpc	r19, r1
    6f5e:	09 f1       	breq	.+66     	; 0x6fa2 <free+0xa2>
    6f60:	d9 01       	movw	r26, r18
    6f62:	f3 cf       	rjmp	.-26     	; 0x6f4a <free+0x4a>
    6f64:	9d 01       	movw	r18, r26
    6f66:	da 01       	movw	r26, r20
    6f68:	33 83       	std	Z+3, r19	; 0x03
    6f6a:	22 83       	std	Z+2, r18	; 0x02
    6f6c:	60 81       	ld	r22, Z
    6f6e:	71 81       	ldd	r23, Z+1	; 0x01
    6f70:	86 0f       	add	r24, r22
    6f72:	97 1f       	adc	r25, r23
    6f74:	82 17       	cp	r24, r18
    6f76:	93 07       	cpc	r25, r19
    6f78:	69 f4       	brne	.+26     	; 0x6f94 <free+0x94>
    6f7a:	ec 01       	movw	r28, r24
    6f7c:	28 81       	ld	r18, Y
    6f7e:	39 81       	ldd	r19, Y+1	; 0x01
    6f80:	26 0f       	add	r18, r22
    6f82:	37 1f       	adc	r19, r23
    6f84:	2e 5f       	subi	r18, 0xFE	; 254
    6f86:	3f 4f       	sbci	r19, 0xFF	; 255
    6f88:	31 83       	std	Z+1, r19	; 0x01
    6f8a:	20 83       	st	Z, r18
    6f8c:	8a 81       	ldd	r24, Y+2	; 0x02
    6f8e:	9b 81       	ldd	r25, Y+3	; 0x03
    6f90:	93 83       	std	Z+3, r25	; 0x03
    6f92:	82 83       	std	Z+2, r24	; 0x02
    6f94:	45 2b       	or	r20, r21
    6f96:	29 f4       	brne	.+10     	; 0x6fa2 <free+0xa2>
    6f98:	f0 93 19 10 	sts	0x1019, r31	; 0x801019 <__flp+0x1>
    6f9c:	e0 93 18 10 	sts	0x1018, r30	; 0x801018 <__flp>
    6fa0:	42 c0       	rjmp	.+132    	; 0x7026 <free+0x126>
    6fa2:	13 96       	adiw	r26, 0x03	; 3
    6fa4:	fc 93       	st	X, r31
    6fa6:	ee 93       	st	-X, r30
    6fa8:	12 97       	sbiw	r26, 0x02	; 2
    6faa:	ed 01       	movw	r28, r26
    6fac:	49 91       	ld	r20, Y+
    6fae:	59 91       	ld	r21, Y+
    6fb0:	9e 01       	movw	r18, r28
    6fb2:	24 0f       	add	r18, r20
    6fb4:	35 1f       	adc	r19, r21
    6fb6:	e2 17       	cp	r30, r18
    6fb8:	f3 07       	cpc	r31, r19
    6fba:	71 f4       	brne	.+28     	; 0x6fd8 <free+0xd8>
    6fbc:	80 81       	ld	r24, Z
    6fbe:	91 81       	ldd	r25, Z+1	; 0x01
    6fc0:	84 0f       	add	r24, r20
    6fc2:	95 1f       	adc	r25, r21
    6fc4:	02 96       	adiw	r24, 0x02	; 2
    6fc6:	11 96       	adiw	r26, 0x01	; 1
    6fc8:	9c 93       	st	X, r25
    6fca:	8e 93       	st	-X, r24
    6fcc:	82 81       	ldd	r24, Z+2	; 0x02
    6fce:	93 81       	ldd	r25, Z+3	; 0x03
    6fd0:	13 96       	adiw	r26, 0x03	; 3
    6fd2:	9c 93       	st	X, r25
    6fd4:	8e 93       	st	-X, r24
    6fd6:	12 97       	sbiw	r26, 0x02	; 2
    6fd8:	e0 e0       	ldi	r30, 0x00	; 0
    6fda:	f0 e0       	ldi	r31, 0x00	; 0
    6fdc:	d8 01       	movw	r26, r16
    6fde:	12 96       	adiw	r26, 0x02	; 2
    6fe0:	8d 91       	ld	r24, X+
    6fe2:	9c 91       	ld	r25, X
    6fe4:	13 97       	sbiw	r26, 0x03	; 3
    6fe6:	00 97       	sbiw	r24, 0x00	; 0
    6fe8:	19 f0       	breq	.+6      	; 0x6ff0 <free+0xf0>
    6fea:	f8 01       	movw	r30, r16
    6fec:	8c 01       	movw	r16, r24
    6fee:	f6 cf       	rjmp	.-20     	; 0x6fdc <free+0xdc>
    6ff0:	8d 91       	ld	r24, X+
    6ff2:	9c 91       	ld	r25, X
    6ff4:	98 01       	movw	r18, r16
    6ff6:	2e 5f       	subi	r18, 0xFE	; 254
    6ff8:	3f 4f       	sbci	r19, 0xFF	; 255
    6ffa:	82 0f       	add	r24, r18
    6ffc:	93 1f       	adc	r25, r19
    6ffe:	20 91 16 10 	lds	r18, 0x1016	; 0x801016 <__brkval>
    7002:	30 91 17 10 	lds	r19, 0x1017	; 0x801017 <__brkval+0x1>
    7006:	28 17       	cp	r18, r24
    7008:	39 07       	cpc	r19, r25
    700a:	69 f4       	brne	.+26     	; 0x7026 <free+0x126>
    700c:	30 97       	sbiw	r30, 0x00	; 0
    700e:	29 f4       	brne	.+10     	; 0x701a <free+0x11a>
    7010:	10 92 19 10 	sts	0x1019, r1	; 0x801019 <__flp+0x1>
    7014:	10 92 18 10 	sts	0x1018, r1	; 0x801018 <__flp>
    7018:	02 c0       	rjmp	.+4      	; 0x701e <free+0x11e>
    701a:	13 82       	std	Z+3, r1	; 0x03
    701c:	12 82       	std	Z+2, r1	; 0x02
    701e:	10 93 17 10 	sts	0x1017, r17	; 0x801017 <__brkval+0x1>
    7022:	00 93 16 10 	sts	0x1016, r16	; 0x801016 <__brkval>
    7026:	df 91       	pop	r29
    7028:	cf 91       	pop	r28
    702a:	1f 91       	pop	r17
    702c:	0f 91       	pop	r16
    702e:	08 95       	ret

00007030 <realloc>:
    7030:	6f 92       	push	r6
    7032:	7f 92       	push	r7
    7034:	8f 92       	push	r8
    7036:	9f 92       	push	r9
    7038:	af 92       	push	r10
    703a:	bf 92       	push	r11
    703c:	cf 92       	push	r12
    703e:	df 92       	push	r13
    7040:	ef 92       	push	r14
    7042:	ff 92       	push	r15
    7044:	0f 93       	push	r16
    7046:	1f 93       	push	r17
    7048:	cf 93       	push	r28
    704a:	df 93       	push	r29
    704c:	ec 01       	movw	r28, r24
    704e:	00 97       	sbiw	r24, 0x00	; 0
    7050:	81 f4       	brne	.+32     	; 0x7072 <realloc+0x42>
    7052:	cb 01       	movw	r24, r22
    7054:	df 91       	pop	r29
    7056:	cf 91       	pop	r28
    7058:	1f 91       	pop	r17
    705a:	0f 91       	pop	r16
    705c:	ff 90       	pop	r15
    705e:	ef 90       	pop	r14
    7060:	df 90       	pop	r13
    7062:	cf 90       	pop	r12
    7064:	bf 90       	pop	r11
    7066:	af 90       	pop	r10
    7068:	9f 90       	pop	r9
    706a:	8f 90       	pop	r8
    706c:	7f 90       	pop	r7
    706e:	6f 90       	pop	r6
    7070:	b2 ce       	rjmp	.-668    	; 0x6dd6 <malloc>
    7072:	fc 01       	movw	r30, r24
    7074:	e6 0f       	add	r30, r22
    7076:	f7 1f       	adc	r31, r23
    7078:	9c 01       	movw	r18, r24
    707a:	22 50       	subi	r18, 0x02	; 2
    707c:	31 09       	sbc	r19, r1
    707e:	e2 17       	cp	r30, r18
    7080:	f3 07       	cpc	r31, r19
    7082:	08 f4       	brcc	.+2      	; 0x7086 <realloc+0x56>
    7084:	a8 c0       	rjmp	.+336    	; 0x71d6 <realloc+0x1a6>
    7086:	d9 01       	movw	r26, r18
    7088:	0d 91       	ld	r16, X+
    708a:	1c 91       	ld	r17, X
    708c:	11 97       	sbiw	r26, 0x01	; 1
    708e:	06 17       	cp	r16, r22
    7090:	17 07       	cpc	r17, r23
    7092:	a8 f0       	brcs	.+42     	; 0x70be <realloc+0x8e>
    7094:	05 30       	cpi	r16, 0x05	; 5
    7096:	11 05       	cpc	r17, r1
    7098:	08 f4       	brcc	.+2      	; 0x709c <realloc+0x6c>
    709a:	9b c0       	rjmp	.+310    	; 0x71d2 <realloc+0x1a2>
    709c:	c8 01       	movw	r24, r16
    709e:	04 97       	sbiw	r24, 0x04	; 4
    70a0:	86 17       	cp	r24, r22
    70a2:	97 07       	cpc	r25, r23
    70a4:	08 f4       	brcc	.+2      	; 0x70a8 <realloc+0x78>
    70a6:	95 c0       	rjmp	.+298    	; 0x71d2 <realloc+0x1a2>
    70a8:	02 50       	subi	r16, 0x02	; 2
    70aa:	11 09       	sbc	r17, r1
    70ac:	06 1b       	sub	r16, r22
    70ae:	17 0b       	sbc	r17, r23
    70b0:	01 93       	st	Z+, r16
    70b2:	11 93       	st	Z+, r17
    70b4:	6d 93       	st	X+, r22
    70b6:	7c 93       	st	X, r23
    70b8:	cf 01       	movw	r24, r30
    70ba:	22 df       	rcall	.-444    	; 0x6f00 <free>
    70bc:	8a c0       	rjmp	.+276    	; 0x71d2 <realloc+0x1a2>
    70be:	5b 01       	movw	r10, r22
    70c0:	a0 1a       	sub	r10, r16
    70c2:	b1 0a       	sbc	r11, r17
    70c4:	4c 01       	movw	r8, r24
    70c6:	80 0e       	add	r8, r16
    70c8:	91 1e       	adc	r9, r17
    70ca:	a0 91 18 10 	lds	r26, 0x1018	; 0x801018 <__flp>
    70ce:	b0 91 19 10 	lds	r27, 0x1019	; 0x801019 <__flp+0x1>
    70d2:	40 e0       	ldi	r20, 0x00	; 0
    70d4:	50 e0       	ldi	r21, 0x00	; 0
    70d6:	e1 2c       	mov	r14, r1
    70d8:	f1 2c       	mov	r15, r1
    70da:	10 97       	sbiw	r26, 0x00	; 0
    70dc:	09 f4       	brne	.+2      	; 0x70e0 <realloc+0xb0>
    70de:	4a c0       	rjmp	.+148    	; 0x7174 <realloc+0x144>
    70e0:	a8 15       	cp	r26, r8
    70e2:	b9 05       	cpc	r27, r9
    70e4:	d1 f5       	brne	.+116    	; 0x715a <realloc+0x12a>
    70e6:	6d 90       	ld	r6, X+
    70e8:	7c 90       	ld	r7, X
    70ea:	11 97       	sbiw	r26, 0x01	; 1
    70ec:	63 01       	movw	r12, r6
    70ee:	82 e0       	ldi	r24, 0x02	; 2
    70f0:	c8 0e       	add	r12, r24
    70f2:	d1 1c       	adc	r13, r1
    70f4:	ca 14       	cp	r12, r10
    70f6:	db 04       	cpc	r13, r11
    70f8:	80 f1       	brcs	.+96     	; 0x715a <realloc+0x12a>
    70fa:	a3 01       	movw	r20, r6
    70fc:	4a 19       	sub	r20, r10
    70fe:	5b 09       	sbc	r21, r11
    7100:	6a 01       	movw	r12, r20
    7102:	82 e0       	ldi	r24, 0x02	; 2
    7104:	c8 0e       	add	r12, r24
    7106:	d1 1c       	adc	r13, r1
    7108:	12 96       	adiw	r26, 0x02	; 2
    710a:	bc 90       	ld	r11, X
    710c:	12 97       	sbiw	r26, 0x02	; 2
    710e:	13 96       	adiw	r26, 0x03	; 3
    7110:	ac 91       	ld	r26, X
    7112:	b5 e0       	ldi	r27, 0x05	; 5
    7114:	cb 16       	cp	r12, r27
    7116:	d1 04       	cpc	r13, r1
    7118:	40 f0       	brcs	.+16     	; 0x712a <realloc+0xfa>
    711a:	b2 82       	std	Z+2, r11	; 0x02
    711c:	a3 83       	std	Z+3, r26	; 0x03
    711e:	51 83       	std	Z+1, r21	; 0x01
    7120:	40 83       	st	Z, r20
    7122:	d9 01       	movw	r26, r18
    7124:	6d 93       	st	X+, r22
    7126:	7c 93       	st	X, r23
    7128:	0a c0       	rjmp	.+20     	; 0x713e <realloc+0x10e>
    712a:	0e 5f       	subi	r16, 0xFE	; 254
    712c:	1f 4f       	sbci	r17, 0xFF	; 255
    712e:	c3 01       	movw	r24, r6
    7130:	80 0f       	add	r24, r16
    7132:	91 1f       	adc	r25, r17
    7134:	f9 01       	movw	r30, r18
    7136:	91 83       	std	Z+1, r25	; 0x01
    7138:	80 83       	st	Z, r24
    713a:	eb 2d       	mov	r30, r11
    713c:	fa 2f       	mov	r31, r26
    713e:	e1 14       	cp	r14, r1
    7140:	f1 04       	cpc	r15, r1
    7142:	31 f0       	breq	.+12     	; 0x7150 <realloc+0x120>
    7144:	d7 01       	movw	r26, r14
    7146:	13 96       	adiw	r26, 0x03	; 3
    7148:	fc 93       	st	X, r31
    714a:	ee 93       	st	-X, r30
    714c:	12 97       	sbiw	r26, 0x02	; 2
    714e:	41 c0       	rjmp	.+130    	; 0x71d2 <realloc+0x1a2>
    7150:	f0 93 19 10 	sts	0x1019, r31	; 0x801019 <__flp+0x1>
    7154:	e0 93 18 10 	sts	0x1018, r30	; 0x801018 <__flp>
    7158:	3c c0       	rjmp	.+120    	; 0x71d2 <realloc+0x1a2>
    715a:	8d 91       	ld	r24, X+
    715c:	9c 91       	ld	r25, X
    715e:	11 97       	sbiw	r26, 0x01	; 1
    7160:	48 17       	cp	r20, r24
    7162:	59 07       	cpc	r21, r25
    7164:	08 f4       	brcc	.+2      	; 0x7168 <realloc+0x138>
    7166:	ac 01       	movw	r20, r24
    7168:	7d 01       	movw	r14, r26
    716a:	12 96       	adiw	r26, 0x02	; 2
    716c:	0d 90       	ld	r0, X+
    716e:	bc 91       	ld	r27, X
    7170:	a0 2d       	mov	r26, r0
    7172:	b3 cf       	rjmp	.-154    	; 0x70da <realloc+0xaa>
    7174:	80 91 16 10 	lds	r24, 0x1016	; 0x801016 <__brkval>
    7178:	90 91 17 10 	lds	r25, 0x1017	; 0x801017 <__brkval+0x1>
    717c:	88 15       	cp	r24, r8
    717e:	99 05       	cpc	r25, r9
    7180:	e1 f4       	brne	.+56     	; 0x71ba <realloc+0x18a>
    7182:	46 17       	cp	r20, r22
    7184:	57 07       	cpc	r21, r23
    7186:	c8 f4       	brcc	.+50     	; 0x71ba <realloc+0x18a>
    7188:	80 91 00 02 	lds	r24, 0x0200	; 0x800200 <__data_start>
    718c:	90 91 01 02 	lds	r25, 0x0201	; 0x800201 <__data_start+0x1>
    7190:	00 97       	sbiw	r24, 0x00	; 0
    7192:	41 f4       	brne	.+16     	; 0x71a4 <realloc+0x174>
    7194:	8d b7       	in	r24, 0x3d	; 61
    7196:	9e b7       	in	r25, 0x3e	; 62
    7198:	40 91 04 02 	lds	r20, 0x0204	; 0x800204 <__malloc_margin>
    719c:	50 91 05 02 	lds	r21, 0x0205	; 0x800205 <__malloc_margin+0x1>
    71a0:	84 1b       	sub	r24, r20
    71a2:	95 0b       	sbc	r25, r21
    71a4:	e8 17       	cp	r30, r24
    71a6:	f9 07       	cpc	r31, r25
    71a8:	b0 f4       	brcc	.+44     	; 0x71d6 <realloc+0x1a6>
    71aa:	f0 93 17 10 	sts	0x1017, r31	; 0x801017 <__brkval+0x1>
    71ae:	e0 93 16 10 	sts	0x1016, r30	; 0x801016 <__brkval>
    71b2:	f9 01       	movw	r30, r18
    71b4:	71 83       	std	Z+1, r23	; 0x01
    71b6:	60 83       	st	Z, r22
    71b8:	0c c0       	rjmp	.+24     	; 0x71d2 <realloc+0x1a2>
    71ba:	cb 01       	movw	r24, r22
    71bc:	0c de       	rcall	.-1000   	; 0x6dd6 <malloc>
    71be:	7c 01       	movw	r14, r24
    71c0:	00 97       	sbiw	r24, 0x00	; 0
    71c2:	49 f0       	breq	.+18     	; 0x71d6 <realloc+0x1a6>
    71c4:	a8 01       	movw	r20, r16
    71c6:	be 01       	movw	r22, r28
    71c8:	23 d0       	rcall	.+70     	; 0x7210 <memcpy>
    71ca:	ce 01       	movw	r24, r28
    71cc:	99 de       	rcall	.-718    	; 0x6f00 <free>
    71ce:	c7 01       	movw	r24, r14
    71d0:	04 c0       	rjmp	.+8      	; 0x71da <realloc+0x1aa>
    71d2:	ce 01       	movw	r24, r28
    71d4:	02 c0       	rjmp	.+4      	; 0x71da <realloc+0x1aa>
    71d6:	80 e0       	ldi	r24, 0x00	; 0
    71d8:	90 e0       	ldi	r25, 0x00	; 0
    71da:	df 91       	pop	r29
    71dc:	cf 91       	pop	r28
    71de:	1f 91       	pop	r17
    71e0:	0f 91       	pop	r16
    71e2:	ff 90       	pop	r15
    71e4:	ef 90       	pop	r14
    71e6:	df 90       	pop	r13
    71e8:	cf 90       	pop	r12
    71ea:	bf 90       	pop	r11
    71ec:	af 90       	pop	r10
    71ee:	9f 90       	pop	r9
    71f0:	8f 90       	pop	r8
    71f2:	7f 90       	pop	r7
    71f4:	6f 90       	pop	r6
    71f6:	08 95       	ret

000071f8 <abort>:
    71f8:	81 e0       	ldi	r24, 0x01	; 1
    71fa:	90 e0       	ldi	r25, 0x00	; 0
    71fc:	f8 94       	cli
    71fe:	21 c0       	rjmp	.+66     	; 0x7242 <__do_global_dtors>

00007200 <toupper>:
    7200:	91 11       	cpse	r25, r1
    7202:	08 95       	ret
    7204:	81 56       	subi	r24, 0x61	; 97
    7206:	8a 51       	subi	r24, 0x1A	; 26
    7208:	08 f4       	brcc	.+2      	; 0x720c <toupper+0xc>
    720a:	80 52       	subi	r24, 0x20	; 32
    720c:	85 58       	subi	r24, 0x85	; 133
    720e:	08 95       	ret

00007210 <memcpy>:
    7210:	fb 01       	movw	r30, r22
    7212:	dc 01       	movw	r26, r24
    7214:	02 c0       	rjmp	.+4      	; 0x721a <memcpy+0xa>
    7216:	01 90       	ld	r0, Z+
    7218:	0d 92       	st	X+, r0
    721a:	41 50       	subi	r20, 0x01	; 1
    721c:	50 40       	sbci	r21, 0x00	; 0
    721e:	d8 f7       	brcc	.-10     	; 0x7216 <memcpy+0x6>
    7220:	08 95       	ret

00007222 <strcmp>:
    7222:	fb 01       	movw	r30, r22
    7224:	dc 01       	movw	r26, r24
    7226:	8d 91       	ld	r24, X+
    7228:	01 90       	ld	r0, Z+
    722a:	80 19       	sub	r24, r0
    722c:	01 10       	cpse	r0, r1
    722e:	d9 f3       	breq	.-10     	; 0x7226 <strcmp+0x4>
    7230:	99 0b       	sbc	r25, r25
    7232:	08 95       	ret

00007234 <strcpy>:
    7234:	fb 01       	movw	r30, r22
    7236:	dc 01       	movw	r26, r24
    7238:	01 90       	ld	r0, Z+
    723a:	0d 92       	st	X+, r0
    723c:	00 20       	and	r0, r0
    723e:	e1 f7       	brne	.-8      	; 0x7238 <strcpy+0x4>
    7240:	08 95       	ret

00007242 <__do_global_dtors>:
    7242:	14 e0       	ldi	r17, 0x04	; 4
    7244:	c7 e0       	ldi	r28, 0x07	; 7
    7246:	d4 e0       	ldi	r29, 0x04	; 4
    7248:	00 e0       	ldi	r16, 0x00	; 0
    724a:	05 c0       	rjmp	.+10     	; 0x7256 <__do_global_dtors+0x14>
    724c:	80 2f       	mov	r24, r16
    724e:	fe 01       	movw	r30, r28
    7250:	9b dd       	rcall	.-1226   	; 0x6d88 <__tablejump2__>
    7252:	21 96       	adiw	r28, 0x01	; 1
    7254:	01 1d       	adc	r16, r1
    7256:	c8 30       	cpi	r28, 0x08	; 8
    7258:	d1 07       	cpc	r29, r17
    725a:	80 e0       	ldi	r24, 0x00	; 0
    725c:	08 07       	cpc	r16, r24
    725e:	b1 f7       	brne	.-20     	; 0x724c <__do_global_dtors+0xa>
    7260:	f8 94       	cli

00007262 <__stop_program>:
    7262:	ff cf       	rjmp	.-2      	; 0x7262 <__stop_program>
